ARM GAS  C:\Users\GUILLE~1\AppData\Local\Temp\ccFiIgVY.s 			page 1


   1              		.cpu cortex-m7
   2              		.eabi_attribute 28, 1
   3              		.eabi_attribute 20, 1
   4              		.eabi_attribute 21, 1
   5              		.eabi_attribute 23, 3
   6              		.eabi_attribute 24, 1
   7              		.eabi_attribute 25, 1
   8              		.eabi_attribute 26, 1
   9              		.eabi_attribute 30, 1
  10              		.eabi_attribute 34, 1
  11              		.eabi_attribute 18, 4
  12              		.file	"stm32h7xx_hal_uart_ex.c"
  13              		.text
  14              	.Ltext0:
  15              		.cfi_sections	.debug_frame
  16              		.section	.text.UARTEx_Wakeup_AddressConfig,"ax",%progbits
  17              		.align	1
  18              		.arch armv7e-m
  19              		.syntax unified
  20              		.thumb
  21              		.thumb_func
  22              		.fpu fpv5-d16
  24              	UARTEx_Wakeup_AddressConfig:
  25              	.LVL0:
  26              	.LFB159:
  27              		.file 1 "Drivers/STM32H7xx_HAL_Driver/Src/stm32h7xx_hal_uart_ex.c"
   1:Drivers/STM32H7xx_HAL_Driver/Src/stm32h7xx_hal_uart_ex.c **** /**
   2:Drivers/STM32H7xx_HAL_Driver/Src/stm32h7xx_hal_uart_ex.c ****   ******************************************************************************
   3:Drivers/STM32H7xx_HAL_Driver/Src/stm32h7xx_hal_uart_ex.c ****   * @file    stm32h7xx_hal_uart_ex.c
   4:Drivers/STM32H7xx_HAL_Driver/Src/stm32h7xx_hal_uart_ex.c ****   * @author  MCD Application Team
   5:Drivers/STM32H7xx_HAL_Driver/Src/stm32h7xx_hal_uart_ex.c ****   * @brief   Extended UART HAL module driver.
   6:Drivers/STM32H7xx_HAL_Driver/Src/stm32h7xx_hal_uart_ex.c ****   *          This file provides firmware functions to manage the following extended
   7:Drivers/STM32H7xx_HAL_Driver/Src/stm32h7xx_hal_uart_ex.c ****   *          functionalities of the Universal Asynchronous Receiver Transmitter Peripheral (UART).
   8:Drivers/STM32H7xx_HAL_Driver/Src/stm32h7xx_hal_uart_ex.c ****   *           + Initialization and de-initialization functions
   9:Drivers/STM32H7xx_HAL_Driver/Src/stm32h7xx_hal_uart_ex.c ****   *           + Peripheral Control functions
  10:Drivers/STM32H7xx_HAL_Driver/Src/stm32h7xx_hal_uart_ex.c ****   *
  11:Drivers/STM32H7xx_HAL_Driver/Src/stm32h7xx_hal_uart_ex.c ****   *
  12:Drivers/STM32H7xx_HAL_Driver/Src/stm32h7xx_hal_uart_ex.c ****   @verbatim
  13:Drivers/STM32H7xx_HAL_Driver/Src/stm32h7xx_hal_uart_ex.c ****   ==============================================================================
  14:Drivers/STM32H7xx_HAL_Driver/Src/stm32h7xx_hal_uart_ex.c ****                ##### UART peripheral extended features  #####
  15:Drivers/STM32H7xx_HAL_Driver/Src/stm32h7xx_hal_uart_ex.c ****   ==============================================================================
  16:Drivers/STM32H7xx_HAL_Driver/Src/stm32h7xx_hal_uart_ex.c **** 
  17:Drivers/STM32H7xx_HAL_Driver/Src/stm32h7xx_hal_uart_ex.c ****     (#) Declare a UART_HandleTypeDef handle structure.
  18:Drivers/STM32H7xx_HAL_Driver/Src/stm32h7xx_hal_uart_ex.c **** 
  19:Drivers/STM32H7xx_HAL_Driver/Src/stm32h7xx_hal_uart_ex.c ****     (#) For the UART RS485 Driver Enable mode, initialize the UART registers
  20:Drivers/STM32H7xx_HAL_Driver/Src/stm32h7xx_hal_uart_ex.c ****         by calling the HAL_RS485Ex_Init() API.
  21:Drivers/STM32H7xx_HAL_Driver/Src/stm32h7xx_hal_uart_ex.c **** 
  22:Drivers/STM32H7xx_HAL_Driver/Src/stm32h7xx_hal_uart_ex.c ****     (#) FIFO mode enabling/disabling and RX/TX FIFO threshold programming.
  23:Drivers/STM32H7xx_HAL_Driver/Src/stm32h7xx_hal_uart_ex.c **** 
  24:Drivers/STM32H7xx_HAL_Driver/Src/stm32h7xx_hal_uart_ex.c ****         -@- When UART operates in FIFO mode, FIFO mode must be enabled prior
  25:Drivers/STM32H7xx_HAL_Driver/Src/stm32h7xx_hal_uart_ex.c ****             starting RX/TX transfers. Also RX/TX FIFO thresholds must be
  26:Drivers/STM32H7xx_HAL_Driver/Src/stm32h7xx_hal_uart_ex.c ****             configured prior starting RX/TX transfers.
  27:Drivers/STM32H7xx_HAL_Driver/Src/stm32h7xx_hal_uart_ex.c **** 
  28:Drivers/STM32H7xx_HAL_Driver/Src/stm32h7xx_hal_uart_ex.c ****   @endverbatim
  29:Drivers/STM32H7xx_HAL_Driver/Src/stm32h7xx_hal_uart_ex.c ****   ******************************************************************************
  30:Drivers/STM32H7xx_HAL_Driver/Src/stm32h7xx_hal_uart_ex.c ****   * @attention
  31:Drivers/STM32H7xx_HAL_Driver/Src/stm32h7xx_hal_uart_ex.c ****   *
ARM GAS  C:\Users\GUILLE~1\AppData\Local\Temp\ccFiIgVY.s 			page 2


  32:Drivers/STM32H7xx_HAL_Driver/Src/stm32h7xx_hal_uart_ex.c ****   * <h2><center>&copy; Copyright (c) 2017 STMicroelectronics.
  33:Drivers/STM32H7xx_HAL_Driver/Src/stm32h7xx_hal_uart_ex.c ****   * All rights reserved.</center></h2>
  34:Drivers/STM32H7xx_HAL_Driver/Src/stm32h7xx_hal_uart_ex.c ****   *
  35:Drivers/STM32H7xx_HAL_Driver/Src/stm32h7xx_hal_uart_ex.c ****   * This software component is licensed by ST under BSD 3-Clause license,
  36:Drivers/STM32H7xx_HAL_Driver/Src/stm32h7xx_hal_uart_ex.c ****   * the "License"; You may not use this file except in compliance with the
  37:Drivers/STM32H7xx_HAL_Driver/Src/stm32h7xx_hal_uart_ex.c ****   * License. You may obtain a copy of the License at:
  38:Drivers/STM32H7xx_HAL_Driver/Src/stm32h7xx_hal_uart_ex.c ****   *                        opensource.org/licenses/BSD-3-Clause
  39:Drivers/STM32H7xx_HAL_Driver/Src/stm32h7xx_hal_uart_ex.c ****   *
  40:Drivers/STM32H7xx_HAL_Driver/Src/stm32h7xx_hal_uart_ex.c ****   ******************************************************************************
  41:Drivers/STM32H7xx_HAL_Driver/Src/stm32h7xx_hal_uart_ex.c ****   */
  42:Drivers/STM32H7xx_HAL_Driver/Src/stm32h7xx_hal_uart_ex.c **** 
  43:Drivers/STM32H7xx_HAL_Driver/Src/stm32h7xx_hal_uart_ex.c **** /* Includes ------------------------------------------------------------------*/
  44:Drivers/STM32H7xx_HAL_Driver/Src/stm32h7xx_hal_uart_ex.c **** #include "stm32h7xx_hal.h"
  45:Drivers/STM32H7xx_HAL_Driver/Src/stm32h7xx_hal_uart_ex.c **** 
  46:Drivers/STM32H7xx_HAL_Driver/Src/stm32h7xx_hal_uart_ex.c **** /** @addtogroup STM32H7xx_HAL_Driver
  47:Drivers/STM32H7xx_HAL_Driver/Src/stm32h7xx_hal_uart_ex.c ****   * @{
  48:Drivers/STM32H7xx_HAL_Driver/Src/stm32h7xx_hal_uart_ex.c ****   */
  49:Drivers/STM32H7xx_HAL_Driver/Src/stm32h7xx_hal_uart_ex.c **** 
  50:Drivers/STM32H7xx_HAL_Driver/Src/stm32h7xx_hal_uart_ex.c **** /** @defgroup UARTEx UARTEx
  51:Drivers/STM32H7xx_HAL_Driver/Src/stm32h7xx_hal_uart_ex.c ****   * @brief UART Extended HAL module driver
  52:Drivers/STM32H7xx_HAL_Driver/Src/stm32h7xx_hal_uart_ex.c ****   * @{
  53:Drivers/STM32H7xx_HAL_Driver/Src/stm32h7xx_hal_uart_ex.c ****   */
  54:Drivers/STM32H7xx_HAL_Driver/Src/stm32h7xx_hal_uart_ex.c **** 
  55:Drivers/STM32H7xx_HAL_Driver/Src/stm32h7xx_hal_uart_ex.c **** #ifdef HAL_UART_MODULE_ENABLED
  56:Drivers/STM32H7xx_HAL_Driver/Src/stm32h7xx_hal_uart_ex.c **** 
  57:Drivers/STM32H7xx_HAL_Driver/Src/stm32h7xx_hal_uart_ex.c **** /* Private typedef -----------------------------------------------------------*/
  58:Drivers/STM32H7xx_HAL_Driver/Src/stm32h7xx_hal_uart_ex.c **** /* Private define ------------------------------------------------------------*/
  59:Drivers/STM32H7xx_HAL_Driver/Src/stm32h7xx_hal_uart_ex.c **** /** @defgroup UARTEX_Private_Constants UARTEx Private Constants
  60:Drivers/STM32H7xx_HAL_Driver/Src/stm32h7xx_hal_uart_ex.c ****   * @{
  61:Drivers/STM32H7xx_HAL_Driver/Src/stm32h7xx_hal_uart_ex.c ****   */
  62:Drivers/STM32H7xx_HAL_Driver/Src/stm32h7xx_hal_uart_ex.c **** /* UART RX FIFO depth */
  63:Drivers/STM32H7xx_HAL_Driver/Src/stm32h7xx_hal_uart_ex.c **** #define RX_FIFO_DEPTH 16U
  64:Drivers/STM32H7xx_HAL_Driver/Src/stm32h7xx_hal_uart_ex.c **** 
  65:Drivers/STM32H7xx_HAL_Driver/Src/stm32h7xx_hal_uart_ex.c **** /* UART TX FIFO depth */
  66:Drivers/STM32H7xx_HAL_Driver/Src/stm32h7xx_hal_uart_ex.c **** #define TX_FIFO_DEPTH 16U
  67:Drivers/STM32H7xx_HAL_Driver/Src/stm32h7xx_hal_uart_ex.c **** /**
  68:Drivers/STM32H7xx_HAL_Driver/Src/stm32h7xx_hal_uart_ex.c ****   * @}
  69:Drivers/STM32H7xx_HAL_Driver/Src/stm32h7xx_hal_uart_ex.c ****   */
  70:Drivers/STM32H7xx_HAL_Driver/Src/stm32h7xx_hal_uart_ex.c **** 
  71:Drivers/STM32H7xx_HAL_Driver/Src/stm32h7xx_hal_uart_ex.c **** /* Private macros ------------------------------------------------------------*/
  72:Drivers/STM32H7xx_HAL_Driver/Src/stm32h7xx_hal_uart_ex.c **** /* Private variables ---------------------------------------------------------*/
  73:Drivers/STM32H7xx_HAL_Driver/Src/stm32h7xx_hal_uart_ex.c **** /* Private function prototypes -----------------------------------------------*/
  74:Drivers/STM32H7xx_HAL_Driver/Src/stm32h7xx_hal_uart_ex.c **** /** @defgroup UARTEx_Private_Functions UARTEx Private Functions
  75:Drivers/STM32H7xx_HAL_Driver/Src/stm32h7xx_hal_uart_ex.c ****   * @{
  76:Drivers/STM32H7xx_HAL_Driver/Src/stm32h7xx_hal_uart_ex.c ****   */
  77:Drivers/STM32H7xx_HAL_Driver/Src/stm32h7xx_hal_uart_ex.c **** static void UARTEx_Wakeup_AddressConfig(UART_HandleTypeDef *huart, UART_WakeUpTypeDef WakeUpSelecti
  78:Drivers/STM32H7xx_HAL_Driver/Src/stm32h7xx_hal_uart_ex.c **** static void UARTEx_SetNbDataToProcess(UART_HandleTypeDef *huart);
  79:Drivers/STM32H7xx_HAL_Driver/Src/stm32h7xx_hal_uart_ex.c **** /**
  80:Drivers/STM32H7xx_HAL_Driver/Src/stm32h7xx_hal_uart_ex.c ****   * @}
  81:Drivers/STM32H7xx_HAL_Driver/Src/stm32h7xx_hal_uart_ex.c ****   */
  82:Drivers/STM32H7xx_HAL_Driver/Src/stm32h7xx_hal_uart_ex.c **** 
  83:Drivers/STM32H7xx_HAL_Driver/Src/stm32h7xx_hal_uart_ex.c **** /* Exported functions --------------------------------------------------------*/
  84:Drivers/STM32H7xx_HAL_Driver/Src/stm32h7xx_hal_uart_ex.c **** 
  85:Drivers/STM32H7xx_HAL_Driver/Src/stm32h7xx_hal_uart_ex.c **** /** @defgroup UARTEx_Exported_Functions  UARTEx Exported Functions
  86:Drivers/STM32H7xx_HAL_Driver/Src/stm32h7xx_hal_uart_ex.c ****   * @{
  87:Drivers/STM32H7xx_HAL_Driver/Src/stm32h7xx_hal_uart_ex.c ****   */
  88:Drivers/STM32H7xx_HAL_Driver/Src/stm32h7xx_hal_uart_ex.c **** 
ARM GAS  C:\Users\GUILLE~1\AppData\Local\Temp\ccFiIgVY.s 			page 3


  89:Drivers/STM32H7xx_HAL_Driver/Src/stm32h7xx_hal_uart_ex.c **** /** @defgroup UARTEx_Exported_Functions_Group1 Initialization and de-initialization functions
  90:Drivers/STM32H7xx_HAL_Driver/Src/stm32h7xx_hal_uart_ex.c ****   * @brief    Extended Initialization and Configuration Functions
  91:Drivers/STM32H7xx_HAL_Driver/Src/stm32h7xx_hal_uart_ex.c ****   *
  92:Drivers/STM32H7xx_HAL_Driver/Src/stm32h7xx_hal_uart_ex.c **** @verbatim
  93:Drivers/STM32H7xx_HAL_Driver/Src/stm32h7xx_hal_uart_ex.c **** ===============================================================================
  94:Drivers/STM32H7xx_HAL_Driver/Src/stm32h7xx_hal_uart_ex.c ****             ##### Initialization and Configuration functions #####
  95:Drivers/STM32H7xx_HAL_Driver/Src/stm32h7xx_hal_uart_ex.c ****  ===============================================================================
  96:Drivers/STM32H7xx_HAL_Driver/Src/stm32h7xx_hal_uart_ex.c ****     [..]
  97:Drivers/STM32H7xx_HAL_Driver/Src/stm32h7xx_hal_uart_ex.c ****     This subsection provides a set of functions allowing to initialize the USARTx or the UARTy
  98:Drivers/STM32H7xx_HAL_Driver/Src/stm32h7xx_hal_uart_ex.c ****     in asynchronous mode.
  99:Drivers/STM32H7xx_HAL_Driver/Src/stm32h7xx_hal_uart_ex.c ****       (+) For the asynchronous mode the parameters below can be configured:
 100:Drivers/STM32H7xx_HAL_Driver/Src/stm32h7xx_hal_uart_ex.c ****         (++) Baud Rate
 101:Drivers/STM32H7xx_HAL_Driver/Src/stm32h7xx_hal_uart_ex.c ****         (++) Word Length
 102:Drivers/STM32H7xx_HAL_Driver/Src/stm32h7xx_hal_uart_ex.c ****         (++) Stop Bit
 103:Drivers/STM32H7xx_HAL_Driver/Src/stm32h7xx_hal_uart_ex.c ****         (++) Parity: If the parity is enabled, then the MSB bit of the data written
 104:Drivers/STM32H7xx_HAL_Driver/Src/stm32h7xx_hal_uart_ex.c ****              in the data register is transmitted but is changed by the parity bit.
 105:Drivers/STM32H7xx_HAL_Driver/Src/stm32h7xx_hal_uart_ex.c ****         (++) Hardware flow control
 106:Drivers/STM32H7xx_HAL_Driver/Src/stm32h7xx_hal_uart_ex.c ****         (++) Receiver/transmitter modes
 107:Drivers/STM32H7xx_HAL_Driver/Src/stm32h7xx_hal_uart_ex.c ****         (++) Over Sampling Method
 108:Drivers/STM32H7xx_HAL_Driver/Src/stm32h7xx_hal_uart_ex.c ****         (++) One-Bit Sampling Method
 109:Drivers/STM32H7xx_HAL_Driver/Src/stm32h7xx_hal_uart_ex.c ****       (+) For the asynchronous mode, the following advanced features can be configured as well:
 110:Drivers/STM32H7xx_HAL_Driver/Src/stm32h7xx_hal_uart_ex.c ****         (++) TX and/or RX pin level inversion
 111:Drivers/STM32H7xx_HAL_Driver/Src/stm32h7xx_hal_uart_ex.c ****         (++) data logical level inversion
 112:Drivers/STM32H7xx_HAL_Driver/Src/stm32h7xx_hal_uart_ex.c ****         (++) RX and TX pins swap
 113:Drivers/STM32H7xx_HAL_Driver/Src/stm32h7xx_hal_uart_ex.c ****         (++) RX overrun detection disabling
 114:Drivers/STM32H7xx_HAL_Driver/Src/stm32h7xx_hal_uart_ex.c ****         (++) DMA disabling on RX error
 115:Drivers/STM32H7xx_HAL_Driver/Src/stm32h7xx_hal_uart_ex.c ****         (++) MSB first on communication line
 116:Drivers/STM32H7xx_HAL_Driver/Src/stm32h7xx_hal_uart_ex.c ****         (++) auto Baud rate detection
 117:Drivers/STM32H7xx_HAL_Driver/Src/stm32h7xx_hal_uart_ex.c ****     [..]
 118:Drivers/STM32H7xx_HAL_Driver/Src/stm32h7xx_hal_uart_ex.c ****     The HAL_RS485Ex_Init() API follows the UART RS485 mode configuration
 119:Drivers/STM32H7xx_HAL_Driver/Src/stm32h7xx_hal_uart_ex.c ****      procedures (details for the procedures are available in reference manual).
 120:Drivers/STM32H7xx_HAL_Driver/Src/stm32h7xx_hal_uart_ex.c **** 
 121:Drivers/STM32H7xx_HAL_Driver/Src/stm32h7xx_hal_uart_ex.c **** @endverbatim
 122:Drivers/STM32H7xx_HAL_Driver/Src/stm32h7xx_hal_uart_ex.c **** 
 123:Drivers/STM32H7xx_HAL_Driver/Src/stm32h7xx_hal_uart_ex.c ****   Depending on the frame length defined by the M1 and M0 bits (7-bit,
 124:Drivers/STM32H7xx_HAL_Driver/Src/stm32h7xx_hal_uart_ex.c ****   8-bit or 9-bit), the possible UART formats are listed in the
 125:Drivers/STM32H7xx_HAL_Driver/Src/stm32h7xx_hal_uart_ex.c ****   following table.
 126:Drivers/STM32H7xx_HAL_Driver/Src/stm32h7xx_hal_uart_ex.c **** 
 127:Drivers/STM32H7xx_HAL_Driver/Src/stm32h7xx_hal_uart_ex.c ****     Table 1. UART frame format.
 128:Drivers/STM32H7xx_HAL_Driver/Src/stm32h7xx_hal_uart_ex.c ****     +-----------------------------------------------------------------------+
 129:Drivers/STM32H7xx_HAL_Driver/Src/stm32h7xx_hal_uart_ex.c ****     |  M1 bit |  M0 bit |  PCE bit  |             UART frame                |
 130:Drivers/STM32H7xx_HAL_Driver/Src/stm32h7xx_hal_uart_ex.c ****     |---------|---------|-----------|---------------------------------------|
 131:Drivers/STM32H7xx_HAL_Driver/Src/stm32h7xx_hal_uart_ex.c ****     |    0    |    0    |    0      |    | SB |    8 bit data   | STB |     |
 132:Drivers/STM32H7xx_HAL_Driver/Src/stm32h7xx_hal_uart_ex.c ****     |---------|---------|-----------|---------------------------------------|
 133:Drivers/STM32H7xx_HAL_Driver/Src/stm32h7xx_hal_uart_ex.c ****     |    0    |    0    |    1      |    | SB | 7 bit data | PB | STB |     |
 134:Drivers/STM32H7xx_HAL_Driver/Src/stm32h7xx_hal_uart_ex.c ****     |---------|---------|-----------|---------------------------------------|
 135:Drivers/STM32H7xx_HAL_Driver/Src/stm32h7xx_hal_uart_ex.c ****     |    0    |    1    |    0      |    | SB |    9 bit data   | STB |     |
 136:Drivers/STM32H7xx_HAL_Driver/Src/stm32h7xx_hal_uart_ex.c ****     |---------|---------|-----------|---------------------------------------|
 137:Drivers/STM32H7xx_HAL_Driver/Src/stm32h7xx_hal_uart_ex.c ****     |    0    |    1    |    1      |    | SB | 8 bit data | PB | STB |     |
 138:Drivers/STM32H7xx_HAL_Driver/Src/stm32h7xx_hal_uart_ex.c ****     |---------|---------|-----------|---------------------------------------|
 139:Drivers/STM32H7xx_HAL_Driver/Src/stm32h7xx_hal_uart_ex.c ****     |    1    |    0    |    0      |    | SB |    7 bit data   | STB |     |
 140:Drivers/STM32H7xx_HAL_Driver/Src/stm32h7xx_hal_uart_ex.c ****     |---------|---------|-----------|---------------------------------------|
 141:Drivers/STM32H7xx_HAL_Driver/Src/stm32h7xx_hal_uart_ex.c ****     |    1    |    0    |    1      |    | SB | 6 bit data | PB | STB |     |
 142:Drivers/STM32H7xx_HAL_Driver/Src/stm32h7xx_hal_uart_ex.c ****     +-----------------------------------------------------------------------+
 143:Drivers/STM32H7xx_HAL_Driver/Src/stm32h7xx_hal_uart_ex.c **** 
 144:Drivers/STM32H7xx_HAL_Driver/Src/stm32h7xx_hal_uart_ex.c ****   * @{
 145:Drivers/STM32H7xx_HAL_Driver/Src/stm32h7xx_hal_uart_ex.c ****   */
ARM GAS  C:\Users\GUILLE~1\AppData\Local\Temp\ccFiIgVY.s 			page 4


 146:Drivers/STM32H7xx_HAL_Driver/Src/stm32h7xx_hal_uart_ex.c **** 
 147:Drivers/STM32H7xx_HAL_Driver/Src/stm32h7xx_hal_uart_ex.c **** /**
 148:Drivers/STM32H7xx_HAL_Driver/Src/stm32h7xx_hal_uart_ex.c ****   * @brief Initialize the RS485 Driver enable feature according to the specified
 149:Drivers/STM32H7xx_HAL_Driver/Src/stm32h7xx_hal_uart_ex.c ****   *         parameters in the UART_InitTypeDef and creates the associated handle.
 150:Drivers/STM32H7xx_HAL_Driver/Src/stm32h7xx_hal_uart_ex.c ****   * @param huart            UART handle.
 151:Drivers/STM32H7xx_HAL_Driver/Src/stm32h7xx_hal_uart_ex.c ****   * @param Polarity         Select the driver enable polarity.
 152:Drivers/STM32H7xx_HAL_Driver/Src/stm32h7xx_hal_uart_ex.c ****   *          This parameter can be one of the following values:
 153:Drivers/STM32H7xx_HAL_Driver/Src/stm32h7xx_hal_uart_ex.c ****   *          @arg @ref UART_DE_POLARITY_HIGH DE signal is active high
 154:Drivers/STM32H7xx_HAL_Driver/Src/stm32h7xx_hal_uart_ex.c ****   *          @arg @ref UART_DE_POLARITY_LOW  DE signal is active low
 155:Drivers/STM32H7xx_HAL_Driver/Src/stm32h7xx_hal_uart_ex.c ****   * @param AssertionTime    Driver Enable assertion time:
 156:Drivers/STM32H7xx_HAL_Driver/Src/stm32h7xx_hal_uart_ex.c ****   *       5-bit value defining the time between the activation of the DE (Driver Enable)
 157:Drivers/STM32H7xx_HAL_Driver/Src/stm32h7xx_hal_uart_ex.c ****   *       signal and the beginning of the start bit. It is expressed in sample time
 158:Drivers/STM32H7xx_HAL_Driver/Src/stm32h7xx_hal_uart_ex.c ****   *       units (1/8 or 1/16 bit time, depending on the oversampling rate)
 159:Drivers/STM32H7xx_HAL_Driver/Src/stm32h7xx_hal_uart_ex.c ****   * @param DeassertionTime  Driver Enable deassertion time:
 160:Drivers/STM32H7xx_HAL_Driver/Src/stm32h7xx_hal_uart_ex.c ****   *       5-bit value defining the time between the end of the last stop bit, in a
 161:Drivers/STM32H7xx_HAL_Driver/Src/stm32h7xx_hal_uart_ex.c ****   *       transmitted message, and the de-activation of the DE (Driver Enable) signal.
 162:Drivers/STM32H7xx_HAL_Driver/Src/stm32h7xx_hal_uart_ex.c ****   *       It is expressed in sample time units (1/8 or 1/16 bit time, depending on the
 163:Drivers/STM32H7xx_HAL_Driver/Src/stm32h7xx_hal_uart_ex.c ****   *       oversampling rate).
 164:Drivers/STM32H7xx_HAL_Driver/Src/stm32h7xx_hal_uart_ex.c ****   * @retval HAL status
 165:Drivers/STM32H7xx_HAL_Driver/Src/stm32h7xx_hal_uart_ex.c ****   */
 166:Drivers/STM32H7xx_HAL_Driver/Src/stm32h7xx_hal_uart_ex.c **** HAL_StatusTypeDef HAL_RS485Ex_Init(UART_HandleTypeDef *huart, uint32_t Polarity, uint32_t Assertion
 167:Drivers/STM32H7xx_HAL_Driver/Src/stm32h7xx_hal_uart_ex.c ****                                    uint32_t DeassertionTime)
 168:Drivers/STM32H7xx_HAL_Driver/Src/stm32h7xx_hal_uart_ex.c **** {
 169:Drivers/STM32H7xx_HAL_Driver/Src/stm32h7xx_hal_uart_ex.c ****   uint32_t temp;
 170:Drivers/STM32H7xx_HAL_Driver/Src/stm32h7xx_hal_uart_ex.c **** 
 171:Drivers/STM32H7xx_HAL_Driver/Src/stm32h7xx_hal_uart_ex.c ****   /* Check the UART handle allocation */
 172:Drivers/STM32H7xx_HAL_Driver/Src/stm32h7xx_hal_uart_ex.c ****   if (huart == NULL)
 173:Drivers/STM32H7xx_HAL_Driver/Src/stm32h7xx_hal_uart_ex.c ****   {
 174:Drivers/STM32H7xx_HAL_Driver/Src/stm32h7xx_hal_uart_ex.c ****     return HAL_ERROR;
 175:Drivers/STM32H7xx_HAL_Driver/Src/stm32h7xx_hal_uart_ex.c ****   }
 176:Drivers/STM32H7xx_HAL_Driver/Src/stm32h7xx_hal_uart_ex.c ****   /* Check the Driver Enable UART instance */
 177:Drivers/STM32H7xx_HAL_Driver/Src/stm32h7xx_hal_uart_ex.c ****   assert_param(IS_UART_DRIVER_ENABLE_INSTANCE(huart->Instance));
 178:Drivers/STM32H7xx_HAL_Driver/Src/stm32h7xx_hal_uart_ex.c **** 
 179:Drivers/STM32H7xx_HAL_Driver/Src/stm32h7xx_hal_uart_ex.c ****   /* Check the Driver Enable polarity */
 180:Drivers/STM32H7xx_HAL_Driver/Src/stm32h7xx_hal_uart_ex.c ****   assert_param(IS_UART_DE_POLARITY(Polarity));
 181:Drivers/STM32H7xx_HAL_Driver/Src/stm32h7xx_hal_uart_ex.c **** 
 182:Drivers/STM32H7xx_HAL_Driver/Src/stm32h7xx_hal_uart_ex.c ****   /* Check the Driver Enable assertion time */
 183:Drivers/STM32H7xx_HAL_Driver/Src/stm32h7xx_hal_uart_ex.c ****   assert_param(IS_UART_ASSERTIONTIME(AssertionTime));
 184:Drivers/STM32H7xx_HAL_Driver/Src/stm32h7xx_hal_uart_ex.c **** 
 185:Drivers/STM32H7xx_HAL_Driver/Src/stm32h7xx_hal_uart_ex.c ****   /* Check the Driver Enable deassertion time */
 186:Drivers/STM32H7xx_HAL_Driver/Src/stm32h7xx_hal_uart_ex.c ****   assert_param(IS_UART_DEASSERTIONTIME(DeassertionTime));
 187:Drivers/STM32H7xx_HAL_Driver/Src/stm32h7xx_hal_uart_ex.c **** 
 188:Drivers/STM32H7xx_HAL_Driver/Src/stm32h7xx_hal_uart_ex.c ****   if (huart->gState == HAL_UART_STATE_RESET)
 189:Drivers/STM32H7xx_HAL_Driver/Src/stm32h7xx_hal_uart_ex.c ****   {
 190:Drivers/STM32H7xx_HAL_Driver/Src/stm32h7xx_hal_uart_ex.c ****     /* Allocate lock resource and initialize it */
 191:Drivers/STM32H7xx_HAL_Driver/Src/stm32h7xx_hal_uart_ex.c ****     huart->Lock = HAL_UNLOCKED;
 192:Drivers/STM32H7xx_HAL_Driver/Src/stm32h7xx_hal_uart_ex.c **** 
 193:Drivers/STM32H7xx_HAL_Driver/Src/stm32h7xx_hal_uart_ex.c **** #if (USE_HAL_UART_REGISTER_CALLBACKS == 1)
 194:Drivers/STM32H7xx_HAL_Driver/Src/stm32h7xx_hal_uart_ex.c ****     UART_InitCallbacksToDefault(huart);
 195:Drivers/STM32H7xx_HAL_Driver/Src/stm32h7xx_hal_uart_ex.c **** 
 196:Drivers/STM32H7xx_HAL_Driver/Src/stm32h7xx_hal_uart_ex.c ****     if (huart->MspInitCallback == NULL)
 197:Drivers/STM32H7xx_HAL_Driver/Src/stm32h7xx_hal_uart_ex.c ****     {
 198:Drivers/STM32H7xx_HAL_Driver/Src/stm32h7xx_hal_uart_ex.c ****       huart->MspInitCallback = HAL_UART_MspInit;
 199:Drivers/STM32H7xx_HAL_Driver/Src/stm32h7xx_hal_uart_ex.c ****     }
 200:Drivers/STM32H7xx_HAL_Driver/Src/stm32h7xx_hal_uart_ex.c **** 
 201:Drivers/STM32H7xx_HAL_Driver/Src/stm32h7xx_hal_uart_ex.c ****     /* Init the low level hardware */
 202:Drivers/STM32H7xx_HAL_Driver/Src/stm32h7xx_hal_uart_ex.c ****     huart->MspInitCallback(huart);
ARM GAS  C:\Users\GUILLE~1\AppData\Local\Temp\ccFiIgVY.s 			page 5


 203:Drivers/STM32H7xx_HAL_Driver/Src/stm32h7xx_hal_uart_ex.c **** #else
 204:Drivers/STM32H7xx_HAL_Driver/Src/stm32h7xx_hal_uart_ex.c ****     /* Init the low level hardware : GPIO, CLOCK, CORTEX */
 205:Drivers/STM32H7xx_HAL_Driver/Src/stm32h7xx_hal_uart_ex.c ****     HAL_UART_MspInit(huart);
 206:Drivers/STM32H7xx_HAL_Driver/Src/stm32h7xx_hal_uart_ex.c **** #endif /* (USE_HAL_UART_REGISTER_CALLBACKS) */
 207:Drivers/STM32H7xx_HAL_Driver/Src/stm32h7xx_hal_uart_ex.c ****   }
 208:Drivers/STM32H7xx_HAL_Driver/Src/stm32h7xx_hal_uart_ex.c **** 
 209:Drivers/STM32H7xx_HAL_Driver/Src/stm32h7xx_hal_uart_ex.c ****   huart->gState = HAL_UART_STATE_BUSY;
 210:Drivers/STM32H7xx_HAL_Driver/Src/stm32h7xx_hal_uart_ex.c **** 
 211:Drivers/STM32H7xx_HAL_Driver/Src/stm32h7xx_hal_uart_ex.c ****   /* Disable the Peripheral */
 212:Drivers/STM32H7xx_HAL_Driver/Src/stm32h7xx_hal_uart_ex.c ****   __HAL_UART_DISABLE(huart);
 213:Drivers/STM32H7xx_HAL_Driver/Src/stm32h7xx_hal_uart_ex.c **** 
 214:Drivers/STM32H7xx_HAL_Driver/Src/stm32h7xx_hal_uart_ex.c ****   /* Set the UART Communication parameters */
 215:Drivers/STM32H7xx_HAL_Driver/Src/stm32h7xx_hal_uart_ex.c ****   if (UART_SetConfig(huart) == HAL_ERROR)
 216:Drivers/STM32H7xx_HAL_Driver/Src/stm32h7xx_hal_uart_ex.c ****   {
 217:Drivers/STM32H7xx_HAL_Driver/Src/stm32h7xx_hal_uart_ex.c ****     return HAL_ERROR;
 218:Drivers/STM32H7xx_HAL_Driver/Src/stm32h7xx_hal_uart_ex.c ****   }
 219:Drivers/STM32H7xx_HAL_Driver/Src/stm32h7xx_hal_uart_ex.c **** 
 220:Drivers/STM32H7xx_HAL_Driver/Src/stm32h7xx_hal_uart_ex.c ****   if (huart->AdvancedInit.AdvFeatureInit != UART_ADVFEATURE_NO_INIT)
 221:Drivers/STM32H7xx_HAL_Driver/Src/stm32h7xx_hal_uart_ex.c ****   {
 222:Drivers/STM32H7xx_HAL_Driver/Src/stm32h7xx_hal_uart_ex.c ****     UART_AdvFeatureConfig(huart);
 223:Drivers/STM32H7xx_HAL_Driver/Src/stm32h7xx_hal_uart_ex.c ****   }
 224:Drivers/STM32H7xx_HAL_Driver/Src/stm32h7xx_hal_uart_ex.c **** 
 225:Drivers/STM32H7xx_HAL_Driver/Src/stm32h7xx_hal_uart_ex.c ****   /* Enable the Driver Enable mode by setting the DEM bit in the CR3 register */
 226:Drivers/STM32H7xx_HAL_Driver/Src/stm32h7xx_hal_uart_ex.c ****   SET_BIT(huart->Instance->CR3, USART_CR3_DEM);
 227:Drivers/STM32H7xx_HAL_Driver/Src/stm32h7xx_hal_uart_ex.c **** 
 228:Drivers/STM32H7xx_HAL_Driver/Src/stm32h7xx_hal_uart_ex.c ****   /* Set the Driver Enable polarity */
 229:Drivers/STM32H7xx_HAL_Driver/Src/stm32h7xx_hal_uart_ex.c ****   MODIFY_REG(huart->Instance->CR3, USART_CR3_DEP, Polarity);
 230:Drivers/STM32H7xx_HAL_Driver/Src/stm32h7xx_hal_uart_ex.c **** 
 231:Drivers/STM32H7xx_HAL_Driver/Src/stm32h7xx_hal_uart_ex.c ****   /* Set the Driver Enable assertion and deassertion times */
 232:Drivers/STM32H7xx_HAL_Driver/Src/stm32h7xx_hal_uart_ex.c ****   temp = (AssertionTime << UART_CR1_DEAT_ADDRESS_LSB_POS);
 233:Drivers/STM32H7xx_HAL_Driver/Src/stm32h7xx_hal_uart_ex.c ****   temp |= (DeassertionTime << UART_CR1_DEDT_ADDRESS_LSB_POS);
 234:Drivers/STM32H7xx_HAL_Driver/Src/stm32h7xx_hal_uart_ex.c ****   MODIFY_REG(huart->Instance->CR1, (USART_CR1_DEDT | USART_CR1_DEAT), temp);
 235:Drivers/STM32H7xx_HAL_Driver/Src/stm32h7xx_hal_uart_ex.c **** 
 236:Drivers/STM32H7xx_HAL_Driver/Src/stm32h7xx_hal_uart_ex.c ****   /* Enable the Peripheral */
 237:Drivers/STM32H7xx_HAL_Driver/Src/stm32h7xx_hal_uart_ex.c ****   __HAL_UART_ENABLE(huart);
 238:Drivers/STM32H7xx_HAL_Driver/Src/stm32h7xx_hal_uart_ex.c **** 
 239:Drivers/STM32H7xx_HAL_Driver/Src/stm32h7xx_hal_uart_ex.c ****   /* TEACK and/or REACK to check before moving huart->gState and huart->RxState to Ready */
 240:Drivers/STM32H7xx_HAL_Driver/Src/stm32h7xx_hal_uart_ex.c ****   return (UART_CheckIdleState(huart));
 241:Drivers/STM32H7xx_HAL_Driver/Src/stm32h7xx_hal_uart_ex.c **** }
 242:Drivers/STM32H7xx_HAL_Driver/Src/stm32h7xx_hal_uart_ex.c **** 
 243:Drivers/STM32H7xx_HAL_Driver/Src/stm32h7xx_hal_uart_ex.c **** /**
 244:Drivers/STM32H7xx_HAL_Driver/Src/stm32h7xx_hal_uart_ex.c ****   * @}
 245:Drivers/STM32H7xx_HAL_Driver/Src/stm32h7xx_hal_uart_ex.c ****   */
 246:Drivers/STM32H7xx_HAL_Driver/Src/stm32h7xx_hal_uart_ex.c **** 
 247:Drivers/STM32H7xx_HAL_Driver/Src/stm32h7xx_hal_uart_ex.c **** /** @defgroup UARTEx_Exported_Functions_Group2 IO operation functions
 248:Drivers/STM32H7xx_HAL_Driver/Src/stm32h7xx_hal_uart_ex.c ****   *  @brief Extended functions
 249:Drivers/STM32H7xx_HAL_Driver/Src/stm32h7xx_hal_uart_ex.c ****   *
 250:Drivers/STM32H7xx_HAL_Driver/Src/stm32h7xx_hal_uart_ex.c **** @verbatim
 251:Drivers/STM32H7xx_HAL_Driver/Src/stm32h7xx_hal_uart_ex.c ****  ===============================================================================
 252:Drivers/STM32H7xx_HAL_Driver/Src/stm32h7xx_hal_uart_ex.c ****                       ##### IO operation functions #####
 253:Drivers/STM32H7xx_HAL_Driver/Src/stm32h7xx_hal_uart_ex.c ****  ===============================================================================
 254:Drivers/STM32H7xx_HAL_Driver/Src/stm32h7xx_hal_uart_ex.c ****     This subsection provides a set of Wakeup and FIFO mode related callback functions.
 255:Drivers/STM32H7xx_HAL_Driver/Src/stm32h7xx_hal_uart_ex.c **** 
 256:Drivers/STM32H7xx_HAL_Driver/Src/stm32h7xx_hal_uart_ex.c ****     (#) Wakeup from Stop mode Callback:
 257:Drivers/STM32H7xx_HAL_Driver/Src/stm32h7xx_hal_uart_ex.c ****         (+) HAL_UARTEx_WakeupCallback()
 258:Drivers/STM32H7xx_HAL_Driver/Src/stm32h7xx_hal_uart_ex.c **** 
 259:Drivers/STM32H7xx_HAL_Driver/Src/stm32h7xx_hal_uart_ex.c ****     (#) TX/RX Fifos Callbacks:
ARM GAS  C:\Users\GUILLE~1\AppData\Local\Temp\ccFiIgVY.s 			page 6


 260:Drivers/STM32H7xx_HAL_Driver/Src/stm32h7xx_hal_uart_ex.c ****         (+) HAL_UARTEx_RxFifoFullCallback()
 261:Drivers/STM32H7xx_HAL_Driver/Src/stm32h7xx_hal_uart_ex.c ****         (+) HAL_UARTEx_TxFifoEmptyCallback()
 262:Drivers/STM32H7xx_HAL_Driver/Src/stm32h7xx_hal_uart_ex.c **** 
 263:Drivers/STM32H7xx_HAL_Driver/Src/stm32h7xx_hal_uart_ex.c **** @endverbatim
 264:Drivers/STM32H7xx_HAL_Driver/Src/stm32h7xx_hal_uart_ex.c ****   * @{
 265:Drivers/STM32H7xx_HAL_Driver/Src/stm32h7xx_hal_uart_ex.c ****   */
 266:Drivers/STM32H7xx_HAL_Driver/Src/stm32h7xx_hal_uart_ex.c **** 
 267:Drivers/STM32H7xx_HAL_Driver/Src/stm32h7xx_hal_uart_ex.c **** /**
 268:Drivers/STM32H7xx_HAL_Driver/Src/stm32h7xx_hal_uart_ex.c ****   * @brief UART wakeup from Stop mode callback.
 269:Drivers/STM32H7xx_HAL_Driver/Src/stm32h7xx_hal_uart_ex.c ****   * @param huart UART handle.
 270:Drivers/STM32H7xx_HAL_Driver/Src/stm32h7xx_hal_uart_ex.c ****   * @retval None
 271:Drivers/STM32H7xx_HAL_Driver/Src/stm32h7xx_hal_uart_ex.c ****   */
 272:Drivers/STM32H7xx_HAL_Driver/Src/stm32h7xx_hal_uart_ex.c **** __weak void HAL_UARTEx_WakeupCallback(UART_HandleTypeDef *huart)
 273:Drivers/STM32H7xx_HAL_Driver/Src/stm32h7xx_hal_uart_ex.c **** {
 274:Drivers/STM32H7xx_HAL_Driver/Src/stm32h7xx_hal_uart_ex.c ****   /* Prevent unused argument(s) compilation warning */
 275:Drivers/STM32H7xx_HAL_Driver/Src/stm32h7xx_hal_uart_ex.c ****   UNUSED(huart);
 276:Drivers/STM32H7xx_HAL_Driver/Src/stm32h7xx_hal_uart_ex.c **** 
 277:Drivers/STM32H7xx_HAL_Driver/Src/stm32h7xx_hal_uart_ex.c ****   /* NOTE : This function should not be modified, when the callback is needed,
 278:Drivers/STM32H7xx_HAL_Driver/Src/stm32h7xx_hal_uart_ex.c ****             the HAL_UARTEx_WakeupCallback can be implemented in the user file.
 279:Drivers/STM32H7xx_HAL_Driver/Src/stm32h7xx_hal_uart_ex.c ****    */
 280:Drivers/STM32H7xx_HAL_Driver/Src/stm32h7xx_hal_uart_ex.c **** }
 281:Drivers/STM32H7xx_HAL_Driver/Src/stm32h7xx_hal_uart_ex.c **** 
 282:Drivers/STM32H7xx_HAL_Driver/Src/stm32h7xx_hal_uart_ex.c **** /**
 283:Drivers/STM32H7xx_HAL_Driver/Src/stm32h7xx_hal_uart_ex.c ****   * @brief  UART RX Fifo full callback.
 284:Drivers/STM32H7xx_HAL_Driver/Src/stm32h7xx_hal_uart_ex.c ****   * @param  huart UART handle.
 285:Drivers/STM32H7xx_HAL_Driver/Src/stm32h7xx_hal_uart_ex.c ****   * @retval None
 286:Drivers/STM32H7xx_HAL_Driver/Src/stm32h7xx_hal_uart_ex.c ****   */
 287:Drivers/STM32H7xx_HAL_Driver/Src/stm32h7xx_hal_uart_ex.c **** __weak void HAL_UARTEx_RxFifoFullCallback(UART_HandleTypeDef *huart)
 288:Drivers/STM32H7xx_HAL_Driver/Src/stm32h7xx_hal_uart_ex.c **** {
 289:Drivers/STM32H7xx_HAL_Driver/Src/stm32h7xx_hal_uart_ex.c ****   /* Prevent unused argument(s) compilation warning */
 290:Drivers/STM32H7xx_HAL_Driver/Src/stm32h7xx_hal_uart_ex.c ****   UNUSED(huart);
 291:Drivers/STM32H7xx_HAL_Driver/Src/stm32h7xx_hal_uart_ex.c **** 
 292:Drivers/STM32H7xx_HAL_Driver/Src/stm32h7xx_hal_uart_ex.c ****   /* NOTE : This function should not be modified, when the callback is needed,
 293:Drivers/STM32H7xx_HAL_Driver/Src/stm32h7xx_hal_uart_ex.c ****             the HAL_UARTEx_RxFifoFullCallback can be implemented in the user file.
 294:Drivers/STM32H7xx_HAL_Driver/Src/stm32h7xx_hal_uart_ex.c ****    */
 295:Drivers/STM32H7xx_HAL_Driver/Src/stm32h7xx_hal_uart_ex.c **** }
 296:Drivers/STM32H7xx_HAL_Driver/Src/stm32h7xx_hal_uart_ex.c **** 
 297:Drivers/STM32H7xx_HAL_Driver/Src/stm32h7xx_hal_uart_ex.c **** /**
 298:Drivers/STM32H7xx_HAL_Driver/Src/stm32h7xx_hal_uart_ex.c ****   * @brief  UART TX Fifo empty callback.
 299:Drivers/STM32H7xx_HAL_Driver/Src/stm32h7xx_hal_uart_ex.c ****   * @param  huart UART handle.
 300:Drivers/STM32H7xx_HAL_Driver/Src/stm32h7xx_hal_uart_ex.c ****   * @retval None
 301:Drivers/STM32H7xx_HAL_Driver/Src/stm32h7xx_hal_uart_ex.c ****   */
 302:Drivers/STM32H7xx_HAL_Driver/Src/stm32h7xx_hal_uart_ex.c **** __weak void HAL_UARTEx_TxFifoEmptyCallback(UART_HandleTypeDef *huart)
 303:Drivers/STM32H7xx_HAL_Driver/Src/stm32h7xx_hal_uart_ex.c **** {
 304:Drivers/STM32H7xx_HAL_Driver/Src/stm32h7xx_hal_uart_ex.c ****   /* Prevent unused argument(s) compilation warning */
 305:Drivers/STM32H7xx_HAL_Driver/Src/stm32h7xx_hal_uart_ex.c ****   UNUSED(huart);
 306:Drivers/STM32H7xx_HAL_Driver/Src/stm32h7xx_hal_uart_ex.c **** 
 307:Drivers/STM32H7xx_HAL_Driver/Src/stm32h7xx_hal_uart_ex.c ****   /* NOTE : This function should not be modified, when the callback is needed,
 308:Drivers/STM32H7xx_HAL_Driver/Src/stm32h7xx_hal_uart_ex.c ****             the HAL_UARTEx_TxFifoEmptyCallback can be implemented in the user file.
 309:Drivers/STM32H7xx_HAL_Driver/Src/stm32h7xx_hal_uart_ex.c ****    */
 310:Drivers/STM32H7xx_HAL_Driver/Src/stm32h7xx_hal_uart_ex.c **** }
 311:Drivers/STM32H7xx_HAL_Driver/Src/stm32h7xx_hal_uart_ex.c **** 
 312:Drivers/STM32H7xx_HAL_Driver/Src/stm32h7xx_hal_uart_ex.c **** /**
 313:Drivers/STM32H7xx_HAL_Driver/Src/stm32h7xx_hal_uart_ex.c ****   * @}
 314:Drivers/STM32H7xx_HAL_Driver/Src/stm32h7xx_hal_uart_ex.c ****   */
 315:Drivers/STM32H7xx_HAL_Driver/Src/stm32h7xx_hal_uart_ex.c **** 
 316:Drivers/STM32H7xx_HAL_Driver/Src/stm32h7xx_hal_uart_ex.c **** /** @defgroup UARTEx_Exported_Functions_Group3 Peripheral Control functions
ARM GAS  C:\Users\GUILLE~1\AppData\Local\Temp\ccFiIgVY.s 			page 7


 317:Drivers/STM32H7xx_HAL_Driver/Src/stm32h7xx_hal_uart_ex.c ****   * @brief    Extended Peripheral Control functions
 318:Drivers/STM32H7xx_HAL_Driver/Src/stm32h7xx_hal_uart_ex.c ****   *
 319:Drivers/STM32H7xx_HAL_Driver/Src/stm32h7xx_hal_uart_ex.c **** @verbatim
 320:Drivers/STM32H7xx_HAL_Driver/Src/stm32h7xx_hal_uart_ex.c ****  ===============================================================================
 321:Drivers/STM32H7xx_HAL_Driver/Src/stm32h7xx_hal_uart_ex.c ****                       ##### Peripheral Control functions #####
 322:Drivers/STM32H7xx_HAL_Driver/Src/stm32h7xx_hal_uart_ex.c ****  ===============================================================================
 323:Drivers/STM32H7xx_HAL_Driver/Src/stm32h7xx_hal_uart_ex.c ****     [..] This section provides the following functions:
 324:Drivers/STM32H7xx_HAL_Driver/Src/stm32h7xx_hal_uart_ex.c ****      (+) HAL_MultiProcessorEx_AddressLength_Set() API optionally sets the UART node address
 325:Drivers/STM32H7xx_HAL_Driver/Src/stm32h7xx_hal_uart_ex.c ****          detection length to more than 4 bits for multiprocessor address mark wake up.
 326:Drivers/STM32H7xx_HAL_Driver/Src/stm32h7xx_hal_uart_ex.c ****      (+) HAL_UARTEx_StopModeWakeUpSourceConfig() API defines the wake-up from stop mode
 327:Drivers/STM32H7xx_HAL_Driver/Src/stm32h7xx_hal_uart_ex.c ****          trigger: address match, Start Bit detection or RXNE bit status.
 328:Drivers/STM32H7xx_HAL_Driver/Src/stm32h7xx_hal_uart_ex.c ****      (+) HAL_UARTEx_EnableStopMode() API enables the UART to wake up the MCU from stop mode
 329:Drivers/STM32H7xx_HAL_Driver/Src/stm32h7xx_hal_uart_ex.c ****      (+) HAL_UARTEx_DisableStopMode() API disables the above functionality
 330:Drivers/STM32H7xx_HAL_Driver/Src/stm32h7xx_hal_uart_ex.c ****      (+) HAL_UARTEx_EnableFifoMode() API enables the FIFO mode
 331:Drivers/STM32H7xx_HAL_Driver/Src/stm32h7xx_hal_uart_ex.c ****      (+) HAL_UARTEx_DisableFifoMode() API disables the FIFO mode
 332:Drivers/STM32H7xx_HAL_Driver/Src/stm32h7xx_hal_uart_ex.c ****      (+) HAL_UARTEx_SetTxFifoThreshold() API sets the TX FIFO threshold
 333:Drivers/STM32H7xx_HAL_Driver/Src/stm32h7xx_hal_uart_ex.c ****      (+) HAL_UARTEx_SetRxFifoThreshold() API sets the RX FIFO threshold
 334:Drivers/STM32H7xx_HAL_Driver/Src/stm32h7xx_hal_uart_ex.c **** 
 335:Drivers/STM32H7xx_HAL_Driver/Src/stm32h7xx_hal_uart_ex.c ****     [..] This subsection also provides a set of additional functions providing enhanced reception
 336:Drivers/STM32H7xx_HAL_Driver/Src/stm32h7xx_hal_uart_ex.c ****     services to user. (For example, these functions allow application to handle use cases
 337:Drivers/STM32H7xx_HAL_Driver/Src/stm32h7xx_hal_uart_ex.c ****     where number of data to be received is unknown).
 338:Drivers/STM32H7xx_HAL_Driver/Src/stm32h7xx_hal_uart_ex.c **** 
 339:Drivers/STM32H7xx_HAL_Driver/Src/stm32h7xx_hal_uart_ex.c ****     (#) Compared to standard reception services which only consider number of received
 340:Drivers/STM32H7xx_HAL_Driver/Src/stm32h7xx_hal_uart_ex.c ****         data elements as reception completion criteria, these functions also consider additional ev
 341:Drivers/STM32H7xx_HAL_Driver/Src/stm32h7xx_hal_uart_ex.c ****         as triggers for updating reception status to caller :
 342:Drivers/STM32H7xx_HAL_Driver/Src/stm32h7xx_hal_uart_ex.c ****        (+) Detection of inactivity period (RX line has not been active for a given period).
 343:Drivers/STM32H7xx_HAL_Driver/Src/stm32h7xx_hal_uart_ex.c ****           (++) RX inactivity detected by IDLE event, i.e. RX line has been in idle state (normally 
 344:Drivers/STM32H7xx_HAL_Driver/Src/stm32h7xx_hal_uart_ex.c ****                for 1 frame time, after last received byte.
 345:Drivers/STM32H7xx_HAL_Driver/Src/stm32h7xx_hal_uart_ex.c ****           (++) RX inactivity detected by RTO, i.e. line has been in idle state
 346:Drivers/STM32H7xx_HAL_Driver/Src/stm32h7xx_hal_uart_ex.c ****                for a programmable time, after last received byte.
 347:Drivers/STM32H7xx_HAL_Driver/Src/stm32h7xx_hal_uart_ex.c ****        (+) Detection that a specific character has been received.
 348:Drivers/STM32H7xx_HAL_Driver/Src/stm32h7xx_hal_uart_ex.c **** 
 349:Drivers/STM32H7xx_HAL_Driver/Src/stm32h7xx_hal_uart_ex.c ****     (#) There are two mode of transfer:
 350:Drivers/STM32H7xx_HAL_Driver/Src/stm32h7xx_hal_uart_ex.c ****        (+) Blocking mode: The reception is performed in polling mode, until either expected number 
 351:Drivers/STM32H7xx_HAL_Driver/Src/stm32h7xx_hal_uart_ex.c ****            or till IDLE event occurs. Reception is handled only during function execution.
 352:Drivers/STM32H7xx_HAL_Driver/Src/stm32h7xx_hal_uart_ex.c ****            When function exits, no data reception could occur. HAL status and number of actually re
 353:Drivers/STM32H7xx_HAL_Driver/Src/stm32h7xx_hal_uart_ex.c ****            are returned by function after finishing transfer.
 354:Drivers/STM32H7xx_HAL_Driver/Src/stm32h7xx_hal_uart_ex.c ****        (+) Non-Blocking mode: The reception is performed using Interrupts or DMA.
 355:Drivers/STM32H7xx_HAL_Driver/Src/stm32h7xx_hal_uart_ex.c ****            These API's return the HAL status.
 356:Drivers/STM32H7xx_HAL_Driver/Src/stm32h7xx_hal_uart_ex.c ****            The end of the data processing will be indicated through the
 357:Drivers/STM32H7xx_HAL_Driver/Src/stm32h7xx_hal_uart_ex.c ****            dedicated UART IRQ when using Interrupt mode or the DMA IRQ when using DMA mode.
 358:Drivers/STM32H7xx_HAL_Driver/Src/stm32h7xx_hal_uart_ex.c ****            The HAL_UARTEx_RxEventCallback() user callback will be executed during Receive process
 359:Drivers/STM32H7xx_HAL_Driver/Src/stm32h7xx_hal_uart_ex.c ****            The HAL_UART_ErrorCallback()user callback will be executed when a reception error is det
 360:Drivers/STM32H7xx_HAL_Driver/Src/stm32h7xx_hal_uart_ex.c **** 
 361:Drivers/STM32H7xx_HAL_Driver/Src/stm32h7xx_hal_uart_ex.c ****     (#) Blocking mode API:
 362:Drivers/STM32H7xx_HAL_Driver/Src/stm32h7xx_hal_uart_ex.c ****         (+) HAL_UARTEx_ReceiveToIdle()
 363:Drivers/STM32H7xx_HAL_Driver/Src/stm32h7xx_hal_uart_ex.c **** 
 364:Drivers/STM32H7xx_HAL_Driver/Src/stm32h7xx_hal_uart_ex.c ****     (#) Non-Blocking mode API with Interrupt:
 365:Drivers/STM32H7xx_HAL_Driver/Src/stm32h7xx_hal_uart_ex.c ****         (+) HAL_UARTEx_ReceiveToIdle_IT()
 366:Drivers/STM32H7xx_HAL_Driver/Src/stm32h7xx_hal_uart_ex.c **** 
 367:Drivers/STM32H7xx_HAL_Driver/Src/stm32h7xx_hal_uart_ex.c ****     (#) Non-Blocking mode API with DMA:
 368:Drivers/STM32H7xx_HAL_Driver/Src/stm32h7xx_hal_uart_ex.c ****         (+) HAL_UARTEx_ReceiveToIdle_DMA()
 369:Drivers/STM32H7xx_HAL_Driver/Src/stm32h7xx_hal_uart_ex.c **** 
 370:Drivers/STM32H7xx_HAL_Driver/Src/stm32h7xx_hal_uart_ex.c **** @endverbatim
 371:Drivers/STM32H7xx_HAL_Driver/Src/stm32h7xx_hal_uart_ex.c ****   * @{
 372:Drivers/STM32H7xx_HAL_Driver/Src/stm32h7xx_hal_uart_ex.c ****   */
 373:Drivers/STM32H7xx_HAL_Driver/Src/stm32h7xx_hal_uart_ex.c **** 
ARM GAS  C:\Users\GUILLE~1\AppData\Local\Temp\ccFiIgVY.s 			page 8


 374:Drivers/STM32H7xx_HAL_Driver/Src/stm32h7xx_hal_uart_ex.c **** /**
 375:Drivers/STM32H7xx_HAL_Driver/Src/stm32h7xx_hal_uart_ex.c ****   * @brief By default in multiprocessor mode, when the wake up method is set
 376:Drivers/STM32H7xx_HAL_Driver/Src/stm32h7xx_hal_uart_ex.c ****   *        to address mark, the UART handles only 4-bit long addresses detection;
 377:Drivers/STM32H7xx_HAL_Driver/Src/stm32h7xx_hal_uart_ex.c ****   *        this API allows to enable longer addresses detection (6-, 7- or 8-bit
 378:Drivers/STM32H7xx_HAL_Driver/Src/stm32h7xx_hal_uart_ex.c ****   *        long).
 379:Drivers/STM32H7xx_HAL_Driver/Src/stm32h7xx_hal_uart_ex.c ****   * @note  Addresses detection lengths are: 6-bit address detection in 7-bit data mode,
 380:Drivers/STM32H7xx_HAL_Driver/Src/stm32h7xx_hal_uart_ex.c ****   *        7-bit address detection in 8-bit data mode, 8-bit address detection in 9-bit data mode.
 381:Drivers/STM32H7xx_HAL_Driver/Src/stm32h7xx_hal_uart_ex.c ****   * @param huart         UART handle.
 382:Drivers/STM32H7xx_HAL_Driver/Src/stm32h7xx_hal_uart_ex.c ****   * @param AddressLength This parameter can be one of the following values:
 383:Drivers/STM32H7xx_HAL_Driver/Src/stm32h7xx_hal_uart_ex.c ****   *          @arg @ref UART_ADDRESS_DETECT_4B 4-bit long address
 384:Drivers/STM32H7xx_HAL_Driver/Src/stm32h7xx_hal_uart_ex.c ****   *          @arg @ref UART_ADDRESS_DETECT_7B 6-, 7- or 8-bit long address
 385:Drivers/STM32H7xx_HAL_Driver/Src/stm32h7xx_hal_uart_ex.c ****   * @retval HAL status
 386:Drivers/STM32H7xx_HAL_Driver/Src/stm32h7xx_hal_uart_ex.c ****   */
 387:Drivers/STM32H7xx_HAL_Driver/Src/stm32h7xx_hal_uart_ex.c **** HAL_StatusTypeDef HAL_MultiProcessorEx_AddressLength_Set(UART_HandleTypeDef *huart, uint32_t Addres
 388:Drivers/STM32H7xx_HAL_Driver/Src/stm32h7xx_hal_uart_ex.c **** {
 389:Drivers/STM32H7xx_HAL_Driver/Src/stm32h7xx_hal_uart_ex.c ****   /* Check the UART handle allocation */
 390:Drivers/STM32H7xx_HAL_Driver/Src/stm32h7xx_hal_uart_ex.c ****   if (huart == NULL)
 391:Drivers/STM32H7xx_HAL_Driver/Src/stm32h7xx_hal_uart_ex.c ****   {
 392:Drivers/STM32H7xx_HAL_Driver/Src/stm32h7xx_hal_uart_ex.c ****     return HAL_ERROR;
 393:Drivers/STM32H7xx_HAL_Driver/Src/stm32h7xx_hal_uart_ex.c ****   }
 394:Drivers/STM32H7xx_HAL_Driver/Src/stm32h7xx_hal_uart_ex.c **** 
 395:Drivers/STM32H7xx_HAL_Driver/Src/stm32h7xx_hal_uart_ex.c ****   /* Check the address length parameter */
 396:Drivers/STM32H7xx_HAL_Driver/Src/stm32h7xx_hal_uart_ex.c ****   assert_param(IS_UART_ADDRESSLENGTH_DETECT(AddressLength));
 397:Drivers/STM32H7xx_HAL_Driver/Src/stm32h7xx_hal_uart_ex.c **** 
 398:Drivers/STM32H7xx_HAL_Driver/Src/stm32h7xx_hal_uart_ex.c ****   huart->gState = HAL_UART_STATE_BUSY;
 399:Drivers/STM32H7xx_HAL_Driver/Src/stm32h7xx_hal_uart_ex.c **** 
 400:Drivers/STM32H7xx_HAL_Driver/Src/stm32h7xx_hal_uart_ex.c ****   /* Disable the Peripheral */
 401:Drivers/STM32H7xx_HAL_Driver/Src/stm32h7xx_hal_uart_ex.c ****   __HAL_UART_DISABLE(huart);
 402:Drivers/STM32H7xx_HAL_Driver/Src/stm32h7xx_hal_uart_ex.c **** 
 403:Drivers/STM32H7xx_HAL_Driver/Src/stm32h7xx_hal_uart_ex.c ****   /* Set the address length */
 404:Drivers/STM32H7xx_HAL_Driver/Src/stm32h7xx_hal_uart_ex.c ****   MODIFY_REG(huart->Instance->CR2, USART_CR2_ADDM7, AddressLength);
 405:Drivers/STM32H7xx_HAL_Driver/Src/stm32h7xx_hal_uart_ex.c **** 
 406:Drivers/STM32H7xx_HAL_Driver/Src/stm32h7xx_hal_uart_ex.c ****   /* Enable the Peripheral */
 407:Drivers/STM32H7xx_HAL_Driver/Src/stm32h7xx_hal_uart_ex.c ****   __HAL_UART_ENABLE(huart);
 408:Drivers/STM32H7xx_HAL_Driver/Src/stm32h7xx_hal_uart_ex.c **** 
 409:Drivers/STM32H7xx_HAL_Driver/Src/stm32h7xx_hal_uart_ex.c ****   /* TEACK and/or REACK to check before moving huart->gState to Ready */
 410:Drivers/STM32H7xx_HAL_Driver/Src/stm32h7xx_hal_uart_ex.c ****   return (UART_CheckIdleState(huart));
 411:Drivers/STM32H7xx_HAL_Driver/Src/stm32h7xx_hal_uart_ex.c **** }
 412:Drivers/STM32H7xx_HAL_Driver/Src/stm32h7xx_hal_uart_ex.c **** 
 413:Drivers/STM32H7xx_HAL_Driver/Src/stm32h7xx_hal_uart_ex.c **** /**
 414:Drivers/STM32H7xx_HAL_Driver/Src/stm32h7xx_hal_uart_ex.c ****   * @brief Set Wakeup from Stop mode interrupt flag selection.
 415:Drivers/STM32H7xx_HAL_Driver/Src/stm32h7xx_hal_uart_ex.c ****   * @note It is the application responsibility to enable the interrupt used as
 416:Drivers/STM32H7xx_HAL_Driver/Src/stm32h7xx_hal_uart_ex.c ****   *       usart_wkup interrupt source before entering low-power mode.
 417:Drivers/STM32H7xx_HAL_Driver/Src/stm32h7xx_hal_uart_ex.c ****   * @param huart           UART handle.
 418:Drivers/STM32H7xx_HAL_Driver/Src/stm32h7xx_hal_uart_ex.c ****   * @param WakeUpSelection Address match, Start Bit detection or RXNE/RXFNE bit status.
 419:Drivers/STM32H7xx_HAL_Driver/Src/stm32h7xx_hal_uart_ex.c ****   *          This parameter can be one of the following values:
 420:Drivers/STM32H7xx_HAL_Driver/Src/stm32h7xx_hal_uart_ex.c ****   *          @arg @ref UART_WAKEUP_ON_ADDRESS
 421:Drivers/STM32H7xx_HAL_Driver/Src/stm32h7xx_hal_uart_ex.c ****   *          @arg @ref UART_WAKEUP_ON_STARTBIT
 422:Drivers/STM32H7xx_HAL_Driver/Src/stm32h7xx_hal_uart_ex.c ****   *          @arg @ref UART_WAKEUP_ON_READDATA_NONEMPTY
 423:Drivers/STM32H7xx_HAL_Driver/Src/stm32h7xx_hal_uart_ex.c ****   * @retval HAL status
 424:Drivers/STM32H7xx_HAL_Driver/Src/stm32h7xx_hal_uart_ex.c ****   */
 425:Drivers/STM32H7xx_HAL_Driver/Src/stm32h7xx_hal_uart_ex.c **** HAL_StatusTypeDef HAL_UARTEx_StopModeWakeUpSourceConfig(UART_HandleTypeDef *huart, UART_WakeUpTypeD
 426:Drivers/STM32H7xx_HAL_Driver/Src/stm32h7xx_hal_uart_ex.c **** {
 427:Drivers/STM32H7xx_HAL_Driver/Src/stm32h7xx_hal_uart_ex.c ****   HAL_StatusTypeDef status = HAL_OK;
 428:Drivers/STM32H7xx_HAL_Driver/Src/stm32h7xx_hal_uart_ex.c ****   uint32_t tickstart;
 429:Drivers/STM32H7xx_HAL_Driver/Src/stm32h7xx_hal_uart_ex.c **** 
 430:Drivers/STM32H7xx_HAL_Driver/Src/stm32h7xx_hal_uart_ex.c ****   /* check the wake-up from stop mode UART instance */
ARM GAS  C:\Users\GUILLE~1\AppData\Local\Temp\ccFiIgVY.s 			page 9


 431:Drivers/STM32H7xx_HAL_Driver/Src/stm32h7xx_hal_uart_ex.c ****   assert_param(IS_UART_WAKEUP_FROMSTOP_INSTANCE(huart->Instance));
 432:Drivers/STM32H7xx_HAL_Driver/Src/stm32h7xx_hal_uart_ex.c ****   /* check the wake-up selection parameter */
 433:Drivers/STM32H7xx_HAL_Driver/Src/stm32h7xx_hal_uart_ex.c ****   assert_param(IS_UART_WAKEUP_SELECTION(WakeUpSelection.WakeUpEvent));
 434:Drivers/STM32H7xx_HAL_Driver/Src/stm32h7xx_hal_uart_ex.c **** 
 435:Drivers/STM32H7xx_HAL_Driver/Src/stm32h7xx_hal_uart_ex.c ****   /* Process Locked */
 436:Drivers/STM32H7xx_HAL_Driver/Src/stm32h7xx_hal_uart_ex.c ****   __HAL_LOCK(huart);
 437:Drivers/STM32H7xx_HAL_Driver/Src/stm32h7xx_hal_uart_ex.c **** 
 438:Drivers/STM32H7xx_HAL_Driver/Src/stm32h7xx_hal_uart_ex.c ****   huart->gState = HAL_UART_STATE_BUSY;
 439:Drivers/STM32H7xx_HAL_Driver/Src/stm32h7xx_hal_uart_ex.c **** 
 440:Drivers/STM32H7xx_HAL_Driver/Src/stm32h7xx_hal_uart_ex.c ****   /* Disable the Peripheral */
 441:Drivers/STM32H7xx_HAL_Driver/Src/stm32h7xx_hal_uart_ex.c ****   __HAL_UART_DISABLE(huart);
 442:Drivers/STM32H7xx_HAL_Driver/Src/stm32h7xx_hal_uart_ex.c **** 
 443:Drivers/STM32H7xx_HAL_Driver/Src/stm32h7xx_hal_uart_ex.c ****   /* Set the wake-up selection scheme */
 444:Drivers/STM32H7xx_HAL_Driver/Src/stm32h7xx_hal_uart_ex.c ****   MODIFY_REG(huart->Instance->CR3, USART_CR3_WUS, WakeUpSelection.WakeUpEvent);
 445:Drivers/STM32H7xx_HAL_Driver/Src/stm32h7xx_hal_uart_ex.c **** 
 446:Drivers/STM32H7xx_HAL_Driver/Src/stm32h7xx_hal_uart_ex.c ****   if (WakeUpSelection.WakeUpEvent == UART_WAKEUP_ON_ADDRESS)
 447:Drivers/STM32H7xx_HAL_Driver/Src/stm32h7xx_hal_uart_ex.c ****   {
 448:Drivers/STM32H7xx_HAL_Driver/Src/stm32h7xx_hal_uart_ex.c ****     UARTEx_Wakeup_AddressConfig(huart, WakeUpSelection);
 449:Drivers/STM32H7xx_HAL_Driver/Src/stm32h7xx_hal_uart_ex.c ****   }
 450:Drivers/STM32H7xx_HAL_Driver/Src/stm32h7xx_hal_uart_ex.c **** 
 451:Drivers/STM32H7xx_HAL_Driver/Src/stm32h7xx_hal_uart_ex.c ****   /* Enable the Peripheral */
 452:Drivers/STM32H7xx_HAL_Driver/Src/stm32h7xx_hal_uart_ex.c ****   __HAL_UART_ENABLE(huart);
 453:Drivers/STM32H7xx_HAL_Driver/Src/stm32h7xx_hal_uart_ex.c **** 
 454:Drivers/STM32H7xx_HAL_Driver/Src/stm32h7xx_hal_uart_ex.c ****   /* Init tickstart for timeout management */
 455:Drivers/STM32H7xx_HAL_Driver/Src/stm32h7xx_hal_uart_ex.c ****   tickstart = HAL_GetTick();
 456:Drivers/STM32H7xx_HAL_Driver/Src/stm32h7xx_hal_uart_ex.c **** 
 457:Drivers/STM32H7xx_HAL_Driver/Src/stm32h7xx_hal_uart_ex.c ****   /* Wait until REACK flag is set */
 458:Drivers/STM32H7xx_HAL_Driver/Src/stm32h7xx_hal_uart_ex.c ****   if (UART_WaitOnFlagUntilTimeout(huart, USART_ISR_REACK, RESET, tickstart, HAL_UART_TIMEOUT_VALUE)
 459:Drivers/STM32H7xx_HAL_Driver/Src/stm32h7xx_hal_uart_ex.c ****   {
 460:Drivers/STM32H7xx_HAL_Driver/Src/stm32h7xx_hal_uart_ex.c ****     status = HAL_TIMEOUT;
 461:Drivers/STM32H7xx_HAL_Driver/Src/stm32h7xx_hal_uart_ex.c ****   }
 462:Drivers/STM32H7xx_HAL_Driver/Src/stm32h7xx_hal_uart_ex.c ****   else
 463:Drivers/STM32H7xx_HAL_Driver/Src/stm32h7xx_hal_uart_ex.c ****   {
 464:Drivers/STM32H7xx_HAL_Driver/Src/stm32h7xx_hal_uart_ex.c ****     /* Initialize the UART State */
 465:Drivers/STM32H7xx_HAL_Driver/Src/stm32h7xx_hal_uart_ex.c ****     huart->gState = HAL_UART_STATE_READY;
 466:Drivers/STM32H7xx_HAL_Driver/Src/stm32h7xx_hal_uart_ex.c ****   }
 467:Drivers/STM32H7xx_HAL_Driver/Src/stm32h7xx_hal_uart_ex.c **** 
 468:Drivers/STM32H7xx_HAL_Driver/Src/stm32h7xx_hal_uart_ex.c ****   /* Process Unlocked */
 469:Drivers/STM32H7xx_HAL_Driver/Src/stm32h7xx_hal_uart_ex.c ****   __HAL_UNLOCK(huart);
 470:Drivers/STM32H7xx_HAL_Driver/Src/stm32h7xx_hal_uart_ex.c **** 
 471:Drivers/STM32H7xx_HAL_Driver/Src/stm32h7xx_hal_uart_ex.c ****   return status;
 472:Drivers/STM32H7xx_HAL_Driver/Src/stm32h7xx_hal_uart_ex.c **** }
 473:Drivers/STM32H7xx_HAL_Driver/Src/stm32h7xx_hal_uart_ex.c **** 
 474:Drivers/STM32H7xx_HAL_Driver/Src/stm32h7xx_hal_uart_ex.c **** /**
 475:Drivers/STM32H7xx_HAL_Driver/Src/stm32h7xx_hal_uart_ex.c ****   * @brief Enable UART Stop Mode.
 476:Drivers/STM32H7xx_HAL_Driver/Src/stm32h7xx_hal_uart_ex.c ****   * @note The UART is able to wake up the MCU from Stop 1 mode as long as UART clock is HSI or LSE.
 477:Drivers/STM32H7xx_HAL_Driver/Src/stm32h7xx_hal_uart_ex.c ****   * @param huart UART handle.
 478:Drivers/STM32H7xx_HAL_Driver/Src/stm32h7xx_hal_uart_ex.c ****   * @retval HAL status
 479:Drivers/STM32H7xx_HAL_Driver/Src/stm32h7xx_hal_uart_ex.c ****   */
 480:Drivers/STM32H7xx_HAL_Driver/Src/stm32h7xx_hal_uart_ex.c **** HAL_StatusTypeDef HAL_UARTEx_EnableStopMode(UART_HandleTypeDef *huart)
 481:Drivers/STM32H7xx_HAL_Driver/Src/stm32h7xx_hal_uart_ex.c **** {
 482:Drivers/STM32H7xx_HAL_Driver/Src/stm32h7xx_hal_uart_ex.c ****   /* Process Locked */
 483:Drivers/STM32H7xx_HAL_Driver/Src/stm32h7xx_hal_uart_ex.c ****   __HAL_LOCK(huart);
 484:Drivers/STM32H7xx_HAL_Driver/Src/stm32h7xx_hal_uart_ex.c **** 
 485:Drivers/STM32H7xx_HAL_Driver/Src/stm32h7xx_hal_uart_ex.c ****   /* Set UESM bit */
 486:Drivers/STM32H7xx_HAL_Driver/Src/stm32h7xx_hal_uart_ex.c ****   SET_BIT(huart->Instance->CR1, USART_CR1_UESM);
 487:Drivers/STM32H7xx_HAL_Driver/Src/stm32h7xx_hal_uart_ex.c **** 
ARM GAS  C:\Users\GUILLE~1\AppData\Local\Temp\ccFiIgVY.s 			page 10


 488:Drivers/STM32H7xx_HAL_Driver/Src/stm32h7xx_hal_uart_ex.c ****   /* Process Unlocked */
 489:Drivers/STM32H7xx_HAL_Driver/Src/stm32h7xx_hal_uart_ex.c ****   __HAL_UNLOCK(huart);
 490:Drivers/STM32H7xx_HAL_Driver/Src/stm32h7xx_hal_uart_ex.c **** 
 491:Drivers/STM32H7xx_HAL_Driver/Src/stm32h7xx_hal_uart_ex.c ****   return HAL_OK;
 492:Drivers/STM32H7xx_HAL_Driver/Src/stm32h7xx_hal_uart_ex.c **** }
 493:Drivers/STM32H7xx_HAL_Driver/Src/stm32h7xx_hal_uart_ex.c **** 
 494:Drivers/STM32H7xx_HAL_Driver/Src/stm32h7xx_hal_uart_ex.c **** /**
 495:Drivers/STM32H7xx_HAL_Driver/Src/stm32h7xx_hal_uart_ex.c ****   * @brief Disable UART Stop Mode.
 496:Drivers/STM32H7xx_HAL_Driver/Src/stm32h7xx_hal_uart_ex.c ****   * @param huart UART handle.
 497:Drivers/STM32H7xx_HAL_Driver/Src/stm32h7xx_hal_uart_ex.c ****   * @retval HAL status
 498:Drivers/STM32H7xx_HAL_Driver/Src/stm32h7xx_hal_uart_ex.c ****   */
 499:Drivers/STM32H7xx_HAL_Driver/Src/stm32h7xx_hal_uart_ex.c **** HAL_StatusTypeDef HAL_UARTEx_DisableStopMode(UART_HandleTypeDef *huart)
 500:Drivers/STM32H7xx_HAL_Driver/Src/stm32h7xx_hal_uart_ex.c **** {
 501:Drivers/STM32H7xx_HAL_Driver/Src/stm32h7xx_hal_uart_ex.c ****   /* Process Locked */
 502:Drivers/STM32H7xx_HAL_Driver/Src/stm32h7xx_hal_uart_ex.c ****   __HAL_LOCK(huart);
 503:Drivers/STM32H7xx_HAL_Driver/Src/stm32h7xx_hal_uart_ex.c **** 
 504:Drivers/STM32H7xx_HAL_Driver/Src/stm32h7xx_hal_uart_ex.c ****   /* Clear UESM bit */
 505:Drivers/STM32H7xx_HAL_Driver/Src/stm32h7xx_hal_uart_ex.c ****   CLEAR_BIT(huart->Instance->CR1, USART_CR1_UESM);
 506:Drivers/STM32H7xx_HAL_Driver/Src/stm32h7xx_hal_uart_ex.c **** 
 507:Drivers/STM32H7xx_HAL_Driver/Src/stm32h7xx_hal_uart_ex.c ****   /* Process Unlocked */
 508:Drivers/STM32H7xx_HAL_Driver/Src/stm32h7xx_hal_uart_ex.c ****   __HAL_UNLOCK(huart);
 509:Drivers/STM32H7xx_HAL_Driver/Src/stm32h7xx_hal_uart_ex.c **** 
 510:Drivers/STM32H7xx_HAL_Driver/Src/stm32h7xx_hal_uart_ex.c ****   return HAL_OK;
 511:Drivers/STM32H7xx_HAL_Driver/Src/stm32h7xx_hal_uart_ex.c **** }
 512:Drivers/STM32H7xx_HAL_Driver/Src/stm32h7xx_hal_uart_ex.c **** 
 513:Drivers/STM32H7xx_HAL_Driver/Src/stm32h7xx_hal_uart_ex.c **** /**
 514:Drivers/STM32H7xx_HAL_Driver/Src/stm32h7xx_hal_uart_ex.c ****   * @brief  Enable the FIFO mode.
 515:Drivers/STM32H7xx_HAL_Driver/Src/stm32h7xx_hal_uart_ex.c ****   * @param huart      UART handle.
 516:Drivers/STM32H7xx_HAL_Driver/Src/stm32h7xx_hal_uart_ex.c ****   * @retval HAL status
 517:Drivers/STM32H7xx_HAL_Driver/Src/stm32h7xx_hal_uart_ex.c ****   */
 518:Drivers/STM32H7xx_HAL_Driver/Src/stm32h7xx_hal_uart_ex.c **** HAL_StatusTypeDef HAL_UARTEx_EnableFifoMode(UART_HandleTypeDef *huart)
 519:Drivers/STM32H7xx_HAL_Driver/Src/stm32h7xx_hal_uart_ex.c **** {
 520:Drivers/STM32H7xx_HAL_Driver/Src/stm32h7xx_hal_uart_ex.c ****   uint32_t tmpcr1;
 521:Drivers/STM32H7xx_HAL_Driver/Src/stm32h7xx_hal_uart_ex.c **** 
 522:Drivers/STM32H7xx_HAL_Driver/Src/stm32h7xx_hal_uart_ex.c ****   /* Check parameters */
 523:Drivers/STM32H7xx_HAL_Driver/Src/stm32h7xx_hal_uart_ex.c ****   assert_param(IS_UART_FIFO_INSTANCE(huart->Instance));
 524:Drivers/STM32H7xx_HAL_Driver/Src/stm32h7xx_hal_uart_ex.c **** 
 525:Drivers/STM32H7xx_HAL_Driver/Src/stm32h7xx_hal_uart_ex.c ****   /* Process Locked */
 526:Drivers/STM32H7xx_HAL_Driver/Src/stm32h7xx_hal_uart_ex.c ****   __HAL_LOCK(huart);
 527:Drivers/STM32H7xx_HAL_Driver/Src/stm32h7xx_hal_uart_ex.c **** 
 528:Drivers/STM32H7xx_HAL_Driver/Src/stm32h7xx_hal_uart_ex.c ****   huart->gState = HAL_UART_STATE_BUSY;
 529:Drivers/STM32H7xx_HAL_Driver/Src/stm32h7xx_hal_uart_ex.c **** 
 530:Drivers/STM32H7xx_HAL_Driver/Src/stm32h7xx_hal_uart_ex.c ****   /* Save actual UART configuration */
 531:Drivers/STM32H7xx_HAL_Driver/Src/stm32h7xx_hal_uart_ex.c ****   tmpcr1 = READ_REG(huart->Instance->CR1);
 532:Drivers/STM32H7xx_HAL_Driver/Src/stm32h7xx_hal_uart_ex.c **** 
 533:Drivers/STM32H7xx_HAL_Driver/Src/stm32h7xx_hal_uart_ex.c ****   /* Disable UART */
 534:Drivers/STM32H7xx_HAL_Driver/Src/stm32h7xx_hal_uart_ex.c ****   __HAL_UART_DISABLE(huart);
 535:Drivers/STM32H7xx_HAL_Driver/Src/stm32h7xx_hal_uart_ex.c **** 
 536:Drivers/STM32H7xx_HAL_Driver/Src/stm32h7xx_hal_uart_ex.c ****   /* Enable FIFO mode */
 537:Drivers/STM32H7xx_HAL_Driver/Src/stm32h7xx_hal_uart_ex.c ****   SET_BIT(tmpcr1, USART_CR1_FIFOEN);
 538:Drivers/STM32H7xx_HAL_Driver/Src/stm32h7xx_hal_uart_ex.c ****   huart->FifoMode = UART_FIFOMODE_ENABLE;
 539:Drivers/STM32H7xx_HAL_Driver/Src/stm32h7xx_hal_uart_ex.c **** 
 540:Drivers/STM32H7xx_HAL_Driver/Src/stm32h7xx_hal_uart_ex.c ****   /* Restore UART configuration */
 541:Drivers/STM32H7xx_HAL_Driver/Src/stm32h7xx_hal_uart_ex.c ****   WRITE_REG(huart->Instance->CR1, tmpcr1);
 542:Drivers/STM32H7xx_HAL_Driver/Src/stm32h7xx_hal_uart_ex.c **** 
 543:Drivers/STM32H7xx_HAL_Driver/Src/stm32h7xx_hal_uart_ex.c ****   /* Determine the number of data to process during RX/TX ISR execution */
 544:Drivers/STM32H7xx_HAL_Driver/Src/stm32h7xx_hal_uart_ex.c ****   UARTEx_SetNbDataToProcess(huart);
ARM GAS  C:\Users\GUILLE~1\AppData\Local\Temp\ccFiIgVY.s 			page 11


 545:Drivers/STM32H7xx_HAL_Driver/Src/stm32h7xx_hal_uart_ex.c **** 
 546:Drivers/STM32H7xx_HAL_Driver/Src/stm32h7xx_hal_uart_ex.c ****   huart->gState = HAL_UART_STATE_READY;
 547:Drivers/STM32H7xx_HAL_Driver/Src/stm32h7xx_hal_uart_ex.c **** 
 548:Drivers/STM32H7xx_HAL_Driver/Src/stm32h7xx_hal_uart_ex.c ****   /* Process Unlocked */
 549:Drivers/STM32H7xx_HAL_Driver/Src/stm32h7xx_hal_uart_ex.c ****   __HAL_UNLOCK(huart);
 550:Drivers/STM32H7xx_HAL_Driver/Src/stm32h7xx_hal_uart_ex.c **** 
 551:Drivers/STM32H7xx_HAL_Driver/Src/stm32h7xx_hal_uart_ex.c ****   return HAL_OK;
 552:Drivers/STM32H7xx_HAL_Driver/Src/stm32h7xx_hal_uart_ex.c **** }
 553:Drivers/STM32H7xx_HAL_Driver/Src/stm32h7xx_hal_uart_ex.c **** 
 554:Drivers/STM32H7xx_HAL_Driver/Src/stm32h7xx_hal_uart_ex.c **** /**
 555:Drivers/STM32H7xx_HAL_Driver/Src/stm32h7xx_hal_uart_ex.c ****   * @brief  Disable the FIFO mode.
 556:Drivers/STM32H7xx_HAL_Driver/Src/stm32h7xx_hal_uart_ex.c ****   * @param huart      UART handle.
 557:Drivers/STM32H7xx_HAL_Driver/Src/stm32h7xx_hal_uart_ex.c ****   * @retval HAL status
 558:Drivers/STM32H7xx_HAL_Driver/Src/stm32h7xx_hal_uart_ex.c ****   */
 559:Drivers/STM32H7xx_HAL_Driver/Src/stm32h7xx_hal_uart_ex.c **** HAL_StatusTypeDef HAL_UARTEx_DisableFifoMode(UART_HandleTypeDef *huart)
 560:Drivers/STM32H7xx_HAL_Driver/Src/stm32h7xx_hal_uart_ex.c **** {
 561:Drivers/STM32H7xx_HAL_Driver/Src/stm32h7xx_hal_uart_ex.c ****   uint32_t tmpcr1;
 562:Drivers/STM32H7xx_HAL_Driver/Src/stm32h7xx_hal_uart_ex.c **** 
 563:Drivers/STM32H7xx_HAL_Driver/Src/stm32h7xx_hal_uart_ex.c ****   /* Check parameters */
 564:Drivers/STM32H7xx_HAL_Driver/Src/stm32h7xx_hal_uart_ex.c ****   assert_param(IS_UART_FIFO_INSTANCE(huart->Instance));
 565:Drivers/STM32H7xx_HAL_Driver/Src/stm32h7xx_hal_uart_ex.c **** 
 566:Drivers/STM32H7xx_HAL_Driver/Src/stm32h7xx_hal_uart_ex.c ****   /* Process Locked */
 567:Drivers/STM32H7xx_HAL_Driver/Src/stm32h7xx_hal_uart_ex.c ****   __HAL_LOCK(huart);
 568:Drivers/STM32H7xx_HAL_Driver/Src/stm32h7xx_hal_uart_ex.c **** 
 569:Drivers/STM32H7xx_HAL_Driver/Src/stm32h7xx_hal_uart_ex.c ****   huart->gState = HAL_UART_STATE_BUSY;
 570:Drivers/STM32H7xx_HAL_Driver/Src/stm32h7xx_hal_uart_ex.c **** 
 571:Drivers/STM32H7xx_HAL_Driver/Src/stm32h7xx_hal_uart_ex.c ****   /* Save actual UART configuration */
 572:Drivers/STM32H7xx_HAL_Driver/Src/stm32h7xx_hal_uart_ex.c ****   tmpcr1 = READ_REG(huart->Instance->CR1);
 573:Drivers/STM32H7xx_HAL_Driver/Src/stm32h7xx_hal_uart_ex.c **** 
 574:Drivers/STM32H7xx_HAL_Driver/Src/stm32h7xx_hal_uart_ex.c ****   /* Disable UART */
 575:Drivers/STM32H7xx_HAL_Driver/Src/stm32h7xx_hal_uart_ex.c ****   __HAL_UART_DISABLE(huart);
 576:Drivers/STM32H7xx_HAL_Driver/Src/stm32h7xx_hal_uart_ex.c **** 
 577:Drivers/STM32H7xx_HAL_Driver/Src/stm32h7xx_hal_uart_ex.c ****   /* Enable FIFO mode */
 578:Drivers/STM32H7xx_HAL_Driver/Src/stm32h7xx_hal_uart_ex.c ****   CLEAR_BIT(tmpcr1, USART_CR1_FIFOEN);
 579:Drivers/STM32H7xx_HAL_Driver/Src/stm32h7xx_hal_uart_ex.c ****   huart->FifoMode = UART_FIFOMODE_DISABLE;
 580:Drivers/STM32H7xx_HAL_Driver/Src/stm32h7xx_hal_uart_ex.c **** 
 581:Drivers/STM32H7xx_HAL_Driver/Src/stm32h7xx_hal_uart_ex.c ****   /* Restore UART configuration */
 582:Drivers/STM32H7xx_HAL_Driver/Src/stm32h7xx_hal_uart_ex.c ****   WRITE_REG(huart->Instance->CR1, tmpcr1);
 583:Drivers/STM32H7xx_HAL_Driver/Src/stm32h7xx_hal_uart_ex.c **** 
 584:Drivers/STM32H7xx_HAL_Driver/Src/stm32h7xx_hal_uart_ex.c ****   huart->gState = HAL_UART_STATE_READY;
 585:Drivers/STM32H7xx_HAL_Driver/Src/stm32h7xx_hal_uart_ex.c **** 
 586:Drivers/STM32H7xx_HAL_Driver/Src/stm32h7xx_hal_uart_ex.c ****   /* Process Unlocked */
 587:Drivers/STM32H7xx_HAL_Driver/Src/stm32h7xx_hal_uart_ex.c ****   __HAL_UNLOCK(huart);
 588:Drivers/STM32H7xx_HAL_Driver/Src/stm32h7xx_hal_uart_ex.c **** 
 589:Drivers/STM32H7xx_HAL_Driver/Src/stm32h7xx_hal_uart_ex.c ****   return HAL_OK;
 590:Drivers/STM32H7xx_HAL_Driver/Src/stm32h7xx_hal_uart_ex.c **** }
 591:Drivers/STM32H7xx_HAL_Driver/Src/stm32h7xx_hal_uart_ex.c **** 
 592:Drivers/STM32H7xx_HAL_Driver/Src/stm32h7xx_hal_uart_ex.c **** /**
 593:Drivers/STM32H7xx_HAL_Driver/Src/stm32h7xx_hal_uart_ex.c ****   * @brief  Set the TXFIFO threshold.
 594:Drivers/STM32H7xx_HAL_Driver/Src/stm32h7xx_hal_uart_ex.c ****   * @param huart      UART handle.
 595:Drivers/STM32H7xx_HAL_Driver/Src/stm32h7xx_hal_uart_ex.c ****   * @param Threshold  TX FIFO threshold value
 596:Drivers/STM32H7xx_HAL_Driver/Src/stm32h7xx_hal_uart_ex.c ****   *          This parameter can be one of the following values:
 597:Drivers/STM32H7xx_HAL_Driver/Src/stm32h7xx_hal_uart_ex.c ****   *            @arg @ref UART_TXFIFO_THRESHOLD_1_8
 598:Drivers/STM32H7xx_HAL_Driver/Src/stm32h7xx_hal_uart_ex.c ****   *            @arg @ref UART_TXFIFO_THRESHOLD_1_4
 599:Drivers/STM32H7xx_HAL_Driver/Src/stm32h7xx_hal_uart_ex.c ****   *            @arg @ref UART_TXFIFO_THRESHOLD_1_2
 600:Drivers/STM32H7xx_HAL_Driver/Src/stm32h7xx_hal_uart_ex.c ****   *            @arg @ref UART_TXFIFO_THRESHOLD_3_4
 601:Drivers/STM32H7xx_HAL_Driver/Src/stm32h7xx_hal_uart_ex.c ****   *            @arg @ref UART_TXFIFO_THRESHOLD_7_8
ARM GAS  C:\Users\GUILLE~1\AppData\Local\Temp\ccFiIgVY.s 			page 12


 602:Drivers/STM32H7xx_HAL_Driver/Src/stm32h7xx_hal_uart_ex.c ****   *            @arg @ref UART_TXFIFO_THRESHOLD_8_8
 603:Drivers/STM32H7xx_HAL_Driver/Src/stm32h7xx_hal_uart_ex.c ****   * @retval HAL status
 604:Drivers/STM32H7xx_HAL_Driver/Src/stm32h7xx_hal_uart_ex.c ****   */
 605:Drivers/STM32H7xx_HAL_Driver/Src/stm32h7xx_hal_uart_ex.c **** HAL_StatusTypeDef HAL_UARTEx_SetTxFifoThreshold(UART_HandleTypeDef *huart, uint32_t Threshold)
 606:Drivers/STM32H7xx_HAL_Driver/Src/stm32h7xx_hal_uart_ex.c **** {
 607:Drivers/STM32H7xx_HAL_Driver/Src/stm32h7xx_hal_uart_ex.c ****   uint32_t tmpcr1;
 608:Drivers/STM32H7xx_HAL_Driver/Src/stm32h7xx_hal_uart_ex.c **** 
 609:Drivers/STM32H7xx_HAL_Driver/Src/stm32h7xx_hal_uart_ex.c ****   /* Check parameters */
 610:Drivers/STM32H7xx_HAL_Driver/Src/stm32h7xx_hal_uart_ex.c ****   assert_param(IS_UART_FIFO_INSTANCE(huart->Instance));
 611:Drivers/STM32H7xx_HAL_Driver/Src/stm32h7xx_hal_uart_ex.c ****   assert_param(IS_UART_TXFIFO_THRESHOLD(Threshold));
 612:Drivers/STM32H7xx_HAL_Driver/Src/stm32h7xx_hal_uart_ex.c **** 
 613:Drivers/STM32H7xx_HAL_Driver/Src/stm32h7xx_hal_uart_ex.c ****   /* Process Locked */
 614:Drivers/STM32H7xx_HAL_Driver/Src/stm32h7xx_hal_uart_ex.c ****   __HAL_LOCK(huart);
 615:Drivers/STM32H7xx_HAL_Driver/Src/stm32h7xx_hal_uart_ex.c **** 
 616:Drivers/STM32H7xx_HAL_Driver/Src/stm32h7xx_hal_uart_ex.c ****   huart->gState = HAL_UART_STATE_BUSY;
 617:Drivers/STM32H7xx_HAL_Driver/Src/stm32h7xx_hal_uart_ex.c **** 
 618:Drivers/STM32H7xx_HAL_Driver/Src/stm32h7xx_hal_uart_ex.c ****   /* Save actual UART configuration */
 619:Drivers/STM32H7xx_HAL_Driver/Src/stm32h7xx_hal_uart_ex.c ****   tmpcr1 = READ_REG(huart->Instance->CR1);
 620:Drivers/STM32H7xx_HAL_Driver/Src/stm32h7xx_hal_uart_ex.c **** 
 621:Drivers/STM32H7xx_HAL_Driver/Src/stm32h7xx_hal_uart_ex.c ****   /* Disable UART */
 622:Drivers/STM32H7xx_HAL_Driver/Src/stm32h7xx_hal_uart_ex.c ****   __HAL_UART_DISABLE(huart);
 623:Drivers/STM32H7xx_HAL_Driver/Src/stm32h7xx_hal_uart_ex.c **** 
 624:Drivers/STM32H7xx_HAL_Driver/Src/stm32h7xx_hal_uart_ex.c ****   /* Update TX threshold configuration */
 625:Drivers/STM32H7xx_HAL_Driver/Src/stm32h7xx_hal_uart_ex.c ****   MODIFY_REG(huart->Instance->CR3, USART_CR3_TXFTCFG, Threshold);
 626:Drivers/STM32H7xx_HAL_Driver/Src/stm32h7xx_hal_uart_ex.c **** 
 627:Drivers/STM32H7xx_HAL_Driver/Src/stm32h7xx_hal_uart_ex.c ****   /* Determine the number of data to process during RX/TX ISR execution */
 628:Drivers/STM32H7xx_HAL_Driver/Src/stm32h7xx_hal_uart_ex.c ****   UARTEx_SetNbDataToProcess(huart);
 629:Drivers/STM32H7xx_HAL_Driver/Src/stm32h7xx_hal_uart_ex.c **** 
 630:Drivers/STM32H7xx_HAL_Driver/Src/stm32h7xx_hal_uart_ex.c ****   /* Restore UART configuration */
 631:Drivers/STM32H7xx_HAL_Driver/Src/stm32h7xx_hal_uart_ex.c ****   WRITE_REG(huart->Instance->CR1, tmpcr1);
 632:Drivers/STM32H7xx_HAL_Driver/Src/stm32h7xx_hal_uart_ex.c **** 
 633:Drivers/STM32H7xx_HAL_Driver/Src/stm32h7xx_hal_uart_ex.c ****   huart->gState = HAL_UART_STATE_READY;
 634:Drivers/STM32H7xx_HAL_Driver/Src/stm32h7xx_hal_uart_ex.c **** 
 635:Drivers/STM32H7xx_HAL_Driver/Src/stm32h7xx_hal_uart_ex.c ****   /* Process Unlocked */
 636:Drivers/STM32H7xx_HAL_Driver/Src/stm32h7xx_hal_uart_ex.c ****   __HAL_UNLOCK(huart);
 637:Drivers/STM32H7xx_HAL_Driver/Src/stm32h7xx_hal_uart_ex.c **** 
 638:Drivers/STM32H7xx_HAL_Driver/Src/stm32h7xx_hal_uart_ex.c ****   return HAL_OK;
 639:Drivers/STM32H7xx_HAL_Driver/Src/stm32h7xx_hal_uart_ex.c **** }
 640:Drivers/STM32H7xx_HAL_Driver/Src/stm32h7xx_hal_uart_ex.c **** 
 641:Drivers/STM32H7xx_HAL_Driver/Src/stm32h7xx_hal_uart_ex.c **** /**
 642:Drivers/STM32H7xx_HAL_Driver/Src/stm32h7xx_hal_uart_ex.c ****   * @brief  Set the RXFIFO threshold.
 643:Drivers/STM32H7xx_HAL_Driver/Src/stm32h7xx_hal_uart_ex.c ****   * @param huart      UART handle.
 644:Drivers/STM32H7xx_HAL_Driver/Src/stm32h7xx_hal_uart_ex.c ****   * @param Threshold  RX FIFO threshold value
 645:Drivers/STM32H7xx_HAL_Driver/Src/stm32h7xx_hal_uart_ex.c ****   *          This parameter can be one of the following values:
 646:Drivers/STM32H7xx_HAL_Driver/Src/stm32h7xx_hal_uart_ex.c ****   *            @arg @ref UART_RXFIFO_THRESHOLD_1_8
 647:Drivers/STM32H7xx_HAL_Driver/Src/stm32h7xx_hal_uart_ex.c ****   *            @arg @ref UART_RXFIFO_THRESHOLD_1_4
 648:Drivers/STM32H7xx_HAL_Driver/Src/stm32h7xx_hal_uart_ex.c ****   *            @arg @ref UART_RXFIFO_THRESHOLD_1_2
 649:Drivers/STM32H7xx_HAL_Driver/Src/stm32h7xx_hal_uart_ex.c ****   *            @arg @ref UART_RXFIFO_THRESHOLD_3_4
 650:Drivers/STM32H7xx_HAL_Driver/Src/stm32h7xx_hal_uart_ex.c ****   *            @arg @ref UART_RXFIFO_THRESHOLD_7_8
 651:Drivers/STM32H7xx_HAL_Driver/Src/stm32h7xx_hal_uart_ex.c ****   *            @arg @ref UART_RXFIFO_THRESHOLD_8_8
 652:Drivers/STM32H7xx_HAL_Driver/Src/stm32h7xx_hal_uart_ex.c ****   * @retval HAL status
 653:Drivers/STM32H7xx_HAL_Driver/Src/stm32h7xx_hal_uart_ex.c ****   */
 654:Drivers/STM32H7xx_HAL_Driver/Src/stm32h7xx_hal_uart_ex.c **** HAL_StatusTypeDef HAL_UARTEx_SetRxFifoThreshold(UART_HandleTypeDef *huart, uint32_t Threshold)
 655:Drivers/STM32H7xx_HAL_Driver/Src/stm32h7xx_hal_uart_ex.c **** {
 656:Drivers/STM32H7xx_HAL_Driver/Src/stm32h7xx_hal_uart_ex.c ****   uint32_t tmpcr1;
 657:Drivers/STM32H7xx_HAL_Driver/Src/stm32h7xx_hal_uart_ex.c **** 
 658:Drivers/STM32H7xx_HAL_Driver/Src/stm32h7xx_hal_uart_ex.c ****   /* Check the parameters */
ARM GAS  C:\Users\GUILLE~1\AppData\Local\Temp\ccFiIgVY.s 			page 13


 659:Drivers/STM32H7xx_HAL_Driver/Src/stm32h7xx_hal_uart_ex.c ****   assert_param(IS_UART_FIFO_INSTANCE(huart->Instance));
 660:Drivers/STM32H7xx_HAL_Driver/Src/stm32h7xx_hal_uart_ex.c ****   assert_param(IS_UART_RXFIFO_THRESHOLD(Threshold));
 661:Drivers/STM32H7xx_HAL_Driver/Src/stm32h7xx_hal_uart_ex.c **** 
 662:Drivers/STM32H7xx_HAL_Driver/Src/stm32h7xx_hal_uart_ex.c ****   /* Process Locked */
 663:Drivers/STM32H7xx_HAL_Driver/Src/stm32h7xx_hal_uart_ex.c ****   __HAL_LOCK(huart);
 664:Drivers/STM32H7xx_HAL_Driver/Src/stm32h7xx_hal_uart_ex.c **** 
 665:Drivers/STM32H7xx_HAL_Driver/Src/stm32h7xx_hal_uart_ex.c ****   huart->gState = HAL_UART_STATE_BUSY;
 666:Drivers/STM32H7xx_HAL_Driver/Src/stm32h7xx_hal_uart_ex.c **** 
 667:Drivers/STM32H7xx_HAL_Driver/Src/stm32h7xx_hal_uart_ex.c ****   /* Save actual UART configuration */
 668:Drivers/STM32H7xx_HAL_Driver/Src/stm32h7xx_hal_uart_ex.c ****   tmpcr1 = READ_REG(huart->Instance->CR1);
 669:Drivers/STM32H7xx_HAL_Driver/Src/stm32h7xx_hal_uart_ex.c **** 
 670:Drivers/STM32H7xx_HAL_Driver/Src/stm32h7xx_hal_uart_ex.c ****   /* Disable UART */
 671:Drivers/STM32H7xx_HAL_Driver/Src/stm32h7xx_hal_uart_ex.c ****   __HAL_UART_DISABLE(huart);
 672:Drivers/STM32H7xx_HAL_Driver/Src/stm32h7xx_hal_uart_ex.c **** 
 673:Drivers/STM32H7xx_HAL_Driver/Src/stm32h7xx_hal_uart_ex.c ****   /* Update RX threshold configuration */
 674:Drivers/STM32H7xx_HAL_Driver/Src/stm32h7xx_hal_uart_ex.c ****   MODIFY_REG(huart->Instance->CR3, USART_CR3_RXFTCFG, Threshold);
 675:Drivers/STM32H7xx_HAL_Driver/Src/stm32h7xx_hal_uart_ex.c **** 
 676:Drivers/STM32H7xx_HAL_Driver/Src/stm32h7xx_hal_uart_ex.c ****   /* Determine the number of data to process during RX/TX ISR execution */
 677:Drivers/STM32H7xx_HAL_Driver/Src/stm32h7xx_hal_uart_ex.c ****   UARTEx_SetNbDataToProcess(huart);
 678:Drivers/STM32H7xx_HAL_Driver/Src/stm32h7xx_hal_uart_ex.c **** 
 679:Drivers/STM32H7xx_HAL_Driver/Src/stm32h7xx_hal_uart_ex.c ****   /* Restore UART configuration */
 680:Drivers/STM32H7xx_HAL_Driver/Src/stm32h7xx_hal_uart_ex.c ****   WRITE_REG(huart->Instance->CR1, tmpcr1);
 681:Drivers/STM32H7xx_HAL_Driver/Src/stm32h7xx_hal_uart_ex.c **** 
 682:Drivers/STM32H7xx_HAL_Driver/Src/stm32h7xx_hal_uart_ex.c ****   huart->gState = HAL_UART_STATE_READY;
 683:Drivers/STM32H7xx_HAL_Driver/Src/stm32h7xx_hal_uart_ex.c **** 
 684:Drivers/STM32H7xx_HAL_Driver/Src/stm32h7xx_hal_uart_ex.c ****   /* Process Unlocked */
 685:Drivers/STM32H7xx_HAL_Driver/Src/stm32h7xx_hal_uart_ex.c ****   __HAL_UNLOCK(huart);
 686:Drivers/STM32H7xx_HAL_Driver/Src/stm32h7xx_hal_uart_ex.c **** 
 687:Drivers/STM32H7xx_HAL_Driver/Src/stm32h7xx_hal_uart_ex.c ****   return HAL_OK;
 688:Drivers/STM32H7xx_HAL_Driver/Src/stm32h7xx_hal_uart_ex.c **** }
 689:Drivers/STM32H7xx_HAL_Driver/Src/stm32h7xx_hal_uart_ex.c **** 
 690:Drivers/STM32H7xx_HAL_Driver/Src/stm32h7xx_hal_uart_ex.c **** /**
 691:Drivers/STM32H7xx_HAL_Driver/Src/stm32h7xx_hal_uart_ex.c ****   * @brief Receive an amount of data in blocking mode till either the expected number of data
 692:Drivers/STM32H7xx_HAL_Driver/Src/stm32h7xx_hal_uart_ex.c ****   *        is received or an IDLE event occurs.
 693:Drivers/STM32H7xx_HAL_Driver/Src/stm32h7xx_hal_uart_ex.c ****   * @note  HAL_OK is returned if reception is completed (expected number of data has been received)
 694:Drivers/STM32H7xx_HAL_Driver/Src/stm32h7xx_hal_uart_ex.c ****   *        or if reception is stopped after IDLE event (less than the expected number of data has b
 695:Drivers/STM32H7xx_HAL_Driver/Src/stm32h7xx_hal_uart_ex.c ****   *        In this case, RxLen output parameter indicates number of data available in reception buf
 696:Drivers/STM32H7xx_HAL_Driver/Src/stm32h7xx_hal_uart_ex.c ****   * @note  When UART parity is not enabled (PCE = 0), and Word Length is configured to 9 bits (M1-M
 697:Drivers/STM32H7xx_HAL_Driver/Src/stm32h7xx_hal_uart_ex.c ****   *        the received data is handled as a set of uint16_t. In this case, Size must indicate the 
 698:Drivers/STM32H7xx_HAL_Driver/Src/stm32h7xx_hal_uart_ex.c ****   *        of uint16_t available through pData.
 699:Drivers/STM32H7xx_HAL_Driver/Src/stm32h7xx_hal_uart_ex.c ****   * @note When FIFO mode is enabled, the RXFNE flag is set as long as the RXFIFO
 700:Drivers/STM32H7xx_HAL_Driver/Src/stm32h7xx_hal_uart_ex.c ****   *       is not empty. Read operations from the RDR register are performed when
 701:Drivers/STM32H7xx_HAL_Driver/Src/stm32h7xx_hal_uart_ex.c ****   *       RXFNE flag is set. From hardware perspective, RXFNE flag and
 702:Drivers/STM32H7xx_HAL_Driver/Src/stm32h7xx_hal_uart_ex.c ****   *       RXNE are mapped on the same bit-field.
 703:Drivers/STM32H7xx_HAL_Driver/Src/stm32h7xx_hal_uart_ex.c ****   * @param huart   UART handle.
 704:Drivers/STM32H7xx_HAL_Driver/Src/stm32h7xx_hal_uart_ex.c ****   * @param pData   Pointer to data buffer (uint8_t or uint16_t data elements).
 705:Drivers/STM32H7xx_HAL_Driver/Src/stm32h7xx_hal_uart_ex.c ****   * @param Size    Amount of data elements (uint8_t or uint16_t) to be received.
 706:Drivers/STM32H7xx_HAL_Driver/Src/stm32h7xx_hal_uart_ex.c ****   * @param RxLen   Number of data elements finally received
 707:Drivers/STM32H7xx_HAL_Driver/Src/stm32h7xx_hal_uart_ex.c ****   *                (could be lower than Size, in case reception ends on IDLE event)
 708:Drivers/STM32H7xx_HAL_Driver/Src/stm32h7xx_hal_uart_ex.c ****   * @param Timeout Timeout duration expressed in ms (covers the whole reception sequence).
 709:Drivers/STM32H7xx_HAL_Driver/Src/stm32h7xx_hal_uart_ex.c ****   * @retval HAL status
 710:Drivers/STM32H7xx_HAL_Driver/Src/stm32h7xx_hal_uart_ex.c ****   */
 711:Drivers/STM32H7xx_HAL_Driver/Src/stm32h7xx_hal_uart_ex.c **** HAL_StatusTypeDef HAL_UARTEx_ReceiveToIdle(UART_HandleTypeDef *huart, uint8_t *pData, uint16_t Size
 712:Drivers/STM32H7xx_HAL_Driver/Src/stm32h7xx_hal_uart_ex.c ****                                            uint32_t Timeout)
 713:Drivers/STM32H7xx_HAL_Driver/Src/stm32h7xx_hal_uart_ex.c **** {
 714:Drivers/STM32H7xx_HAL_Driver/Src/stm32h7xx_hal_uart_ex.c ****   uint8_t  *pdata8bits;
 715:Drivers/STM32H7xx_HAL_Driver/Src/stm32h7xx_hal_uart_ex.c ****   uint16_t *pdata16bits;
ARM GAS  C:\Users\GUILLE~1\AppData\Local\Temp\ccFiIgVY.s 			page 14


 716:Drivers/STM32H7xx_HAL_Driver/Src/stm32h7xx_hal_uart_ex.c ****   uint16_t uhMask;
 717:Drivers/STM32H7xx_HAL_Driver/Src/stm32h7xx_hal_uart_ex.c ****   uint32_t tickstart;
 718:Drivers/STM32H7xx_HAL_Driver/Src/stm32h7xx_hal_uart_ex.c **** 
 719:Drivers/STM32H7xx_HAL_Driver/Src/stm32h7xx_hal_uart_ex.c ****   /* Check that a Rx process is not already ongoing */
 720:Drivers/STM32H7xx_HAL_Driver/Src/stm32h7xx_hal_uart_ex.c ****   if (huart->RxState == HAL_UART_STATE_READY)
 721:Drivers/STM32H7xx_HAL_Driver/Src/stm32h7xx_hal_uart_ex.c ****   {
 722:Drivers/STM32H7xx_HAL_Driver/Src/stm32h7xx_hal_uart_ex.c ****     if ((pData == NULL) || (Size == 0U))
 723:Drivers/STM32H7xx_HAL_Driver/Src/stm32h7xx_hal_uart_ex.c ****     {
 724:Drivers/STM32H7xx_HAL_Driver/Src/stm32h7xx_hal_uart_ex.c ****       return  HAL_ERROR;
 725:Drivers/STM32H7xx_HAL_Driver/Src/stm32h7xx_hal_uart_ex.c ****     }
 726:Drivers/STM32H7xx_HAL_Driver/Src/stm32h7xx_hal_uart_ex.c **** 
 727:Drivers/STM32H7xx_HAL_Driver/Src/stm32h7xx_hal_uart_ex.c ****     __HAL_LOCK(huart);
 728:Drivers/STM32H7xx_HAL_Driver/Src/stm32h7xx_hal_uart_ex.c **** 
 729:Drivers/STM32H7xx_HAL_Driver/Src/stm32h7xx_hal_uart_ex.c ****     huart->ErrorCode = HAL_UART_ERROR_NONE;
 730:Drivers/STM32H7xx_HAL_Driver/Src/stm32h7xx_hal_uart_ex.c ****     huart->RxState = HAL_UART_STATE_BUSY_RX;
 731:Drivers/STM32H7xx_HAL_Driver/Src/stm32h7xx_hal_uart_ex.c ****     huart->ReceptionType = HAL_UART_RECEPTION_TOIDLE;
 732:Drivers/STM32H7xx_HAL_Driver/Src/stm32h7xx_hal_uart_ex.c **** 
 733:Drivers/STM32H7xx_HAL_Driver/Src/stm32h7xx_hal_uart_ex.c ****     /* Init tickstart for timeout management */
 734:Drivers/STM32H7xx_HAL_Driver/Src/stm32h7xx_hal_uart_ex.c ****     tickstart = HAL_GetTick();
 735:Drivers/STM32H7xx_HAL_Driver/Src/stm32h7xx_hal_uart_ex.c **** 
 736:Drivers/STM32H7xx_HAL_Driver/Src/stm32h7xx_hal_uart_ex.c ****     huart->RxXferSize  = Size;
 737:Drivers/STM32H7xx_HAL_Driver/Src/stm32h7xx_hal_uart_ex.c ****     huart->RxXferCount = Size;
 738:Drivers/STM32H7xx_HAL_Driver/Src/stm32h7xx_hal_uart_ex.c **** 
 739:Drivers/STM32H7xx_HAL_Driver/Src/stm32h7xx_hal_uart_ex.c ****     /* Computation of UART mask to apply to RDR register */
 740:Drivers/STM32H7xx_HAL_Driver/Src/stm32h7xx_hal_uart_ex.c ****     UART_MASK_COMPUTATION(huart);
 741:Drivers/STM32H7xx_HAL_Driver/Src/stm32h7xx_hal_uart_ex.c ****     uhMask = huart->Mask;
 742:Drivers/STM32H7xx_HAL_Driver/Src/stm32h7xx_hal_uart_ex.c **** 
 743:Drivers/STM32H7xx_HAL_Driver/Src/stm32h7xx_hal_uart_ex.c ****     /* In case of 9bits/No Parity transfer, pRxData needs to be handled as a uint16_t pointer */
 744:Drivers/STM32H7xx_HAL_Driver/Src/stm32h7xx_hal_uart_ex.c ****     if ((huart->Init.WordLength == UART_WORDLENGTH_9B) && (huart->Init.Parity == UART_PARITY_NONE))
 745:Drivers/STM32H7xx_HAL_Driver/Src/stm32h7xx_hal_uart_ex.c ****     {
 746:Drivers/STM32H7xx_HAL_Driver/Src/stm32h7xx_hal_uart_ex.c ****       pdata8bits  = NULL;
 747:Drivers/STM32H7xx_HAL_Driver/Src/stm32h7xx_hal_uart_ex.c ****       pdata16bits = (uint16_t *) pData;
 748:Drivers/STM32H7xx_HAL_Driver/Src/stm32h7xx_hal_uart_ex.c ****     }
 749:Drivers/STM32H7xx_HAL_Driver/Src/stm32h7xx_hal_uart_ex.c ****     else
 750:Drivers/STM32H7xx_HAL_Driver/Src/stm32h7xx_hal_uart_ex.c ****     {
 751:Drivers/STM32H7xx_HAL_Driver/Src/stm32h7xx_hal_uart_ex.c ****       pdata8bits  = pData;
 752:Drivers/STM32H7xx_HAL_Driver/Src/stm32h7xx_hal_uart_ex.c ****       pdata16bits = NULL;
 753:Drivers/STM32H7xx_HAL_Driver/Src/stm32h7xx_hal_uart_ex.c ****     }
 754:Drivers/STM32H7xx_HAL_Driver/Src/stm32h7xx_hal_uart_ex.c **** 
 755:Drivers/STM32H7xx_HAL_Driver/Src/stm32h7xx_hal_uart_ex.c ****     __HAL_UNLOCK(huart);
 756:Drivers/STM32H7xx_HAL_Driver/Src/stm32h7xx_hal_uart_ex.c **** 
 757:Drivers/STM32H7xx_HAL_Driver/Src/stm32h7xx_hal_uart_ex.c ****     /* Initialize output number of received elements */
 758:Drivers/STM32H7xx_HAL_Driver/Src/stm32h7xx_hal_uart_ex.c ****     *RxLen = 0U;
 759:Drivers/STM32H7xx_HAL_Driver/Src/stm32h7xx_hal_uart_ex.c **** 
 760:Drivers/STM32H7xx_HAL_Driver/Src/stm32h7xx_hal_uart_ex.c ****     /* as long as data have to be received */
 761:Drivers/STM32H7xx_HAL_Driver/Src/stm32h7xx_hal_uart_ex.c ****     while (huart->RxXferCount > 0U)
 762:Drivers/STM32H7xx_HAL_Driver/Src/stm32h7xx_hal_uart_ex.c ****     {
 763:Drivers/STM32H7xx_HAL_Driver/Src/stm32h7xx_hal_uart_ex.c ****       /* Check if IDLE flag is set */
 764:Drivers/STM32H7xx_HAL_Driver/Src/stm32h7xx_hal_uart_ex.c ****       if (__HAL_UART_GET_FLAG(huart, UART_FLAG_IDLE))
 765:Drivers/STM32H7xx_HAL_Driver/Src/stm32h7xx_hal_uart_ex.c ****       {
 766:Drivers/STM32H7xx_HAL_Driver/Src/stm32h7xx_hal_uart_ex.c ****         /* Clear IDLE flag in ISR */
 767:Drivers/STM32H7xx_HAL_Driver/Src/stm32h7xx_hal_uart_ex.c ****         __HAL_UART_CLEAR_FLAG(huart, UART_CLEAR_IDLEF);
 768:Drivers/STM32H7xx_HAL_Driver/Src/stm32h7xx_hal_uart_ex.c **** 
 769:Drivers/STM32H7xx_HAL_Driver/Src/stm32h7xx_hal_uart_ex.c ****         /* If Set, but no data ever received, clear flag without exiting loop */
 770:Drivers/STM32H7xx_HAL_Driver/Src/stm32h7xx_hal_uart_ex.c ****         /* If Set, and data has already been received, this means Idle Event is valid : End recepti
 771:Drivers/STM32H7xx_HAL_Driver/Src/stm32h7xx_hal_uart_ex.c ****         if (*RxLen > 0U)
 772:Drivers/STM32H7xx_HAL_Driver/Src/stm32h7xx_hal_uart_ex.c ****         {
ARM GAS  C:\Users\GUILLE~1\AppData\Local\Temp\ccFiIgVY.s 			page 15


 773:Drivers/STM32H7xx_HAL_Driver/Src/stm32h7xx_hal_uart_ex.c ****           huart->RxState = HAL_UART_STATE_READY;
 774:Drivers/STM32H7xx_HAL_Driver/Src/stm32h7xx_hal_uart_ex.c **** 
 775:Drivers/STM32H7xx_HAL_Driver/Src/stm32h7xx_hal_uart_ex.c ****           return HAL_OK;
 776:Drivers/STM32H7xx_HAL_Driver/Src/stm32h7xx_hal_uart_ex.c ****         }
 777:Drivers/STM32H7xx_HAL_Driver/Src/stm32h7xx_hal_uart_ex.c ****       }
 778:Drivers/STM32H7xx_HAL_Driver/Src/stm32h7xx_hal_uart_ex.c **** 
 779:Drivers/STM32H7xx_HAL_Driver/Src/stm32h7xx_hal_uart_ex.c ****       /* Check if RXNE flag is set */
 780:Drivers/STM32H7xx_HAL_Driver/Src/stm32h7xx_hal_uart_ex.c ****       if (__HAL_UART_GET_FLAG(huart, UART_FLAG_RXNE))
 781:Drivers/STM32H7xx_HAL_Driver/Src/stm32h7xx_hal_uart_ex.c ****       {
 782:Drivers/STM32H7xx_HAL_Driver/Src/stm32h7xx_hal_uart_ex.c ****         if (pdata8bits == NULL)
 783:Drivers/STM32H7xx_HAL_Driver/Src/stm32h7xx_hal_uart_ex.c ****         {
 784:Drivers/STM32H7xx_HAL_Driver/Src/stm32h7xx_hal_uart_ex.c ****           *pdata16bits = (uint16_t)(huart->Instance->RDR & uhMask);
 785:Drivers/STM32H7xx_HAL_Driver/Src/stm32h7xx_hal_uart_ex.c ****           pdata16bits++;
 786:Drivers/STM32H7xx_HAL_Driver/Src/stm32h7xx_hal_uart_ex.c ****         }
 787:Drivers/STM32H7xx_HAL_Driver/Src/stm32h7xx_hal_uart_ex.c ****         else
 788:Drivers/STM32H7xx_HAL_Driver/Src/stm32h7xx_hal_uart_ex.c ****         {
 789:Drivers/STM32H7xx_HAL_Driver/Src/stm32h7xx_hal_uart_ex.c ****           *pdata8bits = (uint8_t)(huart->Instance->RDR & (uint8_t)uhMask);
 790:Drivers/STM32H7xx_HAL_Driver/Src/stm32h7xx_hal_uart_ex.c ****           pdata8bits++;
 791:Drivers/STM32H7xx_HAL_Driver/Src/stm32h7xx_hal_uart_ex.c ****         }
 792:Drivers/STM32H7xx_HAL_Driver/Src/stm32h7xx_hal_uart_ex.c ****         /* Increment number of received elements */
 793:Drivers/STM32H7xx_HAL_Driver/Src/stm32h7xx_hal_uart_ex.c ****         *RxLen += 1U;
 794:Drivers/STM32H7xx_HAL_Driver/Src/stm32h7xx_hal_uart_ex.c ****         huart->RxXferCount--;
 795:Drivers/STM32H7xx_HAL_Driver/Src/stm32h7xx_hal_uart_ex.c ****       }
 796:Drivers/STM32H7xx_HAL_Driver/Src/stm32h7xx_hal_uart_ex.c **** 
 797:Drivers/STM32H7xx_HAL_Driver/Src/stm32h7xx_hal_uart_ex.c ****       /* Check for the Timeout */
 798:Drivers/STM32H7xx_HAL_Driver/Src/stm32h7xx_hal_uart_ex.c ****       if (Timeout != HAL_MAX_DELAY)
 799:Drivers/STM32H7xx_HAL_Driver/Src/stm32h7xx_hal_uart_ex.c ****       {
 800:Drivers/STM32H7xx_HAL_Driver/Src/stm32h7xx_hal_uart_ex.c ****         if (((HAL_GetTick() - tickstart) > Timeout) || (Timeout == 0U))
 801:Drivers/STM32H7xx_HAL_Driver/Src/stm32h7xx_hal_uart_ex.c ****         {
 802:Drivers/STM32H7xx_HAL_Driver/Src/stm32h7xx_hal_uart_ex.c ****           huart->RxState = HAL_UART_STATE_READY;
 803:Drivers/STM32H7xx_HAL_Driver/Src/stm32h7xx_hal_uart_ex.c **** 
 804:Drivers/STM32H7xx_HAL_Driver/Src/stm32h7xx_hal_uart_ex.c ****           return HAL_TIMEOUT;
 805:Drivers/STM32H7xx_HAL_Driver/Src/stm32h7xx_hal_uart_ex.c ****         }
 806:Drivers/STM32H7xx_HAL_Driver/Src/stm32h7xx_hal_uart_ex.c ****       }
 807:Drivers/STM32H7xx_HAL_Driver/Src/stm32h7xx_hal_uart_ex.c ****     }
 808:Drivers/STM32H7xx_HAL_Driver/Src/stm32h7xx_hal_uart_ex.c **** 
 809:Drivers/STM32H7xx_HAL_Driver/Src/stm32h7xx_hal_uart_ex.c ****     /* Set number of received elements in output parameter : RxLen */
 810:Drivers/STM32H7xx_HAL_Driver/Src/stm32h7xx_hal_uart_ex.c ****     *RxLen = huart->RxXferSize - huart->RxXferCount;
 811:Drivers/STM32H7xx_HAL_Driver/Src/stm32h7xx_hal_uart_ex.c ****     /* At end of Rx process, restore huart->RxState to Ready */
 812:Drivers/STM32H7xx_HAL_Driver/Src/stm32h7xx_hal_uart_ex.c ****     huart->RxState = HAL_UART_STATE_READY;
 813:Drivers/STM32H7xx_HAL_Driver/Src/stm32h7xx_hal_uart_ex.c **** 
 814:Drivers/STM32H7xx_HAL_Driver/Src/stm32h7xx_hal_uart_ex.c ****     return HAL_OK;
 815:Drivers/STM32H7xx_HAL_Driver/Src/stm32h7xx_hal_uart_ex.c ****   }
 816:Drivers/STM32H7xx_HAL_Driver/Src/stm32h7xx_hal_uart_ex.c ****   else
 817:Drivers/STM32H7xx_HAL_Driver/Src/stm32h7xx_hal_uart_ex.c ****   {
 818:Drivers/STM32H7xx_HAL_Driver/Src/stm32h7xx_hal_uart_ex.c ****     return HAL_BUSY;
 819:Drivers/STM32H7xx_HAL_Driver/Src/stm32h7xx_hal_uart_ex.c ****   }
 820:Drivers/STM32H7xx_HAL_Driver/Src/stm32h7xx_hal_uart_ex.c **** }
 821:Drivers/STM32H7xx_HAL_Driver/Src/stm32h7xx_hal_uart_ex.c **** 
 822:Drivers/STM32H7xx_HAL_Driver/Src/stm32h7xx_hal_uart_ex.c **** /**
 823:Drivers/STM32H7xx_HAL_Driver/Src/stm32h7xx_hal_uart_ex.c ****   * @brief Receive an amount of data in interrupt mode till either the expected number of data
 824:Drivers/STM32H7xx_HAL_Driver/Src/stm32h7xx_hal_uart_ex.c ****   *        is received or an IDLE event occurs.
 825:Drivers/STM32H7xx_HAL_Driver/Src/stm32h7xx_hal_uart_ex.c ****   * @note  Reception is initiated by this function call. Further progress of reception is achieved 
 826:Drivers/STM32H7xx_HAL_Driver/Src/stm32h7xx_hal_uart_ex.c ****   *        to UART interrupts raised by RXNE and IDLE events. Callback is called at end of receptio
 827:Drivers/STM32H7xx_HAL_Driver/Src/stm32h7xx_hal_uart_ex.c ****   *        number of received data elements.
 828:Drivers/STM32H7xx_HAL_Driver/Src/stm32h7xx_hal_uart_ex.c ****   * @note  When UART parity is not enabled (PCE = 0), and Word Length is configured to 9 bits (M1-M
 829:Drivers/STM32H7xx_HAL_Driver/Src/stm32h7xx_hal_uart_ex.c ****   *        the received data is handled as a set of uint16_t. In this case, Size must indicate the 
ARM GAS  C:\Users\GUILLE~1\AppData\Local\Temp\ccFiIgVY.s 			page 16


 830:Drivers/STM32H7xx_HAL_Driver/Src/stm32h7xx_hal_uart_ex.c ****   *        of uint16_t available through pData.
 831:Drivers/STM32H7xx_HAL_Driver/Src/stm32h7xx_hal_uart_ex.c ****   * @param huart UART handle.
 832:Drivers/STM32H7xx_HAL_Driver/Src/stm32h7xx_hal_uart_ex.c ****   * @param pData Pointer to data buffer (uint8_t or uint16_t data elements).
 833:Drivers/STM32H7xx_HAL_Driver/Src/stm32h7xx_hal_uart_ex.c ****   * @param Size  Amount of data elements (uint8_t or uint16_t) to be received.
 834:Drivers/STM32H7xx_HAL_Driver/Src/stm32h7xx_hal_uart_ex.c ****   * @retval HAL status
 835:Drivers/STM32H7xx_HAL_Driver/Src/stm32h7xx_hal_uart_ex.c ****   */
 836:Drivers/STM32H7xx_HAL_Driver/Src/stm32h7xx_hal_uart_ex.c **** HAL_StatusTypeDef HAL_UARTEx_ReceiveToIdle_IT(UART_HandleTypeDef *huart, uint8_t *pData, uint16_t S
 837:Drivers/STM32H7xx_HAL_Driver/Src/stm32h7xx_hal_uart_ex.c **** {
 838:Drivers/STM32H7xx_HAL_Driver/Src/stm32h7xx_hal_uart_ex.c ****   HAL_StatusTypeDef status;
 839:Drivers/STM32H7xx_HAL_Driver/Src/stm32h7xx_hal_uart_ex.c **** 
 840:Drivers/STM32H7xx_HAL_Driver/Src/stm32h7xx_hal_uart_ex.c ****   /* Check that a Rx process is not already ongoing */
 841:Drivers/STM32H7xx_HAL_Driver/Src/stm32h7xx_hal_uart_ex.c ****   if (huart->RxState == HAL_UART_STATE_READY)
 842:Drivers/STM32H7xx_HAL_Driver/Src/stm32h7xx_hal_uart_ex.c ****   {
 843:Drivers/STM32H7xx_HAL_Driver/Src/stm32h7xx_hal_uart_ex.c ****     if ((pData == NULL) || (Size == 0U))
 844:Drivers/STM32H7xx_HAL_Driver/Src/stm32h7xx_hal_uart_ex.c ****     {
 845:Drivers/STM32H7xx_HAL_Driver/Src/stm32h7xx_hal_uart_ex.c ****       return HAL_ERROR;
 846:Drivers/STM32H7xx_HAL_Driver/Src/stm32h7xx_hal_uart_ex.c ****     }
 847:Drivers/STM32H7xx_HAL_Driver/Src/stm32h7xx_hal_uart_ex.c **** 
 848:Drivers/STM32H7xx_HAL_Driver/Src/stm32h7xx_hal_uart_ex.c ****     __HAL_LOCK(huart);
 849:Drivers/STM32H7xx_HAL_Driver/Src/stm32h7xx_hal_uart_ex.c **** 
 850:Drivers/STM32H7xx_HAL_Driver/Src/stm32h7xx_hal_uart_ex.c ****     /* Set Reception type to reception till IDLE Event*/
 851:Drivers/STM32H7xx_HAL_Driver/Src/stm32h7xx_hal_uart_ex.c ****     huart->ReceptionType = HAL_UART_RECEPTION_TOIDLE;
 852:Drivers/STM32H7xx_HAL_Driver/Src/stm32h7xx_hal_uart_ex.c **** 
 853:Drivers/STM32H7xx_HAL_Driver/Src/stm32h7xx_hal_uart_ex.c ****     status =  UART_Start_Receive_IT(huart, pData, Size);
 854:Drivers/STM32H7xx_HAL_Driver/Src/stm32h7xx_hal_uart_ex.c **** 
 855:Drivers/STM32H7xx_HAL_Driver/Src/stm32h7xx_hal_uart_ex.c ****     /* Check Rx process has been successfully started */
 856:Drivers/STM32H7xx_HAL_Driver/Src/stm32h7xx_hal_uart_ex.c ****     if (status == HAL_OK)
 857:Drivers/STM32H7xx_HAL_Driver/Src/stm32h7xx_hal_uart_ex.c ****     {
 858:Drivers/STM32H7xx_HAL_Driver/Src/stm32h7xx_hal_uart_ex.c ****       if (huart->ReceptionType == HAL_UART_RECEPTION_TOIDLE)
 859:Drivers/STM32H7xx_HAL_Driver/Src/stm32h7xx_hal_uart_ex.c ****       {
 860:Drivers/STM32H7xx_HAL_Driver/Src/stm32h7xx_hal_uart_ex.c ****         __HAL_UART_CLEAR_FLAG(huart, UART_CLEAR_IDLEF);
 861:Drivers/STM32H7xx_HAL_Driver/Src/stm32h7xx_hal_uart_ex.c ****         SET_BIT(huart->Instance->CR1, USART_CR1_IDLEIE);
 862:Drivers/STM32H7xx_HAL_Driver/Src/stm32h7xx_hal_uart_ex.c ****       }
 863:Drivers/STM32H7xx_HAL_Driver/Src/stm32h7xx_hal_uart_ex.c ****       else
 864:Drivers/STM32H7xx_HAL_Driver/Src/stm32h7xx_hal_uart_ex.c ****       {
 865:Drivers/STM32H7xx_HAL_Driver/Src/stm32h7xx_hal_uart_ex.c ****         /* In case of errors already pending when reception is started,
 866:Drivers/STM32H7xx_HAL_Driver/Src/stm32h7xx_hal_uart_ex.c ****            Interrupts may have already been raised and lead to reception abortion.
 867:Drivers/STM32H7xx_HAL_Driver/Src/stm32h7xx_hal_uart_ex.c ****            (Overrun error for instance).
 868:Drivers/STM32H7xx_HAL_Driver/Src/stm32h7xx_hal_uart_ex.c ****            In such case Reception Type has been reset to HAL_UART_RECEPTION_STANDARD. */
 869:Drivers/STM32H7xx_HAL_Driver/Src/stm32h7xx_hal_uart_ex.c ****         status = HAL_ERROR;
 870:Drivers/STM32H7xx_HAL_Driver/Src/stm32h7xx_hal_uart_ex.c ****       }
 871:Drivers/STM32H7xx_HAL_Driver/Src/stm32h7xx_hal_uart_ex.c ****     }
 872:Drivers/STM32H7xx_HAL_Driver/Src/stm32h7xx_hal_uart_ex.c **** 
 873:Drivers/STM32H7xx_HAL_Driver/Src/stm32h7xx_hal_uart_ex.c ****     return status;
 874:Drivers/STM32H7xx_HAL_Driver/Src/stm32h7xx_hal_uart_ex.c ****   }
 875:Drivers/STM32H7xx_HAL_Driver/Src/stm32h7xx_hal_uart_ex.c ****   else
 876:Drivers/STM32H7xx_HAL_Driver/Src/stm32h7xx_hal_uart_ex.c ****   {
 877:Drivers/STM32H7xx_HAL_Driver/Src/stm32h7xx_hal_uart_ex.c ****     return HAL_BUSY;
 878:Drivers/STM32H7xx_HAL_Driver/Src/stm32h7xx_hal_uart_ex.c ****   }
 879:Drivers/STM32H7xx_HAL_Driver/Src/stm32h7xx_hal_uart_ex.c **** }
 880:Drivers/STM32H7xx_HAL_Driver/Src/stm32h7xx_hal_uart_ex.c **** 
 881:Drivers/STM32H7xx_HAL_Driver/Src/stm32h7xx_hal_uart_ex.c **** /**
 882:Drivers/STM32H7xx_HAL_Driver/Src/stm32h7xx_hal_uart_ex.c ****   * @brief Receive an amount of data in DMA mode till either the expected number
 883:Drivers/STM32H7xx_HAL_Driver/Src/stm32h7xx_hal_uart_ex.c ****   *        of data is received or an IDLE event occurs.
 884:Drivers/STM32H7xx_HAL_Driver/Src/stm32h7xx_hal_uart_ex.c ****   * @note  Reception is initiated by this function call. Further progress of reception is achieved 
 885:Drivers/STM32H7xx_HAL_Driver/Src/stm32h7xx_hal_uart_ex.c ****   *        to DMA services, transferring automatically received data elements in user reception buf
 886:Drivers/STM32H7xx_HAL_Driver/Src/stm32h7xx_hal_uart_ex.c ****   *        calling registered callbacks at half/end of reception. UART IDLE events are also used to
ARM GAS  C:\Users\GUILLE~1\AppData\Local\Temp\ccFiIgVY.s 			page 17


 887:Drivers/STM32H7xx_HAL_Driver/Src/stm32h7xx_hal_uart_ex.c ****   *        reception phase as ended. In all cases, callback execution will indicate number of recei
 888:Drivers/STM32H7xx_HAL_Driver/Src/stm32h7xx_hal_uart_ex.c ****   * @note  When the UART parity is enabled (PCE = 1), the received data contain
 889:Drivers/STM32H7xx_HAL_Driver/Src/stm32h7xx_hal_uart_ex.c ****   *        the parity bit (MSB position).
 890:Drivers/STM32H7xx_HAL_Driver/Src/stm32h7xx_hal_uart_ex.c ****   * @note  When UART parity is not enabled (PCE = 0), and Word Length is configured to 9 bits (M1-M
 891:Drivers/STM32H7xx_HAL_Driver/Src/stm32h7xx_hal_uart_ex.c ****   *        the received data is handled as a set of uint16_t. In this case, Size must indicate the 
 892:Drivers/STM32H7xx_HAL_Driver/Src/stm32h7xx_hal_uart_ex.c ****   *        of uint16_t available through pData.
 893:Drivers/STM32H7xx_HAL_Driver/Src/stm32h7xx_hal_uart_ex.c ****   * @param huart UART handle.
 894:Drivers/STM32H7xx_HAL_Driver/Src/stm32h7xx_hal_uart_ex.c ****   * @param pData Pointer to data buffer (uint8_t or uint16_t data elements).
 895:Drivers/STM32H7xx_HAL_Driver/Src/stm32h7xx_hal_uart_ex.c ****   * @param Size  Amount of data elements (uint8_t or uint16_t) to be received.
 896:Drivers/STM32H7xx_HAL_Driver/Src/stm32h7xx_hal_uart_ex.c ****   * @retval HAL status
 897:Drivers/STM32H7xx_HAL_Driver/Src/stm32h7xx_hal_uart_ex.c ****   */
 898:Drivers/STM32H7xx_HAL_Driver/Src/stm32h7xx_hal_uart_ex.c **** HAL_StatusTypeDef HAL_UARTEx_ReceiveToIdle_DMA(UART_HandleTypeDef *huart, uint8_t *pData, uint16_t 
 899:Drivers/STM32H7xx_HAL_Driver/Src/stm32h7xx_hal_uart_ex.c **** {
 900:Drivers/STM32H7xx_HAL_Driver/Src/stm32h7xx_hal_uart_ex.c ****   HAL_StatusTypeDef status;
 901:Drivers/STM32H7xx_HAL_Driver/Src/stm32h7xx_hal_uart_ex.c **** 
 902:Drivers/STM32H7xx_HAL_Driver/Src/stm32h7xx_hal_uart_ex.c ****   /* Check that a Rx process is not already ongoing */
 903:Drivers/STM32H7xx_HAL_Driver/Src/stm32h7xx_hal_uart_ex.c ****   if (huart->RxState == HAL_UART_STATE_READY)
 904:Drivers/STM32H7xx_HAL_Driver/Src/stm32h7xx_hal_uart_ex.c ****   {
 905:Drivers/STM32H7xx_HAL_Driver/Src/stm32h7xx_hal_uart_ex.c ****     if ((pData == NULL) || (Size == 0U))
 906:Drivers/STM32H7xx_HAL_Driver/Src/stm32h7xx_hal_uart_ex.c ****     {
 907:Drivers/STM32H7xx_HAL_Driver/Src/stm32h7xx_hal_uart_ex.c ****       return HAL_ERROR;
 908:Drivers/STM32H7xx_HAL_Driver/Src/stm32h7xx_hal_uart_ex.c ****     }
 909:Drivers/STM32H7xx_HAL_Driver/Src/stm32h7xx_hal_uart_ex.c **** 
 910:Drivers/STM32H7xx_HAL_Driver/Src/stm32h7xx_hal_uart_ex.c ****     __HAL_LOCK(huart);
 911:Drivers/STM32H7xx_HAL_Driver/Src/stm32h7xx_hal_uart_ex.c **** 
 912:Drivers/STM32H7xx_HAL_Driver/Src/stm32h7xx_hal_uart_ex.c ****     /* Set Reception type to reception till IDLE Event*/
 913:Drivers/STM32H7xx_HAL_Driver/Src/stm32h7xx_hal_uart_ex.c ****     huart->ReceptionType = HAL_UART_RECEPTION_TOIDLE;
 914:Drivers/STM32H7xx_HAL_Driver/Src/stm32h7xx_hal_uart_ex.c **** 
 915:Drivers/STM32H7xx_HAL_Driver/Src/stm32h7xx_hal_uart_ex.c ****     status =  UART_Start_Receive_DMA(huart, pData, Size);
 916:Drivers/STM32H7xx_HAL_Driver/Src/stm32h7xx_hal_uart_ex.c **** 
 917:Drivers/STM32H7xx_HAL_Driver/Src/stm32h7xx_hal_uart_ex.c ****     /* Check Rx process has been successfully started */
 918:Drivers/STM32H7xx_HAL_Driver/Src/stm32h7xx_hal_uart_ex.c ****     if (status == HAL_OK)
 919:Drivers/STM32H7xx_HAL_Driver/Src/stm32h7xx_hal_uart_ex.c ****     {
 920:Drivers/STM32H7xx_HAL_Driver/Src/stm32h7xx_hal_uart_ex.c ****       if (huart->ReceptionType == HAL_UART_RECEPTION_TOIDLE)
 921:Drivers/STM32H7xx_HAL_Driver/Src/stm32h7xx_hal_uart_ex.c ****       {
 922:Drivers/STM32H7xx_HAL_Driver/Src/stm32h7xx_hal_uart_ex.c ****         __HAL_UART_CLEAR_FLAG(huart, UART_CLEAR_IDLEF);
 923:Drivers/STM32H7xx_HAL_Driver/Src/stm32h7xx_hal_uart_ex.c ****         SET_BIT(huart->Instance->CR1, USART_CR1_IDLEIE);
 924:Drivers/STM32H7xx_HAL_Driver/Src/stm32h7xx_hal_uart_ex.c ****       }
 925:Drivers/STM32H7xx_HAL_Driver/Src/stm32h7xx_hal_uart_ex.c ****       else
 926:Drivers/STM32H7xx_HAL_Driver/Src/stm32h7xx_hal_uart_ex.c ****       {
 927:Drivers/STM32H7xx_HAL_Driver/Src/stm32h7xx_hal_uart_ex.c ****         /* In case of errors already pending when reception is started,
 928:Drivers/STM32H7xx_HAL_Driver/Src/stm32h7xx_hal_uart_ex.c ****            Interrupts may have already been raised and lead to reception abortion.
 929:Drivers/STM32H7xx_HAL_Driver/Src/stm32h7xx_hal_uart_ex.c ****            (Overrun error for instance).
 930:Drivers/STM32H7xx_HAL_Driver/Src/stm32h7xx_hal_uart_ex.c ****            In such case Reception Type has been reset to HAL_UART_RECEPTION_STANDARD. */
 931:Drivers/STM32H7xx_HAL_Driver/Src/stm32h7xx_hal_uart_ex.c ****         status = HAL_ERROR;
 932:Drivers/STM32H7xx_HAL_Driver/Src/stm32h7xx_hal_uart_ex.c ****       }
 933:Drivers/STM32H7xx_HAL_Driver/Src/stm32h7xx_hal_uart_ex.c ****     }
 934:Drivers/STM32H7xx_HAL_Driver/Src/stm32h7xx_hal_uart_ex.c **** 
 935:Drivers/STM32H7xx_HAL_Driver/Src/stm32h7xx_hal_uart_ex.c ****     return status;
 936:Drivers/STM32H7xx_HAL_Driver/Src/stm32h7xx_hal_uart_ex.c ****   }
 937:Drivers/STM32H7xx_HAL_Driver/Src/stm32h7xx_hal_uart_ex.c ****   else
 938:Drivers/STM32H7xx_HAL_Driver/Src/stm32h7xx_hal_uart_ex.c ****   {
 939:Drivers/STM32H7xx_HAL_Driver/Src/stm32h7xx_hal_uart_ex.c ****     return HAL_BUSY;
 940:Drivers/STM32H7xx_HAL_Driver/Src/stm32h7xx_hal_uart_ex.c ****   }
 941:Drivers/STM32H7xx_HAL_Driver/Src/stm32h7xx_hal_uart_ex.c **** }
 942:Drivers/STM32H7xx_HAL_Driver/Src/stm32h7xx_hal_uart_ex.c **** 
 943:Drivers/STM32H7xx_HAL_Driver/Src/stm32h7xx_hal_uart_ex.c **** /**
ARM GAS  C:\Users\GUILLE~1\AppData\Local\Temp\ccFiIgVY.s 			page 18


 944:Drivers/STM32H7xx_HAL_Driver/Src/stm32h7xx_hal_uart_ex.c ****   * @}
 945:Drivers/STM32H7xx_HAL_Driver/Src/stm32h7xx_hal_uart_ex.c ****   */
 946:Drivers/STM32H7xx_HAL_Driver/Src/stm32h7xx_hal_uart_ex.c **** 
 947:Drivers/STM32H7xx_HAL_Driver/Src/stm32h7xx_hal_uart_ex.c **** /**
 948:Drivers/STM32H7xx_HAL_Driver/Src/stm32h7xx_hal_uart_ex.c ****   * @}
 949:Drivers/STM32H7xx_HAL_Driver/Src/stm32h7xx_hal_uart_ex.c ****   */
 950:Drivers/STM32H7xx_HAL_Driver/Src/stm32h7xx_hal_uart_ex.c **** 
 951:Drivers/STM32H7xx_HAL_Driver/Src/stm32h7xx_hal_uart_ex.c **** /** @addtogroup UARTEx_Private_Functions
 952:Drivers/STM32H7xx_HAL_Driver/Src/stm32h7xx_hal_uart_ex.c ****   * @{
 953:Drivers/STM32H7xx_HAL_Driver/Src/stm32h7xx_hal_uart_ex.c ****   */
 954:Drivers/STM32H7xx_HAL_Driver/Src/stm32h7xx_hal_uart_ex.c **** 
 955:Drivers/STM32H7xx_HAL_Driver/Src/stm32h7xx_hal_uart_ex.c **** /**
 956:Drivers/STM32H7xx_HAL_Driver/Src/stm32h7xx_hal_uart_ex.c ****   * @brief Initialize the UART wake-up from stop mode parameters when triggered by address detectio
 957:Drivers/STM32H7xx_HAL_Driver/Src/stm32h7xx_hal_uart_ex.c ****   * @param huart           UART handle.
 958:Drivers/STM32H7xx_HAL_Driver/Src/stm32h7xx_hal_uart_ex.c ****   * @param WakeUpSelection UART wake up from stop mode parameters.
 959:Drivers/STM32H7xx_HAL_Driver/Src/stm32h7xx_hal_uart_ex.c ****   * @retval None
 960:Drivers/STM32H7xx_HAL_Driver/Src/stm32h7xx_hal_uart_ex.c ****   */
 961:Drivers/STM32H7xx_HAL_Driver/Src/stm32h7xx_hal_uart_ex.c **** static void UARTEx_Wakeup_AddressConfig(UART_HandleTypeDef *huart, UART_WakeUpTypeDef WakeUpSelecti
 962:Drivers/STM32H7xx_HAL_Driver/Src/stm32h7xx_hal_uart_ex.c **** {
  28              		.loc 1 962 1 view -0
  29              		.cfi_startproc
  30              		@ args = 0, pretend = 0, frame = 8
  31              		@ frame_needed = 0, uses_anonymous_args = 0
  32              		@ link register save eliminated.
  33              		.loc 1 962 1 is_stmt 0 view .LVU1
  34 0000 82B0     		sub	sp, sp, #8
  35              	.LCFI0:
  36              		.cfi_def_cfa_offset 8
  37 0002 02AB     		add	r3, sp, #8
  38 0004 03E90600 		stmdb	r3, {r1, r2}
 963:Drivers/STM32H7xx_HAL_Driver/Src/stm32h7xx_hal_uart_ex.c ****   assert_param(IS_UART_ADDRESSLENGTH_DETECT(WakeUpSelection.AddressLength));
  39              		.loc 1 963 3 is_stmt 1 view .LVU2
 964:Drivers/STM32H7xx_HAL_Driver/Src/stm32h7xx_hal_uart_ex.c **** 
 965:Drivers/STM32H7xx_HAL_Driver/Src/stm32h7xx_hal_uart_ex.c ****   /* Set the USART address length */
 966:Drivers/STM32H7xx_HAL_Driver/Src/stm32h7xx_hal_uart_ex.c ****   MODIFY_REG(huart->Instance->CR2, USART_CR2_ADDM7, WakeUpSelection.AddressLength);
  40              		.loc 1 966 3 view .LVU3
  41 0008 0268     		ldr	r2, [r0]
  42 000a 5368     		ldr	r3, [r2, #4]
  43 000c 23F01003 		bic	r3, r3, #16
  44 0010 BDF80410 		ldrh	r1, [sp, #4]
  45 0014 0B43     		orrs	r3, r3, r1
  46 0016 5360     		str	r3, [r2, #4]
 967:Drivers/STM32H7xx_HAL_Driver/Src/stm32h7xx_hal_uart_ex.c **** 
 968:Drivers/STM32H7xx_HAL_Driver/Src/stm32h7xx_hal_uart_ex.c ****   /* Set the USART address node */
 969:Drivers/STM32H7xx_HAL_Driver/Src/stm32h7xx_hal_uart_ex.c ****   MODIFY_REG(huart->Instance->CR2, USART_CR2_ADD, ((uint32_t)WakeUpSelection.Address << UART_CR2_AD
  47              		.loc 1 969 3 view .LVU4
  48 0018 0268     		ldr	r2, [r0]
  49 001a 5368     		ldr	r3, [r2, #4]
  50 001c 23F07F43 		bic	r3, r3, #-16777216
  51 0020 9DF80610 		ldrb	r1, [sp, #6]	@ zero_extendqisi2
  52 0024 43EA0163 		orr	r3, r3, r1, lsl #24
  53 0028 5360     		str	r3, [r2, #4]
 970:Drivers/STM32H7xx_HAL_Driver/Src/stm32h7xx_hal_uart_ex.c **** }
  54              		.loc 1 970 1 is_stmt 0 view .LVU5
  55 002a 02B0     		add	sp, sp, #8
  56              	.LCFI1:
  57              		.cfi_def_cfa_offset 0
ARM GAS  C:\Users\GUILLE~1\AppData\Local\Temp\ccFiIgVY.s 			page 19


  58              		@ sp needed
  59 002c 7047     		bx	lr
  60              		.cfi_endproc
  61              	.LFE159:
  63              		.section	.text.UARTEx_SetNbDataToProcess,"ax",%progbits
  64              		.align	1
  65              		.syntax unified
  66              		.thumb
  67              		.thumb_func
  68              		.fpu fpv5-d16
  70              	UARTEx_SetNbDataToProcess:
  71              	.LVL1:
  72              	.LFB160:
 971:Drivers/STM32H7xx_HAL_Driver/Src/stm32h7xx_hal_uart_ex.c **** 
 972:Drivers/STM32H7xx_HAL_Driver/Src/stm32h7xx_hal_uart_ex.c **** /**
 973:Drivers/STM32H7xx_HAL_Driver/Src/stm32h7xx_hal_uart_ex.c ****   * @brief Calculate the number of data to process in RX/TX ISR.
 974:Drivers/STM32H7xx_HAL_Driver/Src/stm32h7xx_hal_uart_ex.c ****   * @note The RX FIFO depth and the TX FIFO depth is extracted from
 975:Drivers/STM32H7xx_HAL_Driver/Src/stm32h7xx_hal_uart_ex.c ****   *       the UART configuration registers.
 976:Drivers/STM32H7xx_HAL_Driver/Src/stm32h7xx_hal_uart_ex.c ****   * @param huart UART handle.
 977:Drivers/STM32H7xx_HAL_Driver/Src/stm32h7xx_hal_uart_ex.c ****   * @retval None
 978:Drivers/STM32H7xx_HAL_Driver/Src/stm32h7xx_hal_uart_ex.c ****   */
 979:Drivers/STM32H7xx_HAL_Driver/Src/stm32h7xx_hal_uart_ex.c **** static void UARTEx_SetNbDataToProcess(UART_HandleTypeDef *huart)
 980:Drivers/STM32H7xx_HAL_Driver/Src/stm32h7xx_hal_uart_ex.c **** {
  73              		.loc 1 980 1 is_stmt 1 view -0
  74              		.cfi_startproc
  75              		@ args = 0, pretend = 0, frame = 0
  76              		@ frame_needed = 0, uses_anonymous_args = 0
  77              		@ link register save eliminated.
 981:Drivers/STM32H7xx_HAL_Driver/Src/stm32h7xx_hal_uart_ex.c ****   uint8_t rx_fifo_depth;
  78              		.loc 1 981 3 view .LVU7
 982:Drivers/STM32H7xx_HAL_Driver/Src/stm32h7xx_hal_uart_ex.c ****   uint8_t tx_fifo_depth;
  79              		.loc 1 982 3 view .LVU8
 983:Drivers/STM32H7xx_HAL_Driver/Src/stm32h7xx_hal_uart_ex.c ****   uint8_t rx_fifo_threshold;
  80              		.loc 1 983 3 view .LVU9
 984:Drivers/STM32H7xx_HAL_Driver/Src/stm32h7xx_hal_uart_ex.c ****   uint8_t tx_fifo_threshold;
  81              		.loc 1 984 3 view .LVU10
 985:Drivers/STM32H7xx_HAL_Driver/Src/stm32h7xx_hal_uart_ex.c ****   static const uint8_t numerator[] = {1U, 1U, 1U, 3U, 7U, 1U, 0U, 0U};
  82              		.loc 1 985 3 view .LVU11
 986:Drivers/STM32H7xx_HAL_Driver/Src/stm32h7xx_hal_uart_ex.c ****   static const uint8_t denominator[] = {8U, 4U, 2U, 4U, 8U, 1U, 1U, 1U};
  83              		.loc 1 986 3 view .LVU12
 987:Drivers/STM32H7xx_HAL_Driver/Src/stm32h7xx_hal_uart_ex.c **** 
 988:Drivers/STM32H7xx_HAL_Driver/Src/stm32h7xx_hal_uart_ex.c ****   if (huart->FifoMode == UART_FIFOMODE_DISABLE)
  84              		.loc 1 988 3 view .LVU13
  85              		.loc 1 988 12 is_stmt 0 view .LVU14
  86 0000 436E     		ldr	r3, [r0, #100]
  87              		.loc 1 988 6 view .LVU15
  88 0002 2BB9     		cbnz	r3, .L4
 989:Drivers/STM32H7xx_HAL_Driver/Src/stm32h7xx_hal_uart_ex.c ****   {
 990:Drivers/STM32H7xx_HAL_Driver/Src/stm32h7xx_hal_uart_ex.c ****     huart->NbTxDataToProcess = 1U;
  89              		.loc 1 990 5 is_stmt 1 view .LVU16
  90              		.loc 1 990 30 is_stmt 0 view .LVU17
  91 0004 0123     		movs	r3, #1
  92 0006 A0F86A30 		strh	r3, [r0, #106]	@ movhi
 991:Drivers/STM32H7xx_HAL_Driver/Src/stm32h7xx_hal_uart_ex.c ****     huart->NbRxDataToProcess = 1U;
  93              		.loc 1 991 5 is_stmt 1 view .LVU18
  94              		.loc 1 991 30 is_stmt 0 view .LVU19
  95 000a A0F86830 		strh	r3, [r0, #104]	@ movhi
ARM GAS  C:\Users\GUILLE~1\AppData\Local\Temp\ccFiIgVY.s 			page 20


  96 000e 7047     		bx	lr
  97              	.L4:
 980:Drivers/STM32H7xx_HAL_Driver/Src/stm32h7xx_hal_uart_ex.c ****   uint8_t rx_fifo_depth;
  98              		.loc 1 980 1 view .LVU20
  99 0010 30B4     		push	{r4, r5}
 100              	.LCFI2:
 101              		.cfi_def_cfa_offset 8
 102              		.cfi_offset 4, -8
 103              		.cfi_offset 5, -4
 992:Drivers/STM32H7xx_HAL_Driver/Src/stm32h7xx_hal_uart_ex.c ****   }
 993:Drivers/STM32H7xx_HAL_Driver/Src/stm32h7xx_hal_uart_ex.c ****   else
 994:Drivers/STM32H7xx_HAL_Driver/Src/stm32h7xx_hal_uart_ex.c ****   {
 995:Drivers/STM32H7xx_HAL_Driver/Src/stm32h7xx_hal_uart_ex.c ****     rx_fifo_depth = RX_FIFO_DEPTH;
 104              		.loc 1 995 5 is_stmt 1 view .LVU21
 105              	.LVL2:
 996:Drivers/STM32H7xx_HAL_Driver/Src/stm32h7xx_hal_uart_ex.c ****     tx_fifo_depth = TX_FIFO_DEPTH;
 106              		.loc 1 996 5 view .LVU22
 997:Drivers/STM32H7xx_HAL_Driver/Src/stm32h7xx_hal_uart_ex.c ****     rx_fifo_threshold = (uint8_t)(READ_BIT(huart->Instance->CR3, USART_CR3_RXFTCFG) >> USART_CR3_RX
 107              		.loc 1 997 5 view .LVU23
 108              		.loc 1 997 35 is_stmt 0 view .LVU24
 109 0012 0368     		ldr	r3, [r0]
 110 0014 9A68     		ldr	r2, [r3, #8]
 111              		.loc 1 997 23 view .LVU25
 112 0016 C2F34262 		ubfx	r2, r2, #25, #3
 113              	.LVL3:
 998:Drivers/STM32H7xx_HAL_Driver/Src/stm32h7xx_hal_uart_ex.c ****     tx_fifo_threshold = (uint8_t)(READ_BIT(huart->Instance->CR3, USART_CR3_TXFTCFG) >> USART_CR3_TX
 114              		.loc 1 998 5 is_stmt 1 view .LVU26
 115              		.loc 1 998 35 is_stmt 0 view .LVU27
 116 001a 9968     		ldr	r1, [r3, #8]
 117              		.loc 1 998 23 view .LVU28
 118 001c 490F     		lsrs	r1, r1, #29
 119              	.LVL4:
 999:Drivers/STM32H7xx_HAL_Driver/Src/stm32h7xx_hal_uart_ex.c ****     huart->NbTxDataToProcess = ((uint16_t)tx_fifo_depth * numerator[tx_fifo_threshold]) /
 120              		.loc 1 999 5 is_stmt 1 view .LVU29
 121              		.loc 1 999 68 is_stmt 0 view .LVU30
 122 001e 094D     		ldr	r5, .L9
 123 0020 6B5C     		ldrb	r3, [r5, r1]	@ zero_extendqisi2
 124              		.loc 1 999 57 view .LVU31
 125 0022 1B01     		lsls	r3, r3, #4
1000:Drivers/STM32H7xx_HAL_Driver/Src/stm32h7xx_hal_uart_ex.c ****                                (uint16_t)denominator[tx_fifo_threshold];
 126              		.loc 1 1000 53 view .LVU32
 127 0024 084C     		ldr	r4, .L9+4
 128 0026 615C     		ldrb	r1, [r4, r1]	@ zero_extendqisi2
 129              	.LVL5:
 999:Drivers/STM32H7xx_HAL_Driver/Src/stm32h7xx_hal_uart_ex.c ****     huart->NbTxDataToProcess = ((uint16_t)tx_fifo_depth * numerator[tx_fifo_threshold]) /
 130              		.loc 1 999 89 view .LVU33
 131 0028 93FBF1F3 		sdiv	r3, r3, r1
 999:Drivers/STM32H7xx_HAL_Driver/Src/stm32h7xx_hal_uart_ex.c ****     huart->NbTxDataToProcess = ((uint16_t)tx_fifo_depth * numerator[tx_fifo_threshold]) /
 132              		.loc 1 999 30 view .LVU34
 133 002c A0F86A30 		strh	r3, [r0, #106]	@ movhi
1001:Drivers/STM32H7xx_HAL_Driver/Src/stm32h7xx_hal_uart_ex.c ****     huart->NbRxDataToProcess = ((uint16_t)rx_fifo_depth * numerator[rx_fifo_threshold]) /
 134              		.loc 1 1001 5 is_stmt 1 view .LVU35
 135              		.loc 1 1001 68 is_stmt 0 view .LVU36
 136 0030 AB5C     		ldrb	r3, [r5, r2]	@ zero_extendqisi2
 137              		.loc 1 1001 57 view .LVU37
 138 0032 1B01     		lsls	r3, r3, #4
1002:Drivers/STM32H7xx_HAL_Driver/Src/stm32h7xx_hal_uart_ex.c ****                                (uint16_t)denominator[rx_fifo_threshold];
ARM GAS  C:\Users\GUILLE~1\AppData\Local\Temp\ccFiIgVY.s 			page 21


 139              		.loc 1 1002 53 view .LVU38
 140 0034 A25C     		ldrb	r2, [r4, r2]	@ zero_extendqisi2
 141              	.LVL6:
1001:Drivers/STM32H7xx_HAL_Driver/Src/stm32h7xx_hal_uart_ex.c ****     huart->NbRxDataToProcess = ((uint16_t)rx_fifo_depth * numerator[rx_fifo_threshold]) /
 142              		.loc 1 1001 89 view .LVU39
 143 0036 93FBF2F3 		sdiv	r3, r3, r2
1001:Drivers/STM32H7xx_HAL_Driver/Src/stm32h7xx_hal_uart_ex.c ****     huart->NbRxDataToProcess = ((uint16_t)rx_fifo_depth * numerator[rx_fifo_threshold]) /
 144              		.loc 1 1001 30 view .LVU40
 145 003a A0F86830 		strh	r3, [r0, #104]	@ movhi
1003:Drivers/STM32H7xx_HAL_Driver/Src/stm32h7xx_hal_uart_ex.c ****   }
1004:Drivers/STM32H7xx_HAL_Driver/Src/stm32h7xx_hal_uart_ex.c **** }
 146              		.loc 1 1004 1 view .LVU41
 147 003e 30BC     		pop	{r4, r5}
 148              	.LCFI3:
 149              		.cfi_restore 5
 150              		.cfi_restore 4
 151              		.cfi_def_cfa_offset 0
 152 0040 7047     		bx	lr
 153              	.L10:
 154 0042 00BF     		.align	2
 155              	.L9:
 156 0044 00000000 		.word	.LANCHOR0
 157 0048 00000000 		.word	.LANCHOR1
 158              		.cfi_endproc
 159              	.LFE160:
 161              		.section	.text.HAL_RS485Ex_Init,"ax",%progbits
 162              		.align	1
 163              		.global	HAL_RS485Ex_Init
 164              		.syntax unified
 165              		.thumb
 166              		.thumb_func
 167              		.fpu fpv5-d16
 169              	HAL_RS485Ex_Init:
 170              	.LVL7:
 171              	.LFB144:
 168:Drivers/STM32H7xx_HAL_Driver/Src/stm32h7xx_hal_uart_ex.c ****   uint32_t temp;
 172              		.loc 1 168 1 is_stmt 1 view -0
 173              		.cfi_startproc
 174              		@ args = 0, pretend = 0, frame = 0
 175              		@ frame_needed = 0, uses_anonymous_args = 0
 169:Drivers/STM32H7xx_HAL_Driver/Src/stm32h7xx_hal_uart_ex.c **** 
 176              		.loc 1 169 3 view .LVU43
 172:Drivers/STM32H7xx_HAL_Driver/Src/stm32h7xx_hal_uart_ex.c ****   {
 177              		.loc 1 172 3 view .LVU44
 172:Drivers/STM32H7xx_HAL_Driver/Src/stm32h7xx_hal_uart_ex.c ****   {
 178              		.loc 1 172 6 is_stmt 0 view .LVU45
 179 0000 0028     		cmp	r0, #0
 180 0002 3CD0     		beq	.L15
 168:Drivers/STM32H7xx_HAL_Driver/Src/stm32h7xx_hal_uart_ex.c ****   uint32_t temp;
 181              		.loc 1 168 1 view .LVU46
 182 0004 F8B5     		push	{r3, r4, r5, r6, r7, lr}
 183              	.LCFI4:
 184              		.cfi_def_cfa_offset 24
 185              		.cfi_offset 3, -24
 186              		.cfi_offset 4, -20
 187              		.cfi_offset 5, -16
 188              		.cfi_offset 6, -12
ARM GAS  C:\Users\GUILLE~1\AppData\Local\Temp\ccFiIgVY.s 			page 22


 189              		.cfi_offset 7, -8
 190              		.cfi_offset 14, -4
 191 0006 0F46     		mov	r7, r1
 192 0008 1646     		mov	r6, r2
 193 000a 1D46     		mov	r5, r3
 194 000c 0446     		mov	r4, r0
 177:Drivers/STM32H7xx_HAL_Driver/Src/stm32h7xx_hal_uart_ex.c **** 
 195              		.loc 1 177 3 is_stmt 1 view .LVU47
 180:Drivers/STM32H7xx_HAL_Driver/Src/stm32h7xx_hal_uart_ex.c **** 
 196              		.loc 1 180 3 view .LVU48
 183:Drivers/STM32H7xx_HAL_Driver/Src/stm32h7xx_hal_uart_ex.c **** 
 197              		.loc 1 183 3 view .LVU49
 186:Drivers/STM32H7xx_HAL_Driver/Src/stm32h7xx_hal_uart_ex.c **** 
 198              		.loc 1 186 3 view .LVU50
 188:Drivers/STM32H7xx_HAL_Driver/Src/stm32h7xx_hal_uart_ex.c ****   {
 199              		.loc 1 188 3 view .LVU51
 188:Drivers/STM32H7xx_HAL_Driver/Src/stm32h7xx_hal_uart_ex.c ****   {
 200              		.loc 1 188 12 is_stmt 0 view .LVU52
 201 000e D0F88430 		ldr	r3, [r0, #132]
 202              	.LVL8:
 188:Drivers/STM32H7xx_HAL_Driver/Src/stm32h7xx_hal_uart_ex.c ****   {
 203              		.loc 1 188 6 view .LVU53
 204 0012 5BB3     		cbz	r3, .L20
 205              	.LVL9:
 206              	.L13:
 209:Drivers/STM32H7xx_HAL_Driver/Src/stm32h7xx_hal_uart_ex.c **** 
 207              		.loc 1 209 3 is_stmt 1 view .LVU54
 209:Drivers/STM32H7xx_HAL_Driver/Src/stm32h7xx_hal_uart_ex.c **** 
 208              		.loc 1 209 17 is_stmt 0 view .LVU55
 209 0014 2423     		movs	r3, #36
 210 0016 C4F88430 		str	r3, [r4, #132]
 212:Drivers/STM32H7xx_HAL_Driver/Src/stm32h7xx_hal_uart_ex.c **** 
 211              		.loc 1 212 3 is_stmt 1 view .LVU56
 212 001a 2268     		ldr	r2, [r4]
 213 001c 1368     		ldr	r3, [r2]
 214 001e 23F00103 		bic	r3, r3, #1
 215 0022 1360     		str	r3, [r2]
 215:Drivers/STM32H7xx_HAL_Driver/Src/stm32h7xx_hal_uart_ex.c ****   {
 216              		.loc 1 215 3 view .LVU57
 215:Drivers/STM32H7xx_HAL_Driver/Src/stm32h7xx_hal_uart_ex.c ****   {
 217              		.loc 1 215 7 is_stmt 0 view .LVU58
 218 0024 2046     		mov	r0, r4
 219 0026 FFF7FEFF 		bl	UART_SetConfig
 220              	.LVL10:
 215:Drivers/STM32H7xx_HAL_Driver/Src/stm32h7xx_hal_uart_ex.c ****   {
 221              		.loc 1 215 6 view .LVU59
 222 002a 0128     		cmp	r0, #1
 223 002c 1DD0     		beq	.L12
 220:Drivers/STM32H7xx_HAL_Driver/Src/stm32h7xx_hal_uart_ex.c ****   {
 224              		.loc 1 220 3 is_stmt 1 view .LVU60
 220:Drivers/STM32H7xx_HAL_Driver/Src/stm32h7xx_hal_uart_ex.c ****   {
 225              		.loc 1 220 26 is_stmt 0 view .LVU61
 226 002e A36A     		ldr	r3, [r4, #40]
 220:Drivers/STM32H7xx_HAL_Driver/Src/stm32h7xx_hal_uart_ex.c ****   {
 227              		.loc 1 220 6 view .LVU62
 228 0030 0BBB     		cbnz	r3, .L21
 229              	.L14:
ARM GAS  C:\Users\GUILLE~1\AppData\Local\Temp\ccFiIgVY.s 			page 23


 226:Drivers/STM32H7xx_HAL_Driver/Src/stm32h7xx_hal_uart_ex.c **** 
 230              		.loc 1 226 3 is_stmt 1 view .LVU63
 231 0032 2268     		ldr	r2, [r4]
 232 0034 9368     		ldr	r3, [r2, #8]
 233 0036 43F48043 		orr	r3, r3, #16384
 234 003a 9360     		str	r3, [r2, #8]
 229:Drivers/STM32H7xx_HAL_Driver/Src/stm32h7xx_hal_uart_ex.c **** 
 235              		.loc 1 229 3 view .LVU64
 236 003c 2268     		ldr	r2, [r4]
 237 003e 9368     		ldr	r3, [r2, #8]
 238 0040 23F40043 		bic	r3, r3, #32768
 239 0044 3B43     		orrs	r3, r3, r7
 240 0046 9360     		str	r3, [r2, #8]
 232:Drivers/STM32H7xx_HAL_Driver/Src/stm32h7xx_hal_uart_ex.c ****   temp |= (DeassertionTime << UART_CR1_DEDT_ADDRESS_LSB_POS);
 241              		.loc 1 232 3 view .LVU65
 242              	.LVL11:
 233:Drivers/STM32H7xx_HAL_Driver/Src/stm32h7xx_hal_uart_ex.c ****   MODIFY_REG(huart->Instance->CR1, (USART_CR1_DEDT | USART_CR1_DEAT), temp);
 243              		.loc 1 233 3 view .LVU66
 233:Drivers/STM32H7xx_HAL_Driver/Src/stm32h7xx_hal_uart_ex.c ****   MODIFY_REG(huart->Instance->CR1, (USART_CR1_DEDT | USART_CR1_DEAT), temp);
 244              		.loc 1 233 28 is_stmt 0 view .LVU67
 245 0048 2D04     		lsls	r5, r5, #16
 246              	.LVL12:
 233:Drivers/STM32H7xx_HAL_Driver/Src/stm32h7xx_hal_uart_ex.c ****   MODIFY_REG(huart->Instance->CR1, (USART_CR1_DEDT | USART_CR1_DEAT), temp);
 247              		.loc 1 233 8 view .LVU68
 248 004a 45EA4655 		orr	r5, r5, r6, lsl #21
 249              	.LVL13:
 234:Drivers/STM32H7xx_HAL_Driver/Src/stm32h7xx_hal_uart_ex.c **** 
 250              		.loc 1 234 3 is_stmt 1 view .LVU69
 251 004e 2268     		ldr	r2, [r4]
 252 0050 1168     		ldr	r1, [r2]
 253 0052 0C4B     		ldr	r3, .L22
 254 0054 0B40     		ands	r3, r3, r1
 255 0056 1D43     		orrs	r5, r5, r3
 256              	.LVL14:
 234:Drivers/STM32H7xx_HAL_Driver/Src/stm32h7xx_hal_uart_ex.c **** 
 257              		.loc 1 234 3 is_stmt 0 view .LVU70
 258 0058 1560     		str	r5, [r2]
 237:Drivers/STM32H7xx_HAL_Driver/Src/stm32h7xx_hal_uart_ex.c **** 
 259              		.loc 1 237 3 is_stmt 1 view .LVU71
 260 005a 2268     		ldr	r2, [r4]
 261 005c 1368     		ldr	r3, [r2]
 262 005e 43F00103 		orr	r3, r3, #1
 263 0062 1360     		str	r3, [r2]
 240:Drivers/STM32H7xx_HAL_Driver/Src/stm32h7xx_hal_uart_ex.c **** }
 264              		.loc 1 240 3 view .LVU72
 240:Drivers/STM32H7xx_HAL_Driver/Src/stm32h7xx_hal_uart_ex.c **** }
 265              		.loc 1 240 11 is_stmt 0 view .LVU73
 266 0064 2046     		mov	r0, r4
 267 0066 FFF7FEFF 		bl	UART_CheckIdleState
 268              	.LVL15:
 269              	.L12:
 241:Drivers/STM32H7xx_HAL_Driver/Src/stm32h7xx_hal_uart_ex.c **** 
 270              		.loc 1 241 1 view .LVU74
 271 006a F8BD     		pop	{r3, r4, r5, r6, r7, pc}
 272              	.LVL16:
 273              	.L20:
 191:Drivers/STM32H7xx_HAL_Driver/Src/stm32h7xx_hal_uart_ex.c **** 
ARM GAS  C:\Users\GUILLE~1\AppData\Local\Temp\ccFiIgVY.s 			page 24


 274              		.loc 1 191 5 is_stmt 1 view .LVU75
 191:Drivers/STM32H7xx_HAL_Driver/Src/stm32h7xx_hal_uart_ex.c **** 
 275              		.loc 1 191 17 is_stmt 0 view .LVU76
 276 006c 80F88030 		strb	r3, [r0, #128]
 205:Drivers/STM32H7xx_HAL_Driver/Src/stm32h7xx_hal_uart_ex.c **** #endif /* (USE_HAL_UART_REGISTER_CALLBACKS) */
 277              		.loc 1 205 5 is_stmt 1 view .LVU77
 278 0070 FFF7FEFF 		bl	HAL_UART_MspInit
 279              	.LVL17:
 205:Drivers/STM32H7xx_HAL_Driver/Src/stm32h7xx_hal_uart_ex.c **** #endif /* (USE_HAL_UART_REGISTER_CALLBACKS) */
 280              		.loc 1 205 5 is_stmt 0 view .LVU78
 281 0074 CEE7     		b	.L13
 282              	.L21:
 222:Drivers/STM32H7xx_HAL_Driver/Src/stm32h7xx_hal_uart_ex.c ****   }
 283              		.loc 1 222 5 is_stmt 1 view .LVU79
 284 0076 2046     		mov	r0, r4
 285 0078 FFF7FEFF 		bl	UART_AdvFeatureConfig
 286              	.LVL18:
 287 007c D9E7     		b	.L14
 288              	.LVL19:
 289              	.L15:
 290              	.LCFI5:
 291              		.cfi_def_cfa_offset 0
 292              		.cfi_restore 3
 293              		.cfi_restore 4
 294              		.cfi_restore 5
 295              		.cfi_restore 6
 296              		.cfi_restore 7
 297              		.cfi_restore 14
 174:Drivers/STM32H7xx_HAL_Driver/Src/stm32h7xx_hal_uart_ex.c ****   }
 298              		.loc 1 174 12 is_stmt 0 view .LVU80
 299 007e 0120     		movs	r0, #1
 300              	.LVL20:
 241:Drivers/STM32H7xx_HAL_Driver/Src/stm32h7xx_hal_uart_ex.c **** 
 301              		.loc 1 241 1 view .LVU81
 302 0080 7047     		bx	lr
 303              	.L23:
 304 0082 00BF     		.align	2
 305              	.L22:
 306 0084 FFFF00FC 		.word	-67043329
 307              		.cfi_endproc
 308              	.LFE144:
 310              		.section	.text.HAL_UARTEx_WakeupCallback,"ax",%progbits
 311              		.align	1
 312              		.weak	HAL_UARTEx_WakeupCallback
 313              		.syntax unified
 314              		.thumb
 315              		.thumb_func
 316              		.fpu fpv5-d16
 318              	HAL_UARTEx_WakeupCallback:
 319              	.LVL21:
 320              	.LFB145:
 273:Drivers/STM32H7xx_HAL_Driver/Src/stm32h7xx_hal_uart_ex.c ****   /* Prevent unused argument(s) compilation warning */
 321              		.loc 1 273 1 is_stmt 1 view -0
 322              		.cfi_startproc
 323              		@ args = 0, pretend = 0, frame = 0
 324              		@ frame_needed = 0, uses_anonymous_args = 0
 325              		@ link register save eliminated.
ARM GAS  C:\Users\GUILLE~1\AppData\Local\Temp\ccFiIgVY.s 			page 25


 275:Drivers/STM32H7xx_HAL_Driver/Src/stm32h7xx_hal_uart_ex.c **** 
 326              		.loc 1 275 3 view .LVU83
 280:Drivers/STM32H7xx_HAL_Driver/Src/stm32h7xx_hal_uart_ex.c **** 
 327              		.loc 1 280 1 is_stmt 0 view .LVU84
 328 0000 7047     		bx	lr
 329              		.cfi_endproc
 330              	.LFE145:
 332              		.section	.text.HAL_UARTEx_RxFifoFullCallback,"ax",%progbits
 333              		.align	1
 334              		.weak	HAL_UARTEx_RxFifoFullCallback
 335              		.syntax unified
 336              		.thumb
 337              		.thumb_func
 338              		.fpu fpv5-d16
 340              	HAL_UARTEx_RxFifoFullCallback:
 341              	.LVL22:
 342              	.LFB146:
 288:Drivers/STM32H7xx_HAL_Driver/Src/stm32h7xx_hal_uart_ex.c ****   /* Prevent unused argument(s) compilation warning */
 343              		.loc 1 288 1 is_stmt 1 view -0
 344              		.cfi_startproc
 345              		@ args = 0, pretend = 0, frame = 0
 346              		@ frame_needed = 0, uses_anonymous_args = 0
 347              		@ link register save eliminated.
 290:Drivers/STM32H7xx_HAL_Driver/Src/stm32h7xx_hal_uart_ex.c **** 
 348              		.loc 1 290 3 view .LVU86
 295:Drivers/STM32H7xx_HAL_Driver/Src/stm32h7xx_hal_uart_ex.c **** 
 349              		.loc 1 295 1 is_stmt 0 view .LVU87
 350 0000 7047     		bx	lr
 351              		.cfi_endproc
 352              	.LFE146:
 354              		.section	.text.HAL_UARTEx_TxFifoEmptyCallback,"ax",%progbits
 355              		.align	1
 356              		.weak	HAL_UARTEx_TxFifoEmptyCallback
 357              		.syntax unified
 358              		.thumb
 359              		.thumb_func
 360              		.fpu fpv5-d16
 362              	HAL_UARTEx_TxFifoEmptyCallback:
 363              	.LVL23:
 364              	.LFB147:
 303:Drivers/STM32H7xx_HAL_Driver/Src/stm32h7xx_hal_uart_ex.c ****   /* Prevent unused argument(s) compilation warning */
 365              		.loc 1 303 1 is_stmt 1 view -0
 366              		.cfi_startproc
 367              		@ args = 0, pretend = 0, frame = 0
 368              		@ frame_needed = 0, uses_anonymous_args = 0
 369              		@ link register save eliminated.
 305:Drivers/STM32H7xx_HAL_Driver/Src/stm32h7xx_hal_uart_ex.c **** 
 370              		.loc 1 305 3 view .LVU89
 310:Drivers/STM32H7xx_HAL_Driver/Src/stm32h7xx_hal_uart_ex.c **** 
 371              		.loc 1 310 1 is_stmt 0 view .LVU90
 372 0000 7047     		bx	lr
 373              		.cfi_endproc
 374              	.LFE147:
 376              		.section	.text.HAL_MultiProcessorEx_AddressLength_Set,"ax",%progbits
 377              		.align	1
 378              		.global	HAL_MultiProcessorEx_AddressLength_Set
 379              		.syntax unified
ARM GAS  C:\Users\GUILLE~1\AppData\Local\Temp\ccFiIgVY.s 			page 26


 380              		.thumb
 381              		.thumb_func
 382              		.fpu fpv5-d16
 384              	HAL_MultiProcessorEx_AddressLength_Set:
 385              	.LVL24:
 386              	.LFB148:
 388:Drivers/STM32H7xx_HAL_Driver/Src/stm32h7xx_hal_uart_ex.c ****   /* Check the UART handle allocation */
 387              		.loc 1 388 1 is_stmt 1 view -0
 388              		.cfi_startproc
 389              		@ args = 0, pretend = 0, frame = 0
 390              		@ frame_needed = 0, uses_anonymous_args = 0
 390:Drivers/STM32H7xx_HAL_Driver/Src/stm32h7xx_hal_uart_ex.c ****   {
 391              		.loc 1 390 3 view .LVU92
 390:Drivers/STM32H7xx_HAL_Driver/Src/stm32h7xx_hal_uart_ex.c ****   {
 392              		.loc 1 390 6 is_stmt 0 view .LVU93
 393 0000 C0B1     		cbz	r0, .L29
 388:Drivers/STM32H7xx_HAL_Driver/Src/stm32h7xx_hal_uart_ex.c ****   /* Check the UART handle allocation */
 394              		.loc 1 388 1 view .LVU94
 395 0002 08B5     		push	{r3, lr}
 396              	.LCFI6:
 397              		.cfi_def_cfa_offset 8
 398              		.cfi_offset 3, -8
 399              		.cfi_offset 14, -4
 400 0004 0346     		mov	r3, r0
 396:Drivers/STM32H7xx_HAL_Driver/Src/stm32h7xx_hal_uart_ex.c **** 
 401              		.loc 1 396 3 is_stmt 1 view .LVU95
 398:Drivers/STM32H7xx_HAL_Driver/Src/stm32h7xx_hal_uart_ex.c **** 
 402              		.loc 1 398 3 view .LVU96
 398:Drivers/STM32H7xx_HAL_Driver/Src/stm32h7xx_hal_uart_ex.c **** 
 403              		.loc 1 398 17 is_stmt 0 view .LVU97
 404 0006 2422     		movs	r2, #36
 405 0008 C0F88420 		str	r2, [r0, #132]
 401:Drivers/STM32H7xx_HAL_Driver/Src/stm32h7xx_hal_uart_ex.c **** 
 406              		.loc 1 401 3 is_stmt 1 view .LVU98
 407 000c 0068     		ldr	r0, [r0]
 408              	.LVL25:
 401:Drivers/STM32H7xx_HAL_Driver/Src/stm32h7xx_hal_uart_ex.c **** 
 409              		.loc 1 401 3 is_stmt 0 view .LVU99
 410 000e 0268     		ldr	r2, [r0]
 411 0010 22F00102 		bic	r2, r2, #1
 412 0014 0260     		str	r2, [r0]
 404:Drivers/STM32H7xx_HAL_Driver/Src/stm32h7xx_hal_uart_ex.c **** 
 413              		.loc 1 404 3 is_stmt 1 view .LVU100
 414 0016 1868     		ldr	r0, [r3]
 415 0018 4268     		ldr	r2, [r0, #4]
 416 001a 22F01002 		bic	r2, r2, #16
 417 001e 1143     		orrs	r1, r1, r2
 418              	.LVL26:
 404:Drivers/STM32H7xx_HAL_Driver/Src/stm32h7xx_hal_uart_ex.c **** 
 419              		.loc 1 404 3 is_stmt 0 view .LVU101
 420 0020 4160     		str	r1, [r0, #4]
 407:Drivers/STM32H7xx_HAL_Driver/Src/stm32h7xx_hal_uart_ex.c **** 
 421              		.loc 1 407 3 is_stmt 1 view .LVU102
 422 0022 1968     		ldr	r1, [r3]
 423 0024 0A68     		ldr	r2, [r1]
 424 0026 42F00102 		orr	r2, r2, #1
 425 002a 0A60     		str	r2, [r1]
ARM GAS  C:\Users\GUILLE~1\AppData\Local\Temp\ccFiIgVY.s 			page 27


 410:Drivers/STM32H7xx_HAL_Driver/Src/stm32h7xx_hal_uart_ex.c **** }
 426              		.loc 1 410 3 view .LVU103
 410:Drivers/STM32H7xx_HAL_Driver/Src/stm32h7xx_hal_uart_ex.c **** }
 427              		.loc 1 410 11 is_stmt 0 view .LVU104
 428 002c 1846     		mov	r0, r3
 429 002e FFF7FEFF 		bl	UART_CheckIdleState
 430              	.LVL27:
 411:Drivers/STM32H7xx_HAL_Driver/Src/stm32h7xx_hal_uart_ex.c **** 
 431              		.loc 1 411 1 view .LVU105
 432 0032 08BD     		pop	{r3, pc}
 433              	.LVL28:
 434              	.L29:
 435              	.LCFI7:
 436              		.cfi_def_cfa_offset 0
 437              		.cfi_restore 3
 438              		.cfi_restore 14
 392:Drivers/STM32H7xx_HAL_Driver/Src/stm32h7xx_hal_uart_ex.c ****   }
 439              		.loc 1 392 12 view .LVU106
 440 0034 0120     		movs	r0, #1
 441              	.LVL29:
 411:Drivers/STM32H7xx_HAL_Driver/Src/stm32h7xx_hal_uart_ex.c **** 
 442              		.loc 1 411 1 view .LVU107
 443 0036 7047     		bx	lr
 444              		.cfi_endproc
 445              	.LFE148:
 447              		.section	.text.HAL_UARTEx_StopModeWakeUpSourceConfig,"ax",%progbits
 448              		.align	1
 449              		.global	HAL_UARTEx_StopModeWakeUpSourceConfig
 450              		.syntax unified
 451              		.thumb
 452              		.thumb_func
 453              		.fpu fpv5-d16
 455              	HAL_UARTEx_StopModeWakeUpSourceConfig:
 456              	.LVL30:
 457              	.LFB149:
 426:Drivers/STM32H7xx_HAL_Driver/Src/stm32h7xx_hal_uart_ex.c ****   HAL_StatusTypeDef status = HAL_OK;
 458              		.loc 1 426 1 is_stmt 1 view -0
 459              		.cfi_startproc
 460              		@ args = 0, pretend = 0, frame = 8
 461              		@ frame_needed = 0, uses_anonymous_args = 0
 426:Drivers/STM32H7xx_HAL_Driver/Src/stm32h7xx_hal_uart_ex.c ****   HAL_StatusTypeDef status = HAL_OK;
 462              		.loc 1 426 1 is_stmt 0 view .LVU109
 463 0000 10B5     		push	{r4, lr}
 464              	.LCFI8:
 465              		.cfi_def_cfa_offset 8
 466              		.cfi_offset 4, -8
 467              		.cfi_offset 14, -4
 468 0002 84B0     		sub	sp, sp, #16
 469              	.LCFI9:
 470              		.cfi_def_cfa_offset 24
 471 0004 04AB     		add	r3, sp, #16
 472 0006 03E90600 		stmdb	r3, {r1, r2}
 427:Drivers/STM32H7xx_HAL_Driver/Src/stm32h7xx_hal_uart_ex.c ****   uint32_t tickstart;
 473              		.loc 1 427 3 is_stmt 1 view .LVU110
 474              	.LVL31:
 428:Drivers/STM32H7xx_HAL_Driver/Src/stm32h7xx_hal_uart_ex.c **** 
 475              		.loc 1 428 3 view .LVU111
ARM GAS  C:\Users\GUILLE~1\AppData\Local\Temp\ccFiIgVY.s 			page 28


 431:Drivers/STM32H7xx_HAL_Driver/Src/stm32h7xx_hal_uart_ex.c ****   /* check the wake-up selection parameter */
 476              		.loc 1 431 3 view .LVU112
 433:Drivers/STM32H7xx_HAL_Driver/Src/stm32h7xx_hal_uart_ex.c **** 
 477              		.loc 1 433 3 view .LVU113
 436:Drivers/STM32H7xx_HAL_Driver/Src/stm32h7xx_hal_uart_ex.c **** 
 478              		.loc 1 436 3 view .LVU114
 436:Drivers/STM32H7xx_HAL_Driver/Src/stm32h7xx_hal_uart_ex.c **** 
 479              		.loc 1 436 3 view .LVU115
 480 000a 90F88030 		ldrb	r3, [r0, #128]	@ zero_extendqisi2
 481 000e 012B     		cmp	r3, #1
 482 0010 35D0     		beq	.L38
 483 0012 0446     		mov	r4, r0
 436:Drivers/STM32H7xx_HAL_Driver/Src/stm32h7xx_hal_uart_ex.c **** 
 484              		.loc 1 436 3 discriminator 2 view .LVU116
 485 0014 0123     		movs	r3, #1
 486 0016 80F88030 		strb	r3, [r0, #128]
 436:Drivers/STM32H7xx_HAL_Driver/Src/stm32h7xx_hal_uart_ex.c **** 
 487              		.loc 1 436 3 discriminator 2 view .LVU117
 438:Drivers/STM32H7xx_HAL_Driver/Src/stm32h7xx_hal_uart_ex.c **** 
 488              		.loc 1 438 3 discriminator 2 view .LVU118
 438:Drivers/STM32H7xx_HAL_Driver/Src/stm32h7xx_hal_uart_ex.c **** 
 489              		.loc 1 438 17 is_stmt 0 discriminator 2 view .LVU119
 490 001a 2423     		movs	r3, #36
 491 001c C0F88430 		str	r3, [r0, #132]
 441:Drivers/STM32H7xx_HAL_Driver/Src/stm32h7xx_hal_uart_ex.c **** 
 492              		.loc 1 441 3 is_stmt 1 discriminator 2 view .LVU120
 493 0020 0268     		ldr	r2, [r0]
 494 0022 1368     		ldr	r3, [r2]
 495 0024 23F00103 		bic	r3, r3, #1
 496 0028 1360     		str	r3, [r2]
 444:Drivers/STM32H7xx_HAL_Driver/Src/stm32h7xx_hal_uart_ex.c **** 
 497              		.loc 1 444 3 discriminator 2 view .LVU121
 498 002a 0168     		ldr	r1, [r0]
 499 002c 8B68     		ldr	r3, [r1, #8]
 500 002e 23F44013 		bic	r3, r3, #3145728
 501 0032 029A     		ldr	r2, [sp, #8]
 502 0034 1343     		orrs	r3, r3, r2
 503 0036 8B60     		str	r3, [r1, #8]
 446:Drivers/STM32H7xx_HAL_Driver/Src/stm32h7xx_hal_uart_ex.c ****   {
 504              		.loc 1 446 3 discriminator 2 view .LVU122
 446:Drivers/STM32H7xx_HAL_Driver/Src/stm32h7xx_hal_uart_ex.c ****   {
 505              		.loc 1 446 6 is_stmt 0 discriminator 2 view .LVU123
 506 0038 AAB1     		cbz	r2, .L41
 507              	.LVL32:
 508              	.L36:
 452:Drivers/STM32H7xx_HAL_Driver/Src/stm32h7xx_hal_uart_ex.c **** 
 509              		.loc 1 452 3 is_stmt 1 view .LVU124
 510 003a 2268     		ldr	r2, [r4]
 511 003c 1368     		ldr	r3, [r2]
 512 003e 43F00103 		orr	r3, r3, #1
 513 0042 1360     		str	r3, [r2]
 455:Drivers/STM32H7xx_HAL_Driver/Src/stm32h7xx_hal_uart_ex.c **** 
 514              		.loc 1 455 3 view .LVU125
 455:Drivers/STM32H7xx_HAL_Driver/Src/stm32h7xx_hal_uart_ex.c **** 
 515              		.loc 1 455 15 is_stmt 0 view .LVU126
 516 0044 FFF7FEFF 		bl	HAL_GetTick
 517              	.LVL33:
ARM GAS  C:\Users\GUILLE~1\AppData\Local\Temp\ccFiIgVY.s 			page 29


 518 0048 0346     		mov	r3, r0
 519              	.LVL34:
 458:Drivers/STM32H7xx_HAL_Driver/Src/stm32h7xx_hal_uart_ex.c ****   {
 520              		.loc 1 458 3 is_stmt 1 view .LVU127
 458:Drivers/STM32H7xx_HAL_Driver/Src/stm32h7xx_hal_uart_ex.c ****   {
 521              		.loc 1 458 7 is_stmt 0 view .LVU128
 522 004a 6FF07E42 		mvn	r2, #-33554432
 523 004e 0092     		str	r2, [sp]
 524 0050 0022     		movs	r2, #0
 525 0052 4FF48001 		mov	r1, #4194304
 526 0056 2046     		mov	r0, r4
 527              	.LVL35:
 458:Drivers/STM32H7xx_HAL_Driver/Src/stm32h7xx_hal_uart_ex.c ****   {
 528              		.loc 1 458 7 view .LVU129
 529 0058 FFF7FEFF 		bl	UART_WaitOnFlagUntilTimeout
 530              	.LVL36:
 458:Drivers/STM32H7xx_HAL_Driver/Src/stm32h7xx_hal_uart_ex.c ****   {
 531              		.loc 1 458 6 view .LVU130
 532 005c 48B9     		cbnz	r0, .L39
 465:Drivers/STM32H7xx_HAL_Driver/Src/stm32h7xx_hal_uart_ex.c ****   }
 533              		.loc 1 465 5 is_stmt 1 view .LVU131
 465:Drivers/STM32H7xx_HAL_Driver/Src/stm32h7xx_hal_uart_ex.c ****   }
 534              		.loc 1 465 19 is_stmt 0 view .LVU132
 535 005e 2023     		movs	r3, #32
 536 0060 C4F88430 		str	r3, [r4, #132]
 537 0064 06E0     		b	.L37
 538              	.LVL37:
 539              	.L41:
 448:Drivers/STM32H7xx_HAL_Driver/Src/stm32h7xx_hal_uart_ex.c ****   }
 540              		.loc 1 448 5 is_stmt 1 view .LVU133
 541 0066 04AB     		add	r3, sp, #16
 542 0068 13E90600 		ldmdb	r3, {r1, r2}
 543 006c FFF7FEFF 		bl	UARTEx_Wakeup_AddressConfig
 544              	.LVL38:
 448:Drivers/STM32H7xx_HAL_Driver/Src/stm32h7xx_hal_uart_ex.c ****   }
 545              		.loc 1 448 5 is_stmt 0 view .LVU134
 546 0070 E3E7     		b	.L36
 547              	.L39:
 460:Drivers/STM32H7xx_HAL_Driver/Src/stm32h7xx_hal_uart_ex.c ****   }
 548              		.loc 1 460 12 view .LVU135
 549 0072 0320     		movs	r0, #3
 550              	.L37:
 551              	.LVL39:
 469:Drivers/STM32H7xx_HAL_Driver/Src/stm32h7xx_hal_uart_ex.c **** 
 552              		.loc 1 469 3 is_stmt 1 view .LVU136
 469:Drivers/STM32H7xx_HAL_Driver/Src/stm32h7xx_hal_uart_ex.c **** 
 553              		.loc 1 469 3 view .LVU137
 554 0074 0023     		movs	r3, #0
 555 0076 84F88030 		strb	r3, [r4, #128]
 469:Drivers/STM32H7xx_HAL_Driver/Src/stm32h7xx_hal_uart_ex.c **** 
 556              		.loc 1 469 3 view .LVU138
 471:Drivers/STM32H7xx_HAL_Driver/Src/stm32h7xx_hal_uart_ex.c **** }
 557              		.loc 1 471 3 view .LVU139
 558              	.LVL40:
 559              	.L35:
 472:Drivers/STM32H7xx_HAL_Driver/Src/stm32h7xx_hal_uart_ex.c **** 
 560              		.loc 1 472 1 is_stmt 0 view .LVU140
ARM GAS  C:\Users\GUILLE~1\AppData\Local\Temp\ccFiIgVY.s 			page 30


 561 007a 04B0     		add	sp, sp, #16
 562              	.LCFI10:
 563              		.cfi_remember_state
 564              		.cfi_def_cfa_offset 8
 565              		@ sp needed
 566 007c 10BD     		pop	{r4, pc}
 567              	.LVL41:
 568              	.L38:
 569              	.LCFI11:
 570              		.cfi_restore_state
 436:Drivers/STM32H7xx_HAL_Driver/Src/stm32h7xx_hal_uart_ex.c **** 
 571              		.loc 1 436 3 view .LVU141
 572 007e 0220     		movs	r0, #2
 573              	.LVL42:
 436:Drivers/STM32H7xx_HAL_Driver/Src/stm32h7xx_hal_uart_ex.c **** 
 574              		.loc 1 436 3 view .LVU142
 575 0080 FBE7     		b	.L35
 576              		.cfi_endproc
 577              	.LFE149:
 579              		.section	.text.HAL_UARTEx_EnableStopMode,"ax",%progbits
 580              		.align	1
 581              		.global	HAL_UARTEx_EnableStopMode
 582              		.syntax unified
 583              		.thumb
 584              		.thumb_func
 585              		.fpu fpv5-d16
 587              	HAL_UARTEx_EnableStopMode:
 588              	.LVL43:
 589              	.LFB150:
 481:Drivers/STM32H7xx_HAL_Driver/Src/stm32h7xx_hal_uart_ex.c ****   /* Process Locked */
 590              		.loc 1 481 1 is_stmt 1 view -0
 591              		.cfi_startproc
 592              		@ args = 0, pretend = 0, frame = 0
 593              		@ frame_needed = 0, uses_anonymous_args = 0
 594              		@ link register save eliminated.
 483:Drivers/STM32H7xx_HAL_Driver/Src/stm32h7xx_hal_uart_ex.c **** 
 595              		.loc 1 483 3 view .LVU144
 483:Drivers/STM32H7xx_HAL_Driver/Src/stm32h7xx_hal_uart_ex.c **** 
 596              		.loc 1 483 3 view .LVU145
 597 0000 90F88030 		ldrb	r3, [r0, #128]	@ zero_extendqisi2
 598 0004 012B     		cmp	r3, #1
 599 0006 0CD0     		beq	.L44
 483:Drivers/STM32H7xx_HAL_Driver/Src/stm32h7xx_hal_uart_ex.c **** 
 600              		.loc 1 483 3 discriminator 2 view .LVU146
 601 0008 0123     		movs	r3, #1
 602 000a 80F88030 		strb	r3, [r0, #128]
 483:Drivers/STM32H7xx_HAL_Driver/Src/stm32h7xx_hal_uart_ex.c **** 
 603              		.loc 1 483 3 discriminator 2 view .LVU147
 486:Drivers/STM32H7xx_HAL_Driver/Src/stm32h7xx_hal_uart_ex.c **** 
 604              		.loc 1 486 3 discriminator 2 view .LVU148
 605 000e 0268     		ldr	r2, [r0]
 606 0010 1368     		ldr	r3, [r2]
 607 0012 43F00203 		orr	r3, r3, #2
 608 0016 1360     		str	r3, [r2]
 489:Drivers/STM32H7xx_HAL_Driver/Src/stm32h7xx_hal_uart_ex.c **** 
 609              		.loc 1 489 3 discriminator 2 view .LVU149
 489:Drivers/STM32H7xx_HAL_Driver/Src/stm32h7xx_hal_uart_ex.c **** 
ARM GAS  C:\Users\GUILLE~1\AppData\Local\Temp\ccFiIgVY.s 			page 31


 610              		.loc 1 489 3 discriminator 2 view .LVU150
 611 0018 0023     		movs	r3, #0
 612 001a 80F88030 		strb	r3, [r0, #128]
 489:Drivers/STM32H7xx_HAL_Driver/Src/stm32h7xx_hal_uart_ex.c **** 
 613              		.loc 1 489 3 discriminator 2 view .LVU151
 491:Drivers/STM32H7xx_HAL_Driver/Src/stm32h7xx_hal_uart_ex.c **** }
 614              		.loc 1 491 3 discriminator 2 view .LVU152
 491:Drivers/STM32H7xx_HAL_Driver/Src/stm32h7xx_hal_uart_ex.c **** }
 615              		.loc 1 491 10 is_stmt 0 discriminator 2 view .LVU153
 616 001e 1846     		mov	r0, r3
 617              	.LVL44:
 491:Drivers/STM32H7xx_HAL_Driver/Src/stm32h7xx_hal_uart_ex.c **** }
 618              		.loc 1 491 10 discriminator 2 view .LVU154
 619 0020 7047     		bx	lr
 620              	.LVL45:
 621              	.L44:
 483:Drivers/STM32H7xx_HAL_Driver/Src/stm32h7xx_hal_uart_ex.c **** 
 622              		.loc 1 483 3 view .LVU155
 623 0022 0220     		movs	r0, #2
 624              	.LVL46:
 492:Drivers/STM32H7xx_HAL_Driver/Src/stm32h7xx_hal_uart_ex.c **** 
 625              		.loc 1 492 1 view .LVU156
 626 0024 7047     		bx	lr
 627              		.cfi_endproc
 628              	.LFE150:
 630              		.section	.text.HAL_UARTEx_DisableStopMode,"ax",%progbits
 631              		.align	1
 632              		.global	HAL_UARTEx_DisableStopMode
 633              		.syntax unified
 634              		.thumb
 635              		.thumb_func
 636              		.fpu fpv5-d16
 638              	HAL_UARTEx_DisableStopMode:
 639              	.LVL47:
 640              	.LFB151:
 500:Drivers/STM32H7xx_HAL_Driver/Src/stm32h7xx_hal_uart_ex.c ****   /* Process Locked */
 641              		.loc 1 500 1 is_stmt 1 view -0
 642              		.cfi_startproc
 643              		@ args = 0, pretend = 0, frame = 0
 644              		@ frame_needed = 0, uses_anonymous_args = 0
 645              		@ link register save eliminated.
 502:Drivers/STM32H7xx_HAL_Driver/Src/stm32h7xx_hal_uart_ex.c **** 
 646              		.loc 1 502 3 view .LVU158
 502:Drivers/STM32H7xx_HAL_Driver/Src/stm32h7xx_hal_uart_ex.c **** 
 647              		.loc 1 502 3 view .LVU159
 648 0000 90F88030 		ldrb	r3, [r0, #128]	@ zero_extendqisi2
 649 0004 012B     		cmp	r3, #1
 650 0006 0CD0     		beq	.L47
 502:Drivers/STM32H7xx_HAL_Driver/Src/stm32h7xx_hal_uart_ex.c **** 
 651              		.loc 1 502 3 discriminator 2 view .LVU160
 652 0008 0123     		movs	r3, #1
 653 000a 80F88030 		strb	r3, [r0, #128]
 502:Drivers/STM32H7xx_HAL_Driver/Src/stm32h7xx_hal_uart_ex.c **** 
 654              		.loc 1 502 3 discriminator 2 view .LVU161
 505:Drivers/STM32H7xx_HAL_Driver/Src/stm32h7xx_hal_uart_ex.c **** 
 655              		.loc 1 505 3 discriminator 2 view .LVU162
 656 000e 0268     		ldr	r2, [r0]
ARM GAS  C:\Users\GUILLE~1\AppData\Local\Temp\ccFiIgVY.s 			page 32


 657 0010 1368     		ldr	r3, [r2]
 658 0012 23F00203 		bic	r3, r3, #2
 659 0016 1360     		str	r3, [r2]
 508:Drivers/STM32H7xx_HAL_Driver/Src/stm32h7xx_hal_uart_ex.c **** 
 660              		.loc 1 508 3 discriminator 2 view .LVU163
 508:Drivers/STM32H7xx_HAL_Driver/Src/stm32h7xx_hal_uart_ex.c **** 
 661              		.loc 1 508 3 discriminator 2 view .LVU164
 662 0018 0023     		movs	r3, #0
 663 001a 80F88030 		strb	r3, [r0, #128]
 508:Drivers/STM32H7xx_HAL_Driver/Src/stm32h7xx_hal_uart_ex.c **** 
 664              		.loc 1 508 3 discriminator 2 view .LVU165
 510:Drivers/STM32H7xx_HAL_Driver/Src/stm32h7xx_hal_uart_ex.c **** }
 665              		.loc 1 510 3 discriminator 2 view .LVU166
 510:Drivers/STM32H7xx_HAL_Driver/Src/stm32h7xx_hal_uart_ex.c **** }
 666              		.loc 1 510 10 is_stmt 0 discriminator 2 view .LVU167
 667 001e 1846     		mov	r0, r3
 668              	.LVL48:
 510:Drivers/STM32H7xx_HAL_Driver/Src/stm32h7xx_hal_uart_ex.c **** }
 669              		.loc 1 510 10 discriminator 2 view .LVU168
 670 0020 7047     		bx	lr
 671              	.LVL49:
 672              	.L47:
 502:Drivers/STM32H7xx_HAL_Driver/Src/stm32h7xx_hal_uart_ex.c **** 
 673              		.loc 1 502 3 view .LVU169
 674 0022 0220     		movs	r0, #2
 675              	.LVL50:
 511:Drivers/STM32H7xx_HAL_Driver/Src/stm32h7xx_hal_uart_ex.c **** 
 676              		.loc 1 511 1 view .LVU170
 677 0024 7047     		bx	lr
 678              		.cfi_endproc
 679              	.LFE151:
 681              		.section	.text.HAL_UARTEx_EnableFifoMode,"ax",%progbits
 682              		.align	1
 683              		.global	HAL_UARTEx_EnableFifoMode
 684              		.syntax unified
 685              		.thumb
 686              		.thumb_func
 687              		.fpu fpv5-d16
 689              	HAL_UARTEx_EnableFifoMode:
 690              	.LVL51:
 691              	.LFB152:
 519:Drivers/STM32H7xx_HAL_Driver/Src/stm32h7xx_hal_uart_ex.c ****   uint32_t tmpcr1;
 692              		.loc 1 519 1 is_stmt 1 view -0
 693              		.cfi_startproc
 694              		@ args = 0, pretend = 0, frame = 0
 695              		@ frame_needed = 0, uses_anonymous_args = 0
 520:Drivers/STM32H7xx_HAL_Driver/Src/stm32h7xx_hal_uart_ex.c **** 
 696              		.loc 1 520 3 view .LVU172
 523:Drivers/STM32H7xx_HAL_Driver/Src/stm32h7xx_hal_uart_ex.c **** 
 697              		.loc 1 523 3 view .LVU173
 526:Drivers/STM32H7xx_HAL_Driver/Src/stm32h7xx_hal_uart_ex.c **** 
 698              		.loc 1 526 3 view .LVU174
 526:Drivers/STM32H7xx_HAL_Driver/Src/stm32h7xx_hal_uart_ex.c **** 
 699              		.loc 1 526 3 view .LVU175
 700 0000 90F88030 		ldrb	r3, [r0, #128]	@ zero_extendqisi2
 701 0004 012B     		cmp	r3, #1
 702 0006 1DD0     		beq	.L50
ARM GAS  C:\Users\GUILLE~1\AppData\Local\Temp\ccFiIgVY.s 			page 33


 519:Drivers/STM32H7xx_HAL_Driver/Src/stm32h7xx_hal_uart_ex.c ****   uint32_t tmpcr1;
 703              		.loc 1 519 1 is_stmt 0 discriminator 2 view .LVU176
 704 0008 10B5     		push	{r4, lr}
 705              	.LCFI12:
 706              		.cfi_def_cfa_offset 8
 707              		.cfi_offset 4, -8
 708              		.cfi_offset 14, -4
 709 000a 0446     		mov	r4, r0
 526:Drivers/STM32H7xx_HAL_Driver/Src/stm32h7xx_hal_uart_ex.c **** 
 710              		.loc 1 526 3 is_stmt 1 discriminator 2 view .LVU177
 711 000c 0123     		movs	r3, #1
 712 000e 80F88030 		strb	r3, [r0, #128]
 526:Drivers/STM32H7xx_HAL_Driver/Src/stm32h7xx_hal_uart_ex.c **** 
 713              		.loc 1 526 3 discriminator 2 view .LVU178
 528:Drivers/STM32H7xx_HAL_Driver/Src/stm32h7xx_hal_uart_ex.c **** 
 714              		.loc 1 528 3 discriminator 2 view .LVU179
 528:Drivers/STM32H7xx_HAL_Driver/Src/stm32h7xx_hal_uart_ex.c **** 
 715              		.loc 1 528 17 is_stmt 0 discriminator 2 view .LVU180
 716 0012 2423     		movs	r3, #36
 717 0014 C0F88430 		str	r3, [r0, #132]
 531:Drivers/STM32H7xx_HAL_Driver/Src/stm32h7xx_hal_uart_ex.c **** 
 718              		.loc 1 531 3 is_stmt 1 discriminator 2 view .LVU181
 531:Drivers/STM32H7xx_HAL_Driver/Src/stm32h7xx_hal_uart_ex.c **** 
 719              		.loc 1 531 12 is_stmt 0 discriminator 2 view .LVU182
 720 0018 0268     		ldr	r2, [r0]
 531:Drivers/STM32H7xx_HAL_Driver/Src/stm32h7xx_hal_uart_ex.c **** 
 721              		.loc 1 531 10 discriminator 2 view .LVU183
 722 001a 1368     		ldr	r3, [r2]
 723              	.LVL52:
 534:Drivers/STM32H7xx_HAL_Driver/Src/stm32h7xx_hal_uart_ex.c **** 
 724              		.loc 1 534 3 is_stmt 1 discriminator 2 view .LVU184
 725 001c 1168     		ldr	r1, [r2]
 726 001e 21F00101 		bic	r1, r1, #1
 727 0022 1160     		str	r1, [r2]
 537:Drivers/STM32H7xx_HAL_Driver/Src/stm32h7xx_hal_uart_ex.c ****   huart->FifoMode = UART_FIFOMODE_ENABLE;
 728              		.loc 1 537 3 discriminator 2 view .LVU185
 729 0024 43F00053 		orr	r3, r3, #536870912
 730              	.LVL53:
 538:Drivers/STM32H7xx_HAL_Driver/Src/stm32h7xx_hal_uart_ex.c **** 
 731              		.loc 1 538 3 discriminator 2 view .LVU186
 538:Drivers/STM32H7xx_HAL_Driver/Src/stm32h7xx_hal_uart_ex.c **** 
 732              		.loc 1 538 19 is_stmt 0 discriminator 2 view .LVU187
 733 0028 4FF00052 		mov	r2, #536870912
 734 002c 4266     		str	r2, [r0, #100]
 541:Drivers/STM32H7xx_HAL_Driver/Src/stm32h7xx_hal_uart_ex.c **** 
 735              		.loc 1 541 3 is_stmt 1 discriminator 2 view .LVU188
 736 002e 0268     		ldr	r2, [r0]
 737 0030 1360     		str	r3, [r2]
 544:Drivers/STM32H7xx_HAL_Driver/Src/stm32h7xx_hal_uart_ex.c **** 
 738              		.loc 1 544 3 discriminator 2 view .LVU189
 739 0032 FFF7FEFF 		bl	UARTEx_SetNbDataToProcess
 740              	.LVL54:
 546:Drivers/STM32H7xx_HAL_Driver/Src/stm32h7xx_hal_uart_ex.c **** 
 741              		.loc 1 546 3 discriminator 2 view .LVU190
 546:Drivers/STM32H7xx_HAL_Driver/Src/stm32h7xx_hal_uart_ex.c **** 
 742              		.loc 1 546 17 is_stmt 0 discriminator 2 view .LVU191
 743 0036 2023     		movs	r3, #32
ARM GAS  C:\Users\GUILLE~1\AppData\Local\Temp\ccFiIgVY.s 			page 34


 744 0038 C4F88430 		str	r3, [r4, #132]
 549:Drivers/STM32H7xx_HAL_Driver/Src/stm32h7xx_hal_uart_ex.c **** 
 745              		.loc 1 549 3 is_stmt 1 discriminator 2 view .LVU192
 549:Drivers/STM32H7xx_HAL_Driver/Src/stm32h7xx_hal_uart_ex.c **** 
 746              		.loc 1 549 3 discriminator 2 view .LVU193
 747 003c 0020     		movs	r0, #0
 748 003e 84F88000 		strb	r0, [r4, #128]
 549:Drivers/STM32H7xx_HAL_Driver/Src/stm32h7xx_hal_uart_ex.c **** 
 749              		.loc 1 549 3 discriminator 2 view .LVU194
 551:Drivers/STM32H7xx_HAL_Driver/Src/stm32h7xx_hal_uart_ex.c **** }
 750              		.loc 1 551 3 discriminator 2 view .LVU195
 552:Drivers/STM32H7xx_HAL_Driver/Src/stm32h7xx_hal_uart_ex.c **** 
 751              		.loc 1 552 1 is_stmt 0 discriminator 2 view .LVU196
 752 0042 10BD     		pop	{r4, pc}
 753              	.LVL55:
 754              	.L50:
 755              	.LCFI13:
 756              		.cfi_def_cfa_offset 0
 757              		.cfi_restore 4
 758              		.cfi_restore 14
 526:Drivers/STM32H7xx_HAL_Driver/Src/stm32h7xx_hal_uart_ex.c **** 
 759              		.loc 1 526 3 view .LVU197
 760 0044 0220     		movs	r0, #2
 761              	.LVL56:
 552:Drivers/STM32H7xx_HAL_Driver/Src/stm32h7xx_hal_uart_ex.c **** 
 762              		.loc 1 552 1 view .LVU198
 763 0046 7047     		bx	lr
 764              		.cfi_endproc
 765              	.LFE152:
 767              		.section	.text.HAL_UARTEx_DisableFifoMode,"ax",%progbits
 768              		.align	1
 769              		.global	HAL_UARTEx_DisableFifoMode
 770              		.syntax unified
 771              		.thumb
 772              		.thumb_func
 773              		.fpu fpv5-d16
 775              	HAL_UARTEx_DisableFifoMode:
 776              	.LVL57:
 777              	.LFB153:
 560:Drivers/STM32H7xx_HAL_Driver/Src/stm32h7xx_hal_uart_ex.c ****   uint32_t tmpcr1;
 778              		.loc 1 560 1 is_stmt 1 view -0
 779              		.cfi_startproc
 780              		@ args = 0, pretend = 0, frame = 0
 781              		@ frame_needed = 0, uses_anonymous_args = 0
 782              		@ link register save eliminated.
 561:Drivers/STM32H7xx_HAL_Driver/Src/stm32h7xx_hal_uart_ex.c **** 
 783              		.loc 1 561 3 view .LVU200
 564:Drivers/STM32H7xx_HAL_Driver/Src/stm32h7xx_hal_uart_ex.c **** 
 784              		.loc 1 564 3 view .LVU201
 567:Drivers/STM32H7xx_HAL_Driver/Src/stm32h7xx_hal_uart_ex.c **** 
 785              		.loc 1 567 3 view .LVU202
 567:Drivers/STM32H7xx_HAL_Driver/Src/stm32h7xx_hal_uart_ex.c **** 
 786              		.loc 1 567 3 view .LVU203
 787 0000 90F88030 		ldrb	r3, [r0, #128]	@ zero_extendqisi2
 788 0004 012B     		cmp	r3, #1
 789 0006 18D0     		beq	.L57
 567:Drivers/STM32H7xx_HAL_Driver/Src/stm32h7xx_hal_uart_ex.c **** 
ARM GAS  C:\Users\GUILLE~1\AppData\Local\Temp\ccFiIgVY.s 			page 35


 790              		.loc 1 567 3 discriminator 2 view .LVU204
 791 0008 0123     		movs	r3, #1
 792 000a 80F88030 		strb	r3, [r0, #128]
 567:Drivers/STM32H7xx_HAL_Driver/Src/stm32h7xx_hal_uart_ex.c **** 
 793              		.loc 1 567 3 discriminator 2 view .LVU205
 569:Drivers/STM32H7xx_HAL_Driver/Src/stm32h7xx_hal_uart_ex.c **** 
 794              		.loc 1 569 3 discriminator 2 view .LVU206
 569:Drivers/STM32H7xx_HAL_Driver/Src/stm32h7xx_hal_uart_ex.c **** 
 795              		.loc 1 569 17 is_stmt 0 discriminator 2 view .LVU207
 796 000e 2423     		movs	r3, #36
 797 0010 C0F88430 		str	r3, [r0, #132]
 572:Drivers/STM32H7xx_HAL_Driver/Src/stm32h7xx_hal_uart_ex.c **** 
 798              		.loc 1 572 3 is_stmt 1 discriminator 2 view .LVU208
 572:Drivers/STM32H7xx_HAL_Driver/Src/stm32h7xx_hal_uart_ex.c **** 
 799              		.loc 1 572 12 is_stmt 0 discriminator 2 view .LVU209
 800 0014 0368     		ldr	r3, [r0]
 572:Drivers/STM32H7xx_HAL_Driver/Src/stm32h7xx_hal_uart_ex.c **** 
 801              		.loc 1 572 10 discriminator 2 view .LVU210
 802 0016 1A68     		ldr	r2, [r3]
 803              	.LVL58:
 575:Drivers/STM32H7xx_HAL_Driver/Src/stm32h7xx_hal_uart_ex.c **** 
 804              		.loc 1 575 3 is_stmt 1 discriminator 2 view .LVU211
 805 0018 1968     		ldr	r1, [r3]
 806 001a 21F00101 		bic	r1, r1, #1
 807 001e 1960     		str	r1, [r3]
 578:Drivers/STM32H7xx_HAL_Driver/Src/stm32h7xx_hal_uart_ex.c ****   huart->FifoMode = UART_FIFOMODE_DISABLE;
 808              		.loc 1 578 3 discriminator 2 view .LVU212
 809 0020 22F00052 		bic	r2, r2, #536870912
 810              	.LVL59:
 579:Drivers/STM32H7xx_HAL_Driver/Src/stm32h7xx_hal_uart_ex.c **** 
 811              		.loc 1 579 3 discriminator 2 view .LVU213
 579:Drivers/STM32H7xx_HAL_Driver/Src/stm32h7xx_hal_uart_ex.c **** 
 812              		.loc 1 579 19 is_stmt 0 discriminator 2 view .LVU214
 813 0024 0023     		movs	r3, #0
 814 0026 4366     		str	r3, [r0, #100]
 582:Drivers/STM32H7xx_HAL_Driver/Src/stm32h7xx_hal_uart_ex.c **** 
 815              		.loc 1 582 3 is_stmt 1 discriminator 2 view .LVU215
 816 0028 0168     		ldr	r1, [r0]
 817 002a 0A60     		str	r2, [r1]
 584:Drivers/STM32H7xx_HAL_Driver/Src/stm32h7xx_hal_uart_ex.c **** 
 818              		.loc 1 584 3 discriminator 2 view .LVU216
 584:Drivers/STM32H7xx_HAL_Driver/Src/stm32h7xx_hal_uart_ex.c **** 
 819              		.loc 1 584 17 is_stmt 0 discriminator 2 view .LVU217
 820 002c 2022     		movs	r2, #32
 821              	.LVL60:
 584:Drivers/STM32H7xx_HAL_Driver/Src/stm32h7xx_hal_uart_ex.c **** 
 822              		.loc 1 584 17 discriminator 2 view .LVU218
 823 002e C0F88420 		str	r2, [r0, #132]
 824              	.LVL61:
 587:Drivers/STM32H7xx_HAL_Driver/Src/stm32h7xx_hal_uart_ex.c **** 
 825              		.loc 1 587 3 is_stmt 1 discriminator 2 view .LVU219
 587:Drivers/STM32H7xx_HAL_Driver/Src/stm32h7xx_hal_uart_ex.c **** 
 826              		.loc 1 587 3 discriminator 2 view .LVU220
 827 0032 80F88030 		strb	r3, [r0, #128]
 587:Drivers/STM32H7xx_HAL_Driver/Src/stm32h7xx_hal_uart_ex.c **** 
 828              		.loc 1 587 3 discriminator 2 view .LVU221
 589:Drivers/STM32H7xx_HAL_Driver/Src/stm32h7xx_hal_uart_ex.c **** }
ARM GAS  C:\Users\GUILLE~1\AppData\Local\Temp\ccFiIgVY.s 			page 36


 829              		.loc 1 589 3 discriminator 2 view .LVU222
 589:Drivers/STM32H7xx_HAL_Driver/Src/stm32h7xx_hal_uart_ex.c **** }
 830              		.loc 1 589 10 is_stmt 0 discriminator 2 view .LVU223
 831 0036 1846     		mov	r0, r3
 832              	.LVL62:
 589:Drivers/STM32H7xx_HAL_Driver/Src/stm32h7xx_hal_uart_ex.c **** }
 833              		.loc 1 589 10 discriminator 2 view .LVU224
 834 0038 7047     		bx	lr
 835              	.LVL63:
 836              	.L57:
 567:Drivers/STM32H7xx_HAL_Driver/Src/stm32h7xx_hal_uart_ex.c **** 
 837              		.loc 1 567 3 view .LVU225
 838 003a 0220     		movs	r0, #2
 839              	.LVL64:
 590:Drivers/STM32H7xx_HAL_Driver/Src/stm32h7xx_hal_uart_ex.c **** 
 840              		.loc 1 590 1 view .LVU226
 841 003c 7047     		bx	lr
 842              		.cfi_endproc
 843              	.LFE153:
 845              		.section	.text.HAL_UARTEx_SetTxFifoThreshold,"ax",%progbits
 846              		.align	1
 847              		.global	HAL_UARTEx_SetTxFifoThreshold
 848              		.syntax unified
 849              		.thumb
 850              		.thumb_func
 851              		.fpu fpv5-d16
 853              	HAL_UARTEx_SetTxFifoThreshold:
 854              	.LVL65:
 855              	.LFB154:
 606:Drivers/STM32H7xx_HAL_Driver/Src/stm32h7xx_hal_uart_ex.c ****   uint32_t tmpcr1;
 856              		.loc 1 606 1 is_stmt 1 view -0
 857              		.cfi_startproc
 858              		@ args = 0, pretend = 0, frame = 0
 859              		@ frame_needed = 0, uses_anonymous_args = 0
 606:Drivers/STM32H7xx_HAL_Driver/Src/stm32h7xx_hal_uart_ex.c ****   uint32_t tmpcr1;
 860              		.loc 1 606 1 is_stmt 0 view .LVU228
 861 0000 38B5     		push	{r3, r4, r5, lr}
 862              	.LCFI14:
 863              		.cfi_def_cfa_offset 16
 864              		.cfi_offset 3, -16
 865              		.cfi_offset 4, -12
 866              		.cfi_offset 5, -8
 867              		.cfi_offset 14, -4
 607:Drivers/STM32H7xx_HAL_Driver/Src/stm32h7xx_hal_uart_ex.c **** 
 868              		.loc 1 607 3 is_stmt 1 view .LVU229
 610:Drivers/STM32H7xx_HAL_Driver/Src/stm32h7xx_hal_uart_ex.c ****   assert_param(IS_UART_TXFIFO_THRESHOLD(Threshold));
 869              		.loc 1 610 3 view .LVU230
 611:Drivers/STM32H7xx_HAL_Driver/Src/stm32h7xx_hal_uart_ex.c **** 
 870              		.loc 1 611 3 view .LVU231
 614:Drivers/STM32H7xx_HAL_Driver/Src/stm32h7xx_hal_uart_ex.c **** 
 871              		.loc 1 614 3 view .LVU232
 614:Drivers/STM32H7xx_HAL_Driver/Src/stm32h7xx_hal_uart_ex.c **** 
 872              		.loc 1 614 3 view .LVU233
 873 0002 90F88030 		ldrb	r3, [r0, #128]	@ zero_extendqisi2
 874 0006 012B     		cmp	r3, #1
 875 0008 1DD0     		beq	.L60
 876 000a 0446     		mov	r4, r0
ARM GAS  C:\Users\GUILLE~1\AppData\Local\Temp\ccFiIgVY.s 			page 37


 614:Drivers/STM32H7xx_HAL_Driver/Src/stm32h7xx_hal_uart_ex.c **** 
 877              		.loc 1 614 3 discriminator 2 view .LVU234
 878 000c 0123     		movs	r3, #1
 879 000e 80F88030 		strb	r3, [r0, #128]
 614:Drivers/STM32H7xx_HAL_Driver/Src/stm32h7xx_hal_uart_ex.c **** 
 880              		.loc 1 614 3 discriminator 2 view .LVU235
 616:Drivers/STM32H7xx_HAL_Driver/Src/stm32h7xx_hal_uart_ex.c **** 
 881              		.loc 1 616 3 discriminator 2 view .LVU236
 616:Drivers/STM32H7xx_HAL_Driver/Src/stm32h7xx_hal_uart_ex.c **** 
 882              		.loc 1 616 17 is_stmt 0 discriminator 2 view .LVU237
 883 0012 2423     		movs	r3, #36
 884 0014 C0F88430 		str	r3, [r0, #132]
 619:Drivers/STM32H7xx_HAL_Driver/Src/stm32h7xx_hal_uart_ex.c **** 
 885              		.loc 1 619 3 is_stmt 1 discriminator 2 view .LVU238
 619:Drivers/STM32H7xx_HAL_Driver/Src/stm32h7xx_hal_uart_ex.c **** 
 886              		.loc 1 619 12 is_stmt 0 discriminator 2 view .LVU239
 887 0018 0368     		ldr	r3, [r0]
 619:Drivers/STM32H7xx_HAL_Driver/Src/stm32h7xx_hal_uart_ex.c **** 
 888              		.loc 1 619 10 discriminator 2 view .LVU240
 889 001a 1D68     		ldr	r5, [r3]
 890              	.LVL66:
 622:Drivers/STM32H7xx_HAL_Driver/Src/stm32h7xx_hal_uart_ex.c **** 
 891              		.loc 1 622 3 is_stmt 1 discriminator 2 view .LVU241
 892 001c 1A68     		ldr	r2, [r3]
 893 001e 22F00102 		bic	r2, r2, #1
 894 0022 1A60     		str	r2, [r3]
 625:Drivers/STM32H7xx_HAL_Driver/Src/stm32h7xx_hal_uart_ex.c **** 
 895              		.loc 1 625 3 discriminator 2 view .LVU242
 896 0024 0268     		ldr	r2, [r0]
 897 0026 9368     		ldr	r3, [r2, #8]
 898 0028 23F06043 		bic	r3, r3, #-536870912
 899 002c 1943     		orrs	r1, r1, r3
 900              	.LVL67:
 625:Drivers/STM32H7xx_HAL_Driver/Src/stm32h7xx_hal_uart_ex.c **** 
 901              		.loc 1 625 3 is_stmt 0 discriminator 2 view .LVU243
 902 002e 9160     		str	r1, [r2, #8]
 628:Drivers/STM32H7xx_HAL_Driver/Src/stm32h7xx_hal_uart_ex.c **** 
 903              		.loc 1 628 3 is_stmt 1 discriminator 2 view .LVU244
 904 0030 FFF7FEFF 		bl	UARTEx_SetNbDataToProcess
 905              	.LVL68:
 631:Drivers/STM32H7xx_HAL_Driver/Src/stm32h7xx_hal_uart_ex.c **** 
 906              		.loc 1 631 3 discriminator 2 view .LVU245
 907 0034 2368     		ldr	r3, [r4]
 908 0036 1D60     		str	r5, [r3]
 633:Drivers/STM32H7xx_HAL_Driver/Src/stm32h7xx_hal_uart_ex.c **** 
 909              		.loc 1 633 3 discriminator 2 view .LVU246
 633:Drivers/STM32H7xx_HAL_Driver/Src/stm32h7xx_hal_uart_ex.c **** 
 910              		.loc 1 633 17 is_stmt 0 discriminator 2 view .LVU247
 911 0038 2023     		movs	r3, #32
 912 003a C4F88430 		str	r3, [r4, #132]
 636:Drivers/STM32H7xx_HAL_Driver/Src/stm32h7xx_hal_uart_ex.c **** 
 913              		.loc 1 636 3 is_stmt 1 discriminator 2 view .LVU248
 636:Drivers/STM32H7xx_HAL_Driver/Src/stm32h7xx_hal_uart_ex.c **** 
 914              		.loc 1 636 3 discriminator 2 view .LVU249
 915 003e 0020     		movs	r0, #0
 916 0040 84F88000 		strb	r0, [r4, #128]
 636:Drivers/STM32H7xx_HAL_Driver/Src/stm32h7xx_hal_uart_ex.c **** 
ARM GAS  C:\Users\GUILLE~1\AppData\Local\Temp\ccFiIgVY.s 			page 38


 917              		.loc 1 636 3 discriminator 2 view .LVU250
 638:Drivers/STM32H7xx_HAL_Driver/Src/stm32h7xx_hal_uart_ex.c **** }
 918              		.loc 1 638 3 discriminator 2 view .LVU251
 919              	.LVL69:
 920              	.L59:
 639:Drivers/STM32H7xx_HAL_Driver/Src/stm32h7xx_hal_uart_ex.c **** 
 921              		.loc 1 639 1 is_stmt 0 view .LVU252
 922 0044 38BD     		pop	{r3, r4, r5, pc}
 923              	.LVL70:
 924              	.L60:
 614:Drivers/STM32H7xx_HAL_Driver/Src/stm32h7xx_hal_uart_ex.c **** 
 925              		.loc 1 614 3 view .LVU253
 926 0046 0220     		movs	r0, #2
 927              	.LVL71:
 614:Drivers/STM32H7xx_HAL_Driver/Src/stm32h7xx_hal_uart_ex.c **** 
 928              		.loc 1 614 3 view .LVU254
 929 0048 FCE7     		b	.L59
 930              		.cfi_endproc
 931              	.LFE154:
 933              		.section	.text.HAL_UARTEx_SetRxFifoThreshold,"ax",%progbits
 934              		.align	1
 935              		.global	HAL_UARTEx_SetRxFifoThreshold
 936              		.syntax unified
 937              		.thumb
 938              		.thumb_func
 939              		.fpu fpv5-d16
 941              	HAL_UARTEx_SetRxFifoThreshold:
 942              	.LVL72:
 943              	.LFB155:
 655:Drivers/STM32H7xx_HAL_Driver/Src/stm32h7xx_hal_uart_ex.c ****   uint32_t tmpcr1;
 944              		.loc 1 655 1 is_stmt 1 view -0
 945              		.cfi_startproc
 946              		@ args = 0, pretend = 0, frame = 0
 947              		@ frame_needed = 0, uses_anonymous_args = 0
 655:Drivers/STM32H7xx_HAL_Driver/Src/stm32h7xx_hal_uart_ex.c ****   uint32_t tmpcr1;
 948              		.loc 1 655 1 is_stmt 0 view .LVU256
 949 0000 38B5     		push	{r3, r4, r5, lr}
 950              	.LCFI15:
 951              		.cfi_def_cfa_offset 16
 952              		.cfi_offset 3, -16
 953              		.cfi_offset 4, -12
 954              		.cfi_offset 5, -8
 955              		.cfi_offset 14, -4
 656:Drivers/STM32H7xx_HAL_Driver/Src/stm32h7xx_hal_uart_ex.c **** 
 956              		.loc 1 656 3 is_stmt 1 view .LVU257
 659:Drivers/STM32H7xx_HAL_Driver/Src/stm32h7xx_hal_uart_ex.c ****   assert_param(IS_UART_RXFIFO_THRESHOLD(Threshold));
 957              		.loc 1 659 3 view .LVU258
 660:Drivers/STM32H7xx_HAL_Driver/Src/stm32h7xx_hal_uart_ex.c **** 
 958              		.loc 1 660 3 view .LVU259
 663:Drivers/STM32H7xx_HAL_Driver/Src/stm32h7xx_hal_uart_ex.c **** 
 959              		.loc 1 663 3 view .LVU260
 663:Drivers/STM32H7xx_HAL_Driver/Src/stm32h7xx_hal_uart_ex.c **** 
 960              		.loc 1 663 3 view .LVU261
 961 0002 90F88030 		ldrb	r3, [r0, #128]	@ zero_extendqisi2
 962 0006 012B     		cmp	r3, #1
 963 0008 1DD0     		beq	.L64
 964 000a 0446     		mov	r4, r0
ARM GAS  C:\Users\GUILLE~1\AppData\Local\Temp\ccFiIgVY.s 			page 39


 663:Drivers/STM32H7xx_HAL_Driver/Src/stm32h7xx_hal_uart_ex.c **** 
 965              		.loc 1 663 3 discriminator 2 view .LVU262
 966 000c 0123     		movs	r3, #1
 967 000e 80F88030 		strb	r3, [r0, #128]
 663:Drivers/STM32H7xx_HAL_Driver/Src/stm32h7xx_hal_uart_ex.c **** 
 968              		.loc 1 663 3 discriminator 2 view .LVU263
 665:Drivers/STM32H7xx_HAL_Driver/Src/stm32h7xx_hal_uart_ex.c **** 
 969              		.loc 1 665 3 discriminator 2 view .LVU264
 665:Drivers/STM32H7xx_HAL_Driver/Src/stm32h7xx_hal_uart_ex.c **** 
 970              		.loc 1 665 17 is_stmt 0 discriminator 2 view .LVU265
 971 0012 2423     		movs	r3, #36
 972 0014 C0F88430 		str	r3, [r0, #132]
 668:Drivers/STM32H7xx_HAL_Driver/Src/stm32h7xx_hal_uart_ex.c **** 
 973              		.loc 1 668 3 is_stmt 1 discriminator 2 view .LVU266
 668:Drivers/STM32H7xx_HAL_Driver/Src/stm32h7xx_hal_uart_ex.c **** 
 974              		.loc 1 668 12 is_stmt 0 discriminator 2 view .LVU267
 975 0018 0368     		ldr	r3, [r0]
 668:Drivers/STM32H7xx_HAL_Driver/Src/stm32h7xx_hal_uart_ex.c **** 
 976              		.loc 1 668 10 discriminator 2 view .LVU268
 977 001a 1D68     		ldr	r5, [r3]
 978              	.LVL73:
 671:Drivers/STM32H7xx_HAL_Driver/Src/stm32h7xx_hal_uart_ex.c **** 
 979              		.loc 1 671 3 is_stmt 1 discriminator 2 view .LVU269
 980 001c 1A68     		ldr	r2, [r3]
 981 001e 22F00102 		bic	r2, r2, #1
 982 0022 1A60     		str	r2, [r3]
 674:Drivers/STM32H7xx_HAL_Driver/Src/stm32h7xx_hal_uart_ex.c **** 
 983              		.loc 1 674 3 discriminator 2 view .LVU270
 984 0024 0268     		ldr	r2, [r0]
 985 0026 9368     		ldr	r3, [r2, #8]
 986 0028 23F06063 		bic	r3, r3, #234881024
 987 002c 1943     		orrs	r1, r1, r3
 988              	.LVL74:
 674:Drivers/STM32H7xx_HAL_Driver/Src/stm32h7xx_hal_uart_ex.c **** 
 989              		.loc 1 674 3 is_stmt 0 discriminator 2 view .LVU271
 990 002e 9160     		str	r1, [r2, #8]
 677:Drivers/STM32H7xx_HAL_Driver/Src/stm32h7xx_hal_uart_ex.c **** 
 991              		.loc 1 677 3 is_stmt 1 discriminator 2 view .LVU272
 992 0030 FFF7FEFF 		bl	UARTEx_SetNbDataToProcess
 993              	.LVL75:
 680:Drivers/STM32H7xx_HAL_Driver/Src/stm32h7xx_hal_uart_ex.c **** 
 994              		.loc 1 680 3 discriminator 2 view .LVU273
 995 0034 2368     		ldr	r3, [r4]
 996 0036 1D60     		str	r5, [r3]
 682:Drivers/STM32H7xx_HAL_Driver/Src/stm32h7xx_hal_uart_ex.c **** 
 997              		.loc 1 682 3 discriminator 2 view .LVU274
 682:Drivers/STM32H7xx_HAL_Driver/Src/stm32h7xx_hal_uart_ex.c **** 
 998              		.loc 1 682 17 is_stmt 0 discriminator 2 view .LVU275
 999 0038 2023     		movs	r3, #32
 1000 003a C4F88430 		str	r3, [r4, #132]
 685:Drivers/STM32H7xx_HAL_Driver/Src/stm32h7xx_hal_uart_ex.c **** 
 1001              		.loc 1 685 3 is_stmt 1 discriminator 2 view .LVU276
 685:Drivers/STM32H7xx_HAL_Driver/Src/stm32h7xx_hal_uart_ex.c **** 
 1002              		.loc 1 685 3 discriminator 2 view .LVU277
 1003 003e 0020     		movs	r0, #0
 1004 0040 84F88000 		strb	r0, [r4, #128]
 685:Drivers/STM32H7xx_HAL_Driver/Src/stm32h7xx_hal_uart_ex.c **** 
ARM GAS  C:\Users\GUILLE~1\AppData\Local\Temp\ccFiIgVY.s 			page 40


 1005              		.loc 1 685 3 discriminator 2 view .LVU278
 687:Drivers/STM32H7xx_HAL_Driver/Src/stm32h7xx_hal_uart_ex.c **** }
 1006              		.loc 1 687 3 discriminator 2 view .LVU279
 1007              	.LVL76:
 1008              	.L63:
 688:Drivers/STM32H7xx_HAL_Driver/Src/stm32h7xx_hal_uart_ex.c **** 
 1009              		.loc 1 688 1 is_stmt 0 view .LVU280
 1010 0044 38BD     		pop	{r3, r4, r5, pc}
 1011              	.LVL77:
 1012              	.L64:
 663:Drivers/STM32H7xx_HAL_Driver/Src/stm32h7xx_hal_uart_ex.c **** 
 1013              		.loc 1 663 3 view .LVU281
 1014 0046 0220     		movs	r0, #2
 1015              	.LVL78:
 663:Drivers/STM32H7xx_HAL_Driver/Src/stm32h7xx_hal_uart_ex.c **** 
 1016              		.loc 1 663 3 view .LVU282
 1017 0048 FCE7     		b	.L63
 1018              		.cfi_endproc
 1019              	.LFE155:
 1021              		.section	.text.HAL_UARTEx_ReceiveToIdle,"ax",%progbits
 1022              		.align	1
 1023              		.global	HAL_UARTEx_ReceiveToIdle
 1024              		.syntax unified
 1025              		.thumb
 1026              		.thumb_func
 1027              		.fpu fpv5-d16
 1029              	HAL_UARTEx_ReceiveToIdle:
 1030              	.LVL79:
 1031              	.LFB156:
 713:Drivers/STM32H7xx_HAL_Driver/Src/stm32h7xx_hal_uart_ex.c ****   uint8_t  *pdata8bits;
 1032              		.loc 1 713 1 is_stmt 1 view -0
 1033              		.cfi_startproc
 1034              		@ args = 4, pretend = 0, frame = 0
 1035              		@ frame_needed = 0, uses_anonymous_args = 0
 713:Drivers/STM32H7xx_HAL_Driver/Src/stm32h7xx_hal_uart_ex.c ****   uint8_t  *pdata8bits;
 1036              		.loc 1 713 1 is_stmt 0 view .LVU284
 1037 0000 2DE9F047 		push	{r4, r5, r6, r7, r8, r9, r10, lr}
 1038              	.LCFI16:
 1039              		.cfi_def_cfa_offset 32
 1040              		.cfi_offset 4, -32
 1041              		.cfi_offset 5, -28
 1042              		.cfi_offset 6, -24
 1043              		.cfi_offset 7, -20
 1044              		.cfi_offset 8, -16
 1045              		.cfi_offset 9, -12
 1046              		.cfi_offset 10, -8
 1047              		.cfi_offset 14, -4
 1048 0004 1D46     		mov	r5, r3
 1049 0006 089E     		ldr	r6, [sp, #32]
 714:Drivers/STM32H7xx_HAL_Driver/Src/stm32h7xx_hal_uart_ex.c ****   uint16_t *pdata16bits;
 1050              		.loc 1 714 3 is_stmt 1 view .LVU285
 715:Drivers/STM32H7xx_HAL_Driver/Src/stm32h7xx_hal_uart_ex.c ****   uint16_t uhMask;
 1051              		.loc 1 715 3 view .LVU286
 716:Drivers/STM32H7xx_HAL_Driver/Src/stm32h7xx_hal_uart_ex.c ****   uint32_t tickstart;
 1052              		.loc 1 716 3 view .LVU287
 717:Drivers/STM32H7xx_HAL_Driver/Src/stm32h7xx_hal_uart_ex.c **** 
 1053              		.loc 1 717 3 view .LVU288
ARM GAS  C:\Users\GUILLE~1\AppData\Local\Temp\ccFiIgVY.s 			page 41


 720:Drivers/STM32H7xx_HAL_Driver/Src/stm32h7xx_hal_uart_ex.c ****   {
 1054              		.loc 1 720 3 view .LVU289
 720:Drivers/STM32H7xx_HAL_Driver/Src/stm32h7xx_hal_uart_ex.c ****   {
 1055              		.loc 1 720 12 is_stmt 0 view .LVU290
 1056 0008 D0F88830 		ldr	r3, [r0, #136]
 1057              	.LVL80:
 720:Drivers/STM32H7xx_HAL_Driver/Src/stm32h7xx_hal_uart_ex.c ****   {
 1058              		.loc 1 720 6 view .LVU291
 1059 000c 202B     		cmp	r3, #32
 1060 000e 40F0A880 		bne	.L84
 1061 0012 0446     		mov	r4, r0
 1062 0014 0F46     		mov	r7, r1
 1063 0016 9146     		mov	r9, r2
 722:Drivers/STM32H7xx_HAL_Driver/Src/stm32h7xx_hal_uart_ex.c ****     {
 1064              		.loc 1 722 5 is_stmt 1 view .LVU292
 722:Drivers/STM32H7xx_HAL_Driver/Src/stm32h7xx_hal_uart_ex.c ****     {
 1065              		.loc 1 722 8 is_stmt 0 view .LVU293
 1066 0018 002A     		cmp	r2, #0
 1067 001a 18BF     		it	ne
 1068 001c 0029     		cmpne	r1, #0
 1069 001e 00F0A380 		beq	.L85
 727:Drivers/STM32H7xx_HAL_Driver/Src/stm32h7xx_hal_uart_ex.c **** 
 1070              		.loc 1 727 5 is_stmt 1 view .LVU294
 727:Drivers/STM32H7xx_HAL_Driver/Src/stm32h7xx_hal_uart_ex.c **** 
 1071              		.loc 1 727 5 view .LVU295
 1072 0022 90F88030 		ldrb	r3, [r0, #128]	@ zero_extendqisi2
 1073 0026 012B     		cmp	r3, #1
 1074 0028 00F0A080 		beq	.L86
 727:Drivers/STM32H7xx_HAL_Driver/Src/stm32h7xx_hal_uart_ex.c **** 
 1075              		.loc 1 727 5 discriminator 2 view .LVU296
 1076 002c 0123     		movs	r3, #1
 1077 002e 80F88030 		strb	r3, [r0, #128]
 727:Drivers/STM32H7xx_HAL_Driver/Src/stm32h7xx_hal_uart_ex.c **** 
 1078              		.loc 1 727 5 discriminator 2 view .LVU297
 729:Drivers/STM32H7xx_HAL_Driver/Src/stm32h7xx_hal_uart_ex.c ****     huart->RxState = HAL_UART_STATE_BUSY_RX;
 1079              		.loc 1 729 5 discriminator 2 view .LVU298
 729:Drivers/STM32H7xx_HAL_Driver/Src/stm32h7xx_hal_uart_ex.c ****     huart->RxState = HAL_UART_STATE_BUSY_RX;
 1080              		.loc 1 729 22 is_stmt 0 discriminator 2 view .LVU299
 1081 0032 0022     		movs	r2, #0
 1082              	.LVL81:
 729:Drivers/STM32H7xx_HAL_Driver/Src/stm32h7xx_hal_uart_ex.c ****     huart->RxState = HAL_UART_STATE_BUSY_RX;
 1083              		.loc 1 729 22 discriminator 2 view .LVU300
 1084 0034 C0F88C20 		str	r2, [r0, #140]
 730:Drivers/STM32H7xx_HAL_Driver/Src/stm32h7xx_hal_uart_ex.c ****     huart->ReceptionType = HAL_UART_RECEPTION_TOIDLE;
 1085              		.loc 1 730 5 is_stmt 1 discriminator 2 view .LVU301
 730:Drivers/STM32H7xx_HAL_Driver/Src/stm32h7xx_hal_uart_ex.c ****     huart->ReceptionType = HAL_UART_RECEPTION_TOIDLE;
 1086              		.loc 1 730 20 is_stmt 0 discriminator 2 view .LVU302
 1087 0038 2222     		movs	r2, #34
 1088 003a C0F88820 		str	r2, [r0, #136]
 731:Drivers/STM32H7xx_HAL_Driver/Src/stm32h7xx_hal_uart_ex.c **** 
 1089              		.loc 1 731 5 is_stmt 1 discriminator 2 view .LVU303
 731:Drivers/STM32H7xx_HAL_Driver/Src/stm32h7xx_hal_uart_ex.c **** 
 1090              		.loc 1 731 26 is_stmt 0 discriminator 2 view .LVU304
 1091 003e C366     		str	r3, [r0, #108]
 734:Drivers/STM32H7xx_HAL_Driver/Src/stm32h7xx_hal_uart_ex.c **** 
 1092              		.loc 1 734 5 is_stmt 1 discriminator 2 view .LVU305
 734:Drivers/STM32H7xx_HAL_Driver/Src/stm32h7xx_hal_uart_ex.c **** 
ARM GAS  C:\Users\GUILLE~1\AppData\Local\Temp\ccFiIgVY.s 			page 42


 1093              		.loc 1 734 17 is_stmt 0 discriminator 2 view .LVU306
 1094 0040 FFF7FEFF 		bl	HAL_GetTick
 1095              	.LVL82:
 734:Drivers/STM32H7xx_HAL_Driver/Src/stm32h7xx_hal_uart_ex.c **** 
 1096              		.loc 1 734 17 discriminator 2 view .LVU307
 1097 0044 8046     		mov	r8, r0
 1098              	.LVL83:
 736:Drivers/STM32H7xx_HAL_Driver/Src/stm32h7xx_hal_uart_ex.c ****     huart->RxXferCount = Size;
 1099              		.loc 1 736 5 is_stmt 1 discriminator 2 view .LVU308
 736:Drivers/STM32H7xx_HAL_Driver/Src/stm32h7xx_hal_uart_ex.c ****     huart->RxXferCount = Size;
 1100              		.loc 1 736 24 is_stmt 0 discriminator 2 view .LVU309
 1101 0046 A4F85C90 		strh	r9, [r4, #92]	@ movhi
 737:Drivers/STM32H7xx_HAL_Driver/Src/stm32h7xx_hal_uart_ex.c **** 
 1102              		.loc 1 737 5 is_stmt 1 discriminator 2 view .LVU310
 737:Drivers/STM32H7xx_HAL_Driver/Src/stm32h7xx_hal_uart_ex.c **** 
 1103              		.loc 1 737 24 is_stmt 0 discriminator 2 view .LVU311
 1104 004a A4F85E90 		strh	r9, [r4, #94]	@ movhi
 740:Drivers/STM32H7xx_HAL_Driver/Src/stm32h7xx_hal_uart_ex.c ****     uhMask = huart->Mask;
 1105              		.loc 1 740 5 is_stmt 1 discriminator 2 view .LVU312
 740:Drivers/STM32H7xx_HAL_Driver/Src/stm32h7xx_hal_uart_ex.c ****     uhMask = huart->Mask;
 1106              		.loc 1 740 5 discriminator 2 view .LVU313
 1107 004e A368     		ldr	r3, [r4, #8]
 1108 0050 B3F5805F 		cmp	r3, #4096
 1109 0054 06D0     		beq	.L90
 740:Drivers/STM32H7xx_HAL_Driver/Src/stm32h7xx_hal_uart_ex.c ****     uhMask = huart->Mask;
 1110              		.loc 1 740 5 discriminator 2 view .LVU314
 1111 0056 A3B9     		cbnz	r3, .L71
 740:Drivers/STM32H7xx_HAL_Driver/Src/stm32h7xx_hal_uart_ex.c ****     uhMask = huart->Mask;
 1112              		.loc 1 740 5 discriminator 5 view .LVU315
 1113 0058 2269     		ldr	r2, [r4, #16]
 1114 005a 72B9     		cbnz	r2, .L72
 740:Drivers/STM32H7xx_HAL_Driver/Src/stm32h7xx_hal_uart_ex.c ****     uhMask = huart->Mask;
 1115              		.loc 1 740 5 discriminator 7 view .LVU316
 1116 005c FF22     		movs	r2, #255
 1117 005e A4F86020 		strh	r2, [r4, #96]	@ movhi
 1118 0062 14E0     		b	.L70
 1119              	.L90:
 740:Drivers/STM32H7xx_HAL_Driver/Src/stm32h7xx_hal_uart_ex.c ****     uhMask = huart->Mask;
 1120              		.loc 1 740 5 discriminator 1 view .LVU317
 1121 0064 2269     		ldr	r2, [r4, #16]
 1122 0066 22B9     		cbnz	r2, .L69
 740:Drivers/STM32H7xx_HAL_Driver/Src/stm32h7xx_hal_uart_ex.c ****     uhMask = huart->Mask;
 1123              		.loc 1 740 5 discriminator 3 view .LVU318
 1124 0068 40F2FF12 		movw	r2, #511
 1125 006c A4F86020 		strh	r2, [r4, #96]	@ movhi
 1126 0070 0DE0     		b	.L70
 1127              	.L69:
 740:Drivers/STM32H7xx_HAL_Driver/Src/stm32h7xx_hal_uart_ex.c ****     uhMask = huart->Mask;
 1128              		.loc 1 740 5 discriminator 4 view .LVU319
 1129 0072 FF22     		movs	r2, #255
 1130 0074 A4F86020 		strh	r2, [r4, #96]	@ movhi
 1131 0078 09E0     		b	.L70
 1132              	.L72:
 740:Drivers/STM32H7xx_HAL_Driver/Src/stm32h7xx_hal_uart_ex.c ****     uhMask = huart->Mask;
 1133              		.loc 1 740 5 discriminator 8 view .LVU320
 1134 007a 7F22     		movs	r2, #127
 1135 007c A4F86020 		strh	r2, [r4, #96]	@ movhi
ARM GAS  C:\Users\GUILLE~1\AppData\Local\Temp\ccFiIgVY.s 			page 43


 1136 0080 05E0     		b	.L70
 1137              	.L71:
 740:Drivers/STM32H7xx_HAL_Driver/Src/stm32h7xx_hal_uart_ex.c ****     uhMask = huart->Mask;
 1138              		.loc 1 740 5 discriminator 6 view .LVU321
 1139 0082 B3F1805F 		cmp	r3, #268435456
 1140 0086 0ED0     		beq	.L91
 740:Drivers/STM32H7xx_HAL_Driver/Src/stm32h7xx_hal_uart_ex.c ****     uhMask = huart->Mask;
 1141              		.loc 1 740 5 discriminator 10 view .LVU322
 1142 0088 0022     		movs	r2, #0
 1143 008a A4F86020 		strh	r2, [r4, #96]	@ movhi
 1144              	.L70:
 740:Drivers/STM32H7xx_HAL_Driver/Src/stm32h7xx_hal_uart_ex.c ****     uhMask = huart->Mask;
 1145              		.loc 1 740 5 discriminator 13 view .LVU323
 741:Drivers/STM32H7xx_HAL_Driver/Src/stm32h7xx_hal_uart_ex.c **** 
 1146              		.loc 1 741 5 discriminator 13 view .LVU324
 741:Drivers/STM32H7xx_HAL_Driver/Src/stm32h7xx_hal_uart_ex.c **** 
 1147              		.loc 1 741 12 is_stmt 0 discriminator 13 view .LVU325
 1148 008e B4F86090 		ldrh	r9, [r4, #96]
 1149              	.LVL84:
 744:Drivers/STM32H7xx_HAL_Driver/Src/stm32h7xx_hal_uart_ex.c ****     {
 1150              		.loc 1 744 5 is_stmt 1 discriminator 13 view .LVU326
 744:Drivers/STM32H7xx_HAL_Driver/Src/stm32h7xx_hal_uart_ex.c ****     {
 1151              		.loc 1 744 8 is_stmt 0 discriminator 13 view .LVU327
 1152 0092 B3F5805F 		cmp	r3, #4096
 1153 0096 10D0     		beq	.L92
 752:Drivers/STM32H7xx_HAL_Driver/Src/stm32h7xx_hal_uart_ex.c ****     }
 1154              		.loc 1 752 19 view .LVU328
 1155 0098 4FF0000A 		mov	r10, #0
 1156              	.LVL85:
 1157              	.L75:
 755:Drivers/STM32H7xx_HAL_Driver/Src/stm32h7xx_hal_uart_ex.c **** 
 1158              		.loc 1 755 5 is_stmt 1 view .LVU329
 755:Drivers/STM32H7xx_HAL_Driver/Src/stm32h7xx_hal_uart_ex.c **** 
 1159              		.loc 1 755 5 view .LVU330
 1160 009c 0023     		movs	r3, #0
 1161 009e 84F88030 		strb	r3, [r4, #128]
 755:Drivers/STM32H7xx_HAL_Driver/Src/stm32h7xx_hal_uart_ex.c **** 
 1162              		.loc 1 755 5 view .LVU331
 758:Drivers/STM32H7xx_HAL_Driver/Src/stm32h7xx_hal_uart_ex.c **** 
 1163              		.loc 1 758 5 view .LVU332
 758:Drivers/STM32H7xx_HAL_Driver/Src/stm32h7xx_hal_uart_ex.c **** 
 1164              		.loc 1 758 12 is_stmt 0 view .LVU333
 1165 00a2 2B80     		strh	r3, [r5]	@ movhi
 761:Drivers/STM32H7xx_HAL_Driver/Src/stm32h7xx_hal_uart_ex.c ****     {
 1166              		.loc 1 761 5 is_stmt 1 view .LVU334
 761:Drivers/STM32H7xx_HAL_Driver/Src/stm32h7xx_hal_uart_ex.c ****     {
 1167              		.loc 1 761 11 is_stmt 0 view .LVU335
 1168 00a4 28E0     		b	.L76
 1169              	.LVL86:
 1170              	.L91:
 740:Drivers/STM32H7xx_HAL_Driver/Src/stm32h7xx_hal_uart_ex.c ****     uhMask = huart->Mask;
 1171              		.loc 1 740 5 is_stmt 1 discriminator 9 view .LVU336
 1172 00a6 2269     		ldr	r2, [r4, #16]
 1173 00a8 1AB9     		cbnz	r2, .L74
 740:Drivers/STM32H7xx_HAL_Driver/Src/stm32h7xx_hal_uart_ex.c ****     uhMask = huart->Mask;
 1174              		.loc 1 740 5 discriminator 11 view .LVU337
 1175 00aa 7F22     		movs	r2, #127
ARM GAS  C:\Users\GUILLE~1\AppData\Local\Temp\ccFiIgVY.s 			page 44


 1176 00ac A4F86020 		strh	r2, [r4, #96]	@ movhi
 1177 00b0 EDE7     		b	.L70
 1178              	.L74:
 740:Drivers/STM32H7xx_HAL_Driver/Src/stm32h7xx_hal_uart_ex.c ****     uhMask = huart->Mask;
 1179              		.loc 1 740 5 discriminator 12 view .LVU338
 1180 00b2 3F22     		movs	r2, #63
 1181 00b4 A4F86020 		strh	r2, [r4, #96]	@ movhi
 1182 00b8 E9E7     		b	.L70
 1183              	.LVL87:
 1184              	.L92:
 744:Drivers/STM32H7xx_HAL_Driver/Src/stm32h7xx_hal_uart_ex.c ****     {
 1185              		.loc 1 744 71 is_stmt 0 discriminator 1 view .LVU339
 1186 00ba 2369     		ldr	r3, [r4, #16]
 744:Drivers/STM32H7xx_HAL_Driver/Src/stm32h7xx_hal_uart_ex.c ****     {
 1187              		.loc 1 744 56 discriminator 1 view .LVU340
 1188 00bc 13B1     		cbz	r3, .L88
 752:Drivers/STM32H7xx_HAL_Driver/Src/stm32h7xx_hal_uart_ex.c ****     }
 1189              		.loc 1 752 19 view .LVU341
 1190 00be 4FF0000A 		mov	r10, #0
 1191 00c2 EBE7     		b	.L75
 1192              	.L88:
 747:Drivers/STM32H7xx_HAL_Driver/Src/stm32h7xx_hal_uart_ex.c ****     }
 1193              		.loc 1 747 19 view .LVU342
 1194 00c4 BA46     		mov	r10, r7
 746:Drivers/STM32H7xx_HAL_Driver/Src/stm32h7xx_hal_uart_ex.c ****       pdata16bits = (uint16_t *) pData;
 1195              		.loc 1 746 19 view .LVU343
 1196 00c6 0027     		movs	r7, #0
 1197              	.LVL88:
 746:Drivers/STM32H7xx_HAL_Driver/Src/stm32h7xx_hal_uart_ex.c ****       pdata16bits = (uint16_t *) pData;
 1198              		.loc 1 746 19 view .LVU344
 1199 00c8 E8E7     		b	.L75
 1200              	.LVL89:
 1201              	.L95:
 773:Drivers/STM32H7xx_HAL_Driver/Src/stm32h7xx_hal_uart_ex.c **** 
 1202              		.loc 1 773 11 is_stmt 1 view .LVU345
 773:Drivers/STM32H7xx_HAL_Driver/Src/stm32h7xx_hal_uart_ex.c **** 
 1203              		.loc 1 773 26 is_stmt 0 view .LVU346
 1204 00ca 2023     		movs	r3, #32
 1205 00cc C4F88830 		str	r3, [r4, #136]
 775:Drivers/STM32H7xx_HAL_Driver/Src/stm32h7xx_hal_uart_ex.c ****         }
 1206              		.loc 1 775 11 is_stmt 1 view .LVU347
 775:Drivers/STM32H7xx_HAL_Driver/Src/stm32h7xx_hal_uart_ex.c ****         }
 1207              		.loc 1 775 18 is_stmt 0 view .LVU348
 1208 00d0 0020     		movs	r0, #0
 1209 00d2 47E0     		b	.L67
 1210              	.L96:
 784:Drivers/STM32H7xx_HAL_Driver/Src/stm32h7xx_hal_uart_ex.c ****           pdata16bits++;
 1211              		.loc 1 784 11 is_stmt 1 view .LVU349
 784:Drivers/STM32H7xx_HAL_Driver/Src/stm32h7xx_hal_uart_ex.c ****           pdata16bits++;
 1212              		.loc 1 784 52 is_stmt 0 view .LVU350
 1213 00d4 5B6A     		ldr	r3, [r3, #36]
 784:Drivers/STM32H7xx_HAL_Driver/Src/stm32h7xx_hal_uart_ex.c ****           pdata16bits++;
 1214              		.loc 1 784 26 view .LVU351
 1215 00d6 09EA0303 		and	r3, r9, r3
 784:Drivers/STM32H7xx_HAL_Driver/Src/stm32h7xx_hal_uart_ex.c ****           pdata16bits++;
 1216              		.loc 1 784 24 view .LVU352
 1217 00da 2AF8023B 		strh	r3, [r10], #2	@ movhi
ARM GAS  C:\Users\GUILLE~1\AppData\Local\Temp\ccFiIgVY.s 			page 45


 1218              	.LVL90:
 785:Drivers/STM32H7xx_HAL_Driver/Src/stm32h7xx_hal_uart_ex.c ****         }
 1219              		.loc 1 785 11 is_stmt 1 view .LVU353
 1220              	.L80:
 793:Drivers/STM32H7xx_HAL_Driver/Src/stm32h7xx_hal_uart_ex.c ****         huart->RxXferCount--;
 1221              		.loc 1 793 9 view .LVU354
 793:Drivers/STM32H7xx_HAL_Driver/Src/stm32h7xx_hal_uart_ex.c ****         huart->RxXferCount--;
 1222              		.loc 1 793 16 is_stmt 0 view .LVU355
 1223 00de 2B88     		ldrh	r3, [r5]
 1224 00e0 0133     		adds	r3, r3, #1
 1225 00e2 2B80     		strh	r3, [r5]	@ movhi
 794:Drivers/STM32H7xx_HAL_Driver/Src/stm32h7xx_hal_uart_ex.c ****       }
 1226              		.loc 1 794 9 is_stmt 1 view .LVU356
 794:Drivers/STM32H7xx_HAL_Driver/Src/stm32h7xx_hal_uart_ex.c ****       }
 1227              		.loc 1 794 14 is_stmt 0 view .LVU357
 1228 00e4 B4F85E30 		ldrh	r3, [r4, #94]
 1229 00e8 9BB2     		uxth	r3, r3
 794:Drivers/STM32H7xx_HAL_Driver/Src/stm32h7xx_hal_uart_ex.c ****       }
 1230              		.loc 1 794 27 view .LVU358
 1231 00ea 013B     		subs	r3, r3, #1
 1232 00ec 9BB2     		uxth	r3, r3
 1233 00ee A4F85E30 		strh	r3, [r4, #94]	@ movhi
 1234              	.L78:
 798:Drivers/STM32H7xx_HAL_Driver/Src/stm32h7xx_hal_uart_ex.c ****       {
 1235              		.loc 1 798 7 is_stmt 1 view .LVU359
 798:Drivers/STM32H7xx_HAL_Driver/Src/stm32h7xx_hal_uart_ex.c ****       {
 1236              		.loc 1 798 10 is_stmt 0 view .LVU360
 1237 00f2 B6F1FF3F 		cmp	r6, #-1
 1238 00f6 1BD1     		bne	.L93
 1239              	.L76:
 761:Drivers/STM32H7xx_HAL_Driver/Src/stm32h7xx_hal_uart_ex.c ****     {
 1240              		.loc 1 761 11 is_stmt 1 view .LVU361
 761:Drivers/STM32H7xx_HAL_Driver/Src/stm32h7xx_hal_uart_ex.c ****     {
 1241              		.loc 1 761 17 is_stmt 0 view .LVU362
 1242 00f8 B4F85E20 		ldrh	r2, [r4, #94]
 1243 00fc 92B2     		uxth	r2, r2
 761:Drivers/STM32H7xx_HAL_Driver/Src/stm32h7xx_hal_uart_ex.c ****     {
 1244              		.loc 1 761 11 view .LVU363
 1245 00fe 22B3     		cbz	r2, .L94
 764:Drivers/STM32H7xx_HAL_Driver/Src/stm32h7xx_hal_uart_ex.c ****       {
 1246              		.loc 1 764 7 is_stmt 1 view .LVU364
 764:Drivers/STM32H7xx_HAL_Driver/Src/stm32h7xx_hal_uart_ex.c ****       {
 1247              		.loc 1 764 11 is_stmt 0 view .LVU365
 1248 0100 2368     		ldr	r3, [r4]
 1249 0102 DA69     		ldr	r2, [r3, #28]
 764:Drivers/STM32H7xx_HAL_Driver/Src/stm32h7xx_hal_uart_ex.c ****       {
 1250              		.loc 1 764 10 view .LVU366
 1251 0104 12F0100F 		tst	r2, #16
 1252 0108 04D0     		beq	.L77
 767:Drivers/STM32H7xx_HAL_Driver/Src/stm32h7xx_hal_uart_ex.c **** 
 1253              		.loc 1 767 9 is_stmt 1 view .LVU367
 1254 010a 1022     		movs	r2, #16
 1255 010c 1A62     		str	r2, [r3, #32]
 771:Drivers/STM32H7xx_HAL_Driver/Src/stm32h7xx_hal_uart_ex.c ****         {
 1256              		.loc 1 771 9 view .LVU368
 771:Drivers/STM32H7xx_HAL_Driver/Src/stm32h7xx_hal_uart_ex.c ****         {
 1257              		.loc 1 771 13 is_stmt 0 view .LVU369
ARM GAS  C:\Users\GUILLE~1\AppData\Local\Temp\ccFiIgVY.s 			page 46


 1258 010e 2B88     		ldrh	r3, [r5]
 771:Drivers/STM32H7xx_HAL_Driver/Src/stm32h7xx_hal_uart_ex.c ****         {
 1259              		.loc 1 771 12 view .LVU370
 1260 0110 002B     		cmp	r3, #0
 1261 0112 DAD1     		bne	.L95
 1262              	.L77:
 780:Drivers/STM32H7xx_HAL_Driver/Src/stm32h7xx_hal_uart_ex.c ****       {
 1263              		.loc 1 780 7 is_stmt 1 view .LVU371
 780:Drivers/STM32H7xx_HAL_Driver/Src/stm32h7xx_hal_uart_ex.c ****       {
 1264              		.loc 1 780 11 is_stmt 0 view .LVU372
 1265 0114 2368     		ldr	r3, [r4]
 1266 0116 DA69     		ldr	r2, [r3, #28]
 780:Drivers/STM32H7xx_HAL_Driver/Src/stm32h7xx_hal_uart_ex.c ****       {
 1267              		.loc 1 780 10 view .LVU373
 1268 0118 12F0200F 		tst	r2, #32
 1269 011c E9D0     		beq	.L78
 782:Drivers/STM32H7xx_HAL_Driver/Src/stm32h7xx_hal_uart_ex.c ****         {
 1270              		.loc 1 782 9 is_stmt 1 view .LVU374
 782:Drivers/STM32H7xx_HAL_Driver/Src/stm32h7xx_hal_uart_ex.c ****         {
 1271              		.loc 1 782 12 is_stmt 0 view .LVU375
 1272 011e 002F     		cmp	r7, #0
 1273 0120 D8D0     		beq	.L96
 789:Drivers/STM32H7xx_HAL_Driver/Src/stm32h7xx_hal_uart_ex.c ****           pdata8bits++;
 1274              		.loc 1 789 11 is_stmt 1 view .LVU376
 789:Drivers/STM32H7xx_HAL_Driver/Src/stm32h7xx_hal_uart_ex.c ****           pdata8bits++;
 1275              		.loc 1 789 50 is_stmt 0 view .LVU377
 1276 0122 5A6A     		ldr	r2, [r3, #36]
 789:Drivers/STM32H7xx_HAL_Driver/Src/stm32h7xx_hal_uart_ex.c ****           pdata8bits++;
 1277              		.loc 1 789 58 view .LVU378
 1278 0124 5FFA89F3 		uxtb	r3, r9
 789:Drivers/STM32H7xx_HAL_Driver/Src/stm32h7xx_hal_uart_ex.c ****           pdata8bits++;
 1279              		.loc 1 789 25 view .LVU379
 1280 0128 1340     		ands	r3, r3, r2
 789:Drivers/STM32H7xx_HAL_Driver/Src/stm32h7xx_hal_uart_ex.c ****           pdata8bits++;
 1281              		.loc 1 789 23 view .LVU380
 1282 012a 07F8013B 		strb	r3, [r7], #1
 1283              	.LVL91:
 790:Drivers/STM32H7xx_HAL_Driver/Src/stm32h7xx_hal_uart_ex.c ****         }
 1284              		.loc 1 790 11 is_stmt 1 view .LVU381
 790:Drivers/STM32H7xx_HAL_Driver/Src/stm32h7xx_hal_uart_ex.c ****         }
 1285              		.loc 1 790 11 is_stmt 0 view .LVU382
 1286 012e D6E7     		b	.L80
 1287              	.L93:
 800:Drivers/STM32H7xx_HAL_Driver/Src/stm32h7xx_hal_uart_ex.c ****         {
 1288              		.loc 1 800 9 is_stmt 1 view .LVU383
 800:Drivers/STM32H7xx_HAL_Driver/Src/stm32h7xx_hal_uart_ex.c ****         {
 1289              		.loc 1 800 15 is_stmt 0 view .LVU384
 1290 0130 FFF7FEFF 		bl	HAL_GetTick
 1291              	.LVL92:
 800:Drivers/STM32H7xx_HAL_Driver/Src/stm32h7xx_hal_uart_ex.c ****         {
 1292              		.loc 1 800 29 view .LVU385
 1293 0134 A0EB0800 		sub	r0, r0, r8
 800:Drivers/STM32H7xx_HAL_Driver/Src/stm32h7xx_hal_uart_ex.c ****         {
 1294              		.loc 1 800 12 view .LVU386
 1295 0138 B042     		cmp	r0, r6
 1296 013a 01D8     		bhi	.L82
 800:Drivers/STM32H7xx_HAL_Driver/Src/stm32h7xx_hal_uart_ex.c ****         {
ARM GAS  C:\Users\GUILLE~1\AppData\Local\Temp\ccFiIgVY.s 			page 47


 1297              		.loc 1 800 53 discriminator 1 view .LVU387
 1298 013c 002E     		cmp	r6, #0
 1299 013e DBD1     		bne	.L76
 1300              	.L82:
 802:Drivers/STM32H7xx_HAL_Driver/Src/stm32h7xx_hal_uart_ex.c **** 
 1301              		.loc 1 802 11 is_stmt 1 view .LVU388
 802:Drivers/STM32H7xx_HAL_Driver/Src/stm32h7xx_hal_uart_ex.c **** 
 1302              		.loc 1 802 26 is_stmt 0 view .LVU389
 1303 0140 2023     		movs	r3, #32
 1304 0142 C4F88830 		str	r3, [r4, #136]
 804:Drivers/STM32H7xx_HAL_Driver/Src/stm32h7xx_hal_uart_ex.c ****         }
 1305              		.loc 1 804 11 is_stmt 1 view .LVU390
 804:Drivers/STM32H7xx_HAL_Driver/Src/stm32h7xx_hal_uart_ex.c ****         }
 1306              		.loc 1 804 18 is_stmt 0 view .LVU391
 1307 0146 0320     		movs	r0, #3
 1308 0148 0CE0     		b	.L67
 1309              	.L94:
 810:Drivers/STM32H7xx_HAL_Driver/Src/stm32h7xx_hal_uart_ex.c ****     /* At end of Rx process, restore huart->RxState to Ready */
 1310              		.loc 1 810 5 is_stmt 1 view .LVU392
 810:Drivers/STM32H7xx_HAL_Driver/Src/stm32h7xx_hal_uart_ex.c ****     /* At end of Rx process, restore huart->RxState to Ready */
 1311              		.loc 1 810 19 is_stmt 0 view .LVU393
 1312 014a B4F85C30 		ldrh	r3, [r4, #92]
 810:Drivers/STM32H7xx_HAL_Driver/Src/stm32h7xx_hal_uart_ex.c ****     /* At end of Rx process, restore huart->RxState to Ready */
 1313              		.loc 1 810 39 view .LVU394
 1314 014e B4F85E20 		ldrh	r2, [r4, #94]
 1315 0152 92B2     		uxth	r2, r2
 810:Drivers/STM32H7xx_HAL_Driver/Src/stm32h7xx_hal_uart_ex.c ****     /* At end of Rx process, restore huart->RxState to Ready */
 1316              		.loc 1 810 32 view .LVU395
 1317 0154 9B1A     		subs	r3, r3, r2
 810:Drivers/STM32H7xx_HAL_Driver/Src/stm32h7xx_hal_uart_ex.c ****     /* At end of Rx process, restore huart->RxState to Ready */
 1318              		.loc 1 810 12 view .LVU396
 1319 0156 2B80     		strh	r3, [r5]	@ movhi
 812:Drivers/STM32H7xx_HAL_Driver/Src/stm32h7xx_hal_uart_ex.c **** 
 1320              		.loc 1 812 5 is_stmt 1 view .LVU397
 812:Drivers/STM32H7xx_HAL_Driver/Src/stm32h7xx_hal_uart_ex.c **** 
 1321              		.loc 1 812 20 is_stmt 0 view .LVU398
 1322 0158 2023     		movs	r3, #32
 1323 015a C4F88830 		str	r3, [r4, #136]
 814:Drivers/STM32H7xx_HAL_Driver/Src/stm32h7xx_hal_uart_ex.c ****   }
 1324              		.loc 1 814 5 is_stmt 1 view .LVU399
 814:Drivers/STM32H7xx_HAL_Driver/Src/stm32h7xx_hal_uart_ex.c ****   }
 1325              		.loc 1 814 12 is_stmt 0 view .LVU400
 1326 015e 0020     		movs	r0, #0
 1327 0160 00E0     		b	.L67
 1328              	.LVL93:
 1329              	.L84:
 818:Drivers/STM32H7xx_HAL_Driver/Src/stm32h7xx_hal_uart_ex.c ****   }
 1330              		.loc 1 818 12 view .LVU401
 1331 0162 0220     		movs	r0, #2
 1332              	.LVL94:
 1333              	.L67:
 820:Drivers/STM32H7xx_HAL_Driver/Src/stm32h7xx_hal_uart_ex.c **** 
 1334              		.loc 1 820 1 view .LVU402
 1335 0164 BDE8F087 		pop	{r4, r5, r6, r7, r8, r9, r10, pc}
 1336              	.LVL95:
 1337              	.L85:
 724:Drivers/STM32H7xx_HAL_Driver/Src/stm32h7xx_hal_uart_ex.c ****     }
ARM GAS  C:\Users\GUILLE~1\AppData\Local\Temp\ccFiIgVY.s 			page 48


 1338              		.loc 1 724 15 view .LVU403
 1339 0168 0120     		movs	r0, #1
 1340              	.LVL96:
 724:Drivers/STM32H7xx_HAL_Driver/Src/stm32h7xx_hal_uart_ex.c ****     }
 1341              		.loc 1 724 15 view .LVU404
 1342 016a FBE7     		b	.L67
 1343              	.LVL97:
 1344              	.L86:
 727:Drivers/STM32H7xx_HAL_Driver/Src/stm32h7xx_hal_uart_ex.c **** 
 1345              		.loc 1 727 5 view .LVU405
 1346 016c 0220     		movs	r0, #2
 1347              	.LVL98:
 727:Drivers/STM32H7xx_HAL_Driver/Src/stm32h7xx_hal_uart_ex.c **** 
 1348              		.loc 1 727 5 view .LVU406
 1349 016e F9E7     		b	.L67
 1350              		.cfi_endproc
 1351              	.LFE156:
 1353              		.section	.text.HAL_UARTEx_ReceiveToIdle_IT,"ax",%progbits
 1354              		.align	1
 1355              		.global	HAL_UARTEx_ReceiveToIdle_IT
 1356              		.syntax unified
 1357              		.thumb
 1358              		.thumb_func
 1359              		.fpu fpv5-d16
 1361              	HAL_UARTEx_ReceiveToIdle_IT:
 1362              	.LVL99:
 1363              	.LFB157:
 837:Drivers/STM32H7xx_HAL_Driver/Src/stm32h7xx_hal_uart_ex.c ****   HAL_StatusTypeDef status;
 1364              		.loc 1 837 1 is_stmt 1 view -0
 1365              		.cfi_startproc
 1366              		@ args = 0, pretend = 0, frame = 0
 1367              		@ frame_needed = 0, uses_anonymous_args = 0
 838:Drivers/STM32H7xx_HAL_Driver/Src/stm32h7xx_hal_uart_ex.c **** 
 1368              		.loc 1 838 3 view .LVU408
 841:Drivers/STM32H7xx_HAL_Driver/Src/stm32h7xx_hal_uart_ex.c ****   {
 1369              		.loc 1 841 3 view .LVU409
 841:Drivers/STM32H7xx_HAL_Driver/Src/stm32h7xx_hal_uart_ex.c ****   {
 1370              		.loc 1 841 12 is_stmt 0 view .LVU410
 1371 0000 D0F88830 		ldr	r3, [r0, #136]
 841:Drivers/STM32H7xx_HAL_Driver/Src/stm32h7xx_hal_uart_ex.c ****   {
 1372              		.loc 1 841 6 view .LVU411
 1373 0004 202B     		cmp	r3, #32
 1374 0006 1ED1     		bne	.L100
 837:Drivers/STM32H7xx_HAL_Driver/Src/stm32h7xx_hal_uart_ex.c ****   HAL_StatusTypeDef status;
 1375              		.loc 1 837 1 view .LVU412
 1376 0008 10B5     		push	{r4, lr}
 1377              	.LCFI17:
 1378              		.cfi_def_cfa_offset 8
 1379              		.cfi_offset 4, -8
 1380              		.cfi_offset 14, -4
 1381 000a 0446     		mov	r4, r0
 843:Drivers/STM32H7xx_HAL_Driver/Src/stm32h7xx_hal_uart_ex.c ****     {
 1382              		.loc 1 843 5 is_stmt 1 view .LVU413
 843:Drivers/STM32H7xx_HAL_Driver/Src/stm32h7xx_hal_uart_ex.c ****     {
 1383              		.loc 1 843 8 is_stmt 0 view .LVU414
 1384 000c 002A     		cmp	r2, #0
 1385 000e 18BF     		it	ne
ARM GAS  C:\Users\GUILLE~1\AppData\Local\Temp\ccFiIgVY.s 			page 49


 1386 0010 0029     		cmpne	r1, #0
 1387 0012 1AD0     		beq	.L101
 848:Drivers/STM32H7xx_HAL_Driver/Src/stm32h7xx_hal_uart_ex.c **** 
 1388              		.loc 1 848 5 is_stmt 1 view .LVU415
 848:Drivers/STM32H7xx_HAL_Driver/Src/stm32h7xx_hal_uart_ex.c **** 
 1389              		.loc 1 848 5 view .LVU416
 1390 0014 90F88030 		ldrb	r3, [r0, #128]	@ zero_extendqisi2
 1391 0018 012B     		cmp	r3, #1
 1392 001a 18D0     		beq	.L102
 848:Drivers/STM32H7xx_HAL_Driver/Src/stm32h7xx_hal_uart_ex.c **** 
 1393              		.loc 1 848 5 discriminator 2 view .LVU417
 1394 001c 0123     		movs	r3, #1
 1395 001e 80F88030 		strb	r3, [r0, #128]
 848:Drivers/STM32H7xx_HAL_Driver/Src/stm32h7xx_hal_uart_ex.c **** 
 1396              		.loc 1 848 5 discriminator 2 view .LVU418
 851:Drivers/STM32H7xx_HAL_Driver/Src/stm32h7xx_hal_uart_ex.c **** 
 1397              		.loc 1 851 5 discriminator 2 view .LVU419
 851:Drivers/STM32H7xx_HAL_Driver/Src/stm32h7xx_hal_uart_ex.c **** 
 1398              		.loc 1 851 26 is_stmt 0 discriminator 2 view .LVU420
 1399 0022 C366     		str	r3, [r0, #108]
 853:Drivers/STM32H7xx_HAL_Driver/Src/stm32h7xx_hal_uart_ex.c **** 
 1400              		.loc 1 853 5 is_stmt 1 discriminator 2 view .LVU421
 853:Drivers/STM32H7xx_HAL_Driver/Src/stm32h7xx_hal_uart_ex.c **** 
 1401              		.loc 1 853 15 is_stmt 0 discriminator 2 view .LVU422
 1402 0024 FFF7FEFF 		bl	UART_Start_Receive_IT
 1403              	.LVL100:
 856:Drivers/STM32H7xx_HAL_Driver/Src/stm32h7xx_hal_uart_ex.c ****     {
 1404              		.loc 1 856 5 is_stmt 1 discriminator 2 view .LVU423
 856:Drivers/STM32H7xx_HAL_Driver/Src/stm32h7xx_hal_uart_ex.c ****     {
 1405              		.loc 1 856 8 is_stmt 0 discriminator 2 view .LVU424
 1406 0028 80B9     		cbnz	r0, .L98
 858:Drivers/STM32H7xx_HAL_Driver/Src/stm32h7xx_hal_uart_ex.c ****       {
 1407              		.loc 1 858 7 is_stmt 1 view .LVU425
 858:Drivers/STM32H7xx_HAL_Driver/Src/stm32h7xx_hal_uart_ex.c ****       {
 1408              		.loc 1 858 16 is_stmt 0 view .LVU426
 1409 002a E36E     		ldr	r3, [r4, #108]
 858:Drivers/STM32H7xx_HAL_Driver/Src/stm32h7xx_hal_uart_ex.c ****       {
 1410              		.loc 1 858 10 view .LVU427
 1411 002c 012B     		cmp	r3, #1
 1412 002e 01D0     		beq	.L108
 869:Drivers/STM32H7xx_HAL_Driver/Src/stm32h7xx_hal_uart_ex.c ****       }
 1413              		.loc 1 869 16 view .LVU428
 1414 0030 0120     		movs	r0, #1
 1415              	.LVL101:
 873:Drivers/STM32H7xx_HAL_Driver/Src/stm32h7xx_hal_uart_ex.c ****   }
 1416              		.loc 1 873 5 is_stmt 1 view .LVU429
 873:Drivers/STM32H7xx_HAL_Driver/Src/stm32h7xx_hal_uart_ex.c ****   }
 1417              		.loc 1 873 12 is_stmt 0 view .LVU430
 1418 0032 0BE0     		b	.L98
 1419              	.LVL102:
 1420              	.L108:
 860:Drivers/STM32H7xx_HAL_Driver/Src/stm32h7xx_hal_uart_ex.c ****         SET_BIT(huart->Instance->CR1, USART_CR1_IDLEIE);
 1421              		.loc 1 860 9 is_stmt 1 view .LVU431
 1422 0034 2368     		ldr	r3, [r4]
 1423 0036 1022     		movs	r2, #16
 1424 0038 1A62     		str	r2, [r3, #32]
 861:Drivers/STM32H7xx_HAL_Driver/Src/stm32h7xx_hal_uart_ex.c ****       }
ARM GAS  C:\Users\GUILLE~1\AppData\Local\Temp\ccFiIgVY.s 			page 50


 1425              		.loc 1 861 9 view .LVU432
 1426 003a 2268     		ldr	r2, [r4]
 1427 003c 1368     		ldr	r3, [r2]
 1428 003e 43F01003 		orr	r3, r3, #16
 1429 0042 1360     		str	r3, [r2]
 1430 0044 02E0     		b	.L98
 1431              	.LVL103:
 1432              	.L100:
 1433              	.LCFI18:
 1434              		.cfi_def_cfa_offset 0
 1435              		.cfi_restore 4
 1436              		.cfi_restore 14
 877:Drivers/STM32H7xx_HAL_Driver/Src/stm32h7xx_hal_uart_ex.c ****   }
 1437              		.loc 1 877 12 is_stmt 0 view .LVU433
 1438 0046 0220     		movs	r0, #2
 1439              	.LVL104:
 879:Drivers/STM32H7xx_HAL_Driver/Src/stm32h7xx_hal_uart_ex.c **** 
 1440              		.loc 1 879 1 view .LVU434
 1441 0048 7047     		bx	lr
 1442              	.LVL105:
 1443              	.L101:
 1444              	.LCFI19:
 1445              		.cfi_def_cfa_offset 8
 1446              		.cfi_offset 4, -8
 1447              		.cfi_offset 14, -4
 845:Drivers/STM32H7xx_HAL_Driver/Src/stm32h7xx_hal_uart_ex.c ****     }
 1448              		.loc 1 845 14 view .LVU435
 1449 004a 0120     		movs	r0, #1
 1450              	.LVL106:
 1451              	.L98:
 879:Drivers/STM32H7xx_HAL_Driver/Src/stm32h7xx_hal_uart_ex.c **** 
 1452              		.loc 1 879 1 view .LVU436
 1453 004c 10BD     		pop	{r4, pc}
 1454              	.LVL107:
 1455              	.L102:
 848:Drivers/STM32H7xx_HAL_Driver/Src/stm32h7xx_hal_uart_ex.c **** 
 1456              		.loc 1 848 5 view .LVU437
 1457 004e 0220     		movs	r0, #2
 1458              	.LVL108:
 848:Drivers/STM32H7xx_HAL_Driver/Src/stm32h7xx_hal_uart_ex.c **** 
 1459              		.loc 1 848 5 view .LVU438
 1460 0050 FCE7     		b	.L98
 1461              		.cfi_endproc
 1462              	.LFE157:
 1464              		.section	.text.HAL_UARTEx_ReceiveToIdle_DMA,"ax",%progbits
 1465              		.align	1
 1466              		.global	HAL_UARTEx_ReceiveToIdle_DMA
 1467              		.syntax unified
 1468              		.thumb
 1469              		.thumb_func
 1470              		.fpu fpv5-d16
 1472              	HAL_UARTEx_ReceiveToIdle_DMA:
 1473              	.LVL109:
 1474              	.LFB158:
 899:Drivers/STM32H7xx_HAL_Driver/Src/stm32h7xx_hal_uart_ex.c ****   HAL_StatusTypeDef status;
 1475              		.loc 1 899 1 is_stmt 1 view -0
 1476              		.cfi_startproc
ARM GAS  C:\Users\GUILLE~1\AppData\Local\Temp\ccFiIgVY.s 			page 51


 1477              		@ args = 0, pretend = 0, frame = 0
 1478              		@ frame_needed = 0, uses_anonymous_args = 0
 900:Drivers/STM32H7xx_HAL_Driver/Src/stm32h7xx_hal_uart_ex.c **** 
 1479              		.loc 1 900 3 view .LVU440
 903:Drivers/STM32H7xx_HAL_Driver/Src/stm32h7xx_hal_uart_ex.c ****   {
 1480              		.loc 1 903 3 view .LVU441
 903:Drivers/STM32H7xx_HAL_Driver/Src/stm32h7xx_hal_uart_ex.c ****   {
 1481              		.loc 1 903 12 is_stmt 0 view .LVU442
 1482 0000 D0F88830 		ldr	r3, [r0, #136]
 903:Drivers/STM32H7xx_HAL_Driver/Src/stm32h7xx_hal_uart_ex.c ****   {
 1483              		.loc 1 903 6 view .LVU443
 1484 0004 202B     		cmp	r3, #32
 1485 0006 1ED1     		bne	.L112
 899:Drivers/STM32H7xx_HAL_Driver/Src/stm32h7xx_hal_uart_ex.c ****   HAL_StatusTypeDef status;
 1486              		.loc 1 899 1 view .LVU444
 1487 0008 10B5     		push	{r4, lr}
 1488              	.LCFI20:
 1489              		.cfi_def_cfa_offset 8
 1490              		.cfi_offset 4, -8
 1491              		.cfi_offset 14, -4
 1492 000a 0446     		mov	r4, r0
 905:Drivers/STM32H7xx_HAL_Driver/Src/stm32h7xx_hal_uart_ex.c ****     {
 1493              		.loc 1 905 5 is_stmt 1 view .LVU445
 905:Drivers/STM32H7xx_HAL_Driver/Src/stm32h7xx_hal_uart_ex.c ****     {
 1494              		.loc 1 905 8 is_stmt 0 view .LVU446
 1495 000c 002A     		cmp	r2, #0
 1496 000e 18BF     		it	ne
 1497 0010 0029     		cmpne	r1, #0
 1498 0012 1AD0     		beq	.L113
 910:Drivers/STM32H7xx_HAL_Driver/Src/stm32h7xx_hal_uart_ex.c **** 
 1499              		.loc 1 910 5 is_stmt 1 view .LVU447
 910:Drivers/STM32H7xx_HAL_Driver/Src/stm32h7xx_hal_uart_ex.c **** 
 1500              		.loc 1 910 5 view .LVU448
 1501 0014 90F88030 		ldrb	r3, [r0, #128]	@ zero_extendqisi2
 1502 0018 012B     		cmp	r3, #1
 1503 001a 18D0     		beq	.L114
 910:Drivers/STM32H7xx_HAL_Driver/Src/stm32h7xx_hal_uart_ex.c **** 
 1504              		.loc 1 910 5 discriminator 2 view .LVU449
 1505 001c 0123     		movs	r3, #1
 1506 001e 80F88030 		strb	r3, [r0, #128]
 910:Drivers/STM32H7xx_HAL_Driver/Src/stm32h7xx_hal_uart_ex.c **** 
 1507              		.loc 1 910 5 discriminator 2 view .LVU450
 913:Drivers/STM32H7xx_HAL_Driver/Src/stm32h7xx_hal_uart_ex.c **** 
 1508              		.loc 1 913 5 discriminator 2 view .LVU451
 913:Drivers/STM32H7xx_HAL_Driver/Src/stm32h7xx_hal_uart_ex.c **** 
 1509              		.loc 1 913 26 is_stmt 0 discriminator 2 view .LVU452
 1510 0022 C366     		str	r3, [r0, #108]
 915:Drivers/STM32H7xx_HAL_Driver/Src/stm32h7xx_hal_uart_ex.c **** 
 1511              		.loc 1 915 5 is_stmt 1 discriminator 2 view .LVU453
 915:Drivers/STM32H7xx_HAL_Driver/Src/stm32h7xx_hal_uart_ex.c **** 
 1512              		.loc 1 915 15 is_stmt 0 discriminator 2 view .LVU454
 1513 0024 FFF7FEFF 		bl	UART_Start_Receive_DMA
 1514              	.LVL110:
 918:Drivers/STM32H7xx_HAL_Driver/Src/stm32h7xx_hal_uart_ex.c ****     {
 1515              		.loc 1 918 5 is_stmt 1 discriminator 2 view .LVU455
 918:Drivers/STM32H7xx_HAL_Driver/Src/stm32h7xx_hal_uart_ex.c ****     {
 1516              		.loc 1 918 8 is_stmt 0 discriminator 2 view .LVU456
ARM GAS  C:\Users\GUILLE~1\AppData\Local\Temp\ccFiIgVY.s 			page 52


 1517 0028 80B9     		cbnz	r0, .L110
 920:Drivers/STM32H7xx_HAL_Driver/Src/stm32h7xx_hal_uart_ex.c ****       {
 1518              		.loc 1 920 7 is_stmt 1 view .LVU457
 920:Drivers/STM32H7xx_HAL_Driver/Src/stm32h7xx_hal_uart_ex.c ****       {
 1519              		.loc 1 920 16 is_stmt 0 view .LVU458
 1520 002a E36E     		ldr	r3, [r4, #108]
 920:Drivers/STM32H7xx_HAL_Driver/Src/stm32h7xx_hal_uart_ex.c ****       {
 1521              		.loc 1 920 10 view .LVU459
 1522 002c 012B     		cmp	r3, #1
 1523 002e 01D0     		beq	.L120
 931:Drivers/STM32H7xx_HAL_Driver/Src/stm32h7xx_hal_uart_ex.c ****       }
 1524              		.loc 1 931 16 view .LVU460
 1525 0030 0120     		movs	r0, #1
 1526              	.LVL111:
 935:Drivers/STM32H7xx_HAL_Driver/Src/stm32h7xx_hal_uart_ex.c ****   }
 1527              		.loc 1 935 5 is_stmt 1 view .LVU461
 935:Drivers/STM32H7xx_HAL_Driver/Src/stm32h7xx_hal_uart_ex.c ****   }
 1528              		.loc 1 935 12 is_stmt 0 view .LVU462
 1529 0032 0BE0     		b	.L110
 1530              	.LVL112:
 1531              	.L120:
 922:Drivers/STM32H7xx_HAL_Driver/Src/stm32h7xx_hal_uart_ex.c ****         SET_BIT(huart->Instance->CR1, USART_CR1_IDLEIE);
 1532              		.loc 1 922 9 is_stmt 1 view .LVU463
 1533 0034 2368     		ldr	r3, [r4]
 1534 0036 1022     		movs	r2, #16
 1535 0038 1A62     		str	r2, [r3, #32]
 923:Drivers/STM32H7xx_HAL_Driver/Src/stm32h7xx_hal_uart_ex.c ****       }
 1536              		.loc 1 923 9 view .LVU464
 1537 003a 2268     		ldr	r2, [r4]
 1538 003c 1368     		ldr	r3, [r2]
 1539 003e 43F01003 		orr	r3, r3, #16
 1540 0042 1360     		str	r3, [r2]
 1541 0044 02E0     		b	.L110
 1542              	.LVL113:
 1543              	.L112:
 1544              	.LCFI21:
 1545              		.cfi_def_cfa_offset 0
 1546              		.cfi_restore 4
 1547              		.cfi_restore 14
 939:Drivers/STM32H7xx_HAL_Driver/Src/stm32h7xx_hal_uart_ex.c ****   }
 1548              		.loc 1 939 12 is_stmt 0 view .LVU465
 1549 0046 0220     		movs	r0, #2
 1550              	.LVL114:
 941:Drivers/STM32H7xx_HAL_Driver/Src/stm32h7xx_hal_uart_ex.c **** 
 1551              		.loc 1 941 1 view .LVU466
 1552 0048 7047     		bx	lr
 1553              	.LVL115:
 1554              	.L113:
 1555              	.LCFI22:
 1556              		.cfi_def_cfa_offset 8
 1557              		.cfi_offset 4, -8
 1558              		.cfi_offset 14, -4
 907:Drivers/STM32H7xx_HAL_Driver/Src/stm32h7xx_hal_uart_ex.c ****     }
 1559              		.loc 1 907 14 view .LVU467
 1560 004a 0120     		movs	r0, #1
 1561              	.LVL116:
 1562              	.L110:
ARM GAS  C:\Users\GUILLE~1\AppData\Local\Temp\ccFiIgVY.s 			page 53


 941:Drivers/STM32H7xx_HAL_Driver/Src/stm32h7xx_hal_uart_ex.c **** 
 1563              		.loc 1 941 1 view .LVU468
 1564 004c 10BD     		pop	{r4, pc}
 1565              	.LVL117:
 1566              	.L114:
 910:Drivers/STM32H7xx_HAL_Driver/Src/stm32h7xx_hal_uart_ex.c **** 
 1567              		.loc 1 910 5 view .LVU469
 1568 004e 0220     		movs	r0, #2
 1569              	.LVL118:
 910:Drivers/STM32H7xx_HAL_Driver/Src/stm32h7xx_hal_uart_ex.c **** 
 1570              		.loc 1 910 5 view .LVU470
 1571 0050 FCE7     		b	.L110
 1572              		.cfi_endproc
 1573              	.LFE158:
 1575              		.section	.rodata.denominator.0,"a"
 1576              		.align	2
 1577              		.set	.LANCHOR1,. + 0
 1580              	denominator.0:
 1581 0000 08040204 		.ascii	"\010\004\002\004\010\001\001\001"
 1581      08010101 
 1582              		.section	.rodata.numerator.1,"a"
 1583              		.align	2
 1584              		.set	.LANCHOR0,. + 0
 1587              	numerator.1:
 1588 0000 01010103 		.ascii	"\001\001\001\003\007\001\000\000"
 1588      07010000 
 1589              		.text
 1590              	.Letext0:
 1591              		.file 2 "c:\\program files (x86)\\gnu arm embedded toolchain\\10 2020-q4-major\\arm-none-eabi\\inc
 1592              		.file 3 "c:\\program files (x86)\\gnu arm embedded toolchain\\10 2020-q4-major\\arm-none-eabi\\inc
 1593              		.file 4 "Drivers/CMSIS/Device/ST/STM32H7xx/Include/stm32h743xx.h"
 1594              		.file 5 "Drivers/CMSIS/Device/ST/STM32H7xx/Include/stm32h7xx.h"
 1595              		.file 6 "Drivers/STM32H7xx_HAL_Driver/Inc/stm32h7xx_hal_def.h"
 1596              		.file 7 "Drivers/STM32H7xx_HAL_Driver/Inc/stm32h7xx_hal_dma.h"
 1597              		.file 8 "Drivers/STM32H7xx_HAL_Driver/Inc/stm32h7xx_hal_uart.h"
 1598              		.file 9 "Drivers/STM32H7xx_HAL_Driver/Inc/stm32h7xx_hal_uart_ex.h"
 1599              		.file 10 "Drivers/STM32H7xx_HAL_Driver/Inc/stm32h7xx_hal.h"
ARM GAS  C:\Users\GUILLE~1\AppData\Local\Temp\ccFiIgVY.s 			page 54


DEFINED SYMBOLS
                            *ABS*:00000000 stm32h7xx_hal_uart_ex.c
C:\Users\GUILLE~1\AppData\Local\Temp\ccFiIgVY.s:17     .text.UARTEx_Wakeup_AddressConfig:00000000 $t
C:\Users\GUILLE~1\AppData\Local\Temp\ccFiIgVY.s:24     .text.UARTEx_Wakeup_AddressConfig:00000000 UARTEx_Wakeup_AddressConfig
C:\Users\GUILLE~1\AppData\Local\Temp\ccFiIgVY.s:64     .text.UARTEx_SetNbDataToProcess:00000000 $t
C:\Users\GUILLE~1\AppData\Local\Temp\ccFiIgVY.s:70     .text.UARTEx_SetNbDataToProcess:00000000 UARTEx_SetNbDataToProcess
C:\Users\GUILLE~1\AppData\Local\Temp\ccFiIgVY.s:156    .text.UARTEx_SetNbDataToProcess:00000044 $d
C:\Users\GUILLE~1\AppData\Local\Temp\ccFiIgVY.s:162    .text.HAL_RS485Ex_Init:00000000 $t
C:\Users\GUILLE~1\AppData\Local\Temp\ccFiIgVY.s:169    .text.HAL_RS485Ex_Init:00000000 HAL_RS485Ex_Init
C:\Users\GUILLE~1\AppData\Local\Temp\ccFiIgVY.s:306    .text.HAL_RS485Ex_Init:00000084 $d
C:\Users\GUILLE~1\AppData\Local\Temp\ccFiIgVY.s:311    .text.HAL_UARTEx_WakeupCallback:00000000 $t
C:\Users\GUILLE~1\AppData\Local\Temp\ccFiIgVY.s:318    .text.HAL_UARTEx_WakeupCallback:00000000 HAL_UARTEx_WakeupCallback
C:\Users\GUILLE~1\AppData\Local\Temp\ccFiIgVY.s:333    .text.HAL_UARTEx_RxFifoFullCallback:00000000 $t
C:\Users\GUILLE~1\AppData\Local\Temp\ccFiIgVY.s:340    .text.HAL_UARTEx_RxFifoFullCallback:00000000 HAL_UARTEx_RxFifoFullCallback
C:\Users\GUILLE~1\AppData\Local\Temp\ccFiIgVY.s:355    .text.HAL_UARTEx_TxFifoEmptyCallback:00000000 $t
C:\Users\GUILLE~1\AppData\Local\Temp\ccFiIgVY.s:362    .text.HAL_UARTEx_TxFifoEmptyCallback:00000000 HAL_UARTEx_TxFifoEmptyCallback
C:\Users\GUILLE~1\AppData\Local\Temp\ccFiIgVY.s:377    .text.HAL_MultiProcessorEx_AddressLength_Set:00000000 $t
C:\Users\GUILLE~1\AppData\Local\Temp\ccFiIgVY.s:384    .text.HAL_MultiProcessorEx_AddressLength_Set:00000000 HAL_MultiProcessorEx_AddressLength_Set
C:\Users\GUILLE~1\AppData\Local\Temp\ccFiIgVY.s:448    .text.HAL_UARTEx_StopModeWakeUpSourceConfig:00000000 $t
C:\Users\GUILLE~1\AppData\Local\Temp\ccFiIgVY.s:455    .text.HAL_UARTEx_StopModeWakeUpSourceConfig:00000000 HAL_UARTEx_StopModeWakeUpSourceConfig
C:\Users\GUILLE~1\AppData\Local\Temp\ccFiIgVY.s:580    .text.HAL_UARTEx_EnableStopMode:00000000 $t
C:\Users\GUILLE~1\AppData\Local\Temp\ccFiIgVY.s:587    .text.HAL_UARTEx_EnableStopMode:00000000 HAL_UARTEx_EnableStopMode
C:\Users\GUILLE~1\AppData\Local\Temp\ccFiIgVY.s:631    .text.HAL_UARTEx_DisableStopMode:00000000 $t
C:\Users\GUILLE~1\AppData\Local\Temp\ccFiIgVY.s:638    .text.HAL_UARTEx_DisableStopMode:00000000 HAL_UARTEx_DisableStopMode
C:\Users\GUILLE~1\AppData\Local\Temp\ccFiIgVY.s:682    .text.HAL_UARTEx_EnableFifoMode:00000000 $t
C:\Users\GUILLE~1\AppData\Local\Temp\ccFiIgVY.s:689    .text.HAL_UARTEx_EnableFifoMode:00000000 HAL_UARTEx_EnableFifoMode
C:\Users\GUILLE~1\AppData\Local\Temp\ccFiIgVY.s:768    .text.HAL_UARTEx_DisableFifoMode:00000000 $t
C:\Users\GUILLE~1\AppData\Local\Temp\ccFiIgVY.s:775    .text.HAL_UARTEx_DisableFifoMode:00000000 HAL_UARTEx_DisableFifoMode
C:\Users\GUILLE~1\AppData\Local\Temp\ccFiIgVY.s:846    .text.HAL_UARTEx_SetTxFifoThreshold:00000000 $t
C:\Users\GUILLE~1\AppData\Local\Temp\ccFiIgVY.s:853    .text.HAL_UARTEx_SetTxFifoThreshold:00000000 HAL_UARTEx_SetTxFifoThreshold
C:\Users\GUILLE~1\AppData\Local\Temp\ccFiIgVY.s:934    .text.HAL_UARTEx_SetRxFifoThreshold:00000000 $t
C:\Users\GUILLE~1\AppData\Local\Temp\ccFiIgVY.s:941    .text.HAL_UARTEx_SetRxFifoThreshold:00000000 HAL_UARTEx_SetRxFifoThreshold
C:\Users\GUILLE~1\AppData\Local\Temp\ccFiIgVY.s:1022   .text.HAL_UARTEx_ReceiveToIdle:00000000 $t
C:\Users\GUILLE~1\AppData\Local\Temp\ccFiIgVY.s:1029   .text.HAL_UARTEx_ReceiveToIdle:00000000 HAL_UARTEx_ReceiveToIdle
C:\Users\GUILLE~1\AppData\Local\Temp\ccFiIgVY.s:1354   .text.HAL_UARTEx_ReceiveToIdle_IT:00000000 $t
C:\Users\GUILLE~1\AppData\Local\Temp\ccFiIgVY.s:1361   .text.HAL_UARTEx_ReceiveToIdle_IT:00000000 HAL_UARTEx_ReceiveToIdle_IT
C:\Users\GUILLE~1\AppData\Local\Temp\ccFiIgVY.s:1465   .text.HAL_UARTEx_ReceiveToIdle_DMA:00000000 $t
C:\Users\GUILLE~1\AppData\Local\Temp\ccFiIgVY.s:1472   .text.HAL_UARTEx_ReceiveToIdle_DMA:00000000 HAL_UARTEx_ReceiveToIdle_DMA
C:\Users\GUILLE~1\AppData\Local\Temp\ccFiIgVY.s:1576   .rodata.denominator.0:00000000 $d
C:\Users\GUILLE~1\AppData\Local\Temp\ccFiIgVY.s:1580   .rodata.denominator.0:00000000 denominator.0
C:\Users\GUILLE~1\AppData\Local\Temp\ccFiIgVY.s:1583   .rodata.numerator.1:00000000 $d
C:\Users\GUILLE~1\AppData\Local\Temp\ccFiIgVY.s:1587   .rodata.numerator.1:00000000 numerator.1

UNDEFINED SYMBOLS
UART_SetConfig
UART_CheckIdleState
HAL_UART_MspInit
UART_AdvFeatureConfig
HAL_GetTick
UART_WaitOnFlagUntilTimeout
UART_Start_Receive_IT
UART_Start_Receive_DMA
