ARM GAS  C:\Users\GUILLE~1\AppData\Local\Temp\cckbgWnF.s 			page 1


   1              		.cpu cortex-m7
   2              		.eabi_attribute 27, 1
   3              		.eabi_attribute 28, 1
   4              		.eabi_attribute 20, 1
   5              		.eabi_attribute 21, 1
   6              		.eabi_attribute 23, 3
   7              		.eabi_attribute 24, 1
   8              		.eabi_attribute 25, 1
   9              		.eabi_attribute 26, 1
  10              		.eabi_attribute 30, 1
  11              		.eabi_attribute 34, 1
  12              		.eabi_attribute 18, 4
  13              		.file	"controlTasks.c"
  14              		.text
  15              	.Ltext0:
  16              		.cfi_sections	.debug_frame
  17              		.section	.text.rpyControlTask,"ax",%progbits
  18              		.align	1
  19              		.global	rpyControlTask
  20              		.arch armv7e-m
  21              		.syntax unified
  22              		.thumb
  23              		.thumb_func
  24              		.fpu fpv5-sp-d16
  26              	rpyControlTask:
  27              	.LFB177:
  28              		.file 1 "Core/drogui/src/controlTasks.c"
   1:Core/drogui/src/controlTasks.c **** #include "controlTasks.h"
   2:Core/drogui/src/controlTasks.c **** #include "filter.h"
   3:Core/drogui/src/controlTasks.c **** #include "task.h"
   4:Core/drogui/src/controlTasks.c **** 
   5:Core/drogui/src/controlTasks.c **** //pwm m1, m2, m3, m4;
   6:Core/drogui/src/controlTasks.c **** pid roll2w, pitch2w, yaw2w; 
   7:Core/drogui/src/controlTasks.c **** pid wroll_control, wpitch_control, wyaw_control;
   8:Core/drogui/src/controlTasks.c **** pid z_control, x_control, y_control;
   9:Core/drogui/src/controlTasks.c **** 
  10:Core/drogui/src/controlTasks.c **** 
  11:Core/drogui/src/controlTasks.c **** float  H, H_comp, R, P, Y, H_ref, X_C, Y_C, R_MAX = PI/22.0 , P_MAX = PI/22.0;
  12:Core/drogui/src/controlTasks.c **** float M1,M2,M3,M4;
  13:Core/drogui/src/controlTasks.c **** 
  14:Core/drogui/src/controlTasks.c **** float roll_off = 0 , pitch_off = 0, yaw_off = 0, x_off = 0, y_off = 0, z_off = 0;
  15:Core/drogui/src/controlTasks.c **** float wroll_ref, wpitch_ref, wyaw_ref, roll_ref, pitch_ref, yaw_ref, x_ref, y_ref, z_ref;
  16:Core/drogui/src/controlTasks.c **** float wroll_err,wpitch_err,wyaw_err; 
  17:Core/drogui/src/controlTasks.c **** 
  18:Core/drogui/src/controlTasks.c **** //TIMEr TIMEr_wcontrol, TIMEr_rpycontrol, TIMEr_xyzcontrol;
  19:Core/drogui/src/controlTasks.c **** 
  20:Core/drogui/src/controlTasks.c **** void saturateM(float H){
  21:Core/drogui/src/controlTasks.c ****     float f_max = 1;
  22:Core/drogui/src/controlTasks.c ****     float arr_M[] = {M1, M2, M3, M4};
  23:Core/drogui/src/controlTasks.c ****     for(int i = 0; i < 4 ; i++){
  24:Core/drogui/src/controlTasks.c ****         float delta = fmax(fmax(arr_M[i] + H - 10000, -arr_M[i]-H), 0);
  25:Core/drogui/src/controlTasks.c ****         f_max = fmax(f_max, fabs(arr_M[i] / (fabs(arr_M[i]) - delta + 0.0000001)) );
  26:Core/drogui/src/controlTasks.c ****     }
  27:Core/drogui/src/controlTasks.c **** 
  28:Core/drogui/src/controlTasks.c ****     M1 = sqrt(M1 / f_max + H);
  29:Core/drogui/src/controlTasks.c ****     M2 = sqrt(M2 / f_max + H);
  30:Core/drogui/src/controlTasks.c ****     M3 = sqrt(M3 / f_max + H);
ARM GAS  C:\Users\GUILLE~1\AppData\Local\Temp\cckbgWnF.s 			page 2


  31:Core/drogui/src/controlTasks.c ****     M4 = sqrt(M4 / f_max + H);
  32:Core/drogui/src/controlTasks.c **** }
  33:Core/drogui/src/controlTasks.c **** 
  34:Core/drogui/src/controlTasks.c **** 
  35:Core/drogui/src/controlTasks.c **** void updatePID(){
  36:Core/drogui/src/controlTasks.c ****     int index = getReg(PID_INDEX), var = getReg(PID_VAR);
  37:Core/drogui/src/controlTasks.c ****     if(index >= 0) {
  38:Core/drogui/src/controlTasks.c ****         switch(var){
  39:Core/drogui/src/controlTasks.c **** 
  40:Core/drogui/src/controlTasks.c ****             case PID_ROLL:
  41:Core/drogui/src/controlTasks.c ****                 if(index == 0)
  42:Core/drogui/src/controlTasks.c ****                     roll2w.kp[0] = getReg(ROLL_KP),  roll2w.ki[0] = getReg(ROLL_KI),  roll2w.kd[0] 
  43:Core/drogui/src/controlTasks.c ****                 else
  44:Core/drogui/src/controlTasks.c ****                     wroll_control.kp[0] = getReg(ROLL_KP),  wroll_control.ki[0] = getReg(ROLL_KI), 
  45:Core/drogui/src/controlTasks.c **** 
  46:Core/drogui/src/controlTasks.c ****             break;
  47:Core/drogui/src/controlTasks.c ****             
  48:Core/drogui/src/controlTasks.c ****             case PID_PITCH:
  49:Core/drogui/src/controlTasks.c ****                 if(index == 0)
  50:Core/drogui/src/controlTasks.c ****                     pitch2w.kp[0] = getReg(PITCH_KP),  pitch2w.ki[0] = getReg(PITCH_KI),  pitch2w.k
  51:Core/drogui/src/controlTasks.c ****                 else
  52:Core/drogui/src/controlTasks.c ****                     wpitch_control.kp[0] = getReg(PITCH_KP),  wpitch_control.ki[0] = getReg(PITCH_K
  53:Core/drogui/src/controlTasks.c **** 
  54:Core/drogui/src/controlTasks.c ****             break;
  55:Core/drogui/src/controlTasks.c **** 
  56:Core/drogui/src/controlTasks.c ****             case PID_YAW:
  57:Core/drogui/src/controlTasks.c ****                 if(index == 0)
  58:Core/drogui/src/controlTasks.c ****                     yaw2w.kp[0] = getReg(YAW_KP),  yaw2w.ki[0] = getReg(YAW_KI),  yaw2w.kd[0] = get
  59:Core/drogui/src/controlTasks.c ****                 else
  60:Core/drogui/src/controlTasks.c ****                     wyaw_control.kp[0] = getReg(YAW_KP),  wyaw_control.ki[0] = getReg(YAW_KI),  wya
  61:Core/drogui/src/controlTasks.c **** 
  62:Core/drogui/src/controlTasks.c ****             break;
  63:Core/drogui/src/controlTasks.c ****             
  64:Core/drogui/src/controlTasks.c ****             case PID_Z:
  65:Core/drogui/src/controlTasks.c ****                 z_control.kp[0] = getReg(Z_KP);
  66:Core/drogui/src/controlTasks.c ****                 z_control.ki[0] = getReg(Z_KI);
  67:Core/drogui/src/controlTasks.c ****                 z_control.kd[0] = getReg(Z_KD);
  68:Core/drogui/src/controlTasks.c ****             break;
  69:Core/drogui/src/controlTasks.c ****         }
  70:Core/drogui/src/controlTasks.c ****         roll2w.N_filt = pitch2w.N_filt = yaw2w.N_filt = wroll_control.N_filt = wpitch_control.N_fil
  71:Core/drogui/src/controlTasks.c ****     }
  72:Core/drogui/src/controlTasks.c **** }
  73:Core/drogui/src/controlTasks.c **** 
  74:Core/drogui/src/controlTasks.c **** 
  75:Core/drogui/src/controlTasks.c **** 
  76:Core/drogui/src/controlTasks.c **** 
  77:Core/drogui/src/controlTasks.c **** void wControlTask(){ 
  78:Core/drogui/src/controlTasks.c ****     
  79:Core/drogui/src/controlTasks.c ****     wroll_err = fmax( fmin( wroll_ref - gx , 100), -100);
  80:Core/drogui/src/controlTasks.c ****     wpitch_err = fmax( fmin( wpitch_ref - gy , 100), -100);
  81:Core/drogui/src/controlTasks.c ****     wyaw_err = fmax( fmin( wyaw_ref - gz , 100), -100);
  82:Core/drogui/src/controlTasks.c **** 
  83:Core/drogui/src/controlTasks.c **** 
  84:Core/drogui/src/controlTasks.c ****     R = computePid(&wroll_control, wroll_err, TIME, 0);
  85:Core/drogui/src/controlTasks.c ****     P = computePid(&wpitch_control, wpitch_err, TIME, 0);
  86:Core/drogui/src/controlTasks.c ****     Y = computePid(&wyaw_control, wyaw_err, TIME, 0);
  87:Core/drogui/src/controlTasks.c **** 
ARM GAS  C:\Users\GUILLE~1\AppData\Local\Temp\cckbgWnF.s 			page 3


  88:Core/drogui/src/controlTasks.c ****     setReg(DER_GYRO_X, wroll_control.errd);
  89:Core/drogui/src/controlTasks.c ****     setReg(DER_GYRO_Y, wpitch_control.errd);
  90:Core/drogui/src/controlTasks.c **** 
  91:Core/drogui/src/controlTasks.c **** 
  92:Core/drogui/src/controlTasks.c ****     /*R = getReg(ROLL_REF);
  93:Core/drogui/src/controlTasks.c ****     P = getReg(PITCH_REF);
  94:Core/drogui/src/controlTasks.c ****     Y = getReg(YAW_REF);*/
  95:Core/drogui/src/controlTasks.c **** 
  96:Core/drogui/src/controlTasks.c ****     setReg(ROLL_U, R);
  97:Core/drogui/src/controlTasks.c ****     setReg(PITCH_U, P);
  98:Core/drogui/src/controlTasks.c ****     setReg(YAW_U, Y);
  99:Core/drogui/src/controlTasks.c ****     setReg(Z_U, H_comp);
 100:Core/drogui/src/controlTasks.c **** 
 101:Core/drogui/src/controlTasks.c ****     M1 = R + P + Y;
 102:Core/drogui/src/controlTasks.c ****     M2 = R - P - Y;
 103:Core/drogui/src/controlTasks.c ****     M3 = -R - P + Y;
 104:Core/drogui/src/controlTasks.c ****     M4 = -R + P - Y;
 105:Core/drogui/src/controlTasks.c **** 
 106:Core/drogui/src/controlTasks.c ****     saturateM(H_comp*H_comp);
 107:Core/drogui/src/controlTasks.c **** 
 108:Core/drogui/src/controlTasks.c ****     setReg(MOTOR_1, M1);
 109:Core/drogui/src/controlTasks.c ****     setReg(MOTOR_2, M2);
 110:Core/drogui/src/controlTasks.c ****     setReg(MOTOR_3, M3);
 111:Core/drogui/src/controlTasks.c ****     setReg(MOTOR_4, M4);
 112:Core/drogui/src/controlTasks.c **** 
 113:Core/drogui/src/controlTasks.c ****     if(security){
 114:Core/drogui/src/controlTasks.c ****         M1 = M2 = M3 = M4 = 0;
 115:Core/drogui/src/controlTasks.c ****         resetPid(&wroll_control, TIME);
 116:Core/drogui/src/controlTasks.c ****         resetPid(&wpitch_control, TIME);
 117:Core/drogui/src/controlTasks.c ****         resetPid(&wyaw_control, TIME);
 118:Core/drogui/src/controlTasks.c ****     }
 119:Core/drogui/src/controlTasks.c **** 
 120:Core/drogui/src/controlTasks.c ****     /*setPwmDutyTIME(&m1, min(fmax(M1,0), 100));
 121:Core/drogui/src/controlTasks.c ****     setPwmDutyTIME(&m2, min(fmax(M2,0), 100));
 122:Core/drogui/src/controlTasks.c ****     setPwmDutyTIME(&m3, min(fmax(M3,0), 100));
 123:Core/drogui/src/controlTasks.c ****     setPwmDutyTIME(&m4, min(fmax(M4,0), 100));*/
 124:Core/drogui/src/controlTasks.c **** }
 125:Core/drogui/src/controlTasks.c **** 
 126:Core/drogui/src/controlTasks.c **** void rpyControlTask(){
  29              		.loc 1 126 22 view -0
  30              		.cfi_startproc
  31              		@ args = 0, pretend = 0, frame = 0
  32              		@ frame_needed = 0, uses_anonymous_args = 0
  33 0000 70B5     		push	{r4, r5, r6, lr}
  34              	.LCFI0:
  35              		.cfi_def_cfa_offset 16
  36              		.cfi_offset 4, -16
  37              		.cfi_offset 5, -12
  38              		.cfi_offset 6, -8
  39              		.cfi_offset 14, -4
  40 0002 2DED028B 		vpush.64	{d8}
  41              	.LCFI1:
  42              		.cfi_def_cfa_offset 24
  43              		.cfi_offset 80, -24
  44              		.cfi_offset 81, -20
 127:Core/drogui/src/controlTasks.c **** 
 128:Core/drogui/src/controlTasks.c ****     wroll_ref = computePid(&roll2w, angle_dif(roll_ref, roll), TIME, 0);
ARM GAS  C:\Users\GUILLE~1\AppData\Local\Temp\cckbgWnF.s 			page 4


  45              		.loc 1 128 5 view .LVU1
  46              		.loc 1 128 17 is_stmt 0 view .LVU2
  47 0006 304B     		ldr	r3, .L5
  48 0008 D3ED000A 		vldr.32	s1, [r3]
  49 000c 2F4B     		ldr	r3, .L5+4
  50 000e 93ED000A 		vldr.32	s0, [r3]
  51 0012 FFF7FEFF 		bl	angle_dif
  52              	.LVL0:
  53              		.loc 1 128 64 view .LVU3
  54 0016 2E4C     		ldr	r4, .L5+8
  55 0018 2368     		ldr	r3, [r4]
  56 001a 596A     		ldr	r1, [r3, #36]
  57              		.loc 1 128 17 view .LVU4
  58 001c 9FED2D8A 		vldr.32	s16, .L5+12
  59 0020 F0EE480A 		vmov.f32	s1, s16
  60 0024 2C48     		ldr	r0, .L5+16
  61 0026 FFF7FEFF 		bl	computePid
  62              	.LVL1:
  63              		.loc 1 128 15 view .LVU5
  64 002a 2C4E     		ldr	r6, .L5+20
  65 002c 86ED000A 		vstr.32	s0, [r6]
 129:Core/drogui/src/controlTasks.c ****     wpitch_ref = computePid(&pitch2w, angle_dif(pitch_ref, pitch),TIME, 0);
  66              		.loc 1 129 5 is_stmt 1 view .LVU6
  67              		.loc 1 129 18 is_stmt 0 view .LVU7
  68 0030 2B4B     		ldr	r3, .L5+24
  69 0032 D3ED000A 		vldr.32	s1, [r3]
  70 0036 2B4B     		ldr	r3, .L5+28
  71 0038 93ED000A 		vldr.32	s0, [r3]
  72 003c FFF7FEFF 		bl	angle_dif
  73              	.LVL2:
  74              		.loc 1 129 67 view .LVU8
  75 0040 2368     		ldr	r3, [r4]
  76 0042 596A     		ldr	r1, [r3, #36]
  77              		.loc 1 129 18 view .LVU9
  78 0044 F0EE480A 		vmov.f32	s1, s16
  79 0048 2748     		ldr	r0, .L5+32
  80 004a FFF7FEFF 		bl	computePid
  81              	.LVL3:
  82              		.loc 1 129 16 view .LVU10
  83 004e 274D     		ldr	r5, .L5+36
  84 0050 85ED000A 		vstr.32	s0, [r5]
 130:Core/drogui/src/controlTasks.c ****     wyaw_ref = -computePid(&yaw2w, angle_dif(yaw_ref, yaw),TIME, 0);
  85              		.loc 1 130 5 is_stmt 1 view .LVU11
  86              		.loc 1 130 17 is_stmt 0 view .LVU12
  87 0054 264B     		ldr	r3, .L5+40
  88 0056 D3ED000A 		vldr.32	s1, [r3]
  89 005a 264B     		ldr	r3, .L5+44
  90 005c 93ED000A 		vldr.32	s0, [r3]
  91 0060 FFF7FEFF 		bl	angle_dif
  92              	.LVL4:
  93              		.loc 1 130 60 view .LVU13
  94 0064 2368     		ldr	r3, [r4]
  95 0066 596A     		ldr	r1, [r3, #36]
  96              		.loc 1 130 17 view .LVU14
  97 0068 F0EE480A 		vmov.f32	s1, s16
  98 006c 2248     		ldr	r0, .L5+48
  99 006e FFF7FEFF 		bl	computePid
ARM GAS  C:\Users\GUILLE~1\AppData\Local\Temp\cckbgWnF.s 			page 5


 100              	.LVL5:
 101              		.loc 1 130 16 view .LVU15
 102 0072 B1EE400A 		vneg.f32	s0, s0
 103              		.loc 1 130 14 view .LVU16
 104 0076 214C     		ldr	r4, .L5+52
 105 0078 84ED000A 		vstr.32	s0, [r4]
 131:Core/drogui/src/controlTasks.c **** 
 132:Core/drogui/src/controlTasks.c **** /*
 133:Core/drogui/src/controlTasks.c ****     Serial.print("\nu values: ");
 134:Core/drogui/src/controlTasks.c ****     for(int i = 0 ; i < 13; i++) Serial.print(filter_wroll.arr_u.values[i]), Serial.print('\t');
 135:Core/drogui/src/controlTasks.c ****     Serial.print("\nu coeff: ");
 136:Core/drogui/src/controlTasks.c ****     for(int i = 0 ; i < 13; i++) Serial.print(filter_wroll.arr_u.coeff[i]), Serial.print('\t');
 137:Core/drogui/src/controlTasks.c ****     Serial.print("\ny values: ");
 138:Core/drogui/src/controlTasks.c ****     for(int i = 0 ; i < 12; i++) Serial.print(filter_wroll.arr_y.values[i]), Serial.print('\t');
 139:Core/drogui/src/controlTasks.c ****     Serial.print("\ny coeff: ");
 140:Core/drogui/src/controlTasks.c ****     for(int i = 0 ; i < 12; i++) Serial.print(filter_wroll.arr_y.coeff[i]), Serial.print('\t');
 141:Core/drogui/src/controlTasks.c ****     Serial.println("****************************************************************************");
 142:Core/drogui/src/controlTasks.c **** */
 143:Core/drogui/src/controlTasks.c ****     setReg(GYRO_X_REF,wroll_ref);
 106              		.loc 1 143 5 is_stmt 1 view .LVU17
 107 007c 96ED000A 		vldr.32	s0, [r6]
 108 0080 8220     		movs	r0, #130
 109 0082 FFF7FEFF 		bl	setReg
 110              	.LVL6:
 144:Core/drogui/src/controlTasks.c ****     setReg(GYRO_Y_REF,wpitch_ref);
 111              		.loc 1 144 5 view .LVU18
 112 0086 95ED000A 		vldr.32	s0, [r5]
 113 008a 8420     		movs	r0, #132
 114 008c FFF7FEFF 		bl	setReg
 115              	.LVL7:
 145:Core/drogui/src/controlTasks.c ****     setReg(GYRO_Z_REF,wyaw_ref);
 116              		.loc 1 145 5 view .LVU19
 117 0090 94ED000A 		vldr.32	s0, [r4]
 118 0094 8620     		movs	r0, #134
 119 0096 FFF7FEFF 		bl	setReg
 120              	.LVL8:
 146:Core/drogui/src/controlTasks.c ****     
 147:Core/drogui/src/controlTasks.c ****     if(security){
 121              		.loc 1 147 5 view .LVU20
 122              		.loc 1 147 8 is_stmt 0 view .LVU21
 123 009a 194B     		ldr	r3, .L5+56
 124 009c 1B78     		ldrb	r3, [r3]	@ zero_extendqisi2
 125              		.loc 1 147 7 view .LVU22
 126 009e 13B9     		cbnz	r3, .L4
 127              	.L1:
 148:Core/drogui/src/controlTasks.c ****         resetPid(&roll2w, TIME);
 149:Core/drogui/src/controlTasks.c ****         resetPid(&pitch2w, TIME);
 150:Core/drogui/src/controlTasks.c ****         resetPid(&yaw2w, TIME);
 151:Core/drogui/src/controlTasks.c ****     }
 152:Core/drogui/src/controlTasks.c **** }
 128              		.loc 1 152 1 view .LVU23
 129 00a0 BDEC028B 		vldm	sp!, {d8}
 130              	.LCFI2:
 131              		.cfi_remember_state
 132              		.cfi_restore 80
 133              		.cfi_restore 81
 134              		.cfi_def_cfa_offset 16
ARM GAS  C:\Users\GUILLE~1\AppData\Local\Temp\cckbgWnF.s 			page 6


 135 00a4 70BD     		pop	{r4, r5, r6, pc}
 136              	.L4:
 137              	.LCFI3:
 138              		.cfi_restore_state
 148:Core/drogui/src/controlTasks.c ****         resetPid(&roll2w, TIME);
 139              		.loc 1 148 9 is_stmt 1 view .LVU24
 148:Core/drogui/src/controlTasks.c ****         resetPid(&roll2w, TIME);
 140              		.loc 1 148 27 is_stmt 0 view .LVU25
 141 00a6 0A4C     		ldr	r4, .L5+8
 142 00a8 2368     		ldr	r3, [r4]
 143 00aa 596A     		ldr	r1, [r3, #36]
 148:Core/drogui/src/controlTasks.c ****         resetPid(&roll2w, TIME);
 144              		.loc 1 148 9 view .LVU26
 145 00ac 0A48     		ldr	r0, .L5+16
 146 00ae FFF7FEFF 		bl	resetPid
 147              	.LVL9:
 149:Core/drogui/src/controlTasks.c ****         resetPid(&yaw2w, TIME);
 148              		.loc 1 149 9 is_stmt 1 view .LVU27
 149:Core/drogui/src/controlTasks.c ****         resetPid(&yaw2w, TIME);
 149              		.loc 1 149 28 is_stmt 0 view .LVU28
 150 00b2 2368     		ldr	r3, [r4]
 151 00b4 596A     		ldr	r1, [r3, #36]
 149:Core/drogui/src/controlTasks.c ****         resetPid(&yaw2w, TIME);
 152              		.loc 1 149 9 view .LVU29
 153 00b6 0C48     		ldr	r0, .L5+32
 154 00b8 FFF7FEFF 		bl	resetPid
 155              	.LVL10:
 150:Core/drogui/src/controlTasks.c ****     }
 156              		.loc 1 150 9 is_stmt 1 view .LVU30
 150:Core/drogui/src/controlTasks.c ****     }
 157              		.loc 1 150 26 is_stmt 0 view .LVU31
 158 00bc 2368     		ldr	r3, [r4]
 159 00be 596A     		ldr	r1, [r3, #36]
 150:Core/drogui/src/controlTasks.c ****     }
 160              		.loc 1 150 9 view .LVU32
 161 00c0 0D48     		ldr	r0, .L5+48
 162 00c2 FFF7FEFF 		bl	resetPid
 163              	.LVL11:
 164              		.loc 1 152 1 view .LVU33
 165 00c6 EBE7     		b	.L1
 166              	.L6:
 167              		.align	2
 168              	.L5:
 169 00c8 00000000 		.word	roll
 170 00cc 00000000 		.word	.LANCHOR0
 171 00d0 00000000 		.word	htim5
 172 00d4 00000000 		.word	0
 173 00d8 00000000 		.word	.LANCHOR1
 174 00dc 00000000 		.word	.LANCHOR2
 175 00e0 00000000 		.word	pitch
 176 00e4 00000000 		.word	.LANCHOR3
 177 00e8 00000000 		.word	.LANCHOR4
 178 00ec 00000000 		.word	.LANCHOR5
 179 00f0 00000000 		.word	yaw
 180 00f4 00000000 		.word	.LANCHOR6
 181 00f8 00000000 		.word	.LANCHOR7
 182 00fc 00000000 		.word	.LANCHOR8
ARM GAS  C:\Users\GUILLE~1\AppData\Local\Temp\cckbgWnF.s 			page 7


 183 0100 00000000 		.word	security
 184              		.cfi_endproc
 185              	.LFE177:
 187              		.section	.text.xyzControlTask,"ax",%progbits
 188              		.align	1
 189              		.global	xyzControlTask
 190              		.syntax unified
 191              		.thumb
 192              		.thumb_func
 193              		.fpu fpv5-sp-d16
 195              	xyzControlTask:
 196              	.LFB178:
 153:Core/drogui/src/controlTasks.c **** 
 154:Core/drogui/src/controlTasks.c **** void xyzControlTask(){
 197              		.loc 1 154 22 is_stmt 1 view -0
 198              		.cfi_startproc
 199              		@ args = 0, pretend = 0, frame = 0
 200              		@ frame_needed = 0, uses_anonymous_args = 0
 201 0000 70B5     		push	{r4, r5, r6, lr}
 202              	.LCFI4:
 203              		.cfi_def_cfa_offset 16
 204              		.cfi_offset 4, -16
 205              		.cfi_offset 5, -12
 206              		.cfi_offset 6, -8
 207              		.cfi_offset 14, -4
 208 0002 2DED028B 		vpush.64	{d8}
 209              	.LCFI5:
 210              		.cfi_def_cfa_offset 24
 211              		.cfi_offset 80, -24
 212              		.cfi_offset 81, -20
 155:Core/drogui/src/controlTasks.c ****     X_C = computePid(&x_control, -x, TIME, H);
 213              		.loc 1 155 5 view .LVU35
 214              		.loc 1 155 38 is_stmt 0 view .LVU36
 215 0006 484D     		ldr	r5, .L11
 216 0008 2B68     		ldr	r3, [r5]
 217 000a 596A     		ldr	r1, [r3, #36]
 218              		.loc 1 155 11 view .LVU37
 219 000c 474C     		ldr	r4, .L11+4
 220 000e 484B     		ldr	r3, .L11+8
 221 0010 93ED000A 		vldr.32	s0, [r3]
 222 0014 D4ED000A 		vldr.32	s1, [r4]
 223 0018 B1EE400A 		vneg.f32	s0, s0
 224 001c 4548     		ldr	r0, .L11+12
 225 001e FFF7FEFF 		bl	computePid
 226              	.LVL12:
 227              		.loc 1 155 9 view .LVU38
 228 0022 454B     		ldr	r3, .L11+16
 229 0024 83ED000A 		vstr.32	s0, [r3]
 156:Core/drogui/src/controlTasks.c ****     Y_C = computePid(&y_control, -y, TIME, H);
 230              		.loc 1 156 5 is_stmt 1 view .LVU39
 231              		.loc 1 156 38 is_stmt 0 view .LVU40
 232 0028 2B68     		ldr	r3, [r5]
 233 002a 596A     		ldr	r1, [r3, #36]
 234              		.loc 1 156 11 view .LVU41
 235 002c 434B     		ldr	r3, .L11+20
 236 002e 93ED000A 		vldr.32	s0, [r3]
 237 0032 D4ED000A 		vldr.32	s1, [r4]
ARM GAS  C:\Users\GUILLE~1\AppData\Local\Temp\cckbgWnF.s 			page 8


 238 0036 B1EE400A 		vneg.f32	s0, s0
 239 003a 4148     		ldr	r0, .L11+24
 240 003c FFF7FEFF 		bl	computePid
 241              	.LVL13:
 242              		.loc 1 156 9 view .LVU42
 243 0040 404B     		ldr	r3, .L11+28
 244 0042 83ED000A 		vstr.32	s0, [r3]
 157:Core/drogui/src/controlTasks.c **** 
 158:Core/drogui/src/controlTasks.c ****     rampValue(&z_ref, getReg(Z_REF), getReg(Z_REF_SIZE));
 245              		.loc 1 158 5 is_stmt 1 view .LVU43
 246 0046 5220     		movs	r0, #82
 247 0048 FFF7FEFF 		bl	getReg
 248              	.LVL14:
 249 004c B0EE408A 		vmov.f32	s16, s0
 250 0050 5E20     		movs	r0, #94
 251 0052 FFF7FEFF 		bl	getReg
 252              	.LVL15:
 253 0056 F0EE400A 		vmov.f32	s1, s0
 254 005a 3B4E     		ldr	r6, .L11+32
 255 005c B0EE480A 		vmov.f32	s0, s16
 256 0060 3046     		mov	r0, r6
 257 0062 FFF7FEFF 		bl	rampValue
 258              	.LVL16:
 159:Core/drogui/src/controlTasks.c **** 
 160:Core/drogui/src/controlTasks.c ****     H_ref = computePid(&z_control, z_ref - z, TIME,0) + getReg(Z_MG);
 259              		.loc 1 160 5 view .LVU44
 260              		.loc 1 160 47 is_stmt 0 view .LVU45
 261 0066 2B68     		ldr	r3, [r5]
 262 0068 596A     		ldr	r1, [r3, #36]
 263              		.loc 1 160 13 view .LVU46
 264 006a 96ED000A 		vldr.32	s0, [r6]
 265 006e 374B     		ldr	r3, .L11+36
 266 0070 D3ED007A 		vldr.32	s15, [r3]
 267 0074 DFED360A 		vldr.32	s1, .L11+40
 268 0078 30EE670A 		vsub.f32	s0, s0, s15
 269 007c 3548     		ldr	r0, .L11+44
 270 007e FFF7FEFF 		bl	computePid
 271              	.LVL17:
 272 0082 B0EE408A 		vmov.f32	s16, s0
 273              		.loc 1 160 57 view .LVU47
 274 0086 4620     		movs	r0, #70
 275 0088 FFF7FEFF 		bl	getReg
 276              	.LVL18:
 277              		.loc 1 160 55 view .LVU48
 278 008c 38EE000A 		vadd.f32	s0, s16, s0
 279              		.loc 1 160 11 view .LVU49
 280 0090 314B     		ldr	r3, .L11+48
 281 0092 83ED000A 		vstr.32	s0, [r3]
 161:Core/drogui/src/controlTasks.c ****     rampValue(&H, H_ref, 0.2);
 282              		.loc 1 161 5 is_stmt 1 view .LVU50
 283 0096 DFED310A 		vldr.32	s1, .L11+52
 284 009a 2046     		mov	r0, r4
 285 009c FFF7FEFF 		bl	rampValue
 286              	.LVL19:
 162:Core/drogui/src/controlTasks.c **** 
 163:Core/drogui/src/controlTasks.c ****     H_comp = H;
 287              		.loc 1 163 5 view .LVU51
ARM GAS  C:\Users\GUILLE~1\AppData\Local\Temp\cckbgWnF.s 			page 9


 288              		.loc 1 163 12 is_stmt 0 view .LVU52
 289 00a0 2268     		ldr	r2, [r4]	@ float
 290 00a2 2F4B     		ldr	r3, .L11+56
 291 00a4 1A60     		str	r2, [r3]	@ float
 164:Core/drogui/src/controlTasks.c **** 
 165:Core/drogui/src/controlTasks.c ****     rampValue(&roll_ref, getReg(ROLL_REF) + roll_off, 0.015);
 292              		.loc 1 165 5 is_stmt 1 view .LVU53
 293              		.loc 1 165 26 is_stmt 0 view .LVU54
 294 00a6 4820     		movs	r0, #72
 295 00a8 FFF7FEFF 		bl	getReg
 296              	.LVL20:
 297              		.loc 1 165 5 view .LVU55
 298 00ac 9FED2D8A 		vldr.32	s16, .L11+60
 299 00b0 2D4B     		ldr	r3, .L11+64
 300 00b2 D3ED007A 		vldr.32	s15, [r3]
 301 00b6 F0EE480A 		vmov.f32	s1, s16
 302 00ba 30EE270A 		vadd.f32	s0, s0, s15
 303 00be 2B48     		ldr	r0, .L11+68
 304 00c0 FFF7FEFF 		bl	rampValue
 305              	.LVL21:
 166:Core/drogui/src/controlTasks.c ****     rampValue(&pitch_ref, getReg(PITCH_REF) + pitch_off, 0.015);
 306              		.loc 1 166 5 is_stmt 1 view .LVU56
 307              		.loc 1 166 27 is_stmt 0 view .LVU57
 308 00c4 4A20     		movs	r0, #74
 309 00c6 FFF7FEFF 		bl	getReg
 310              	.LVL22:
 311              		.loc 1 166 5 view .LVU58
 312 00ca 294B     		ldr	r3, .L11+72
 313 00cc D3ED007A 		vldr.32	s15, [r3]
 314 00d0 F0EE480A 		vmov.f32	s1, s16
 315 00d4 30EE270A 		vadd.f32	s0, s0, s15
 316 00d8 2648     		ldr	r0, .L11+76
 317 00da FFF7FEFF 		bl	rampValue
 318              	.LVL23:
 167:Core/drogui/src/controlTasks.c ****     yaw_ref = getReg(YAW_REF) + yaw_off;
 319              		.loc 1 167 5 is_stmt 1 view .LVU59
 320              		.loc 1 167 15 is_stmt 0 view .LVU60
 321 00de 4C20     		movs	r0, #76
 322 00e0 FFF7FEFF 		bl	getReg
 323              	.LVL24:
 324              		.loc 1 167 31 view .LVU61
 325 00e4 244B     		ldr	r3, .L11+80
 326 00e6 D3ED007A 		vldr.32	s15, [r3]
 327 00ea 30EE270A 		vadd.f32	s0, s0, s15
 328              		.loc 1 167 13 view .LVU62
 329 00ee 234B     		ldr	r3, .L11+84
 330 00f0 83ED000A 		vstr.32	s0, [r3]
 168:Core/drogui/src/controlTasks.c **** 
 169:Core/drogui/src/controlTasks.c ****     if(security){
 331              		.loc 1 169 5 is_stmt 1 view .LVU63
 332              		.loc 1 169 8 is_stmt 0 view .LVU64
 333 00f4 224B     		ldr	r3, .L11+88
 334 00f6 1B78     		ldrb	r3, [r3]	@ zero_extendqisi2
 335              		.loc 1 169 7 view .LVU65
 336 00f8 13B9     		cbnz	r3, .L10
 337              	.L7:
 170:Core/drogui/src/controlTasks.c ****         H = 0; z_ref = 0;
ARM GAS  C:\Users\GUILLE~1\AppData\Local\Temp\cckbgWnF.s 			page 10


 171:Core/drogui/src/controlTasks.c ****         resetPid(&x_control, TIME);
 172:Core/drogui/src/controlTasks.c ****         resetPid(&y_control, TIME);
 173:Core/drogui/src/controlTasks.c ****         resetPid(&z_control, TIME);
 174:Core/drogui/src/controlTasks.c ****     }
 175:Core/drogui/src/controlTasks.c **** }
 338              		.loc 1 175 1 view .LVU66
 339 00fa BDEC028B 		vldm	sp!, {d8}
 340              	.LCFI6:
 341              		.cfi_remember_state
 342              		.cfi_restore 80
 343              		.cfi_restore 81
 344              		.cfi_def_cfa_offset 16
 345 00fe 70BD     		pop	{r4, r5, r6, pc}
 346              	.L10:
 347              	.LCFI7:
 348              		.cfi_restore_state
 170:Core/drogui/src/controlTasks.c ****         H = 0; z_ref = 0;
 349              		.loc 1 170 9 is_stmt 1 view .LVU67
 170:Core/drogui/src/controlTasks.c ****         H = 0; z_ref = 0;
 350              		.loc 1 170 11 is_stmt 0 view .LVU68
 351 0100 0023     		movs	r3, #0
 352 0102 2360     		str	r3, [r4]	@ float
 170:Core/drogui/src/controlTasks.c ****         H = 0; z_ref = 0;
 353              		.loc 1 170 16 is_stmt 1 view .LVU69
 170:Core/drogui/src/controlTasks.c ****         H = 0; z_ref = 0;
 354              		.loc 1 170 22 is_stmt 0 view .LVU70
 355 0104 3360     		str	r3, [r6]	@ float
 171:Core/drogui/src/controlTasks.c ****         resetPid(&y_control, TIME);
 356              		.loc 1 171 9 is_stmt 1 view .LVU71
 171:Core/drogui/src/controlTasks.c ****         resetPid(&y_control, TIME);
 357              		.loc 1 171 30 is_stmt 0 view .LVU72
 358 0106 2B68     		ldr	r3, [r5]
 359 0108 596A     		ldr	r1, [r3, #36]
 171:Core/drogui/src/controlTasks.c ****         resetPid(&y_control, TIME);
 360              		.loc 1 171 9 view .LVU73
 361 010a 0A48     		ldr	r0, .L11+12
 362 010c FFF7FEFF 		bl	resetPid
 363              	.LVL25:
 172:Core/drogui/src/controlTasks.c ****         resetPid(&z_control, TIME);
 364              		.loc 1 172 9 is_stmt 1 view .LVU74
 172:Core/drogui/src/controlTasks.c ****         resetPid(&z_control, TIME);
 365              		.loc 1 172 30 is_stmt 0 view .LVU75
 366 0110 2B68     		ldr	r3, [r5]
 367 0112 596A     		ldr	r1, [r3, #36]
 172:Core/drogui/src/controlTasks.c ****         resetPid(&z_control, TIME);
 368              		.loc 1 172 9 view .LVU76
 369 0114 0A48     		ldr	r0, .L11+24
 370 0116 FFF7FEFF 		bl	resetPid
 371              	.LVL26:
 173:Core/drogui/src/controlTasks.c ****     }
 372              		.loc 1 173 9 is_stmt 1 view .LVU77
 173:Core/drogui/src/controlTasks.c ****     }
 373              		.loc 1 173 30 is_stmt 0 view .LVU78
 374 011a 2B68     		ldr	r3, [r5]
 375 011c 596A     		ldr	r1, [r3, #36]
 173:Core/drogui/src/controlTasks.c ****     }
 376              		.loc 1 173 9 view .LVU79
ARM GAS  C:\Users\GUILLE~1\AppData\Local\Temp\cckbgWnF.s 			page 11


 377 011e 0D48     		ldr	r0, .L11+44
 378 0120 FFF7FEFF 		bl	resetPid
 379              	.LVL27:
 380              		.loc 1 175 1 view .LVU80
 381 0124 E9E7     		b	.L7
 382              	.L12:
 383 0126 00BF     		.align	2
 384              	.L11:
 385 0128 00000000 		.word	htim5
 386 012c 00000000 		.word	.LANCHOR9
 387 0130 00000000 		.word	x
 388 0134 00000000 		.word	.LANCHOR10
 389 0138 00000000 		.word	.LANCHOR11
 390 013c 00000000 		.word	y
 391 0140 00000000 		.word	.LANCHOR12
 392 0144 00000000 		.word	.LANCHOR13
 393 0148 00000000 		.word	.LANCHOR14
 394 014c 00000000 		.word	z
 395 0150 00000000 		.word	0
 396 0154 00000000 		.word	.LANCHOR15
 397 0158 00000000 		.word	.LANCHOR16
 398 015c CDCC4C3E 		.word	1045220557
 399 0160 00000000 		.word	.LANCHOR17
 400 0164 8FC2753C 		.word	1014350479
 401 0168 00000000 		.word	.LANCHOR18
 402 016c 00000000 		.word	.LANCHOR0
 403 0170 00000000 		.word	.LANCHOR19
 404 0174 00000000 		.word	.LANCHOR3
 405 0178 00000000 		.word	.LANCHOR20
 406 017c 00000000 		.word	.LANCHOR6
 407 0180 00000000 		.word	security
 408              		.cfi_endproc
 409              	.LFE178:
 411              		.global	__aeabi_f2d
 412              		.global	__aeabi_d2f
 413              		.global	__aeabi_dsub
 414              		.global	__aeabi_dadd
 415              		.global	__aeabi_ddiv
 416              		.section	.text.saturateM,"ax",%progbits
 417              		.align	1
 418              		.global	saturateM
 419              		.syntax unified
 420              		.thumb
 421              		.thumb_func
 422              		.fpu fpv5-sp-d16
 424              	saturateM:
 425              	.LVL28:
 426              	.LFB174:
  20:Core/drogui/src/controlTasks.c ****     float f_max = 1;
 427              		.loc 1 20 24 is_stmt 1 view -0
 428              		.cfi_startproc
 429              		@ args = 0, pretend = 0, frame = 16
 430              		@ frame_needed = 0, uses_anonymous_args = 0
  20:Core/drogui/src/controlTasks.c ****     float f_max = 1;
 431              		.loc 1 20 24 is_stmt 0 view .LVU82
 432 0000 2DE9F04F 		push	{r4, r5, r6, r7, r8, r9, r10, fp, lr}
 433              	.LCFI8:
ARM GAS  C:\Users\GUILLE~1\AppData\Local\Temp\cckbgWnF.s 			page 12


 434              		.cfi_def_cfa_offset 36
 435              		.cfi_offset 4, -36
 436              		.cfi_offset 5, -32
 437              		.cfi_offset 6, -28
 438              		.cfi_offset 7, -24
 439              		.cfi_offset 8, -20
 440              		.cfi_offset 9, -16
 441              		.cfi_offset 10, -12
 442              		.cfi_offset 11, -8
 443              		.cfi_offset 14, -4
 444 0004 2DED088B 		vpush.64	{d8, d9, d10, d11}
 445              	.LCFI9:
 446              		.cfi_def_cfa_offset 68
 447              		.cfi_offset 80, -68
 448              		.cfi_offset 81, -64
 449              		.cfi_offset 82, -60
 450              		.cfi_offset 83, -56
 451              		.cfi_offset 84, -52
 452              		.cfi_offset 85, -48
 453              		.cfi_offset 86, -44
 454              		.cfi_offset 87, -40
 455 0008 85B0     		sub	sp, sp, #20
 456              	.LCFI10:
 457              		.cfi_def_cfa_offset 88
 458 000a F0EE40AA 		vmov.f32	s21, s0
  21:Core/drogui/src/controlTasks.c ****     float arr_M[] = {M1, M2, M3, M4};
 459              		.loc 1 21 5 is_stmt 1 view .LVU83
 460              	.LVL29:
  22:Core/drogui/src/controlTasks.c ****     for(int i = 0; i < 4 ; i++){
 461              		.loc 1 22 5 view .LVU84
  22:Core/drogui/src/controlTasks.c ****     for(int i = 0; i < 4 ; i++){
 462              		.loc 1 22 11 is_stmt 0 view .LVU85
 463 000e 6A4B     		ldr	r3, .L17+16
 464 0010 93ED00BA 		vldr.32	s22, [r3]
 465 0014 8DED00BA 		vstr.32	s22, [sp]
 466 0018 684B     		ldr	r3, .L17+20
 467 001a 1B68     		ldr	r3, [r3]	@ float
 468 001c 0193     		str	r3, [sp, #4]	@ float
 469 001e 684B     		ldr	r3, .L17+24
 470 0020 1B68     		ldr	r3, [r3]	@ float
 471 0022 0293     		str	r3, [sp, #8]	@ float
 472 0024 674B     		ldr	r3, .L17+28
 473 0026 1B68     		ldr	r3, [r3]	@ float
 474 0028 0393     		str	r3, [sp, #12]	@ float
  23:Core/drogui/src/controlTasks.c ****         float delta = fmax(fmax(arr_M[i] + H - 10000, -arr_M[i]-H), 0);
 475              		.loc 1 23 5 is_stmt 1 view .LVU86
 476              	.LBB2:
  23:Core/drogui/src/controlTasks.c ****         float delta = fmax(fmax(arr_M[i] + H - 10000, -arr_M[i]-H), 0);
 477              		.loc 1 23 9 view .LVU87
 478              	.LVL30:
  23:Core/drogui/src/controlTasks.c ****         float delta = fmax(fmax(arr_M[i] + H - 10000, -arr_M[i]-H), 0);
 479              		.loc 1 23 13 is_stmt 0 view .LVU88
 480 002a 4FF0000A 		mov	r10, #0
 481              	.LBE2:
  21:Core/drogui/src/controlTasks.c ****     float arr_M[] = {M1, M2, M3, M4};
 482              		.loc 1 21 11 view .LVU89
 483 002e B7EE008A 		vmov.f32	s16, #1.0e+0
ARM GAS  C:\Users\GUILLE~1\AppData\Local\Temp\cckbgWnF.s 			page 13


 484              	.LBB4:
  23:Core/drogui/src/controlTasks.c ****         float delta = fmax(fmax(arr_M[i] + H - 10000, -arr_M[i]-H), 0);
 485              		.loc 1 23 5 view .LVU90
 486 0032 60E0     		b	.L14
 487              	.LVL31:
 488              	.L15:
 489              	.LBB3:
  24:Core/drogui/src/controlTasks.c ****         f_max = fmax(f_max, fabs(arr_M[i] / (fabs(arr_M[i]) - delta + 0.0000001)) );
 490              		.loc 1 24 9 is_stmt 1 discriminator 3 view .LVU91
  24:Core/drogui/src/controlTasks.c ****         f_max = fmax(f_max, fabs(arr_M[i] / (fabs(arr_M[i]) - delta + 0.0000001)) );
 491              		.loc 1 24 38 is_stmt 0 discriminator 3 view .LVU92
 492 0034 04AB     		add	r3, sp, #16
 493 0036 03EB8A03 		add	r3, r3, r10, lsl #2
 494 003a 53ED048A 		vldr.32	s17, [r3, #-16]
  24:Core/drogui/src/controlTasks.c ****         f_max = fmax(f_max, fabs(arr_M[i] / (fabs(arr_M[i]) - delta + 0.0000001)) );
 495              		.loc 1 24 42 discriminator 3 view .LVU93
 496 003e 38EEAAAA 		vadd.f32	s20, s17, s21
  24:Core/drogui/src/controlTasks.c ****         f_max = fmax(f_max, fabs(arr_M[i] / (fabs(arr_M[i]) - delta + 0.0000001)) );
 497              		.loc 1 24 46 discriminator 3 view .LVU94
 498 0042 DFED617A 		vldr.32	s15, .L17+32
 499 0046 3AEE67AA 		vsub.f32	s20, s20, s15
  24:Core/drogui/src/controlTasks.c ****         f_max = fmax(f_max, fabs(arr_M[i] / (fabs(arr_M[i]) - delta + 0.0000001)) );
 500              		.loc 1 24 55 discriminator 3 view .LVU95
 501 004a F1EE687A 		vneg.f32	s15, s17
  24:Core/drogui/src/controlTasks.c ****         f_max = fmax(f_max, fabs(arr_M[i] / (fabs(arr_M[i]) - delta + 0.0000001)) );
 502              		.loc 1 24 23 discriminator 3 view .LVU96
 503 004e 77EEEA7A 		vsub.f32	s15, s15, s21
 504 0052 17EE900A 		vmov	r0, s15
 505 0056 FFF7FEFF 		bl	__aeabi_f2d
 506              	.LVL32:
 507 005a 41EC190B 		vmov	d9, r0, r1
 508 005e 1AEE100A 		vmov	r0, s20
 509 0062 FFF7FEFF 		bl	__aeabi_f2d
 510              	.LVL33:
 511 0066 B0EE491A 		vmov.f32	s2, s18
 512 006a F0EE691A 		vmov.f32	s3, s19
 513 006e 41EC100B 		vmov	d0, r0, r1
 514 0072 FFF7FEFF 		bl	fmax
 515              	.LVL34:
 516 0076 9FED4C1B 		vldr.64	d1, .L17
 517 007a FFF7FEFF 		bl	fmax
 518              	.LVL35:
 519 007e 51EC100B 		vmov	r0, r1, d0
  24:Core/drogui/src/controlTasks.c ****         f_max = fmax(f_max, fabs(arr_M[i] / (fabs(arr_M[i]) - delta + 0.0000001)) );
 520              		.loc 1 24 15 discriminator 3 view .LVU97
 521 0082 FFF7FEFF 		bl	__aeabi_d2f
 522              	.LVL36:
 523 0086 8346     		mov	fp, r0	@ float
 524              	.LVL37:
  25:Core/drogui/src/controlTasks.c ****     }
 525              		.loc 1 25 9 is_stmt 1 discriminator 3 view .LVU98
  25:Core/drogui/src/controlTasks.c ****     }
 526              		.loc 1 25 39 is_stmt 0 discriminator 3 view .LVU99
 527 0088 18EE900A 		vmov	r0, s17
 528              	.LVL38:
  25:Core/drogui/src/controlTasks.c ****     }
 529              		.loc 1 25 39 discriminator 3 view .LVU100
ARM GAS  C:\Users\GUILLE~1\AppData\Local\Temp\cckbgWnF.s 			page 14


 530 008c FFF7FEFF 		bl	__aeabi_f2d
 531              	.LVL39:
 532 0090 0446     		mov	r4, r0
 533 0092 0D46     		mov	r5, r1
  25:Core/drogui/src/controlTasks.c ****     }
 534              		.loc 1 25 46 discriminator 3 view .LVU101
 535 0094 F0EEE87A 		vabs.f32	s15, s17
 536 0098 17EE900A 		vmov	r0, s15
 537 009c FFF7FEFF 		bl	__aeabi_f2d
 538              	.LVL40:
 539 00a0 0646     		mov	r6, r0
 540 00a2 0F46     		mov	r7, r1
  25:Core/drogui/src/controlTasks.c ****     }
 541              		.loc 1 25 61 discriminator 3 view .LVU102
 542 00a4 5846     		mov	r0, fp	@ float
 543 00a6 FFF7FEFF 		bl	__aeabi_f2d
 544              	.LVL41:
 545 00aa 0246     		mov	r2, r0
 546 00ac 0B46     		mov	r3, r1
 547 00ae 3046     		mov	r0, r6
 548 00b0 3946     		mov	r1, r7
 549 00b2 FFF7FEFF 		bl	__aeabi_dsub
 550              	.LVL42:
  25:Core/drogui/src/controlTasks.c ****     }
 551              		.loc 1 25 69 discriminator 3 view .LVU103
 552 00b6 3EA3     		adr	r3, .L17+8
 553 00b8 D3E90023 		ldrd	r2, [r3]
 554 00bc FFF7FEFF 		bl	__aeabi_dadd
 555              	.LVL43:
 556 00c0 0246     		mov	r2, r0
 557 00c2 0B46     		mov	r3, r1
  25:Core/drogui/src/controlTasks.c ****     }
 558              		.loc 1 25 43 discriminator 3 view .LVU104
 559 00c4 2046     		mov	r0, r4
 560 00c6 2946     		mov	r1, r5
 561 00c8 FFF7FEFF 		bl	__aeabi_ddiv
 562              	.LVL44:
  25:Core/drogui/src/controlTasks.c ****     }
 563              		.loc 1 25 17 discriminator 3 view .LVU105
 564 00cc 8046     		mov	r8, r0
 565 00ce 21F00049 		bic	r9, r1, #-2147483648
 566 00d2 18EE100A 		vmov	r0, s16
 567 00d6 FFF7FEFF 		bl	__aeabi_f2d
 568              	.LVL45:
 569 00da 49EC118B 		vmov	d1, r8, r9
 570 00de 41EC100B 		vmov	d0, r0, r1
 571 00e2 FFF7FEFF 		bl	fmax
 572              	.LVL46:
 573 00e6 51EC100B 		vmov	r0, r1, d0
  25:Core/drogui/src/controlTasks.c ****     }
 574              		.loc 1 25 15 discriminator 3 view .LVU106
 575 00ea FFF7FEFF 		bl	__aeabi_d2f
 576              	.LVL47:
 577 00ee 08EE100A 		vmov	s16, r0
 578              	.LVL48:
  25:Core/drogui/src/controlTasks.c ****     }
 579              		.loc 1 25 15 discriminator 3 view .LVU107
ARM GAS  C:\Users\GUILLE~1\AppData\Local\Temp\cckbgWnF.s 			page 15


 580              	.LBE3:
  23:Core/drogui/src/controlTasks.c ****         float delta = fmax(fmax(arr_M[i] + H - 10000, -arr_M[i]-H), 0);
 581              		.loc 1 23 28 is_stmt 1 discriminator 3 view .LVU108
  23:Core/drogui/src/controlTasks.c ****         float delta = fmax(fmax(arr_M[i] + H - 10000, -arr_M[i]-H), 0);
 582              		.loc 1 23 29 is_stmt 0 discriminator 3 view .LVU109
 583 00f2 0AF1010A 		add	r10, r10, #1
 584              	.LVL49:
 585              	.L14:
  23:Core/drogui/src/controlTasks.c ****         float delta = fmax(fmax(arr_M[i] + H - 10000, -arr_M[i]-H), 0);
 586              		.loc 1 23 20 is_stmt 1 discriminator 1 view .LVU110
  23:Core/drogui/src/controlTasks.c ****         float delta = fmax(fmax(arr_M[i] + H - 10000, -arr_M[i]-H), 0);
 587              		.loc 1 23 5 is_stmt 0 discriminator 1 view .LVU111
 588 00f6 BAF1030F 		cmp	r10, #3
 589 00fa 9BDD     		ble	.L15
 590              	.LBE4:
  28:Core/drogui/src/controlTasks.c ****     M2 = sqrt(M2 / f_max + H);
 591              		.loc 1 28 5 is_stmt 1 view .LVU112
  28:Core/drogui/src/controlTasks.c ****     M2 = sqrt(M2 / f_max + H);
 592              		.loc 1 28 18 is_stmt 0 view .LVU113
 593 00fc CBEE087A 		vdiv.f32	s15, s22, s16
  28:Core/drogui/src/controlTasks.c ****     M2 = sqrt(M2 / f_max + H);
 594              		.loc 1 28 10 view .LVU114
 595 0100 77EEAA7A 		vadd.f32	s15, s15, s21
 596 0104 17EE900A 		vmov	r0, s15
 597 0108 FFF7FEFF 		bl	__aeabi_f2d
 598              	.LVL50:
 599 010c 41EC100B 		vmov	d0, r0, r1
 600 0110 FFF7FEFF 		bl	sqrt
 601              	.LVL51:
 602 0114 51EC100B 		vmov	r0, r1, d0
 603 0118 FFF7FEFF 		bl	__aeabi_d2f
 604              	.LVL52:
  28:Core/drogui/src/controlTasks.c ****     M2 = sqrt(M2 / f_max + H);
 605              		.loc 1 28 8 view .LVU115
 606 011c 264B     		ldr	r3, .L17+16
 607 011e 1860     		str	r0, [r3]	@ float
  29:Core/drogui/src/controlTasks.c ****     M3 = sqrt(M3 / f_max + H);
 608              		.loc 1 29 5 is_stmt 1 view .LVU116
  29:Core/drogui/src/controlTasks.c ****     M3 = sqrt(M3 / f_max + H);
 609              		.loc 1 29 18 is_stmt 0 view .LVU117
 610 0120 264C     		ldr	r4, .L17+20
 611 0122 94ED007A 		vldr.32	s14, [r4]
 612 0126 C7EE087A 		vdiv.f32	s15, s14, s16
  29:Core/drogui/src/controlTasks.c ****     M3 = sqrt(M3 / f_max + H);
 613              		.loc 1 29 10 view .LVU118
 614 012a 77EEAA7A 		vadd.f32	s15, s15, s21
 615 012e 17EE900A 		vmov	r0, s15
 616 0132 FFF7FEFF 		bl	__aeabi_f2d
 617              	.LVL53:
 618 0136 41EC100B 		vmov	d0, r0, r1
 619 013a FFF7FEFF 		bl	sqrt
 620              	.LVL54:
 621 013e 51EC100B 		vmov	r0, r1, d0
 622 0142 FFF7FEFF 		bl	__aeabi_d2f
 623              	.LVL55:
  29:Core/drogui/src/controlTasks.c ****     M3 = sqrt(M3 / f_max + H);
 624              		.loc 1 29 8 view .LVU119
ARM GAS  C:\Users\GUILLE~1\AppData\Local\Temp\cckbgWnF.s 			page 16


 625 0146 2060     		str	r0, [r4]	@ float
  30:Core/drogui/src/controlTasks.c ****     M4 = sqrt(M4 / f_max + H);
 626              		.loc 1 30 5 is_stmt 1 view .LVU120
  30:Core/drogui/src/controlTasks.c ****     M4 = sqrt(M4 / f_max + H);
 627              		.loc 1 30 18 is_stmt 0 view .LVU121
 628 0148 1D4C     		ldr	r4, .L17+24
 629 014a 94ED007A 		vldr.32	s14, [r4]
 630 014e C7EE087A 		vdiv.f32	s15, s14, s16
  30:Core/drogui/src/controlTasks.c ****     M4 = sqrt(M4 / f_max + H);
 631              		.loc 1 30 10 view .LVU122
 632 0152 77EEAA7A 		vadd.f32	s15, s15, s21
 633 0156 17EE900A 		vmov	r0, s15
 634 015a FFF7FEFF 		bl	__aeabi_f2d
 635              	.LVL56:
 636 015e 41EC100B 		vmov	d0, r0, r1
 637 0162 FFF7FEFF 		bl	sqrt
 638              	.LVL57:
 639 0166 51EC100B 		vmov	r0, r1, d0
 640 016a FFF7FEFF 		bl	__aeabi_d2f
 641              	.LVL58:
  30:Core/drogui/src/controlTasks.c ****     M4 = sqrt(M4 / f_max + H);
 642              		.loc 1 30 8 view .LVU123
 643 016e 2060     		str	r0, [r4]	@ float
  31:Core/drogui/src/controlTasks.c **** }
 644              		.loc 1 31 5 is_stmt 1 view .LVU124
  31:Core/drogui/src/controlTasks.c **** }
 645              		.loc 1 31 18 is_stmt 0 view .LVU125
 646 0170 144C     		ldr	r4, .L17+28
 647 0172 94ED007A 		vldr.32	s14, [r4]
 648 0176 C7EE087A 		vdiv.f32	s15, s14, s16
  31:Core/drogui/src/controlTasks.c **** }
 649              		.loc 1 31 10 view .LVU126
 650 017a 77EEAA7A 		vadd.f32	s15, s15, s21
 651 017e 17EE900A 		vmov	r0, s15
 652 0182 FFF7FEFF 		bl	__aeabi_f2d
 653              	.LVL59:
 654 0186 41EC100B 		vmov	d0, r0, r1
 655 018a FFF7FEFF 		bl	sqrt
 656              	.LVL60:
 657 018e 51EC100B 		vmov	r0, r1, d0
 658 0192 FFF7FEFF 		bl	__aeabi_d2f
 659              	.LVL61:
  31:Core/drogui/src/controlTasks.c **** }
 660              		.loc 1 31 8 view .LVU127
 661 0196 2060     		str	r0, [r4]	@ float
  32:Core/drogui/src/controlTasks.c **** 
 662              		.loc 1 32 1 view .LVU128
 663 0198 05B0     		add	sp, sp, #20
 664              	.LCFI11:
 665              		.cfi_def_cfa_offset 68
 666              		@ sp needed
 667 019a BDEC088B 		vldm	sp!, {d8-d11}
 668              	.LCFI12:
 669              		.cfi_restore 86
 670              		.cfi_restore 87
 671              		.cfi_restore 84
 672              		.cfi_restore 85
ARM GAS  C:\Users\GUILLE~1\AppData\Local\Temp\cckbgWnF.s 			page 17


 673              		.cfi_restore 82
 674              		.cfi_restore 83
 675              		.cfi_restore 80
 676              		.cfi_restore 81
 677              		.cfi_def_cfa_offset 36
 678              	.LVL62:
  32:Core/drogui/src/controlTasks.c **** 
 679              		.loc 1 32 1 view .LVU129
 680 019e BDE8F08F 		pop	{r4, r5, r6, r7, r8, r9, r10, fp, pc}
 681              	.LVL63:
 682              	.L18:
  32:Core/drogui/src/controlTasks.c **** 
 683              		.loc 1 32 1 view .LVU130
 684 01a2 00BFAFF3 		.align	3
 684      0080
 685              	.L17:
 686 01a8 00000000 		.word	0
 687 01ac 00000000 		.word	0
 688 01b0 48AFBC9A 		.word	-1698910392
 689 01b4 F2D77A3E 		.word	1048238066
 690 01b8 00000000 		.word	.LANCHOR21
 691 01bc 00000000 		.word	.LANCHOR22
 692 01c0 00000000 		.word	.LANCHOR23
 693 01c4 00000000 		.word	.LANCHOR24
 694 01c8 00401C46 		.word	1176256512
 695              		.cfi_endproc
 696              	.LFE174:
 698              		.section	.text.wControlTask,"ax",%progbits
 699              		.align	1
 700              		.global	wControlTask
 701              		.syntax unified
 702              		.thumb
 703              		.thumb_func
 704              		.fpu fpv5-sp-d16
 706              	wControlTask:
 707              	.LFB176:
  77:Core/drogui/src/controlTasks.c ****     
 708              		.loc 1 77 20 is_stmt 1 view -0
 709              		.cfi_startproc
 710              		@ args = 0, pretend = 0, frame = 0
 711              		@ frame_needed = 0, uses_anonymous_args = 0
 712 0000 2DE9F843 		push	{r3, r4, r5, r6, r7, r8, r9, lr}
 713              	.LCFI13:
 714              		.cfi_def_cfa_offset 32
 715              		.cfi_offset 3, -32
 716              		.cfi_offset 4, -28
 717              		.cfi_offset 5, -24
 718              		.cfi_offset 6, -20
 719              		.cfi_offset 7, -16
 720              		.cfi_offset 8, -12
 721              		.cfi_offset 9, -8
 722              		.cfi_offset 14, -4
 723 0004 2DED068B 		vpush.64	{d8, d9, d10}
 724              	.LCFI14:
 725              		.cfi_def_cfa_offset 56
 726              		.cfi_offset 80, -56
 727              		.cfi_offset 81, -52
ARM GAS  C:\Users\GUILLE~1\AppData\Local\Temp\cckbgWnF.s 			page 18


 728              		.cfi_offset 82, -48
 729              		.cfi_offset 83, -44
 730              		.cfi_offset 84, -40
 731              		.cfi_offset 85, -36
  79:Core/drogui/src/controlTasks.c ****     wpitch_err = fmax( fmin( wpitch_ref - gy , 100), -100);
 732              		.loc 1 79 5 view .LVU132
  79:Core/drogui/src/controlTasks.c ****     wpitch_err = fmax( fmin( wpitch_ref - gy , 100), -100);
 733              		.loc 1 79 39 is_stmt 0 view .LVU133
 734 0008 8B4B     		ldr	r3, .L23+16
 735 000a 93ED007A 		vldr.32	s14, [r3]
 736 000e 8B4B     		ldr	r3, .L23+20
 737 0010 D3ED007A 		vldr.32	s15, [r3]
  79:Core/drogui/src/controlTasks.c ****     wpitch_err = fmax( fmin( wpitch_ref - gy , 100), -100);
 738              		.loc 1 79 17 view .LVU134
 739 0014 9FED84AB 		vldr.64	d10, .L23
 740 0018 77EE677A 		vsub.f32	s15, s14, s15
 741 001c 17EE900A 		vmov	r0, s15
 742 0020 FFF7FEFF 		bl	__aeabi_f2d
 743              	.LVL64:
 744 0024 B0EE4A1A 		vmov.f32	s2, s20
 745 0028 F0EE6A1A 		vmov.f32	s3, s21
 746 002c 41EC100B 		vmov	d0, r0, r1
 747 0030 FFF7FEFF 		bl	fmin
 748              	.LVL65:
 749 0034 9FED7E9B 		vldr.64	d9, .L23+8
 750 0038 B0EE491A 		vmov.f32	s2, s18
 751 003c F0EE691A 		vmov.f32	s3, s19
 752 0040 FFF7FEFF 		bl	fmax
 753              	.LVL66:
 754 0044 51EC100B 		vmov	r0, r1, d0
 755 0048 FFF7FEFF 		bl	__aeabi_d2f
 756              	.LVL67:
 757 004c 08EE100A 		vmov	s16, r0
  79:Core/drogui/src/controlTasks.c ****     wpitch_err = fmax( fmin( wpitch_ref - gy , 100), -100);
 758              		.loc 1 79 15 view .LVU135
 759 0050 7B4B     		ldr	r3, .L23+24
 760 0052 1860     		str	r0, [r3]	@ float
  80:Core/drogui/src/controlTasks.c ****     wyaw_err = fmax( fmin( wyaw_ref - gz , 100), -100);
 761              		.loc 1 80 5 is_stmt 1 view .LVU136
  80:Core/drogui/src/controlTasks.c ****     wyaw_err = fmax( fmin( wyaw_ref - gz , 100), -100);
 762              		.loc 1 80 41 is_stmt 0 view .LVU137
 763 0054 7B4B     		ldr	r3, .L23+28
 764 0056 93ED007A 		vldr.32	s14, [r3]
 765 005a 7B4B     		ldr	r3, .L23+32
 766 005c D3ED007A 		vldr.32	s15, [r3]
  80:Core/drogui/src/controlTasks.c ****     wyaw_err = fmax( fmin( wyaw_ref - gz , 100), -100);
 767              		.loc 1 80 18 view .LVU138
 768 0060 77EE677A 		vsub.f32	s15, s14, s15
 769 0064 17EE900A 		vmov	r0, s15
 770 0068 FFF7FEFF 		bl	__aeabi_f2d
 771              	.LVL68:
 772 006c B0EE4A1A 		vmov.f32	s2, s20
 773 0070 F0EE6A1A 		vmov.f32	s3, s21
 774 0074 41EC100B 		vmov	d0, r0, r1
 775 0078 FFF7FEFF 		bl	fmin
 776              	.LVL69:
 777 007c B0EE491A 		vmov.f32	s2, s18
ARM GAS  C:\Users\GUILLE~1\AppData\Local\Temp\cckbgWnF.s 			page 19


 778 0080 F0EE691A 		vmov.f32	s3, s19
 779 0084 FFF7FEFF 		bl	fmax
 780              	.LVL70:
 781 0088 51EC100B 		vmov	r0, r1, d0
 782 008c FFF7FEFF 		bl	__aeabi_d2f
 783              	.LVL71:
  80:Core/drogui/src/controlTasks.c ****     wyaw_err = fmax( fmin( wyaw_ref - gz , 100), -100);
 784              		.loc 1 80 16 view .LVU139
 785 0090 6E4D     		ldr	r5, .L23+36
 786 0092 2860     		str	r0, [r5]	@ float
  81:Core/drogui/src/controlTasks.c **** 
 787              		.loc 1 81 5 is_stmt 1 view .LVU140
  81:Core/drogui/src/controlTasks.c **** 
 788              		.loc 1 81 37 is_stmt 0 view .LVU141
 789 0094 6E4B     		ldr	r3, .L23+40
 790 0096 93ED007A 		vldr.32	s14, [r3]
 791 009a 6E4B     		ldr	r3, .L23+44
 792 009c D3ED007A 		vldr.32	s15, [r3]
  81:Core/drogui/src/controlTasks.c **** 
 793              		.loc 1 81 16 view .LVU142
 794 00a0 77EE677A 		vsub.f32	s15, s14, s15
 795 00a4 17EE900A 		vmov	r0, s15
 796 00a8 FFF7FEFF 		bl	__aeabi_f2d
 797              	.LVL72:
 798 00ac B0EE4A1A 		vmov.f32	s2, s20
 799 00b0 F0EE6A1A 		vmov.f32	s3, s21
 800 00b4 41EC100B 		vmov	d0, r0, r1
 801 00b8 FFF7FEFF 		bl	fmin
 802              	.LVL73:
 803 00bc B0EE491A 		vmov.f32	s2, s18
 804 00c0 F0EE691A 		vmov.f32	s3, s19
 805 00c4 FFF7FEFF 		bl	fmax
 806              	.LVL74:
 807 00c8 51EC100B 		vmov	r0, r1, d0
 808 00cc FFF7FEFF 		bl	__aeabi_d2f
 809              	.LVL75:
  81:Core/drogui/src/controlTasks.c **** 
 810              		.loc 1 81 14 view .LVU143
 811 00d0 DFF8B891 		ldr	r9, .L23+100
 812 00d4 C9F80000 		str	r0, [r9]	@ float
  84:Core/drogui/src/controlTasks.c ****     P = computePid(&wpitch_control, wpitch_err, TIME, 0);
 813              		.loc 1 84 5 is_stmt 1 view .LVU144
  84:Core/drogui/src/controlTasks.c ****     P = computePid(&wpitch_control, wpitch_err, TIME, 0);
 814              		.loc 1 84 47 is_stmt 0 view .LVU145
 815 00d8 5F4C     		ldr	r4, .L23+48
 816 00da 2368     		ldr	r3, [r4]
 817 00dc 596A     		ldr	r1, [r3, #36]
  84:Core/drogui/src/controlTasks.c ****     P = computePid(&wpitch_control, wpitch_err, TIME, 0);
 818              		.loc 1 84 9 view .LVU146
 819 00de DFED5F8A 		vldr.32	s17, .L23+52
 820 00e2 DFF8A481 		ldr	r8, .L23+96
 821 00e6 F0EE680A 		vmov.f32	s1, s17
 822 00ea B0EE480A 		vmov.f32	s0, s16
 823 00ee 4046     		mov	r0, r8
 824 00f0 FFF7FEFF 		bl	computePid
 825              	.LVL76:
  84:Core/drogui/src/controlTasks.c ****     P = computePid(&wpitch_control, wpitch_err, TIME, 0);
ARM GAS  C:\Users\GUILLE~1\AppData\Local\Temp\cckbgWnF.s 			page 20


 826              		.loc 1 84 7 view .LVU147
 827 00f4 5A4E     		ldr	r6, .L23+56
 828 00f6 86ED000A 		vstr.32	s0, [r6]
  85:Core/drogui/src/controlTasks.c ****     Y = computePid(&wyaw_control, wyaw_err, TIME, 0);
 829              		.loc 1 85 5 is_stmt 1 view .LVU148
  85:Core/drogui/src/controlTasks.c ****     Y = computePid(&wyaw_control, wyaw_err, TIME, 0);
 830              		.loc 1 85 49 is_stmt 0 view .LVU149
 831 00fa 2368     		ldr	r3, [r4]
 832 00fc 596A     		ldr	r1, [r3, #36]
  85:Core/drogui/src/controlTasks.c ****     Y = computePid(&wyaw_control, wyaw_err, TIME, 0);
 833              		.loc 1 85 9 view .LVU150
 834 00fe 594F     		ldr	r7, .L23+60
 835 0100 F0EE680A 		vmov.f32	s1, s17
 836 0104 95ED000A 		vldr.32	s0, [r5]
 837 0108 3846     		mov	r0, r7
 838 010a FFF7FEFF 		bl	computePid
 839              	.LVL77:
  85:Core/drogui/src/controlTasks.c ****     Y = computePid(&wyaw_control, wyaw_err, TIME, 0);
 840              		.loc 1 85 7 view .LVU151
 841 010e 564D     		ldr	r5, .L23+64
 842 0110 85ED000A 		vstr.32	s0, [r5]
  86:Core/drogui/src/controlTasks.c **** 
 843              		.loc 1 86 5 is_stmt 1 view .LVU152
  86:Core/drogui/src/controlTasks.c **** 
 844              		.loc 1 86 45 is_stmt 0 view .LVU153
 845 0114 2368     		ldr	r3, [r4]
 846 0116 596A     		ldr	r1, [r3, #36]
  86:Core/drogui/src/controlTasks.c **** 
 847              		.loc 1 86 9 view .LVU154
 848 0118 F0EE680A 		vmov.f32	s1, s17
 849 011c 99ED000A 		vldr.32	s0, [r9]
 850 0120 5248     		ldr	r0, .L23+68
 851 0122 FFF7FEFF 		bl	computePid
 852              	.LVL78:
  86:Core/drogui/src/controlTasks.c **** 
 853              		.loc 1 86 7 view .LVU155
 854 0126 524C     		ldr	r4, .L23+72
 855 0128 84ED000A 		vstr.32	s0, [r4]
  88:Core/drogui/src/controlTasks.c ****     setReg(DER_GYRO_Y, wpitch_control.errd);
 856              		.loc 1 88 5 is_stmt 1 view .LVU156
 857 012c 98ED170A 		vldr.32	s0, [r8, #92]
 858 0130 8820     		movs	r0, #136
 859 0132 FFF7FEFF 		bl	setReg
 860              	.LVL79:
  89:Core/drogui/src/controlTasks.c **** 
 861              		.loc 1 89 5 view .LVU157
 862 0136 97ED170A 		vldr.32	s0, [r7, #92]
 863 013a 8A20     		movs	r0, #138
 864 013c FFF7FEFF 		bl	setReg
 865              	.LVL80:
  96:Core/drogui/src/controlTasks.c ****     setReg(PITCH_U, P);
 866              		.loc 1 96 5 view .LVU158
 867 0140 96ED000A 		vldr.32	s0, [r6]
 868 0144 3A20     		movs	r0, #58
 869 0146 FFF7FEFF 		bl	setReg
 870              	.LVL81:
  97:Core/drogui/src/controlTasks.c ****     setReg(YAW_U, Y);
ARM GAS  C:\Users\GUILLE~1\AppData\Local\Temp\cckbgWnF.s 			page 21


 871              		.loc 1 97 5 view .LVU159
 872 014a 95ED000A 		vldr.32	s0, [r5]
 873 014e 3C20     		movs	r0, #60
 874 0150 FFF7FEFF 		bl	setReg
 875              	.LVL82:
  98:Core/drogui/src/controlTasks.c ****     setReg(Z_U, H_comp);
 876              		.loc 1 98 5 view .LVU160
 877 0154 94ED000A 		vldr.32	s0, [r4]
 878 0158 3E20     		movs	r0, #62
 879 015a FFF7FEFF 		bl	setReg
 880              	.LVL83:
  99:Core/drogui/src/controlTasks.c **** 
 881              		.loc 1 99 5 view .LVU161
 882 015e DFF83081 		ldr	r8, .L23+104
 883 0162 98ED000A 		vldr.32	s0, [r8]
 884 0166 4420     		movs	r0, #68
 885 0168 FFF7FEFF 		bl	setReg
 886              	.LVL84:
 101:Core/drogui/src/controlTasks.c ****     M2 = R - P - Y;
 887              		.loc 1 101 5 view .LVU162
 101:Core/drogui/src/controlTasks.c ****     M2 = R - P - Y;
 888              		.loc 1 101 12 is_stmt 0 view .LVU163
 889 016c 96ED006A 		vldr.32	s12, [r6]
 890 0170 D5ED007A 		vldr.32	s15, [r5]
 891 0174 36EE277A 		vadd.f32	s14, s12, s15
 101:Core/drogui/src/controlTasks.c ****     M2 = R - P - Y;
 892              		.loc 1 101 16 view .LVU164
 893 0178 D4ED006A 		vldr.32	s13, [r4]
 894 017c 37EE267A 		vadd.f32	s14, s14, s13
 101:Core/drogui/src/controlTasks.c ****     M2 = R - P - Y;
 895              		.loc 1 101 8 view .LVU165
 896 0180 3C4F     		ldr	r7, .L23+76
 897 0182 87ED007A 		vstr.32	s14, [r7]
 102:Core/drogui/src/controlTasks.c ****     M3 = -R - P + Y;
 898              		.loc 1 102 5 is_stmt 1 view .LVU166
 102:Core/drogui/src/controlTasks.c ****     M3 = -R - P + Y;
 899              		.loc 1 102 12 is_stmt 0 view .LVU167
 900 0186 36EE677A 		vsub.f32	s14, s12, s15
 102:Core/drogui/src/controlTasks.c ****     M3 = -R - P + Y;
 901              		.loc 1 102 16 view .LVU168
 902 018a 37EE667A 		vsub.f32	s14, s14, s13
 102:Core/drogui/src/controlTasks.c ****     M3 = -R - P + Y;
 903              		.loc 1 102 8 view .LVU169
 904 018e 3A4E     		ldr	r6, .L23+80
 905 0190 86ED007A 		vstr.32	s14, [r6]
 103:Core/drogui/src/controlTasks.c ****     M4 = -R + P - Y;
 906              		.loc 1 103 5 is_stmt 1 view .LVU170
 103:Core/drogui/src/controlTasks.c ****     M4 = -R + P - Y;
 907              		.loc 1 103 10 is_stmt 0 view .LVU171
 908 0194 B1EE467A 		vneg.f32	s14, s12
 103:Core/drogui/src/controlTasks.c ****     M4 = -R + P - Y;
 909              		.loc 1 103 13 view .LVU172
 910 0198 37EE677A 		vsub.f32	s14, s14, s15
 103:Core/drogui/src/controlTasks.c ****     M4 = -R + P - Y;
 911              		.loc 1 103 17 view .LVU173
 912 019c 36EE877A 		vadd.f32	s14, s13, s14
 103:Core/drogui/src/controlTasks.c ****     M4 = -R + P - Y;
ARM GAS  C:\Users\GUILLE~1\AppData\Local\Temp\cckbgWnF.s 			page 22


 913              		.loc 1 103 8 view .LVU174
 914 01a0 364D     		ldr	r5, .L23+84
 915 01a2 85ED007A 		vstr.32	s14, [r5]
 104:Core/drogui/src/controlTasks.c **** 
 916              		.loc 1 104 5 is_stmt 1 view .LVU175
 104:Core/drogui/src/controlTasks.c **** 
 917              		.loc 1 104 13 is_stmt 0 view .LVU176
 918 01a6 77EEC67A 		vsub.f32	s15, s15, s12
 104:Core/drogui/src/controlTasks.c **** 
 919              		.loc 1 104 17 view .LVU177
 920 01aa 77EEE67A 		vsub.f32	s15, s15, s13
 104:Core/drogui/src/controlTasks.c **** 
 921              		.loc 1 104 8 view .LVU178
 922 01ae 344C     		ldr	r4, .L23+88
 923 01b0 C4ED007A 		vstr.32	s15, [r4]
 106:Core/drogui/src/controlTasks.c **** 
 924              		.loc 1 106 5 is_stmt 1 view .LVU179
 925 01b4 98ED000A 		vldr.32	s0, [r8]
 926 01b8 20EE000A 		vmul.f32	s0, s0, s0
 927 01bc FFF7FEFF 		bl	saturateM
 928              	.LVL85:
 108:Core/drogui/src/controlTasks.c ****     setReg(MOTOR_2, M2);
 929              		.loc 1 108 5 view .LVU180
 930 01c0 97ED000A 		vldr.32	s0, [r7]
 931 01c4 8C20     		movs	r0, #140
 932 01c6 FFF7FEFF 		bl	setReg
 933              	.LVL86:
 109:Core/drogui/src/controlTasks.c ****     setReg(MOTOR_3, M3);
 934              		.loc 1 109 5 view .LVU181
 935 01ca 96ED000A 		vldr.32	s0, [r6]
 936 01ce 8E20     		movs	r0, #142
 937 01d0 FFF7FEFF 		bl	setReg
 938              	.LVL87:
 110:Core/drogui/src/controlTasks.c ****     setReg(MOTOR_4, M4);
 939              		.loc 1 110 5 view .LVU182
 940 01d4 95ED000A 		vldr.32	s0, [r5]
 941 01d8 9020     		movs	r0, #144
 942 01da FFF7FEFF 		bl	setReg
 943              	.LVL88:
 111:Core/drogui/src/controlTasks.c **** 
 944              		.loc 1 111 5 view .LVU183
 945 01de 94ED000A 		vldr.32	s0, [r4]
 946 01e2 9220     		movs	r0, #146
 947 01e4 FFF7FEFF 		bl	setReg
 948              	.LVL89:
 113:Core/drogui/src/controlTasks.c ****         M1 = M2 = M3 = M4 = 0;
 949              		.loc 1 113 5 view .LVU184
 113:Core/drogui/src/controlTasks.c ****         M1 = M2 = M3 = M4 = 0;
 950              		.loc 1 113 8 is_stmt 0 view .LVU185
 951 01e8 264B     		ldr	r3, .L23+92
 952 01ea 1B78     		ldrb	r3, [r3]	@ zero_extendqisi2
 113:Core/drogui/src/controlTasks.c ****         M1 = M2 = M3 = M4 = 0;
 953              		.loc 1 113 7 view .LVU186
 954 01ec 1BB9     		cbnz	r3, .L22
 955              	.L19:
 124:Core/drogui/src/controlTasks.c **** 
 956              		.loc 1 124 1 view .LVU187
ARM GAS  C:\Users\GUILLE~1\AppData\Local\Temp\cckbgWnF.s 			page 23


 957 01ee BDEC068B 		vldm	sp!, {d8-d10}
 958              	.LCFI15:
 959              		.cfi_remember_state
 960              		.cfi_restore 84
 961              		.cfi_restore 85
 962              		.cfi_restore 82
 963              		.cfi_restore 83
 964              		.cfi_restore 80
 965              		.cfi_restore 81
 966              		.cfi_def_cfa_offset 32
 967 01f2 BDE8F883 		pop	{r3, r4, r5, r6, r7, r8, r9, pc}
 968              	.L22:
 969              	.LCFI16:
 970              		.cfi_restore_state
 114:Core/drogui/src/controlTasks.c ****         resetPid(&wroll_control, TIME);
 971              		.loc 1 114 9 is_stmt 1 view .LVU188
 114:Core/drogui/src/controlTasks.c ****         resetPid(&wroll_control, TIME);
 972              		.loc 1 114 27 is_stmt 0 view .LVU189
 973 01f6 C4ED008A 		vstr.32	s17, [r4]
 114:Core/drogui/src/controlTasks.c ****         resetPid(&wroll_control, TIME);
 974              		.loc 1 114 22 view .LVU190
 975 01fa C5ED008A 		vstr.32	s17, [r5]
 114:Core/drogui/src/controlTasks.c ****         resetPid(&wroll_control, TIME);
 976              		.loc 1 114 17 view .LVU191
 977 01fe C6ED008A 		vstr.32	s17, [r6]
 114:Core/drogui/src/controlTasks.c ****         resetPid(&wroll_control, TIME);
 978              		.loc 1 114 12 view .LVU192
 979 0202 C7ED008A 		vstr.32	s17, [r7]
 115:Core/drogui/src/controlTasks.c ****         resetPid(&wpitch_control, TIME);
 980              		.loc 1 115 9 is_stmt 1 view .LVU193
 115:Core/drogui/src/controlTasks.c ****         resetPid(&wpitch_control, TIME);
 981              		.loc 1 115 34 is_stmt 0 view .LVU194
 982 0206 144C     		ldr	r4, .L23+48
 983 0208 2368     		ldr	r3, [r4]
 984 020a 596A     		ldr	r1, [r3, #36]
 115:Core/drogui/src/controlTasks.c ****         resetPid(&wpitch_control, TIME);
 985              		.loc 1 115 9 view .LVU195
 986 020c 1E48     		ldr	r0, .L23+96
 987 020e FFF7FEFF 		bl	resetPid
 988              	.LVL90:
 116:Core/drogui/src/controlTasks.c ****         resetPid(&wyaw_control, TIME);
 989              		.loc 1 116 9 is_stmt 1 view .LVU196
 116:Core/drogui/src/controlTasks.c ****         resetPid(&wyaw_control, TIME);
 990              		.loc 1 116 35 is_stmt 0 view .LVU197
 991 0212 2368     		ldr	r3, [r4]
 992 0214 596A     		ldr	r1, [r3, #36]
 116:Core/drogui/src/controlTasks.c ****         resetPid(&wyaw_control, TIME);
 993              		.loc 1 116 9 view .LVU198
 994 0216 1348     		ldr	r0, .L23+60
 995 0218 FFF7FEFF 		bl	resetPid
 996              	.LVL91:
 117:Core/drogui/src/controlTasks.c ****     }
 997              		.loc 1 117 9 is_stmt 1 view .LVU199
 117:Core/drogui/src/controlTasks.c ****     }
 998              		.loc 1 117 33 is_stmt 0 view .LVU200
 999 021c 2368     		ldr	r3, [r4]
 1000 021e 596A     		ldr	r1, [r3, #36]
ARM GAS  C:\Users\GUILLE~1\AppData\Local\Temp\cckbgWnF.s 			page 24


 117:Core/drogui/src/controlTasks.c ****     }
 1001              		.loc 1 117 9 view .LVU201
 1002 0220 1248     		ldr	r0, .L23+68
 1003 0222 FFF7FEFF 		bl	resetPid
 1004              	.LVL92:
 124:Core/drogui/src/controlTasks.c **** 
 1005              		.loc 1 124 1 view .LVU202
 1006 0226 E2E7     		b	.L19
 1007              	.L24:
 1008              		.align	3
 1009              	.L23:
 1010 0228 00000000 		.word	0
 1011 022c 00005940 		.word	1079574528
 1012 0230 00000000 		.word	0
 1013 0234 000059C0 		.word	-1067909120
 1014 0238 00000000 		.word	.LANCHOR2
 1015 023c 00000000 		.word	gx
 1016 0240 00000000 		.word	.LANCHOR25
 1017 0244 00000000 		.word	.LANCHOR5
 1018 0248 00000000 		.word	gy
 1019 024c 00000000 		.word	.LANCHOR26
 1020 0250 00000000 		.word	.LANCHOR8
 1021 0254 00000000 		.word	gz
 1022 0258 00000000 		.word	htim5
 1023 025c 00000000 		.word	0
 1024 0260 00000000 		.word	.LANCHOR29
 1025 0264 00000000 		.word	.LANCHOR30
 1026 0268 00000000 		.word	.LANCHOR31
 1027 026c 00000000 		.word	.LANCHOR32
 1028 0270 00000000 		.word	.LANCHOR33
 1029 0274 00000000 		.word	.LANCHOR21
 1030 0278 00000000 		.word	.LANCHOR22
 1031 027c 00000000 		.word	.LANCHOR23
 1032 0280 00000000 		.word	.LANCHOR24
 1033 0284 00000000 		.word	security
 1034 0288 00000000 		.word	.LANCHOR28
 1035 028c 00000000 		.word	.LANCHOR27
 1036 0290 00000000 		.word	.LANCHOR17
 1037              		.cfi_endproc
 1038              	.LFE176:
 1040              		.section	.text.updatePID,"ax",%progbits
 1041              		.align	1
 1042              		.global	updatePID
 1043              		.syntax unified
 1044              		.thumb
 1045              		.thumb_func
 1046              		.fpu fpv5-sp-d16
 1048              	updatePID:
 1049              	.LFB175:
  35:Core/drogui/src/controlTasks.c ****     int index = getReg(PID_INDEX), var = getReg(PID_VAR);
 1050              		.loc 1 35 17 is_stmt 1 view -0
 1051              		.cfi_startproc
 1052              		@ args = 0, pretend = 0, frame = 0
 1053              		@ frame_needed = 0, uses_anonymous_args = 0
 1054 0000 10B5     		push	{r4, lr}
 1055              	.LCFI17:
 1056              		.cfi_def_cfa_offset 8
ARM GAS  C:\Users\GUILLE~1\AppData\Local\Temp\cckbgWnF.s 			page 25


 1057              		.cfi_offset 4, -8
 1058              		.cfi_offset 14, -4
  36:Core/drogui/src/controlTasks.c ****     if(index >= 0) {
 1059              		.loc 1 36 5 view .LVU204
  36:Core/drogui/src/controlTasks.c ****     if(index >= 0) {
 1060              		.loc 1 36 17 is_stmt 0 view .LVU205
 1061 0002 6220     		movs	r0, #98
 1062 0004 FFF7FEFF 		bl	getReg
 1063              	.LVL93:
  36:Core/drogui/src/controlTasks.c ****     if(index >= 0) {
 1064              		.loc 1 36 9 view .LVU206
 1065 0008 FDEEC07A 		vcvt.s32.f32	s15, s0
 1066 000c 17EE904A 		vmov	r4, s15	@ int
 1067              	.LVL94:
  36:Core/drogui/src/controlTasks.c ****     if(index >= 0) {
 1068              		.loc 1 36 42 view .LVU207
 1069 0010 6420     		movs	r0, #100
 1070 0012 FFF7FEFF 		bl	getReg
 1071              	.LVL95:
  37:Core/drogui/src/controlTasks.c ****         switch(var){
 1072              		.loc 1 37 5 is_stmt 1 view .LVU208
  37:Core/drogui/src/controlTasks.c ****         switch(var){
 1073              		.loc 1 37 7 is_stmt 0 view .LVU209
 1074 0016 002C     		cmp	r4, #0
 1075 0018 C0F29980 		blt	.L25
 1076 001c BDEEC00A 		vcvt.s32.f32	s0, s0
 1077              	.LVL96:
  38:Core/drogui/src/controlTasks.c **** 
 1078              		.loc 1 38 9 is_stmt 1 view .LVU210
 1079 0020 10EE103A 		vmov	r3, s0	@ int
 1080 0024 052B     		cmp	r3, #5
 1081 0026 7DD8     		bhi	.L27
 1082 0028 DFE803F0 		tbb	[pc, r3]
 1083              	.L29:
 1084 002c 03       		.byte	(.L32-.L29)/2
 1085 002d 26       		.byte	(.L31-.L29)/2
 1086 002e 49       		.byte	(.L30-.L29)/2
 1087 002f 7C       		.byte	(.L27-.L29)/2
 1088 0030 7C       		.byte	(.L27-.L29)/2
 1089 0031 6C       		.byte	(.L28-.L29)/2
 1090              		.p2align 1
 1091              	.L32:
  41:Core/drogui/src/controlTasks.c ****                     roll2w.kp[0] = getReg(ROLL_KP),  roll2w.ki[0] = getReg(ROLL_KI),  roll2w.kd[0] 
 1092              		.loc 1 41 17 view .LVU211
  41:Core/drogui/src/controlTasks.c ****                     roll2w.kp[0] = getReg(ROLL_KP),  roll2w.ki[0] = getReg(ROLL_KI),  roll2w.kd[0] 
 1093              		.loc 1 41 19 is_stmt 0 view .LVU212
 1094 0032 84B9     		cbnz	r4, .L33
  42:Core/drogui/src/controlTasks.c ****                 else
 1095              		.loc 1 42 21 is_stmt 1 view .LVU213
  42:Core/drogui/src/controlTasks.c ****                 else
 1096              		.loc 1 42 36 is_stmt 0 view .LVU214
 1097 0034 0A20     		movs	r0, #10
 1098 0036 FFF7FEFF 		bl	getReg
 1099              	.LVL97:
  42:Core/drogui/src/controlTasks.c ****                 else
 1100              		.loc 1 42 34 view .LVU215
 1101 003a 454C     		ldr	r4, .L37
ARM GAS  C:\Users\GUILLE~1\AppData\Local\Temp\cckbgWnF.s 			page 26


 1102              	.LVL98:
  42:Core/drogui/src/controlTasks.c ****                 else
 1103              		.loc 1 42 34 view .LVU216
 1104 003c 84ED000A 		vstr.32	s0, [r4]
  42:Core/drogui/src/controlTasks.c ****                 else
 1105              		.loc 1 42 69 view .LVU217
 1106 0040 0C20     		movs	r0, #12
 1107 0042 FFF7FEFF 		bl	getReg
 1108              	.LVL99:
  42:Core/drogui/src/controlTasks.c ****                 else
 1109              		.loc 1 42 67 view .LVU218
 1110 0046 84ED0A0A 		vstr.32	s0, [r4, #40]
  42:Core/drogui/src/controlTasks.c ****                 else
 1111              		.loc 1 42 102 view .LVU219
 1112 004a 0E20     		movs	r0, #14
 1113 004c FFF7FEFF 		bl	getReg
 1114              	.LVL100:
  42:Core/drogui/src/controlTasks.c ****                 else
 1115              		.loc 1 42 100 view .LVU220
 1116 0050 84ED050A 		vstr.32	s0, [r4, #20]
 1117 0054 66E0     		b	.L27
 1118              	.LVL101:
 1119              	.L33:
  44:Core/drogui/src/controlTasks.c **** 
 1120              		.loc 1 44 21 is_stmt 1 view .LVU221
  44:Core/drogui/src/controlTasks.c **** 
 1121              		.loc 1 44 43 is_stmt 0 view .LVU222
 1122 0056 0A20     		movs	r0, #10
 1123 0058 FFF7FEFF 		bl	getReg
 1124              	.LVL102:
  44:Core/drogui/src/controlTasks.c **** 
 1125              		.loc 1 44 41 view .LVU223
 1126 005c 3D4C     		ldr	r4, .L37+4
 1127              	.LVL103:
  44:Core/drogui/src/controlTasks.c **** 
 1128              		.loc 1 44 41 view .LVU224
 1129 005e 84ED000A 		vstr.32	s0, [r4]
  44:Core/drogui/src/controlTasks.c **** 
 1130              		.loc 1 44 83 view .LVU225
 1131 0062 0C20     		movs	r0, #12
 1132 0064 FFF7FEFF 		bl	getReg
 1133              	.LVL104:
  44:Core/drogui/src/controlTasks.c **** 
 1134              		.loc 1 44 81 view .LVU226
 1135 0068 84ED0A0A 		vstr.32	s0, [r4, #40]
  44:Core/drogui/src/controlTasks.c **** 
 1136              		.loc 1 44 123 view .LVU227
 1137 006c 0E20     		movs	r0, #14
 1138 006e FFF7FEFF 		bl	getReg
 1139              	.LVL105:
  44:Core/drogui/src/controlTasks.c **** 
 1140              		.loc 1 44 121 view .LVU228
 1141 0072 84ED050A 		vstr.32	s0, [r4, #20]
 1142 0076 55E0     		b	.L27
 1143              	.LVL106:
 1144              	.L31:
  49:Core/drogui/src/controlTasks.c ****                     pitch2w.kp[0] = getReg(PITCH_KP),  pitch2w.ki[0] = getReg(PITCH_KI),  pitch2w.k
ARM GAS  C:\Users\GUILLE~1\AppData\Local\Temp\cckbgWnF.s 			page 27


 1145              		.loc 1 49 17 is_stmt 1 view .LVU229
  49:Core/drogui/src/controlTasks.c ****                     pitch2w.kp[0] = getReg(PITCH_KP),  pitch2w.ki[0] = getReg(PITCH_KI),  pitch2w.k
 1146              		.loc 1 49 19 is_stmt 0 view .LVU230
 1147 0078 84B9     		cbnz	r4, .L34
  50:Core/drogui/src/controlTasks.c ****                 else
 1148              		.loc 1 50 21 is_stmt 1 view .LVU231
  50:Core/drogui/src/controlTasks.c ****                 else
 1149              		.loc 1 50 37 is_stmt 0 view .LVU232
 1150 007a 1020     		movs	r0, #16
 1151 007c FFF7FEFF 		bl	getReg
 1152              	.LVL107:
  50:Core/drogui/src/controlTasks.c ****                 else
 1153              		.loc 1 50 35 view .LVU233
 1154 0080 354C     		ldr	r4, .L37+8
 1155              	.LVL108:
  50:Core/drogui/src/controlTasks.c ****                 else
 1156              		.loc 1 50 35 view .LVU234
 1157 0082 84ED000A 		vstr.32	s0, [r4]
  50:Core/drogui/src/controlTasks.c ****                 else
 1158              		.loc 1 50 72 view .LVU235
 1159 0086 1220     		movs	r0, #18
 1160 0088 FFF7FEFF 		bl	getReg
 1161              	.LVL109:
  50:Core/drogui/src/controlTasks.c ****                 else
 1162              		.loc 1 50 70 view .LVU236
 1163 008c 84ED0A0A 		vstr.32	s0, [r4, #40]
  50:Core/drogui/src/controlTasks.c ****                 else
 1164              		.loc 1 50 107 view .LVU237
 1165 0090 1420     		movs	r0, #20
 1166 0092 FFF7FEFF 		bl	getReg
 1167              	.LVL110:
  50:Core/drogui/src/controlTasks.c ****                 else
 1168              		.loc 1 50 105 view .LVU238
 1169 0096 84ED050A 		vstr.32	s0, [r4, #20]
 1170 009a 43E0     		b	.L27
 1171              	.LVL111:
 1172              	.L34:
  52:Core/drogui/src/controlTasks.c **** 
 1173              		.loc 1 52 21 is_stmt 1 view .LVU239
  52:Core/drogui/src/controlTasks.c **** 
 1174              		.loc 1 52 44 is_stmt 0 view .LVU240
 1175 009c 1020     		movs	r0, #16
 1176 009e FFF7FEFF 		bl	getReg
 1177              	.LVL112:
  52:Core/drogui/src/controlTasks.c **** 
 1178              		.loc 1 52 42 view .LVU241
 1179 00a2 2E4C     		ldr	r4, .L37+12
 1180              	.LVL113:
  52:Core/drogui/src/controlTasks.c **** 
 1181              		.loc 1 52 42 view .LVU242
 1182 00a4 84ED000A 		vstr.32	s0, [r4]
  52:Core/drogui/src/controlTasks.c **** 
 1183              		.loc 1 52 86 view .LVU243
 1184 00a8 1220     		movs	r0, #18
 1185 00aa FFF7FEFF 		bl	getReg
 1186              	.LVL114:
  52:Core/drogui/src/controlTasks.c **** 
ARM GAS  C:\Users\GUILLE~1\AppData\Local\Temp\cckbgWnF.s 			page 28


 1187              		.loc 1 52 84 view .LVU244
 1188 00ae 84ED0A0A 		vstr.32	s0, [r4, #40]
  52:Core/drogui/src/controlTasks.c **** 
 1189              		.loc 1 52 128 view .LVU245
 1190 00b2 1420     		movs	r0, #20
 1191 00b4 FFF7FEFF 		bl	getReg
 1192              	.LVL115:
  52:Core/drogui/src/controlTasks.c **** 
 1193              		.loc 1 52 126 view .LVU246
 1194 00b8 84ED050A 		vstr.32	s0, [r4, #20]
 1195 00bc 32E0     		b	.L27
 1196              	.LVL116:
 1197              	.L30:
  57:Core/drogui/src/controlTasks.c ****                     yaw2w.kp[0] = getReg(YAW_KP),  yaw2w.ki[0] = getReg(YAW_KI),  yaw2w.kd[0] = get
 1198              		.loc 1 57 17 is_stmt 1 view .LVU247
  57:Core/drogui/src/controlTasks.c ****                     yaw2w.kp[0] = getReg(YAW_KP),  yaw2w.ki[0] = getReg(YAW_KI),  yaw2w.kd[0] = get
 1199              		.loc 1 57 19 is_stmt 0 view .LVU248
 1200 00be 84B9     		cbnz	r4, .L35
  58:Core/drogui/src/controlTasks.c ****                 else
 1201              		.loc 1 58 21 is_stmt 1 view .LVU249
  58:Core/drogui/src/controlTasks.c ****                 else
 1202              		.loc 1 58 35 is_stmt 0 view .LVU250
 1203 00c0 1620     		movs	r0, #22
 1204 00c2 FFF7FEFF 		bl	getReg
 1205              	.LVL117:
  58:Core/drogui/src/controlTasks.c ****                 else
 1206              		.loc 1 58 33 view .LVU251
 1207 00c6 264C     		ldr	r4, .L37+16
 1208              	.LVL118:
  58:Core/drogui/src/controlTasks.c ****                 else
 1209              		.loc 1 58 33 view .LVU252
 1210 00c8 84ED000A 		vstr.32	s0, [r4]
  58:Core/drogui/src/controlTasks.c ****                 else
 1211              		.loc 1 58 66 view .LVU253
 1212 00cc 1820     		movs	r0, #24
 1213 00ce FFF7FEFF 		bl	getReg
 1214              	.LVL119:
  58:Core/drogui/src/controlTasks.c ****                 else
 1215              		.loc 1 58 64 view .LVU254
 1216 00d2 84ED0A0A 		vstr.32	s0, [r4, #40]
  58:Core/drogui/src/controlTasks.c ****                 else
 1217              		.loc 1 58 97 view .LVU255
 1218 00d6 1A20     		movs	r0, #26
 1219 00d8 FFF7FEFF 		bl	getReg
 1220              	.LVL120:
  58:Core/drogui/src/controlTasks.c ****                 else
 1221              		.loc 1 58 95 view .LVU256
 1222 00dc 84ED050A 		vstr.32	s0, [r4, #20]
 1223 00e0 20E0     		b	.L27
 1224              	.LVL121:
 1225              	.L35:
  60:Core/drogui/src/controlTasks.c **** 
 1226              		.loc 1 60 21 is_stmt 1 view .LVU257
  60:Core/drogui/src/controlTasks.c **** 
 1227              		.loc 1 60 42 is_stmt 0 view .LVU258
 1228 00e2 1620     		movs	r0, #22
 1229 00e4 FFF7FEFF 		bl	getReg
ARM GAS  C:\Users\GUILLE~1\AppData\Local\Temp\cckbgWnF.s 			page 29


 1230              	.LVL122:
  60:Core/drogui/src/controlTasks.c **** 
 1231              		.loc 1 60 40 view .LVU259
 1232 00e8 1E4C     		ldr	r4, .L37+20
 1233              	.LVL123:
  60:Core/drogui/src/controlTasks.c **** 
 1234              		.loc 1 60 40 view .LVU260
 1235 00ea 84ED000A 		vstr.32	s0, [r4]
  60:Core/drogui/src/controlTasks.c **** 
 1236              		.loc 1 60 80 view .LVU261
 1237 00ee 1820     		movs	r0, #24
 1238 00f0 FFF7FEFF 		bl	getReg
 1239              	.LVL124:
  60:Core/drogui/src/controlTasks.c **** 
 1240              		.loc 1 60 78 view .LVU262
 1241 00f4 84ED0A0A 		vstr.32	s0, [r4, #40]
  60:Core/drogui/src/controlTasks.c **** 
 1242              		.loc 1 60 118 view .LVU263
 1243 00f8 1A20     		movs	r0, #26
 1244 00fa FFF7FEFF 		bl	getReg
 1245              	.LVL125:
  60:Core/drogui/src/controlTasks.c **** 
 1246              		.loc 1 60 116 view .LVU264
 1247 00fe 84ED050A 		vstr.32	s0, [r4, #20]
 1248 0102 0FE0     		b	.L27
 1249              	.LVL126:
 1250              	.L28:
  65:Core/drogui/src/controlTasks.c ****                 z_control.ki[0] = getReg(Z_KI);
 1251              		.loc 1 65 17 is_stmt 1 view .LVU265
  65:Core/drogui/src/controlTasks.c ****                 z_control.ki[0] = getReg(Z_KI);
 1252              		.loc 1 65 35 is_stmt 0 view .LVU266
 1253 0104 2820     		movs	r0, #40
 1254 0106 FFF7FEFF 		bl	getReg
 1255              	.LVL127:
  65:Core/drogui/src/controlTasks.c ****                 z_control.ki[0] = getReg(Z_KI);
 1256              		.loc 1 65 33 view .LVU267
 1257 010a 174C     		ldr	r4, .L37+24
 1258              	.LVL128:
  65:Core/drogui/src/controlTasks.c ****                 z_control.ki[0] = getReg(Z_KI);
 1259              		.loc 1 65 33 view .LVU268
 1260 010c 84ED000A 		vstr.32	s0, [r4]
  66:Core/drogui/src/controlTasks.c ****                 z_control.kd[0] = getReg(Z_KD);
 1261              		.loc 1 66 17 is_stmt 1 view .LVU269
  66:Core/drogui/src/controlTasks.c ****                 z_control.kd[0] = getReg(Z_KD);
 1262              		.loc 1 66 35 is_stmt 0 view .LVU270
 1263 0110 2A20     		movs	r0, #42
 1264 0112 FFF7FEFF 		bl	getReg
 1265              	.LVL129:
  66:Core/drogui/src/controlTasks.c ****                 z_control.kd[0] = getReg(Z_KD);
 1266              		.loc 1 66 33 view .LVU271
 1267 0116 84ED0A0A 		vstr.32	s0, [r4, #40]
  67:Core/drogui/src/controlTasks.c ****             break;
 1268              		.loc 1 67 17 is_stmt 1 view .LVU272
  67:Core/drogui/src/controlTasks.c ****             break;
 1269              		.loc 1 67 35 is_stmt 0 view .LVU273
 1270 011a 2C20     		movs	r0, #44
 1271 011c FFF7FEFF 		bl	getReg
ARM GAS  C:\Users\GUILLE~1\AppData\Local\Temp\cckbgWnF.s 			page 30


 1272              	.LVL130:
  67:Core/drogui/src/controlTasks.c ****             break;
 1273              		.loc 1 67 33 view .LVU274
 1274 0120 84ED050A 		vstr.32	s0, [r4, #20]
  68:Core/drogui/src/controlTasks.c ****         }
 1275              		.loc 1 68 13 is_stmt 1 view .LVU275
 1276              	.L27:
  70:Core/drogui/src/controlTasks.c ****     }
 1277              		.loc 1 70 9 view .LVU276
  70:Core/drogui/src/controlTasks.c ****     }
 1278              		.loc 1 70 126 is_stmt 0 view .LVU277
 1279 0124 9A20     		movs	r0, #154
 1280 0126 FFF7FEFF 		bl	getReg
 1281              	.LVL131:
  70:Core/drogui/src/controlTasks.c ****     }
 1282              		.loc 1 70 124 view .LVU278
 1283 012a 0E4B     		ldr	r3, .L37+20
 1284 012c 83ED260A 		vstr.32	s0, [r3, #152]
  70:Core/drogui/src/controlTasks.c ****     }
 1285              		.loc 1 70 102 view .LVU279
 1286 0130 0A4B     		ldr	r3, .L37+12
 1287 0132 83ED260A 		vstr.32	s0, [r3, #152]
  70:Core/drogui/src/controlTasks.c ****     }
 1288              		.loc 1 70 78 view .LVU280
 1289 0136 074B     		ldr	r3, .L37+4
 1290 0138 83ED260A 		vstr.32	s0, [r3, #152]
  70:Core/drogui/src/controlTasks.c ****     }
 1291              		.loc 1 70 55 view .LVU281
 1292 013c 084B     		ldr	r3, .L37+16
 1293 013e 83ED260A 		vstr.32	s0, [r3, #152]
  70:Core/drogui/src/controlTasks.c ****     }
 1294              		.loc 1 70 40 view .LVU282
 1295 0142 054B     		ldr	r3, .L37+8
 1296 0144 83ED260A 		vstr.32	s0, [r3, #152]
  70:Core/drogui/src/controlTasks.c ****     }
 1297              		.loc 1 70 23 view .LVU283
 1298 0148 014B     		ldr	r3, .L37
 1299 014a 83ED260A 		vstr.32	s0, [r3, #152]
 1300              	.L25:
  72:Core/drogui/src/controlTasks.c **** 
 1301              		.loc 1 72 1 view .LVU284
 1302 014e 10BD     		pop	{r4, pc}
 1303              	.L38:
 1304              		.align	2
 1305              	.L37:
 1306 0150 00000000 		.word	.LANCHOR1
 1307 0154 00000000 		.word	.LANCHOR28
 1308 0158 00000000 		.word	.LANCHOR4
 1309 015c 00000000 		.word	.LANCHOR30
 1310 0160 00000000 		.word	.LANCHOR7
 1311 0164 00000000 		.word	.LANCHOR32
 1312 0168 00000000 		.word	.LANCHOR15
 1313              		.cfi_endproc
 1314              	.LFE175:
 1316              		.section	.text.initControlTasks,"ax",%progbits
 1317              		.align	1
 1318              		.global	initControlTasks
ARM GAS  C:\Users\GUILLE~1\AppData\Local\Temp\cckbgWnF.s 			page 31


 1319              		.syntax unified
 1320              		.thumb
 1321              		.thumb_func
 1322              		.fpu fpv5-sp-d16
 1324              	initControlTasks:
 1325              	.LFB179:
 176:Core/drogui/src/controlTasks.c **** 
 177:Core/drogui/src/controlTasks.c **** 
 178:Core/drogui/src/controlTasks.c **** void initControlTasks(){
 1326              		.loc 1 178 24 is_stmt 1 view -0
 1327              		.cfi_startproc
 1328              		@ args = 0, pretend = 0, frame = 0
 1329              		@ frame_needed = 0, uses_anonymous_args = 0
 1330 0000 10B5     		push	{r4, lr}
 1331              	.LCFI18:
 1332              		.cfi_def_cfa_offset 8
 1333              		.cfi_offset 4, -8
 1334              		.cfi_offset 14, -4
 1335 0002 2DED048B 		vpush.64	{d8, d9}
 1336              	.LCFI19:
 1337              		.cfi_def_cfa_offset 24
 1338              		.cfi_offset 80, -24
 1339              		.cfi_offset 81, -20
 1340              		.cfi_offset 82, -16
 1341              		.cfi_offset 83, -12
 179:Core/drogui/src/controlTasks.c ****     /*initOneshot125(&m1, 5);
 180:Core/drogui/src/controlTasks.c ****     initOneshot125(&m2, 4);
 181:Core/drogui/src/controlTasks.c ****     initOneshot125(&m3, 3);
 182:Core/drogui/src/controlTasks.c ****     initOneshot125(&m4, 2);*/
 183:Core/drogui/src/controlTasks.c **** 
 184:Core/drogui/src/controlTasks.c ****     initPid(&z_control, 0, 0, 0, 0, 1 , 100000, 15, NORMAL);
 1342              		.loc 1 184 5 view .LVU286
 1343 0006 DFED698A 		vldr.32	s17, .L41
 1344 000a 9FED698A 		vldr.32	s16, .L41+4
 1345 000e 0022     		movs	r2, #0
 1346 0010 F2EE0E2A 		vmov.f32	s5, #1.5e+1
 1347 0014 B0EE682A 		vmov.f32	s4, s17
 1348 0018 F7EE001A 		vmov.f32	s3, #1.0e+0
 1349 001c 1146     		mov	r1, r2
 1350 001e B0EE481A 		vmov.f32	s2, s16
 1351 0022 F0EE480A 		vmov.f32	s1, s16
 1352 0026 B0EE480A 		vmov.f32	s0, s16
 1353 002a 6248     		ldr	r0, .L41+8
 1354 002c FFF7FEFF 		bl	initPid
 1355              	.LVL132:
 185:Core/drogui/src/controlTasks.c ****     initPid(&x_control, 0, 0, 0, 0, 1 , 100000, 0.09, NORMAL);
 1356              		.loc 1 185 5 view .LVU287
 1357 0030 9FED619A 		vldr.32	s18, .L41+12
 1358 0034 0022     		movs	r2, #0
 1359 0036 F0EE492A 		vmov.f32	s5, s18
 1360 003a B0EE682A 		vmov.f32	s4, s17
 1361 003e F7EE001A 		vmov.f32	s3, #1.0e+0
 1362 0042 1146     		mov	r1, r2
 1363 0044 B0EE481A 		vmov.f32	s2, s16
 1364 0048 F0EE480A 		vmov.f32	s1, s16
 1365 004c B0EE480A 		vmov.f32	s0, s16
 1366 0050 5A48     		ldr	r0, .L41+16
ARM GAS  C:\Users\GUILLE~1\AppData\Local\Temp\cckbgWnF.s 			page 32


 1367 0052 FFF7FEFF 		bl	initPid
 1368              	.LVL133:
 186:Core/drogui/src/controlTasks.c ****     initPid(&y_control, 0, 0, 0, 0, 1 , 100000,0.09, NORMAL);
 1369              		.loc 1 186 5 view .LVU288
 1370 0056 0022     		movs	r2, #0
 1371 0058 F0EE492A 		vmov.f32	s5, s18
 1372 005c B0EE682A 		vmov.f32	s4, s17
 1373 0060 F7EE001A 		vmov.f32	s3, #1.0e+0
 1374 0064 1146     		mov	r1, r2
 1375 0066 B0EE481A 		vmov.f32	s2, s16
 1376 006a F0EE480A 		vmov.f32	s1, s16
 1377 006e B0EE480A 		vmov.f32	s0, s16
 1378 0072 5348     		ldr	r0, .L41+20
 1379 0074 FFF7FEFF 		bl	initPid
 1380              	.LVL134:
 187:Core/drogui/src/controlTasks.c **** 
 188:Core/drogui/src/controlTasks.c ****     initPid(&roll2w, 0, 0, 0, TIME, 50, 1.57*0.5,80, (P2ID & D_INT));
 1381              		.loc 1 188 5 view .LVU289
 1382              		.loc 1 188 31 is_stmt 0 view .LVU290
 1383 0078 524C     		ldr	r4, .L41+24
 1384 007a 2368     		ldr	r3, [r4]
 1385 007c 596A     		ldr	r1, [r3, #36]
 1386              		.loc 1 188 5 view .LVU291
 1387 007e 9FED529A 		vldr.32	s18, .L41+28
 1388 0082 DFED529A 		vldr.32	s19, .L41+32
 1389 0086 DFED528A 		vldr.32	s17, .L41+36
 1390 008a 0022     		movs	r2, #0
 1391 008c F0EE492A 		vmov.f32	s5, s18
 1392 0090 B0EE692A 		vmov.f32	s4, s19
 1393 0094 F0EE681A 		vmov.f32	s3, s17
 1394 0098 B0EE481A 		vmov.f32	s2, s16
 1395 009c F0EE480A 		vmov.f32	s1, s16
 1396 00a0 B0EE480A 		vmov.f32	s0, s16
 1397 00a4 4B48     		ldr	r0, .L41+40
 1398 00a6 FFF7FEFF 		bl	initPid
 1399              	.LVL135:
 189:Core/drogui/src/controlTasks.c ****     initPid(&pitch2w, 0, 0, 0, TIME, 50, 1.57*0.5,80, (P2ID & D_INT));
 1400              		.loc 1 189 5 is_stmt 1 view .LVU292
 1401              		.loc 1 189 32 is_stmt 0 view .LVU293
 1402 00aa 2368     		ldr	r3, [r4]
 1403 00ac 596A     		ldr	r1, [r3, #36]
 1404              		.loc 1 189 5 view .LVU294
 1405 00ae 0022     		movs	r2, #0
 1406 00b0 F0EE492A 		vmov.f32	s5, s18
 1407 00b4 B0EE692A 		vmov.f32	s4, s19
 1408 00b8 F0EE681A 		vmov.f32	s3, s17
 1409 00bc B0EE481A 		vmov.f32	s2, s16
 1410 00c0 F0EE480A 		vmov.f32	s1, s16
 1411 00c4 B0EE480A 		vmov.f32	s0, s16
 1412 00c8 4348     		ldr	r0, .L41+44
 1413 00ca FFF7FEFF 		bl	initPid
 1414              	.LVL136:
 190:Core/drogui/src/controlTasks.c ****     initPid(&yaw2w, 0, 0, 0, TIME, 50, 1.57*0.5,80, (P2ID & D_INT));
 1415              		.loc 1 190 5 is_stmt 1 view .LVU295
 1416              		.loc 1 190 30 is_stmt 0 view .LVU296
 1417 00ce 2368     		ldr	r3, [r4]
 1418 00d0 596A     		ldr	r1, [r3, #36]
ARM GAS  C:\Users\GUILLE~1\AppData\Local\Temp\cckbgWnF.s 			page 33


 1419              		.loc 1 190 5 view .LVU297
 1420 00d2 0022     		movs	r2, #0
 1421 00d4 F0EE492A 		vmov.f32	s5, s18
 1422 00d8 B0EE692A 		vmov.f32	s4, s19
 1423 00dc F0EE681A 		vmov.f32	s3, s17
 1424 00e0 B0EE481A 		vmov.f32	s2, s16
 1425 00e4 F0EE480A 		vmov.f32	s1, s16
 1426 00e8 B0EE480A 		vmov.f32	s0, s16
 1427 00ec 3B48     		ldr	r0, .L41+48
 1428 00ee FFF7FEFF 		bl	initPid
 1429              	.LVL137:
 191:Core/drogui/src/controlTasks.c **** 
 192:Core/drogui/src/controlTasks.c ****     initPid(&wroll_control, 0, 0, 0, TIME, 50,  80, 3000, (P2ID & D_INT));
 1430              		.loc 1 192 5 is_stmt 1 view .LVU298
 1431              		.loc 1 192 38 is_stmt 0 view .LVU299
 1432 00f2 2368     		ldr	r3, [r4]
 1433 00f4 596A     		ldr	r1, [r3, #36]
 1434              		.loc 1 192 5 view .LVU300
 1435 00f6 DFED3A9A 		vldr.32	s19, .L41+52
 1436 00fa 0022     		movs	r2, #0
 1437 00fc F0EE692A 		vmov.f32	s5, s19
 1438 0100 B0EE492A 		vmov.f32	s4, s18
 1439 0104 F0EE681A 		vmov.f32	s3, s17
 1440 0108 B0EE481A 		vmov.f32	s2, s16
 1441 010c F0EE480A 		vmov.f32	s1, s16
 1442 0110 B0EE480A 		vmov.f32	s0, s16
 1443 0114 3348     		ldr	r0, .L41+56
 1444 0116 FFF7FEFF 		bl	initPid
 1445              	.LVL138:
 193:Core/drogui/src/controlTasks.c ****     initPid(&wpitch_control, 0, 0, 0, TIME, 50, 80, 3000, (P2ID & D_INT));
 1446              		.loc 1 193 5 is_stmt 1 view .LVU301
 1447              		.loc 1 193 39 is_stmt 0 view .LVU302
 1448 011a 2368     		ldr	r3, [r4]
 1449 011c 596A     		ldr	r1, [r3, #36]
 1450              		.loc 1 193 5 view .LVU303
 1451 011e 0022     		movs	r2, #0
 1452 0120 F0EE692A 		vmov.f32	s5, s19
 1453 0124 B0EE492A 		vmov.f32	s4, s18
 1454 0128 F0EE681A 		vmov.f32	s3, s17
 1455 012c B0EE481A 		vmov.f32	s2, s16
 1456 0130 F0EE480A 		vmov.f32	s1, s16
 1457 0134 B0EE480A 		vmov.f32	s0, s16
 1458 0138 2B48     		ldr	r0, .L41+60
 1459 013a FFF7FEFF 		bl	initPid
 1460              	.LVL139:
 194:Core/drogui/src/controlTasks.c ****     initPid(&wyaw_control, 0, 0, 0, TIME, 50, 80, 3000, (P2ID & D_INT));
 1461              		.loc 1 194 5 is_stmt 1 view .LVU304
 1462              		.loc 1 194 37 is_stmt 0 view .LVU305
 1463 013e 2368     		ldr	r3, [r4]
 1464 0140 596A     		ldr	r1, [r3, #36]
 1465              		.loc 1 194 5 view .LVU306
 1466 0142 0022     		movs	r2, #0
 1467 0144 F0EE692A 		vmov.f32	s5, s19
 1468 0148 B0EE492A 		vmov.f32	s4, s18
 1469 014c F0EE681A 		vmov.f32	s3, s17
 1470 0150 B0EE481A 		vmov.f32	s2, s16
 1471 0154 F0EE480A 		vmov.f32	s1, s16
ARM GAS  C:\Users\GUILLE~1\AppData\Local\Temp\cckbgWnF.s 			page 34


 1472 0158 B0EE480A 		vmov.f32	s0, s16
 1473 015c 2348     		ldr	r0, .L41+64
 1474 015e FFF7FEFF 		bl	initPid
 1475              	.LVL140:
 195:Core/drogui/src/controlTasks.c ****     
 196:Core/drogui/src/controlTasks.c ****     setReg(PID_INDEX, -1);
 1476              		.loc 1 196 5 is_stmt 1 view .LVU307
 1477 0162 BFEE000A 		vmov.f32	s0, #-1.0e+0
 1478 0166 6220     		movs	r0, #98
 1479 0168 FFF7FEFF 		bl	setReg
 1480              	.LVL141:
 197:Core/drogui/src/controlTasks.c ****     setReg(PID_VAR, -1);
 1481              		.loc 1 197 5 view .LVU308
 1482 016c BFEE000A 		vmov.f32	s0, #-1.0e+0
 1483 0170 6420     		movs	r0, #100
 1484 0172 FFF7FEFF 		bl	setReg
 1485              	.LVL142:
 198:Core/drogui/src/controlTasks.c ****     setReg(N_FILTER, 50);
 1486              		.loc 1 198 5 view .LVU309
 1487 0176 B0EE680A 		vmov.f32	s0, s17
 1488 017a 9A20     		movs	r0, #154
 1489 017c FFF7FEFF 		bl	setReg
 1490              	.LVL143:
 199:Core/drogui/src/controlTasks.c ****     addTask(&wControlTask, 1000, 1);
 1491              		.loc 1 199 5 view .LVU310
 1492 0180 0122     		movs	r2, #1
 1493 0182 4FF47A71 		mov	r1, #1000
 1494 0186 1A48     		ldr	r0, .L41+68
 1495 0188 FFF7FEFF 		bl	addTask
 1496              	.LVL144:
 200:Core/drogui/src/controlTasks.c ****     addTask(&rpyControlTask, 2000, 1);
 1497              		.loc 1 200 5 view .LVU311
 1498 018c 0122     		movs	r2, #1
 1499 018e 4FF4FA61 		mov	r1, #2000
 1500 0192 1848     		ldr	r0, .L41+72
 1501 0194 FFF7FEFF 		bl	addTask
 1502              	.LVL145:
 201:Core/drogui/src/controlTasks.c ****     addTask(&xyzControlTask, 10000, 1);
 1503              		.loc 1 201 5 view .LVU312
 1504 0198 0122     		movs	r2, #1
 1505 019a 42F21071 		movw	r1, #10000
 1506 019e 1648     		ldr	r0, .L41+76
 1507 01a0 FFF7FEFF 		bl	addTask
 1508              	.LVL146:
 202:Core/drogui/src/controlTasks.c **** }
 1509              		.loc 1 202 1 is_stmt 0 view .LVU313
 1510 01a4 BDEC048B 		vldm	sp!, {d8-d9}
 1511              	.LCFI20:
 1512              		.cfi_restore 82
 1513              		.cfi_restore 83
 1514              		.cfi_restore 80
 1515              		.cfi_restore 81
 1516              		.cfi_def_cfa_offset 8
 1517 01a8 10BD     		pop	{r4, pc}
 1518              	.L42:
 1519 01aa 00BF     		.align	2
 1520              	.L41:
ARM GAS  C:\Users\GUILLE~1\AppData\Local\Temp\cckbgWnF.s 			page 35


 1521 01ac 0050C347 		.word	1203982336
 1522 01b0 00000000 		.word	0
 1523 01b4 00000000 		.word	.LANCHOR15
 1524 01b8 EC51B83D 		.word	1035489772
 1525 01bc 00000000 		.word	.LANCHOR10
 1526 01c0 00000000 		.word	.LANCHOR12
 1527 01c4 00000000 		.word	htim5
 1528 01c8 0000A042 		.word	1117782016
 1529 01cc C3F5483F 		.word	1061746115
 1530 01d0 00004842 		.word	1112014848
 1531 01d4 00000000 		.word	.LANCHOR1
 1532 01d8 00000000 		.word	.LANCHOR4
 1533 01dc 00000000 		.word	.LANCHOR7
 1534 01e0 00803B45 		.word	1161527296
 1535 01e4 00000000 		.word	.LANCHOR28
 1536 01e8 00000000 		.word	.LANCHOR30
 1537 01ec 00000000 		.word	.LANCHOR32
 1538 01f0 00000000 		.word	wControlTask
 1539 01f4 00000000 		.word	rpyControlTask
 1540 01f8 00000000 		.word	xyzControlTask
 1541              		.cfi_endproc
 1542              	.LFE179:
 1544              		.global	wyaw_err
 1545              		.global	wpitch_err
 1546              		.global	wroll_err
 1547              		.global	z_ref
 1548              		.global	y_ref
 1549              		.global	x_ref
 1550              		.global	yaw_ref
 1551              		.global	pitch_ref
 1552              		.global	roll_ref
 1553              		.global	wyaw_ref
 1554              		.global	wpitch_ref
 1555              		.global	wroll_ref
 1556              		.global	z_off
 1557              		.global	y_off
 1558              		.global	x_off
 1559              		.global	yaw_off
 1560              		.global	pitch_off
 1561              		.global	roll_off
 1562              		.global	M4
 1563              		.global	M3
 1564              		.global	M2
 1565              		.global	M1
 1566              		.global	P_MAX
 1567              		.global	R_MAX
 1568              		.global	Y_C
 1569              		.global	X_C
 1570              		.global	H_ref
 1571              		.global	Y
 1572              		.global	P
 1573              		.global	R
 1574              		.global	H_comp
 1575              		.global	H
 1576              		.global	y_control
 1577              		.global	x_control
 1578              		.global	z_control
ARM GAS  C:\Users\GUILLE~1\AppData\Local\Temp\cckbgWnF.s 			page 36


 1579              		.global	wyaw_control
 1580              		.global	wpitch_control
 1581              		.global	wroll_control
 1582              		.global	yaw2w
 1583              		.global	pitch2w
 1584              		.global	roll2w
 1585              		.section	.bss.H,"aw",%nobits
 1586              		.align	2
 1587              		.set	.LANCHOR9,. + 0
 1590              	H:
 1591 0000 00000000 		.space	4
 1592              		.section	.bss.H_comp,"aw",%nobits
 1593              		.align	2
 1594              		.set	.LANCHOR17,. + 0
 1597              	H_comp:
 1598 0000 00000000 		.space	4
 1599              		.section	.bss.H_ref,"aw",%nobits
 1600              		.align	2
 1601              		.set	.LANCHOR16,. + 0
 1604              	H_ref:
 1605 0000 00000000 		.space	4
 1606              		.section	.bss.M1,"aw",%nobits
 1607              		.align	2
 1608              		.set	.LANCHOR21,. + 0
 1611              	M1:
 1612 0000 00000000 		.space	4
 1613              		.section	.bss.M2,"aw",%nobits
 1614              		.align	2
 1615              		.set	.LANCHOR22,. + 0
 1618              	M2:
 1619 0000 00000000 		.space	4
 1620              		.section	.bss.M3,"aw",%nobits
 1621              		.align	2
 1622              		.set	.LANCHOR23,. + 0
 1625              	M3:
 1626 0000 00000000 		.space	4
 1627              		.section	.bss.M4,"aw",%nobits
 1628              		.align	2
 1629              		.set	.LANCHOR24,. + 0
 1632              	M4:
 1633 0000 00000000 		.space	4
 1634              		.section	.bss.P,"aw",%nobits
 1635              		.align	2
 1636              		.set	.LANCHOR31,. + 0
 1639              	P:
 1640 0000 00000000 		.space	4
 1641              		.section	.bss.R,"aw",%nobits
 1642              		.align	2
 1643              		.set	.LANCHOR29,. + 0
 1646              	R:
 1647 0000 00000000 		.space	4
 1648              		.section	.bss.X_C,"aw",%nobits
 1649              		.align	2
 1650              		.set	.LANCHOR11,. + 0
 1653              	X_C:
 1654 0000 00000000 		.space	4
 1655              		.section	.bss.Y,"aw",%nobits
ARM GAS  C:\Users\GUILLE~1\AppData\Local\Temp\cckbgWnF.s 			page 37


 1656              		.align	2
 1657              		.set	.LANCHOR33,. + 0
 1660              	Y:
 1661 0000 00000000 		.space	4
 1662              		.section	.bss.Y_C,"aw",%nobits
 1663              		.align	2
 1664              		.set	.LANCHOR13,. + 0
 1667              	Y_C:
 1668 0000 00000000 		.space	4
 1669              		.section	.bss.pitch2w,"aw",%nobits
 1670              		.align	2
 1671              		.set	.LANCHOR4,. + 0
 1674              	pitch2w:
 1675 0000 00000000 		.space	156
 1675      00000000 
 1675      00000000 
 1675      00000000 
 1675      00000000 
 1676              		.section	.bss.pitch_off,"aw",%nobits
 1677              		.align	2
 1678              		.set	.LANCHOR19,. + 0
 1681              	pitch_off:
 1682 0000 00000000 		.space	4
 1683              		.section	.bss.pitch_ref,"aw",%nobits
 1684              		.align	2
 1685              		.set	.LANCHOR3,. + 0
 1688              	pitch_ref:
 1689 0000 00000000 		.space	4
 1690              		.section	.bss.roll2w,"aw",%nobits
 1691              		.align	2
 1692              		.set	.LANCHOR1,. + 0
 1695              	roll2w:
 1696 0000 00000000 		.space	156
 1696      00000000 
 1696      00000000 
 1696      00000000 
 1696      00000000 
 1697              		.section	.bss.roll_off,"aw",%nobits
 1698              		.align	2
 1699              		.set	.LANCHOR18,. + 0
 1702              	roll_off:
 1703 0000 00000000 		.space	4
 1704              		.section	.bss.roll_ref,"aw",%nobits
 1705              		.align	2
 1706              		.set	.LANCHOR0,. + 0
 1709              	roll_ref:
 1710 0000 00000000 		.space	4
 1711              		.section	.bss.wpitch_control,"aw",%nobits
 1712              		.align	2
 1713              		.set	.LANCHOR30,. + 0
 1716              	wpitch_control:
 1717 0000 00000000 		.space	156
 1717      00000000 
 1717      00000000 
 1717      00000000 
 1717      00000000 
 1718              		.section	.bss.wpitch_err,"aw",%nobits
ARM GAS  C:\Users\GUILLE~1\AppData\Local\Temp\cckbgWnF.s 			page 38


 1719              		.align	2
 1720              		.set	.LANCHOR26,. + 0
 1723              	wpitch_err:
 1724 0000 00000000 		.space	4
 1725              		.section	.bss.wpitch_ref,"aw",%nobits
 1726              		.align	2
 1727              		.set	.LANCHOR5,. + 0
 1730              	wpitch_ref:
 1731 0000 00000000 		.space	4
 1732              		.section	.bss.wroll_control,"aw",%nobits
 1733              		.align	2
 1734              		.set	.LANCHOR28,. + 0
 1737              	wroll_control:
 1738 0000 00000000 		.space	156
 1738      00000000 
 1738      00000000 
 1738      00000000 
 1738      00000000 
 1739              		.section	.bss.wroll_err,"aw",%nobits
 1740              		.align	2
 1741              		.set	.LANCHOR25,. + 0
 1744              	wroll_err:
 1745 0000 00000000 		.space	4
 1746              		.section	.bss.wroll_ref,"aw",%nobits
 1747              		.align	2
 1748              		.set	.LANCHOR2,. + 0
 1751              	wroll_ref:
 1752 0000 00000000 		.space	4
 1753              		.section	.bss.wyaw_control,"aw",%nobits
 1754              		.align	2
 1755              		.set	.LANCHOR32,. + 0
 1758              	wyaw_control:
 1759 0000 00000000 		.space	156
 1759      00000000 
 1759      00000000 
 1759      00000000 
 1759      00000000 
 1760              		.section	.bss.wyaw_err,"aw",%nobits
 1761              		.align	2
 1762              		.set	.LANCHOR27,. + 0
 1765              	wyaw_err:
 1766 0000 00000000 		.space	4
 1767              		.section	.bss.wyaw_ref,"aw",%nobits
 1768              		.align	2
 1769              		.set	.LANCHOR8,. + 0
 1772              	wyaw_ref:
 1773 0000 00000000 		.space	4
 1774              		.section	.bss.x_control,"aw",%nobits
 1775              		.align	2
 1776              		.set	.LANCHOR10,. + 0
 1779              	x_control:
 1780 0000 00000000 		.space	156
 1780      00000000 
 1780      00000000 
 1780      00000000 
 1780      00000000 
 1781              		.section	.bss.x_off,"aw",%nobits
ARM GAS  C:\Users\GUILLE~1\AppData\Local\Temp\cckbgWnF.s 			page 39


 1782              		.align	2
 1785              	x_off:
 1786 0000 00000000 		.space	4
 1787              		.section	.bss.x_ref,"aw",%nobits
 1788              		.align	2
 1791              	x_ref:
 1792 0000 00000000 		.space	4
 1793              		.section	.bss.y_control,"aw",%nobits
 1794              		.align	2
 1795              		.set	.LANCHOR12,. + 0
 1798              	y_control:
 1799 0000 00000000 		.space	156
 1799      00000000 
 1799      00000000 
 1799      00000000 
 1799      00000000 
 1800              		.section	.bss.y_off,"aw",%nobits
 1801              		.align	2
 1804              	y_off:
 1805 0000 00000000 		.space	4
 1806              		.section	.bss.y_ref,"aw",%nobits
 1807              		.align	2
 1810              	y_ref:
 1811 0000 00000000 		.space	4
 1812              		.section	.bss.yaw2w,"aw",%nobits
 1813              		.align	2
 1814              		.set	.LANCHOR7,. + 0
 1817              	yaw2w:
 1818 0000 00000000 		.space	156
 1818      00000000 
 1818      00000000 
 1818      00000000 
 1818      00000000 
 1819              		.section	.bss.yaw_off,"aw",%nobits
 1820              		.align	2
 1821              		.set	.LANCHOR20,. + 0
 1824              	yaw_off:
 1825 0000 00000000 		.space	4
 1826              		.section	.bss.yaw_ref,"aw",%nobits
 1827              		.align	2
 1828              		.set	.LANCHOR6,. + 0
 1831              	yaw_ref:
 1832 0000 00000000 		.space	4
 1833              		.section	.bss.z_control,"aw",%nobits
 1834              		.align	2
 1835              		.set	.LANCHOR15,. + 0
 1838              	z_control:
 1839 0000 00000000 		.space	156
 1839      00000000 
 1839      00000000 
 1839      00000000 
 1839      00000000 
 1840              		.section	.bss.z_off,"aw",%nobits
 1841              		.align	2
 1844              	z_off:
 1845 0000 00000000 		.space	4
 1846              		.section	.bss.z_ref,"aw",%nobits
ARM GAS  C:\Users\GUILLE~1\AppData\Local\Temp\cckbgWnF.s 			page 40


 1847              		.align	2
 1848              		.set	.LANCHOR14,. + 0
 1851              	z_ref:
 1852 0000 00000000 		.space	4
 1853              		.section	.data.P_MAX,"aw"
 1854              		.align	2
 1857              	P_MAX:
 1858 0000 143A123E 		.word	1041381908
 1859              		.section	.data.R_MAX,"aw"
 1860              		.align	2
 1863              	R_MAX:
 1864 0000 143A123E 		.word	1041381908
 1865              		.text
 1866              	.Letext0:
 1867              		.file 2 "c:\\program files (x86)\\gnu arm embedded toolchain\\10 2020-q4-major\\arm-none-eabi\\inc
 1868              		.file 3 "c:\\program files (x86)\\gnu arm embedded toolchain\\10 2020-q4-major\\arm-none-eabi\\inc
 1869              		.file 4 "Drivers/CMSIS/Device/ST/STM32F7xx/Include/stm32f746xx.h"
 1870              		.file 5 "Drivers/STM32F7xx_HAL_Driver/Inc/stm32f7xx_hal_def.h"
 1871              		.file 6 "Drivers/STM32F7xx_HAL_Driver/Inc/stm32f7xx_hal_dma.h"
 1872              		.file 7 "Drivers/STM32F7xx_HAL_Driver/Inc/stm32f7xx_hal_tim.h"
 1873              		.file 8 "Drivers/CMSIS/DSP/Include/arm_math.h"
 1874              		.file 9 "Core/drogui/include/filter.h"
 1875              		.file 10 "Core/drogui/include/control.h"
 1876              		.file 11 "Core/drogui/include/registerMap.h"
 1877              		.file 12 "Core/drogui/include/utils.h"
 1878              		.file 13 "Core/drogui/include/sensorsTasks.h"
 1879              		.file 14 "Core/drogui/include/controlTasks.h"
 1880              		.file 15 "Core/Inc/tim.h"
 1881              		.file 16 "Core/drogui/include/task.h"
 1882              		.file 17 "c:\\program files (x86)\\gnu arm embedded toolchain\\10 2020-q4-major\\arm-none-eabi\\in
ARM GAS  C:\Users\GUILLE~1\AppData\Local\Temp\cckbgWnF.s 			page 41

