ARM GAS  C:\Users\USUARIO\AppData\Local\Temp\cc33HxZm.s 			page 1


   1              		.cpu cortex-m7
   2              		.eabi_attribute 27, 1
   3              		.eabi_attribute 28, 1
   4              		.eabi_attribute 20, 1
   5              		.eabi_attribute 21, 1
   6              		.eabi_attribute 23, 3
   7              		.eabi_attribute 24, 1
   8              		.eabi_attribute 25, 1
   9              		.eabi_attribute 26, 1
  10              		.eabi_attribute 30, 1
  11              		.eabi_attribute 34, 1
  12              		.eabi_attribute 18, 4
  13              		.file	"control.c"
  14              		.text
  15              	.Ltext0:
  16              		.cfi_sections	.debug_frame
  17              		.section	.rodata.computePid.str1.4,"aMS",%progbits,1
  18              		.align	2
  19              	.LC0:
  20 0000 456E7472 		.ascii	"Entre \012\000"
  20      65200A00 
  21              		.global	__aeabi_ui2d
  22              		.global	__aeabi_ddiv
  23              		.global	__aeabi_d2f
  24              		.global	__aeabi_f2d
  25              		.global	__aeabi_dmul
  26              		.global	__aeabi_dadd
  27              		.global	__aeabi_dcmpgt
  28              		.align	2
  29              	.LC1:
  30 0008 6C617720 		.ascii	"law u %f\011%f\011%f\011%f\012\000"
  30      75202566 
  30      09256609 
  30      25660925 
  30      660A00
  31 001b 00       		.align	2
  32              	.LC2:
  33 001c 6C617720 		.ascii	"law u %f\012\000"
  33      75202566 
  33      0A00
  34              		.section	.text.computePid,"ax",%progbits
  35              		.align	1
  36              		.global	computePid
  37              		.arch armv7e-m
  38              		.syntax unified
  39              		.thumb
  40              		.thumb_func
  41              		.fpu fpv5-sp-d16
  43              	computePid:
  44              	.LVL0:
  45              	.LFB177:
  46              		.file 1 "Core/drogui/src/control.c"
   1:Core/drogui/src/control.c **** #include "control.h"
   2:Core/drogui/src/control.c **** #include <math.h>
   3:Core/drogui/src/control.c **** #include "usart.h"
   4:Core/drogui/src/control.c **** #include <stdio.h>
   5:Core/drogui/src/control.c **** #include <string.h>
ARM GAS  C:\Users\USUARIO\AppData\Local\Temp\cc33HxZm.s 			page 2


   6:Core/drogui/src/control.c **** char buffct[50]="";
   7:Core/drogui/src/control.c **** 
   8:Core/drogui/src/control.c **** float computePid(pid* p, float error, uint32_t t, float h){
  47              		.loc 1 8 59 view -0
  48              		.cfi_startproc
  49              		@ args = 0, pretend = 0, frame = 0
  50              		@ frame_needed = 0, uses_anonymous_args = 0
  51              		.loc 1 8 59 is_stmt 0 view .LVU1
  52 0000 2DE9F04F 		push	{r4, r5, r6, r7, r8, r9, r10, fp, lr}
  53              	.LCFI0:
  54              		.cfi_def_cfa_offset 36
  55              		.cfi_offset 4, -36
  56              		.cfi_offset 5, -32
  57              		.cfi_offset 6, -28
  58              		.cfi_offset 7, -24
  59              		.cfi_offset 8, -20
  60              		.cfi_offset 9, -16
  61              		.cfi_offset 10, -12
  62              		.cfi_offset 11, -8
  63              		.cfi_offset 14, -4
  64 0004 2DED068B 		vpush.64	{d8, d9, d10}
  65              	.LCFI1:
  66              		.cfi_def_cfa_offset 60
  67              		.cfi_offset 80, -60
  68              		.cfi_offset 81, -56
  69              		.cfi_offset 82, -52
  70              		.cfi_offset 83, -48
  71              		.cfi_offset 84, -44
  72              		.cfi_offset 85, -40
  73 0008 87B0     		sub	sp, sp, #28
  74              	.LCFI2:
  75              		.cfi_def_cfa_offset 88
  76 000a 8246     		mov	r10, r0
  77 000c B0EE408A 		vmov.f32	s16, s0
  78 0010 0D46     		mov	r5, r1
  79 0012 B0EE60AA 		vmov.f32	s20, s1
   9:Core/drogui/src/control.c ****     
  10:Core/drogui/src/control.c ****     float kp = 1, kd = 1, ki = 1;
  80              		.loc 1 10 5 is_stmt 1 view .LVU2
  81              	.LVL1:
  11:Core/drogui/src/control.c **** 
  12:Core/drogui/src/control.c ****     sprintf(buffct, "Entre \n");
  82              		.loc 1 12 5 view .LVU3
  83 0016 DA4C     		ldr	r4, .L37+16
  84 0018 DA4B     		ldr	r3, .L37+20
  85 001a 93E80300 		ldm	r3, {r0, r1}
  86              	.LVL2:
  87              		.loc 1 12 5 is_stmt 0 view .LVU4
  88 001e 84E80300 		stm	r4, {r0, r1}
  13:Core/drogui/src/control.c ****     HAL_UART_Transmit(&huart2, (uint8_t*) buffct, strlen(buffct), 100);
  89              		.loc 1 13 5 is_stmt 1 view .LVU5
  90              		.loc 1 13 51 is_stmt 0 view .LVU6
  91 0022 2046     		mov	r0, r4
  92 0024 FFF7FEFF 		bl	strlen
  93              	.LVL3:
  94              		.loc 1 13 5 view .LVU7
  95 0028 6423     		movs	r3, #100
ARM GAS  C:\Users\USUARIO\AppData\Local\Temp\cc33HxZm.s 			page 3


  96 002a 82B2     		uxth	r2, r0
  97 002c 2146     		mov	r1, r4
  98 002e D648     		ldr	r0, .L37+24
  99 0030 FFF7FEFF 		bl	HAL_UART_Transmit
 100              	.LVL4:
  14:Core/drogui/src/control.c **** 
  15:Core/drogui/src/control.c ****     p->dt = (t - p->tant)/1000000.0;
 101              		.loc 1 15 5 is_stmt 1 view .LVU8
 102              		.loc 1 15 19 is_stmt 0 view .LVU9
 103 0034 DAF87000 		ldr	r0, [r10, #112]
 104              		.loc 1 15 26 view .LVU10
 105 0038 281A     		subs	r0, r5, r0
 106 003a FFF7FEFF 		bl	__aeabi_ui2d
 107              	.LVL5:
 108 003e CCA3     		adr	r3, .L37
 109 0040 D3E90023 		ldrd	r2, [r3]
 110 0044 FFF7FEFF 		bl	__aeabi_ddiv
 111              	.LVL6:
 112 0048 FFF7FEFF 		bl	__aeabi_d2f
 113              	.LVL7:
 114 004c 0446     		mov	r4, r0	@ float
 115              		.loc 1 15 11 view .LVU11
 116 004e CAF87C00 		str	r0, [r10, #124]	@ float
  16:Core/drogui/src/control.c ****     p->tant = t;
 117              		.loc 1 16 5 is_stmt 1 view .LVU12
 118              		.loc 1 16 13 is_stmt 0 view .LVU13
 119 0052 CAF87050 		str	r5, [r10, #112]
  17:Core/drogui/src/control.c ****     p->erri = fmax(fmin(p->erri + 0.5*(error+p->err_ant1)*p->dt,p->isat),-p->isat);
 120              		.loc 1 17 5 is_stmt 1 view .LVU14
 121              		.loc 1 17 26 is_stmt 0 view .LVU15
 122 0056 DAF85000 		ldr	r0, [r10, #80]	@ float
 123 005a FFF7FEFF 		bl	__aeabi_f2d
 124              	.LVL8:
 125 005e 0646     		mov	r6, r0
 126 0060 0F46     		mov	r7, r1
 127              		.loc 1 17 47 view .LVU16
 128 0062 DAED168A 		vldr.32	s17, [r10, #88]
 129              		.loc 1 17 45 view .LVU17
 130 0066 78EE887A 		vadd.f32	s15, s17, s16
 131 006a 17EE900A 		vmov	r0, s15
 132 006e FFF7FEFF 		bl	__aeabi_f2d
 133              	.LVL9:
 134              		.loc 1 17 38 view .LVU18
 135 0072 0022     		movs	r2, #0
 136 0074 C54B     		ldr	r3, .L37+28
 137 0076 FFF7FEFF 		bl	__aeabi_dmul
 138              	.LVL10:
 139 007a 8046     		mov	r8, r0
 140 007c 8946     		mov	r9, r1
 141              		.loc 1 17 60 view .LVU19
 142 007e 2046     		mov	r0, r4	@ float
 143 0080 FFF7FEFF 		bl	__aeabi_f2d
 144              	.LVL11:
 145 0084 0446     		mov	r4, r0
 146 0086 0D46     		mov	r5, r1
 147              	.LVL12:
 148              		.loc 1 17 58 view .LVU20
ARM GAS  C:\Users\USUARIO\AppData\Local\Temp\cc33HxZm.s 			page 4


 149 0088 0246     		mov	r2, r0
 150 008a 0B46     		mov	r3, r1
 151 008c 4046     		mov	r0, r8
 152 008e 4946     		mov	r1, r9
 153 0090 FFF7FEFF 		bl	__aeabi_dmul
 154              	.LVL13:
 155 0094 8046     		mov	r8, r0
 156 0096 8946     		mov	r9, r1
 157              		.loc 1 17 66 view .LVU21
 158 0098 DAF874B0 		ldr	fp, [r10, #116]	@ float
 159              		.loc 1 17 15 view .LVU22
 160 009c 5846     		mov	r0, fp	@ float
 161 009e FFF7FEFF 		bl	__aeabi_f2d
 162              	.LVL14:
 163 00a2 41EC190B 		vmov	d9, r0, r1
 164 00a6 4246     		mov	r2, r8
 165 00a8 4B46     		mov	r3, r9
 166 00aa 3046     		mov	r0, r6
 167 00ac 3946     		mov	r1, r7
 168 00ae FFF7FEFF 		bl	__aeabi_dadd
 169              	.LVL15:
 170 00b2 B0EE491A 		vmov.f32	s2, s18
 171 00b6 F0EE691A 		vmov.f32	s3, s19
 172 00ba 41EC100B 		vmov	d0, r0, r1
 173 00be FFF7FEFF 		bl	fmin
 174              	.LVL16:
 175 00c2 B0EE409A 		vmov.f32	s18, s0
 176 00c6 F0EE609A 		vmov.f32	s19, s1
 177 00ca 8BF00040 		eor	r0, fp, #-2147483648
 178 00ce FFF7FEFF 		bl	__aeabi_f2d
 179              	.LVL17:
 180 00d2 41EC110B 		vmov	d1, r0, r1
 181 00d6 B0EE490A 		vmov.f32	s0, s18
 182 00da F0EE690A 		vmov.f32	s1, s19
 183 00de FFF7FEFF 		bl	fmax
 184              	.LVL18:
 185 00e2 51EC100B 		vmov	r0, r1, d0
 186 00e6 FFF7FEFF 		bl	__aeabi_d2f
 187              	.LVL19:
 188              		.loc 1 17 13 view .LVU23
 189 00ea CAF85000 		str	r0, [r10, #80]	@ float
  18:Core/drogui/src/control.c ****     
  19:Core/drogui/src/control.c ****     //if( !( (error*p->u_ant > 0)  && abs(p->u_ant) == p-> osat)  ) 
  20:Core/drogui/src/control.c ****     //    p->erri += 0.5*(error+p->err_ant1)*p->dt;
  21:Core/drogui/src/control.c ****     //p->errd = errord;
  22:Core/drogui/src/control.c ****     p->errd = (error - p->err_ant1)/(p->dt + 0.00000000001);
 190              		.loc 1 22 5 is_stmt 1 view .LVU24
 191              		.loc 1 22 22 is_stmt 0 view .LVU25
 192 00ee 78EE687A 		vsub.f32	s15, s16, s17
 193 00f2 17EE900A 		vmov	r0, s15
 194 00f6 FFF7FEFF 		bl	__aeabi_f2d
 195              	.LVL20:
 196 00fa 0646     		mov	r6, r0
 197 00fc 0F46     		mov	r7, r1
 198              		.loc 1 22 44 view .LVU26
 199 00fe 9EA3     		adr	r3, .L37+8
 200 0100 D3E90023 		ldrd	r2, [r3]
ARM GAS  C:\Users\USUARIO\AppData\Local\Temp\cc33HxZm.s 			page 5


 201 0104 2046     		mov	r0, r4
 202 0106 2946     		mov	r1, r5
 203 0108 FFF7FEFF 		bl	__aeabi_dadd
 204              	.LVL21:
 205 010c 0246     		mov	r2, r0
 206 010e 0B46     		mov	r3, r1
 207              		.loc 1 22 36 view .LVU27
 208 0110 3046     		mov	r0, r6
 209 0112 3946     		mov	r1, r7
 210 0114 FFF7FEFF 		bl	__aeabi_ddiv
 211              	.LVL22:
 212 0118 FFF7FEFF 		bl	__aeabi_d2f
 213              	.LVL23:
 214              		.loc 1 22 13 view .LVU28
 215 011c CAF85C00 		str	r0, [r10, #92]	@ float
  23:Core/drogui/src/control.c ****     
  24:Core/drogui/src/control.c ****     p->err_ant2 = p->err_ant1;
 216              		.loc 1 24 5 is_stmt 1 view .LVU29
 217              		.loc 1 24 17 is_stmt 0 view .LVU30
 218 0120 CAED158A 		vstr.32	s17, [r10, #84]
  25:Core/drogui/src/control.c ****     p->err_ant1 = error;
 219              		.loc 1 25 5 is_stmt 1 view .LVU31
 220              		.loc 1 25 17 is_stmt 0 view .LVU32
 221 0124 8AED168A 		vstr.32	s16, [r10, #88]
  26:Core/drogui/src/control.c **** 
  27:Core/drogui/src/control.c ****     if( p->type & D_INT ){
 222              		.loc 1 27 5 is_stmt 1 view .LVU33
 223              		.loc 1 27 10 is_stmt 0 view .LVU34
 224 0128 DAF88060 		ldr	r6, [r10, #128]
 225              		.loc 1 27 7 view .LVU35
 226 012c 16F0100F 		tst	r6, #16
 227 0130 29D0     		beq	.L2
  28:Core/drogui/src/control.c ****         p->errd = p->N_filt*(error - p->errd_acum);
 228              		.loc 1 28 9 is_stmt 1 view .LVU36
 229              		.loc 1 28 20 is_stmt 0 view .LVU37
 230 0132 DAED267A 		vldr.32	s15, [r10, #152]
 231              		.loc 1 28 39 view .LVU38
 232 0136 DAED198A 		vldr.32	s17, [r10, #100]
 233              		.loc 1 28 36 view .LVU39
 234 013a 38EE687A 		vsub.f32	s14, s16, s17
 235              		.loc 1 28 28 view .LVU40
 236 013e 67EE877A 		vmul.f32	s15, s15, s14
 237              		.loc 1 28 17 view .LVU41
 238 0142 CAED177A 		vstr.32	s15, [r10, #92]
  29:Core/drogui/src/control.c ****         p->errd_acum += 0.5*(p->errd+p->errd_ant)*p->dt;
 239              		.loc 1 29 9 is_stmt 1 view .LVU42
 240              		.loc 1 29 39 is_stmt 0 view .LVU43
 241 0146 9AED187A 		vldr.32	s14, [r10, #96]
 242              		.loc 1 29 37 view .LVU44
 243 014a 77EE877A 		vadd.f32	s15, s15, s14
 244 014e 17EE900A 		vmov	r0, s15
 245 0152 FFF7FEFF 		bl	__aeabi_f2d
 246              	.LVL24:
 247              		.loc 1 29 28 view .LVU45
 248 0156 0022     		movs	r2, #0
 249 0158 8C4B     		ldr	r3, .L37+28
 250 015a FFF7FEFF 		bl	__aeabi_dmul
ARM GAS  C:\Users\USUARIO\AppData\Local\Temp\cc33HxZm.s 			page 6


 251              	.LVL25:
 252 015e 0246     		mov	r2, r0
 253 0160 0B46     		mov	r3, r1
 254              		.loc 1 29 50 view .LVU46
 255 0162 2046     		mov	r0, r4
 256 0164 2946     		mov	r1, r5
 257 0166 FFF7FEFF 		bl	__aeabi_dmul
 258              	.LVL26:
 259 016a 0446     		mov	r4, r0
 260 016c 0D46     		mov	r5, r1
 261              		.loc 1 29 22 view .LVU47
 262 016e 18EE900A 		vmov	r0, s17
 263 0172 FFF7FEFF 		bl	__aeabi_f2d
 264              	.LVL27:
 265 0176 2246     		mov	r2, r4
 266 0178 2B46     		mov	r3, r5
 267 017a FFF7FEFF 		bl	__aeabi_dadd
 268              	.LVL28:
 269 017e FFF7FEFF 		bl	__aeabi_d2f
 270              	.LVL29:
 271 0182 CAF86400 		str	r0, [r10, #100]	@ float
 272              	.L2:
  30:Core/drogui/src/control.c ****     }
  31:Core/drogui/src/control.c **** 
  32:Core/drogui/src/control.c ****     if(p->type & D_FILTER){
 273              		.loc 1 32 5 is_stmt 1 view .LVU48
 274              		.loc 1 32 7 is_stmt 0 view .LVU49
 275 0186 16F0080F 		tst	r6, #8
 276 018a 19D1     		bne	.L35
 277              	.L3:
  33:Core/drogui/src/control.c ****         p->errd = computeFilter(&(p->f), p->errd);
  34:Core/drogui/src/control.c ****     }    
  35:Core/drogui/src/control.c **** 
  36:Core/drogui/src/control.c ****     //return max(min(p->kp[0]*error + p->ki[0]*p->erri + p->kd[0]*p->errd,p->osat),-p->osat);
  37:Core/drogui/src/control.c ****     if(p->type & P2ID) error *= fabs(error); 
 278              		.loc 1 37 5 is_stmt 1 view .LVU50
 279              		.loc 1 37 9 is_stmt 0 view .LVU51
 280 018c DAF88030 		ldr	r3, [r10, #128]
 281              		.loc 1 37 7 view .LVU52
 282 0190 13F0010F 		tst	r3, #1
 283 0194 03D0     		beq	.L4
 284              		.loc 1 37 24 is_stmt 1 discriminator 1 view .LVU53
 285              		.loc 1 37 33 is_stmt 0 discriminator 1 view .LVU54
 286 0196 F0EEC87A 		vabs.f32	s15, s16
 287              		.loc 1 37 30 discriminator 1 view .LVU55
 288 019a 28EE278A 		vmul.f32	s16, s16, s15
 289              	.LVL30:
 290              	.L4:
  38:Core/drogui/src/control.c ****     
  39:Core/drogui/src/control.c ****     if(p->type & INDEXED){
 291              		.loc 1 39 5 is_stmt 1 view .LVU56
 292              		.loc 1 39 7 is_stmt 0 view .LVU57
 293 019e 13F0020F 		tst	r3, #2
 294 01a2 4FD0     		beq	.L5
  40:Core/drogui/src/control.c ****         if(h <= 60)         kp = p->kp[0], kd = p->kd[0], ki = p->ki[0];
 295              		.loc 1 40 9 is_stmt 1 view .LVU58
 296              		.loc 1 40 11 is_stmt 0 view .LVU59
ARM GAS  C:\Users\USUARIO\AppData\Local\Temp\cc33HxZm.s 			page 7


 297 01a4 DFED7A7A 		vldr.32	s15, .L37+32
 298 01a8 B4EEE7AA 		vcmpe.f32	s20, s15
 299 01ac F1EE10FA 		vmrs	APSR_nzcv, FPSCR
 300 01b0 0FD8     		bhi	.L29
 301              		.loc 1 40 29 is_stmt 1 discriminator 1 view .LVU60
 302              		.loc 1 40 32 is_stmt 0 discriminator 1 view .LVU61
 303 01b2 DAED008A 		vldr.32	s17, [r10]
 304              	.LVL31:
 305              		.loc 1 40 47 discriminator 1 view .LVU62
 306 01b6 9AED059A 		vldr.32	s18, [r10, #20]
 307              	.LVL32:
 308              		.loc 1 40 62 discriminator 1 view .LVU63
 309 01ba DAED0AAA 		vldr.32	s21, [r10, #40]
 310              	.LVL33:
 311              		.loc 1 40 62 discriminator 1 view .LVU64
 312 01be 47E0     		b	.L8
 313              	.LVL34:
 314              	.L35:
  33:Core/drogui/src/control.c ****         p->errd = computeFilter(&(p->f), p->errd);
 315              		.loc 1 33 9 is_stmt 1 view .LVU65
  33:Core/drogui/src/control.c ****         p->errd = computeFilter(&(p->f), p->errd);
 316              		.loc 1 33 19 is_stmt 0 view .LVU66
 317 01c0 9AED170A 		vldr.32	s0, [r10, #92]
 318 01c4 0AF18400 		add	r0, r10, #132
 319 01c8 FFF7FEFF 		bl	computeFilter
 320              	.LVL35:
  33:Core/drogui/src/control.c ****         p->errd = computeFilter(&(p->f), p->errd);
 321              		.loc 1 33 17 view .LVU67
 322 01cc 8AED170A 		vstr.32	s0, [r10, #92]
 323 01d0 DCE7     		b	.L3
 324              	.L29:
  41:Core/drogui/src/control.c ****         else if(h <= 70)    kp = p->kp[1], kd = p->kd[1], ki = p->ki[1];
 325              		.loc 1 41 14 is_stmt 1 view .LVU68
 326              		.loc 1 41 16 is_stmt 0 view .LVU69
 327 01d2 DFED707A 		vldr.32	s15, .L37+36
 328 01d6 B4EEE7AA 		vcmpe.f32	s20, s15
 329 01da F1EE10FA 		vmrs	APSR_nzcv, FPSCR
 330 01de 06D8     		bhi	.L30
 331              		.loc 1 41 29 is_stmt 1 discriminator 1 view .LVU70
 332              		.loc 1 41 32 is_stmt 0 discriminator 1 view .LVU71
 333 01e0 DAED018A 		vldr.32	s17, [r10, #4]
 334              	.LVL36:
 335              		.loc 1 41 47 discriminator 1 view .LVU72
 336 01e4 9AED069A 		vldr.32	s18, [r10, #24]
 337              	.LVL37:
 338              		.loc 1 41 62 discriminator 1 view .LVU73
 339 01e8 DAED0BAA 		vldr.32	s21, [r10, #44]
 340              	.LVL38:
 341              		.loc 1 41 62 discriminator 1 view .LVU74
 342 01ec 30E0     		b	.L8
 343              	.LVL39:
 344              	.L30:
  42:Core/drogui/src/control.c ****         else if(h <= 80)    kp = p->kp[2], kd = p->kd[2], ki = p->ki[2];
 345              		.loc 1 42 14 is_stmt 1 view .LVU75
 346              		.loc 1 42 16 is_stmt 0 view .LVU76
 347 01ee DFED6A7A 		vldr.32	s15, .L37+40
 348 01f2 B4EEE7AA 		vcmpe.f32	s20, s15
ARM GAS  C:\Users\USUARIO\AppData\Local\Temp\cc33HxZm.s 			page 8


 349 01f6 F1EE10FA 		vmrs	APSR_nzcv, FPSCR
 350 01fa 06D8     		bhi	.L31
 351              		.loc 1 42 29 is_stmt 1 discriminator 1 view .LVU77
 352              		.loc 1 42 32 is_stmt 0 discriminator 1 view .LVU78
 353 01fc DAED028A 		vldr.32	s17, [r10, #8]
 354              	.LVL40:
 355              		.loc 1 42 47 discriminator 1 view .LVU79
 356 0200 9AED079A 		vldr.32	s18, [r10, #28]
 357              	.LVL41:
 358              		.loc 1 42 62 discriminator 1 view .LVU80
 359 0204 DAED0CAA 		vldr.32	s21, [r10, #48]
 360              	.LVL42:
 361              		.loc 1 42 62 discriminator 1 view .LVU81
 362 0208 22E0     		b	.L8
 363              	.LVL43:
 364              	.L31:
  43:Core/drogui/src/control.c ****         else if(h <= 90)    kp = p->kp[3], kd = p->kd[3], ki = p->ki[3];
 365              		.loc 1 43 14 is_stmt 1 view .LVU82
 366              		.loc 1 43 16 is_stmt 0 view .LVU83
 367 020a DFED647A 		vldr.32	s15, .L37+44
 368 020e B4EEE7AA 		vcmpe.f32	s20, s15
 369 0212 F1EE10FA 		vmrs	APSR_nzcv, FPSCR
 370 0216 06D8     		bhi	.L32
 371              		.loc 1 43 29 is_stmt 1 discriminator 1 view .LVU84
 372              		.loc 1 43 32 is_stmt 0 discriminator 1 view .LVU85
 373 0218 DAED038A 		vldr.32	s17, [r10, #12]
 374              	.LVL44:
 375              		.loc 1 43 47 discriminator 1 view .LVU86
 376 021c 9AED089A 		vldr.32	s18, [r10, #32]
 377              	.LVL45:
 378              		.loc 1 43 62 discriminator 1 view .LVU87
 379 0220 DAED0DAA 		vldr.32	s21, [r10, #52]
 380              	.LVL46:
 381              		.loc 1 43 62 discriminator 1 view .LVU88
 382 0224 14E0     		b	.L8
 383              	.LVL47:
 384              	.L32:
  44:Core/drogui/src/control.c ****         else if(h <= 100)   kp = p->kp[4], kd = p->kd[4], ki = p->ki[4];
 385              		.loc 1 44 14 is_stmt 1 view .LVU89
 386              		.loc 1 44 16 is_stmt 0 view .LVU90
 387 0226 DFED5E7A 		vldr.32	s15, .L37+48
 388 022a B4EEE7AA 		vcmpe.f32	s20, s15
 389 022e F1EE10FA 		vmrs	APSR_nzcv, FPSCR
 390 0232 00F29080 		bhi	.L33
 391              		.loc 1 44 29 is_stmt 1 discriminator 1 view .LVU91
 392              		.loc 1 44 32 is_stmt 0 discriminator 1 view .LVU92
 393 0236 DAED048A 		vldr.32	s17, [r10, #16]
 394              	.LVL48:
 395              		.loc 1 44 47 discriminator 1 view .LVU93
 396 023a 9AED099A 		vldr.32	s18, [r10, #36]
 397              	.LVL49:
 398              		.loc 1 44 62 discriminator 1 view .LVU94
 399 023e DAED0EAA 		vldr.32	s21, [r10, #56]
 400              	.LVL50:
 401              		.loc 1 44 62 discriminator 1 view .LVU95
 402 0242 05E0     		b	.L8
 403              	.LVL51:
ARM GAS  C:\Users\USUARIO\AppData\Local\Temp\cc33HxZm.s 			page 9


 404              	.L5:
  45:Core/drogui/src/control.c ****     }
  46:Core/drogui/src/control.c ****     else{kp = p->kp[0], kd = p->kd[0], ki = p->ki[0];}
 405              		.loc 1 46 10 is_stmt 1 view .LVU96
 406              		.loc 1 46 13 is_stmt 0 view .LVU97
 407 0244 DAED008A 		vldr.32	s17, [r10]
 408              	.LVL52:
 409              		.loc 1 46 28 view .LVU98
 410 0248 9AED059A 		vldr.32	s18, [r10, #20]
 411              	.LVL53:
 412              		.loc 1 46 43 view .LVU99
 413 024c DAED0AAA 		vldr.32	s21, [r10, #40]
 414              	.LVL54:
 415              	.L8:
  47:Core/drogui/src/control.c **** 
  48:Core/drogui/src/control.c ****     if(p->type & PIDABS){
 416              		.loc 1 48 5 is_stmt 1 view .LVU100
 417              		.loc 1 48 7 is_stmt 0 view .LVU101
 418 0250 13F0040F 		tst	r3, #4
 419 0254 00F0A880 		beq	.L16
 420              	.LBB2:
  49:Core/drogui/src/control.c ****         float newd = copysign(fmin( fabs(kp*error), fabs(kd*p->errd) ), p->errd);
 421              		.loc 1 49 9 is_stmt 1 view .LVU102
 422              		.loc 1 49 22 is_stmt 0 view .LVU103
 423 0258 28EE288A 		vmul.f32	s16, s16, s17
 424              	.LVL55:
 425              		.loc 1 49 22 view .LVU104
 426 025c F0EEC88A 		vabs.f32	s17, s16
 427              	.LVL56:
 428              		.loc 1 49 22 view .LVU105
 429 0260 9AED17AA 		vldr.32	s20, [r10, #92]
 430              	.LVL57:
 431              		.loc 1 49 22 view .LVU106
 432 0264 2AEE099A 		vmul.f32	s18, s20, s18
 433              	.LVL58:
 434              		.loc 1 49 22 view .LVU107
 435 0268 F0EEC97A 		vabs.f32	s15, s18
 436 026c 17EE900A 		vmov	r0, s15
 437 0270 FFF7FEFF 		bl	__aeabi_f2d
 438              	.LVL59:
 439 0274 41EC190B 		vmov	d9, r0, r1
 440 0278 18EE900A 		vmov	r0, s17
 441 027c FFF7FEFF 		bl	__aeabi_f2d
 442              	.LVL60:
 443 0280 B0EE491A 		vmov.f32	s2, s18
 444 0284 F0EE691A 		vmov.f32	s3, s19
 445 0288 41EC100B 		vmov	d0, r0, r1
 446 028c FFF7FEFF 		bl	fmin
 447              	.LVL61:
 448 0290 55EC104B 		vmov	r4, r5, d0
 449 0294 0022     		movs	r2, #0
 450 0296 0023     		movs	r3, #0
 451 0298 10EE100A 		vmov	r0, s0	@ int
 452 029c 2946     		mov	r1, r5
 453 029e FFF7FEFF 		bl	__aeabi_dcmpgt
 454              	.LVL62:
 455 02a2 20B1     		cbz	r0, .L17
ARM GAS  C:\Users\USUARIO\AppData\Local\Temp\cc33HxZm.s 			page 10


 456              		.loc 1 49 22 discriminator 1 view .LVU108
 457 02a4 B5EEC0AA 		vcmpe.f32	s20, #0
 458 02a8 F1EE10FA 		vmrs	APSR_nzcv, FPSCR
 459 02ac 5AD4     		bmi	.L36
 460              	.L17:
 461              		.loc 1 49 15 discriminator 6 view .LVU109
 462 02ae 2046     		mov	r0, r4
 463 02b0 2946     		mov	r1, r5
 464 02b2 FFF7FEFF 		bl	__aeabi_d2f
 465              	.LVL63:
 466 02b6 07EE900A 		vmov	s15, r0
 467              	.LVL64:
  50:Core/drogui/src/control.c ****         p->u = fmax(fmin(kp*error + ki*p->erri + newd, p->osat), -p->osat);
 468              		.loc 1 50 9 is_stmt 1 discriminator 6 view .LVU110
 469              		.loc 1 50 41 is_stmt 0 discriminator 6 view .LVU111
 470 02ba DAED148A 		vldr.32	s17, [r10, #80]
 471              		.loc 1 50 39 discriminator 6 view .LVU112
 472 02be 68EEAA8A 		vmul.f32	s17, s17, s21
 473              		.loc 1 50 35 discriminator 6 view .LVU113
 474 02c2 38EE288A 		vadd.f32	s16, s16, s17
 475              		.loc 1 50 48 discriminator 6 view .LVU114
 476 02c6 38EE278A 		vadd.f32	s16, s16, s15
 477              		.loc 1 50 57 discriminator 6 view .LVU115
 478 02ca DAF87840 		ldr	r4, [r10, #120]	@ float
 479              		.loc 1 50 16 discriminator 6 view .LVU116
 480 02ce 2046     		mov	r0, r4	@ float
 481              	.LVL65:
 482              		.loc 1 50 16 discriminator 6 view .LVU117
 483 02d0 FFF7FEFF 		bl	__aeabi_f2d
 484              	.LVL66:
 485              		.loc 1 50 16 discriminator 6 view .LVU118
 486 02d4 41EC190B 		vmov	d9, r0, r1
 487 02d8 18EE100A 		vmov	r0, s16
 488 02dc FFF7FEFF 		bl	__aeabi_f2d
 489              	.LVL67:
 490 02e0 B0EE491A 		vmov.f32	s2, s18
 491 02e4 F0EE691A 		vmov.f32	s3, s19
 492 02e8 41EC100B 		vmov	d0, r0, r1
 493 02ec FFF7FEFF 		bl	fmin
 494              	.LVL68:
 495 02f0 B0EE408A 		vmov.f32	s16, s0
 496 02f4 F0EE608A 		vmov.f32	s17, s1
 497 02f8 84F00040 		eor	r0, r4, #-2147483648
 498 02fc FFF7FEFF 		bl	__aeabi_f2d
 499              	.LVL69:
 500 0300 41EC110B 		vmov	d1, r0, r1
 501 0304 B0EE480A 		vmov.f32	s0, s16
 502 0308 F0EE680A 		vmov.f32	s1, s17
 503 030c FFF7FEFF 		bl	fmax
 504              	.LVL70:
 505 0310 51EC100B 		vmov	r0, r1, d0
 506 0314 FFF7FEFF 		bl	__aeabi_d2f
 507              	.LVL71:
 508              		.loc 1 50 14 discriminator 6 view .LVU119
 509 0318 CAF86800 		str	r0, [r10, #104]	@ float
 510              	.L20:
 511              		.loc 1 50 14 discriminator 6 view .LVU120
ARM GAS  C:\Users\USUARIO\AppData\Local\Temp\cc33HxZm.s 			page 11


 512              	.LBE2:
  51:Core/drogui/src/control.c ****     }
  52:Core/drogui/src/control.c ****     else{
  53:Core/drogui/src/control.c ****         sprintf(buffct, "law u %f\t%f\t%f\t%f\n", p->u, kp, ki, kd);
  54:Core/drogui/src/control.c ****         HAL_UART_Transmit(&huart2, (uint8_t*) buffct, strlen(buffct), 100);
  55:Core/drogui/src/control.c ****         p->u = fmax(fmin(kp*error + ki*p->erri + kd*p->errd, p->osat), -p->osat);
  56:Core/drogui/src/control.c ****     }
  57:Core/drogui/src/control.c ****     p->u_ant = p->u;
 513              		.loc 1 57 5 is_stmt 1 view .LVU121
 514              		.loc 1 57 17 is_stmt 0 view .LVU122
 515 031c DAF86800 		ldr	r0, [r10, #104]	@ float
 516              		.loc 1 57 14 view .LVU123
 517 0320 CAF86C00 		str	r0, [r10, #108]	@ float
  58:Core/drogui/src/control.c **** 
  59:Core/drogui/src/control.c ****     sprintf(buffct, "law u %f\n", p->u);
 518              		.loc 1 59 5 is_stmt 1 view .LVU124
 519 0324 FFF7FEFF 		bl	__aeabi_f2d
 520              	.LVL72:
 521 0328 0246     		mov	r2, r0
 522 032a 0B46     		mov	r3, r1
 523 032c 144C     		ldr	r4, .L37+16
 524 032e 1D49     		ldr	r1, .L37+52
 525 0330 2046     		mov	r0, r4
 526 0332 FFF7FEFF 		bl	sprintf
 527              	.LVL73:
  60:Core/drogui/src/control.c ****     HAL_UART_Transmit(&huart2, (uint8_t*) buffct, strlen(buffct), 100);
 528              		.loc 1 60 5 view .LVU125
 529              		.loc 1 60 51 is_stmt 0 view .LVU126
 530 0336 2046     		mov	r0, r4
 531 0338 FFF7FEFF 		bl	strlen
 532              	.LVL74:
 533              		.loc 1 60 5 view .LVU127
 534 033c 6423     		movs	r3, #100
 535 033e 82B2     		uxth	r2, r0
 536 0340 2146     		mov	r1, r4
 537 0342 1148     		ldr	r0, .L37+24
 538 0344 FFF7FEFF 		bl	HAL_UART_Transmit
 539              	.LVL75:
  61:Core/drogui/src/control.c **** 
  62:Core/drogui/src/control.c ****     return p->u;
 540              		.loc 1 62 5 is_stmt 1 view .LVU128
  63:Core/drogui/src/control.c **** }
 541              		.loc 1 63 1 is_stmt 0 view .LVU129
 542 0348 9AED1A0A 		vldr.32	s0, [r10, #104]
 543 034c 07B0     		add	sp, sp, #28
 544              	.LCFI3:
 545              		.cfi_remember_state
 546              		.cfi_def_cfa_offset 60
 547              		@ sp needed
 548 034e BDEC068B 		vldm	sp!, {d8-d10}
 549              	.LCFI4:
 550              		.cfi_restore 84
 551              		.cfi_restore 85
 552              		.cfi_restore 82
 553              		.cfi_restore 83
 554              		.cfi_restore 80
 555              		.cfi_restore 81
ARM GAS  C:\Users\USUARIO\AppData\Local\Temp\cc33HxZm.s 			page 12


 556              		.cfi_def_cfa_offset 36
 557 0352 BDE8F08F 		pop	{r4, r5, r6, r7, r8, r9, r10, fp, pc}
 558              	.LVL76:
 559              	.L33:
 560              	.LCFI5:
 561              		.cfi_restore_state
  10:Core/drogui/src/control.c **** 
 562              		.loc 1 10 27 view .LVU130
 563 0356 F7EE00AA 		vmov.f32	s21, #1.0e+0
  10:Core/drogui/src/control.c **** 
 564              		.loc 1 10 19 view .LVU131
 565 035a B0EE6A9A 		vmov.f32	s18, s21
  10:Core/drogui/src/control.c **** 
 566              		.loc 1 10 11 view .LVU132
 567 035e F0EE6A8A 		vmov.f32	s17, s21
 568 0362 75E7     		b	.L8
 569              	.LVL77:
 570              	.L36:
 571              	.LBB3:
  49:Core/drogui/src/control.c ****         p->u = fmax(fmin(kp*error + ki*p->erri + newd, p->osat), -p->osat);
 572              		.loc 1 49 22 discriminator 3 view .LVU133
 573 0364 05F10043 		add	r3, r5, #-2147483648
 574 0368 1D46     		mov	r5, r3
 575 036a A0E7     		b	.L17
 576              	.L38:
 577 036c AFF30080 		.align	3
 578              	.L37:
 579 0370 00000000 		.word	0
 580 0374 80842E41 		.word	1093567616
 581 0378 956479E1 		.word	-512138091
 582 037c 7FFDA53D 		.word	1034288511
 583 0380 00000000 		.word	.LANCHOR0
 584 0384 00000000 		.word	.LC0
 585 0388 00000000 		.word	huart2
 586 038c 0000E03F 		.word	1071644672
 587 0390 00007042 		.word	1114636288
 588 0394 00008C42 		.word	1116471296
 589 0398 0000A042 		.word	1117782016
 590 039c 0000B442 		.word	1119092736
 591 03a0 0000C842 		.word	1120403456
 592 03a4 1C000000 		.word	.LC2
 593              	.LVL78:
 594              	.L16:
  49:Core/drogui/src/control.c ****         p->u = fmax(fmin(kp*error + ki*p->erri + newd, p->osat), -p->osat);
 595              		.loc 1 49 22 discriminator 3 view .LVU134
 596              	.LBE3:
  53:Core/drogui/src/control.c ****         HAL_UART_Transmit(&huart2, (uint8_t*) buffct, strlen(buffct), 100);
 597              		.loc 1 53 9 is_stmt 1 view .LVU135
 598 03a8 DAF86800 		ldr	r0, [r10, #104]	@ float
 599 03ac FFF7FEFF 		bl	__aeabi_f2d
 600              	.LVL79:
 601 03b0 0646     		mov	r6, r0
 602 03b2 0F46     		mov	r7, r1
 603 03b4 2C4C     		ldr	r4, .L39
 604 03b6 19EE100A 		vmov	r0, s18
 605 03ba FFF7FEFF 		bl	__aeabi_f2d
 606              	.LVL80:
ARM GAS  C:\Users\USUARIO\AppData\Local\Temp\cc33HxZm.s 			page 13


 607 03be CDE90401 		strd	r0, [sp, #16]
 608 03c2 1AEE900A 		vmov	r0, s21
 609 03c6 FFF7FEFF 		bl	__aeabi_f2d
 610              	.LVL81:
 611 03ca CDE90201 		strd	r0, [sp, #8]
 612 03ce 18EE900A 		vmov	r0, s17
 613 03d2 FFF7FEFF 		bl	__aeabi_f2d
 614              	.LVL82:
 615 03d6 CDE90001 		strd	r0, [sp]
 616 03da 3246     		mov	r2, r6
 617 03dc 3B46     		mov	r3, r7
 618 03de 2349     		ldr	r1, .L39+4
 619 03e0 2046     		mov	r0, r4
 620 03e2 FFF7FEFF 		bl	sprintf
 621              	.LVL83:
  54:Core/drogui/src/control.c ****         p->u = fmax(fmin(kp*error + ki*p->erri + kd*p->errd, p->osat), -p->osat);
 622              		.loc 1 54 9 view .LVU136
  54:Core/drogui/src/control.c ****         p->u = fmax(fmin(kp*error + ki*p->erri + kd*p->errd, p->osat), -p->osat);
 623              		.loc 1 54 55 is_stmt 0 view .LVU137
 624 03e6 2046     		mov	r0, r4
 625 03e8 FFF7FEFF 		bl	strlen
 626              	.LVL84:
  54:Core/drogui/src/control.c ****         p->u = fmax(fmin(kp*error + ki*p->erri + kd*p->errd, p->osat), -p->osat);
 627              		.loc 1 54 9 view .LVU138
 628 03ec 6423     		movs	r3, #100
 629 03ee 82B2     		uxth	r2, r0
 630 03f0 2146     		mov	r1, r4
 631 03f2 1F48     		ldr	r0, .L39+8
 632 03f4 FFF7FEFF 		bl	HAL_UART_Transmit
 633              	.LVL85:
  55:Core/drogui/src/control.c ****     }
 634              		.loc 1 55 9 is_stmt 1 view .LVU139
  55:Core/drogui/src/control.c ****     }
 635              		.loc 1 55 28 is_stmt 0 view .LVU140
 636 03f8 28EE288A 		vmul.f32	s16, s16, s17
 637              	.LVL86:
  55:Core/drogui/src/control.c ****     }
 638              		.loc 1 55 41 view .LVU141
 639 03fc DAED148A 		vldr.32	s17, [r10, #80]
 640              	.LVL87:
  55:Core/drogui/src/control.c ****     }
 641              		.loc 1 55 39 view .LVU142
 642 0400 68EEAA8A 		vmul.f32	s17, s17, s21
  55:Core/drogui/src/control.c ****     }
 643              		.loc 1 55 35 view .LVU143
 644 0404 38EE288A 		vadd.f32	s16, s16, s17
  55:Core/drogui/src/control.c ****     }
 645              		.loc 1 55 54 view .LVU144
 646 0408 DAED177A 		vldr.32	s15, [r10, #92]
  55:Core/drogui/src/control.c ****     }
 647              		.loc 1 55 52 view .LVU145
 648 040c 27EE899A 		vmul.f32	s18, s15, s18
 649              	.LVL88:
  55:Core/drogui/src/control.c ****     }
 650              		.loc 1 55 48 view .LVU146
 651 0410 38EE098A 		vadd.f32	s16, s16, s18
  55:Core/drogui/src/control.c ****     }
ARM GAS  C:\Users\USUARIO\AppData\Local\Temp\cc33HxZm.s 			page 14


 652              		.loc 1 55 63 view .LVU147
 653 0414 DAF87840 		ldr	r4, [r10, #120]	@ float
  55:Core/drogui/src/control.c ****     }
 654              		.loc 1 55 16 view .LVU148
 655 0418 2046     		mov	r0, r4	@ float
 656 041a FFF7FEFF 		bl	__aeabi_f2d
 657              	.LVL89:
 658 041e 41EC190B 		vmov	d9, r0, r1
 659 0422 18EE100A 		vmov	r0, s16
 660 0426 FFF7FEFF 		bl	__aeabi_f2d
 661              	.LVL90:
 662 042a B0EE491A 		vmov.f32	s2, s18
 663 042e F0EE691A 		vmov.f32	s3, s19
 664 0432 41EC100B 		vmov	d0, r0, r1
 665 0436 FFF7FEFF 		bl	fmin
 666              	.LVL91:
 667 043a B0EE408A 		vmov.f32	s16, s0
 668 043e F0EE608A 		vmov.f32	s17, s1
 669 0442 84F00040 		eor	r0, r4, #-2147483648
 670 0446 FFF7FEFF 		bl	__aeabi_f2d
 671              	.LVL92:
 672 044a 41EC110B 		vmov	d1, r0, r1
 673 044e B0EE480A 		vmov.f32	s0, s16
 674 0452 F0EE680A 		vmov.f32	s1, s17
 675 0456 FFF7FEFF 		bl	fmax
 676              	.LVL93:
 677 045a 51EC100B 		vmov	r0, r1, d0
 678 045e FFF7FEFF 		bl	__aeabi_d2f
 679              	.LVL94:
  55:Core/drogui/src/control.c ****     }
 680              		.loc 1 55 14 view .LVU149
 681 0462 CAF86800 		str	r0, [r10, #104]	@ float
 682 0466 59E7     		b	.L20
 683              	.L40:
 684              		.align	2
 685              	.L39:
 686 0468 00000000 		.word	.LANCHOR0
 687 046c 08000000 		.word	.LC1
 688 0470 00000000 		.word	huart2
 689              		.cfi_endproc
 690              	.LFE177:
 692              		.section	.text.resetPid,"ax",%progbits
 693              		.align	1
 694              		.global	resetPid
 695              		.syntax unified
 696              		.thumb
 697              		.thumb_func
 698              		.fpu fpv5-sp-d16
 700              	resetPid:
 701              	.LVL95:
 702              	.LFB178:
  64:Core/drogui/src/control.c **** 
  65:Core/drogui/src/control.c **** 
  66:Core/drogui/src/control.c **** void resetPid(pid* p, uint32_t ti){
 703              		.loc 1 66 35 is_stmt 1 view -0
 704              		.cfi_startproc
 705              		@ args = 0, pretend = 0, frame = 0
ARM GAS  C:\Users\USUARIO\AppData\Local\Temp\cc33HxZm.s 			page 15


 706              		@ frame_needed = 0, uses_anonymous_args = 0
 707              		@ link register save eliminated.
  67:Core/drogui/src/control.c ****     p->tant = ti;
 708              		.loc 1 67 5 view .LVU151
 709              		.loc 1 67 13 is_stmt 0 view .LVU152
 710 0000 0167     		str	r1, [r0, #112]
  68:Core/drogui/src/control.c ****     p->erri = 0;
 711              		.loc 1 68 5 is_stmt 1 view .LVU153
 712              		.loc 1 68 13 is_stmt 0 view .LVU154
 713 0002 0023     		movs	r3, #0
 714 0004 0365     		str	r3, [r0, #80]	@ float
  69:Core/drogui/src/control.c ****     p->err_ant1 = p->err_ant2 = 0;
 715              		.loc 1 69 5 is_stmt 1 view .LVU155
 716              		.loc 1 69 31 is_stmt 0 view .LVU156
 717 0006 4365     		str	r3, [r0, #84]	@ float
 718              		.loc 1 69 17 view .LVU157
 719 0008 8365     		str	r3, [r0, #88]	@ float
  70:Core/drogui/src/control.c ****     p->errd_acum = 0;
 720              		.loc 1 70 5 is_stmt 1 view .LVU158
 721              		.loc 1 70 18 is_stmt 0 view .LVU159
 722 000a 4366     		str	r3, [r0, #100]	@ float
  71:Core/drogui/src/control.c ****     p->u_ant = 0;
 723              		.loc 1 71 5 is_stmt 1 view .LVU160
 724              		.loc 1 71 14 is_stmt 0 view .LVU161
 725 000c C366     		str	r3, [r0, #108]	@ float
  72:Core/drogui/src/control.c **** }
 726              		.loc 1 72 1 view .LVU162
 727 000e 7047     		bx	lr
 728              		.cfi_endproc
 729              	.LFE178:
 731              		.section	.text.initPid,"ax",%progbits
 732              		.align	1
 733              		.global	initPid
 734              		.syntax unified
 735              		.thumb
 736              		.thumb_func
 737              		.fpu fpv5-sp-d16
 739              	initPid:
 740              	.LVL96:
 741              	.LFB179:
  73:Core/drogui/src/control.c **** 
  74:Core/drogui/src/control.c **** void initPid(pid* p, float kp, float kd, float ki,uint32_t ti, float N, float isat, float osat, int
 742              		.loc 1 74 106 is_stmt 1 view -0
 743              		.cfi_startproc
 744              		@ args = 0, pretend = 0, frame = 0
 745              		@ frame_needed = 0, uses_anonymous_args = 0
 746              		@ link register save eliminated.
  75:Core/drogui/src/control.c ****     for(int i = 0; i < 5; i++){
 747              		.loc 1 75 5 view .LVU164
 748              	.LBB4:
 749              		.loc 1 75 9 view .LVU165
 750              		.loc 1 75 13 is_stmt 0 view .LVU166
 751 0000 0023     		movs	r3, #0
 752              		.loc 1 75 5 view .LVU167
 753 0002 10E0     		b	.L43
 754              	.LVL97:
 755              	.L44:
ARM GAS  C:\Users\USUARIO\AppData\Local\Temp\cc33HxZm.s 			page 16


  76:Core/drogui/src/control.c ****         p->kp[i] = kp;
 756              		.loc 1 76 9 is_stmt 1 discriminator 3 view .LVU168
 757              		.loc 1 76 18 is_stmt 0 discriminator 3 view .LVU169
 758 0004 00EB830C 		add	ip, r0, r3, lsl #2
 759 0008 8CED000A 		vstr.32	s0, [ip]
  77:Core/drogui/src/control.c ****         p->kd[i] = kd;
 760              		.loc 1 77 9 is_stmt 1 discriminator 3 view .LVU170
 761              		.loc 1 77 18 is_stmt 0 discriminator 3 view .LVU171
 762 000c 03F1040C 		add	ip, r3, #4
 763 0010 00EB8C0C 		add	ip, r0, ip, lsl #2
 764 0014 CCED010A 		vstr.32	s1, [ip, #4]
  78:Core/drogui/src/control.c ****         p->ki[i] = ki;
 765              		.loc 1 78 9 is_stmt 1 discriminator 3 view .LVU172
 766              		.loc 1 78 18 is_stmt 0 discriminator 3 view .LVU173
 767 0018 03F10A0C 		add	ip, r3, #10
 768 001c 00EB8C0C 		add	ip, r0, ip, lsl #2
 769 0020 8CED001A 		vstr.32	s2, [ip]
  75:Core/drogui/src/control.c ****         p->kp[i] = kp;
 770              		.loc 1 75 27 is_stmt 1 discriminator 3 view .LVU174
  75:Core/drogui/src/control.c ****         p->kp[i] = kp;
 771              		.loc 1 75 28 is_stmt 0 discriminator 3 view .LVU175
 772 0024 0133     		adds	r3, r3, #1
 773              	.LVL98:
 774              	.L43:
  75:Core/drogui/src/control.c ****         p->kp[i] = kp;
 775              		.loc 1 75 20 is_stmt 1 discriminator 1 view .LVU176
  75:Core/drogui/src/control.c ****         p->kp[i] = kp;
 776              		.loc 1 75 5 is_stmt 0 discriminator 1 view .LVU177
 777 0026 042B     		cmp	r3, #4
 778 0028 ECDD     		ble	.L44
 779              	.LBE4:
  79:Core/drogui/src/control.c ****     }
  80:Core/drogui/src/control.c ****     p->N_filt = N;
 780              		.loc 1 80 5 is_stmt 1 view .LVU178
 781              		.loc 1 80 15 is_stmt 0 view .LVU179
 782 002a C0ED261A 		vstr.32	s3, [r0, #152]
  81:Core/drogui/src/control.c ****     p->errd_acum = 0;
 783              		.loc 1 81 5 is_stmt 1 view .LVU180
 784              		.loc 1 81 18 is_stmt 0 view .LVU181
 785 002e 0023     		movs	r3, #0
 786              	.LVL99:
 787              		.loc 1 81 18 view .LVU182
 788 0030 4366     		str	r3, [r0, #100]	@ float
  82:Core/drogui/src/control.c ****     p->errd_ant = 0;
 789              		.loc 1 82 5 is_stmt 1 view .LVU183
 790              		.loc 1 82 17 is_stmt 0 view .LVU184
 791 0032 0366     		str	r3, [r0, #96]	@ float
  83:Core/drogui/src/control.c ****     p->u_ant = 0;
 792              		.loc 1 83 5 is_stmt 1 view .LVU185
 793              		.loc 1 83 14 is_stmt 0 view .LVU186
 794 0034 C366     		str	r3, [r0, #108]	@ float
  84:Core/drogui/src/control.c ****     p->tant = ti;
 795              		.loc 1 84 5 is_stmt 1 view .LVU187
 796              		.loc 1 84 13 is_stmt 0 view .LVU188
 797 0036 0167     		str	r1, [r0, #112]
  85:Core/drogui/src/control.c ****     p->osat = osat;
 798              		.loc 1 85 5 is_stmt 1 view .LVU189
ARM GAS  C:\Users\USUARIO\AppData\Local\Temp\cc33HxZm.s 			page 17


 799              		.loc 1 85 13 is_stmt 0 view .LVU190
 800 0038 C0ED1E2A 		vstr.32	s5, [r0, #120]
  86:Core/drogui/src/control.c ****     p->type = type;
 801              		.loc 1 86 5 is_stmt 1 view .LVU191
 802              		.loc 1 86 13 is_stmt 0 view .LVU192
 803 003c C0F88020 		str	r2, [r0, #128]
  87:Core/drogui/src/control.c ****     p->isat = isat;
 804              		.loc 1 87 5 is_stmt 1 view .LVU193
 805              		.loc 1 87 13 is_stmt 0 view .LVU194
 806 0040 80ED1D2A 		vstr.32	s4, [r0, #116]
  88:Core/drogui/src/control.c **** }
 807              		.loc 1 88 1 view .LVU195
 808 0044 7047     		bx	lr
 809              		.cfi_endproc
 810              	.LFE179:
 812              		.section	.text.initPidFilter,"ax",%progbits
 813              		.align	1
 814              		.global	initPidFilter
 815              		.syntax unified
 816              		.thumb
 817              		.thumb_func
 818              		.fpu fpv5-sp-d16
 820              	initPidFilter:
 821              	.LVL100:
 822              	.LFB180:
  89:Core/drogui/src/control.c **** 
  90:Core/drogui/src/control.c **** void initPidFilter(pid* p, float kp, float kd, float ki,uint32_t ti, float N, float isat, float osa
 823              		.loc 1 90 139 is_stmt 1 view -0
 824              		.cfi_startproc
 825              		@ args = 8, pretend = 0, frame = 0
 826              		@ frame_needed = 0, uses_anonymous_args = 0
 827              		.loc 1 90 139 is_stmt 0 view .LVU197
 828 0000 10B5     		push	{r4, lr}
 829              	.LCFI6:
 830              		.cfi_def_cfa_offset 8
 831              		.cfi_offset 4, -8
 832              		.cfi_offset 14, -4
 833 0002 0C46     		mov	r4, r1
 834 0004 1946     		mov	r1, r3
 835              	.LVL101:
  91:Core/drogui/src/control.c ****     for(int i = 0; i < 5; i++){
 836              		.loc 1 91 5 is_stmt 1 view .LVU198
 837              	.LBB5:
 838              		.loc 1 91 9 view .LVU199
 839              		.loc 1 91 13 is_stmt 0 view .LVU200
 840 0006 4FF0000C 		mov	ip, #0
 841              		.loc 1 91 5 view .LVU201
 842 000a 11E0     		b	.L46
 843              	.LVL102:
 844              	.L47:
  92:Core/drogui/src/control.c ****         p->kp[i] = kp;
 845              		.loc 1 92 9 is_stmt 1 discriminator 3 view .LVU202
 846              		.loc 1 92 18 is_stmt 0 discriminator 3 view .LVU203
 847 000c 00EB8C0E 		add	lr, r0, ip, lsl #2
 848 0010 8EED000A 		vstr.32	s0, [lr]
  93:Core/drogui/src/control.c ****         p->kd[i] = kd;
 849              		.loc 1 93 9 is_stmt 1 discriminator 3 view .LVU204
ARM GAS  C:\Users\USUARIO\AppData\Local\Temp\cc33HxZm.s 			page 18


 850              		.loc 1 93 18 is_stmt 0 discriminator 3 view .LVU205
 851 0014 0CF1040E 		add	lr, ip, #4
 852 0018 00EB8E0E 		add	lr, r0, lr, lsl #2
 853 001c CEED010A 		vstr.32	s1, [lr, #4]
  94:Core/drogui/src/control.c ****         p->ki[i] = ki;
 854              		.loc 1 94 9 is_stmt 1 discriminator 3 view .LVU206
 855              		.loc 1 94 18 is_stmt 0 discriminator 3 view .LVU207
 856 0020 0CF10A0E 		add	lr, ip, #10
 857 0024 00EB8E0E 		add	lr, r0, lr, lsl #2
 858 0028 8EED001A 		vstr.32	s2, [lr]
  91:Core/drogui/src/control.c ****         p->kp[i] = kp;
 859              		.loc 1 91 27 is_stmt 1 discriminator 3 view .LVU208
  91:Core/drogui/src/control.c ****         p->kp[i] = kp;
 860              		.loc 1 91 28 is_stmt 0 discriminator 3 view .LVU209
 861 002c 0CF1010C 		add	ip, ip, #1
 862              	.LVL103:
 863              	.L46:
  91:Core/drogui/src/control.c ****         p->kp[i] = kp;
 864              		.loc 1 91 20 is_stmt 1 discriminator 1 view .LVU210
  91:Core/drogui/src/control.c ****         p->kp[i] = kp;
 865              		.loc 1 91 5 is_stmt 0 discriminator 1 view .LVU211
 866 0030 BCF1040F 		cmp	ip, #4
 867 0034 EADD     		ble	.L47
 868              	.LBE5:
  95:Core/drogui/src/control.c ****     }
  96:Core/drogui/src/control.c ****     p->N_filt = N;
 869              		.loc 1 96 5 is_stmt 1 view .LVU212
 870              		.loc 1 96 15 is_stmt 0 view .LVU213
 871 0036 C0ED261A 		vstr.32	s3, [r0, #152]
  97:Core/drogui/src/control.c ****     p->errd_acum = 0;
 872              		.loc 1 97 5 is_stmt 1 view .LVU214
 873              		.loc 1 97 18 is_stmt 0 view .LVU215
 874 003a 0023     		movs	r3, #0
 875              	.LVL104:
 876              		.loc 1 97 18 view .LVU216
 877 003c 4366     		str	r3, [r0, #100]	@ float
  98:Core/drogui/src/control.c ****     p->errd_ant = 0;
 878              		.loc 1 98 5 is_stmt 1 view .LVU217
 879              		.loc 1 98 17 is_stmt 0 view .LVU218
 880 003e 0366     		str	r3, [r0, #96]	@ float
  99:Core/drogui/src/control.c ****     p->u_ant = 0;
 881              		.loc 1 99 5 is_stmt 1 view .LVU219
 882              		.loc 1 99 14 is_stmt 0 view .LVU220
 883 0040 C366     		str	r3, [r0, #108]	@ float
 100:Core/drogui/src/control.c ****     p->tant = ti;
 884              		.loc 1 100 5 is_stmt 1 view .LVU221
 885              		.loc 1 100 13 is_stmt 0 view .LVU222
 886 0042 0467     		str	r4, [r0, #112]
 101:Core/drogui/src/control.c ****     p->isat = isat, 
 887              		.loc 1 101 5 is_stmt 1 view .LVU223
 888              		.loc 1 101 13 is_stmt 0 view .LVU224
 889 0044 80ED1D2A 		vstr.32	s4, [r0, #116]
 102:Core/drogui/src/control.c ****     p->osat = osat;
 890              		.loc 1 102 13 view .LVU225
 891 0048 C0ED1E2A 		vstr.32	s5, [r0, #120]
 103:Core/drogui/src/control.c ****     p->type = type;
 892              		.loc 1 103 5 is_stmt 1 view .LVU226
ARM GAS  C:\Users\USUARIO\AppData\Local\Temp\cc33HxZm.s 			page 19


 893              		.loc 1 103 13 is_stmt 0 view .LVU227
 894 004c C0F88020 		str	r2, [r0, #128]
 104:Core/drogui/src/control.c **** 
 105:Core/drogui/src/control.c ****     
 106:Core/drogui/src/control.c ****     if(p->type & D_FILTER){
 895              		.loc 1 106 5 is_stmt 1 view .LVU228
 896              		.loc 1 106 7 is_stmt 0 view .LVU229
 897 0050 12F0080F 		tst	r2, #8
 898 0054 00D1     		bne	.L50
 899              	.LVL105:
 900              	.L45:
 107:Core/drogui/src/control.c ****         initFilter(&(p->f), n, a, b);
 108:Core/drogui/src/control.c ****     }
 109:Core/drogui/src/control.c **** }
 901              		.loc 1 109 1 view .LVU230
 902 0056 10BD     		pop	{r4, pc}
 903              	.LVL106:
 904              	.L50:
 107:Core/drogui/src/control.c ****         initFilter(&(p->f), n, a, b);
 905              		.loc 1 107 9 is_stmt 1 view .LVU231
 906 0058 039B     		ldr	r3, [sp, #12]
 907 005a 029A     		ldr	r2, [sp, #8]
 908              	.LVL107:
 107:Core/drogui/src/control.c ****         initFilter(&(p->f), n, a, b);
 909              		.loc 1 107 9 is_stmt 0 view .LVU232
 910 005c 8430     		adds	r0, r0, #132
 911              	.LVL108:
 107:Core/drogui/src/control.c ****         initFilter(&(p->f), n, a, b);
 912              		.loc 1 107 9 view .LVU233
 913 005e FFF7FEFF 		bl	initFilter
 914              	.LVL109:
 915              		.loc 1 109 1 view .LVU234
 916 0062 F8E7     		b	.L45
 917              		.cfi_endproc
 918              	.LFE180:
 920              		.global	buffct
 921              		.section	.bss.buffct,"aw",%nobits
 922              		.align	2
 923              		.set	.LANCHOR0,. + 0
 926              	buffct:
 927 0000 00000000 		.space	50
 927      00000000 
 927      00000000 
 927      00000000 
 927      00000000 
 928              		.text
 929              	.Letext0:
 930              		.file 2 "c:\\program files (x86)\\gnu arm embedded toolchain\\10 2020-q4-major\\arm-none-eabi\\inc
 931              		.file 3 "c:\\program files (x86)\\gnu arm embedded toolchain\\10 2020-q4-major\\arm-none-eabi\\inc
 932              		.file 4 "Drivers/CMSIS/Device/ST/STM32F7xx/Include/stm32f746xx.h"
 933              		.file 5 "Drivers/STM32F7xx_HAL_Driver/Inc/stm32f7xx_hal_def.h"
 934              		.file 6 "Drivers/STM32F7xx_HAL_Driver/Inc/stm32f7xx_hal_dma.h"
 935              		.file 7 "Drivers/STM32F7xx_HAL_Driver/Inc/stm32f7xx_hal_uart.h"
 936              		.file 8 "Drivers/CMSIS/DSP/Include/arm_math.h"
 937              		.file 9 "Core/drogui/include/filter.h"
 938              		.file 10 "Core/drogui/include/control.h"
 939              		.file 11 "Core/Inc/usart.h"
ARM GAS  C:\Users\USUARIO\AppData\Local\Temp\cc33HxZm.s 			page 20


 940              		.file 12 "c:\\program files (x86)\\gnu arm embedded toolchain\\10 2020-q4-major\\arm-none-eabi\\in
 941              		.file 13 "c:\\program files (x86)\\gnu arm embedded toolchain\\10 2020-q4-major\\arm-none-eabi\\in
 942              		.file 14 "c:\\program files (x86)\\gnu arm embedded toolchain\\10 2020-q4-major\\arm-none-eabi\\in
ARM GAS  C:\Users\USUARIO\AppData\Local\Temp\cc33HxZm.s 			page 21

