ARM GAS  C:\Users\USUARIO\AppData\Local\Temp\ccHfGsZ3.s 			page 1


   1              		.cpu cortex-m7
   2              		.eabi_attribute 27, 1
   3              		.eabi_attribute 28, 1
   4              		.eabi_attribute 20, 1
   5              		.eabi_attribute 21, 1
   6              		.eabi_attribute 23, 3
   7              		.eabi_attribute 24, 1
   8              		.eabi_attribute 25, 1
   9              		.eabi_attribute 26, 1
  10              		.eabi_attribute 30, 1
  11              		.eabi_attribute 34, 1
  12              		.eabi_attribute 18, 4
  13              		.file	"controlTasks.c"
  14              		.text
  15              	.Ltext0:
  16              		.cfi_sections	.debug_frame
  17              		.global	__aeabi_f2d
  18              		.global	__aeabi_d2f
  19              		.global	__aeabi_dsub
  20              		.global	__aeabi_dadd
  21              		.global	__aeabi_ddiv
  22              		.section	.text.saturateM,"ax",%progbits
  23              		.align	1
  24              		.global	saturateM
  25              		.arch armv7e-m
  26              		.syntax unified
  27              		.thumb
  28              		.thumb_func
  29              		.fpu fpv5-sp-d16
  31              	saturateM:
  32              	.LVL0:
  33              	.LFB174:
  34              		.file 1 "Core/drogui/src/controlTasks.c"
   1:Core/drogui/src/controlTasks.c **** #include "controlTasks.h"
   2:Core/drogui/src/controlTasks.c **** #include "filter.h"
   3:Core/drogui/src/controlTasks.c **** #include "task.h"
   4:Core/drogui/src/controlTasks.c **** #include "pwm.h"
   5:Core/drogui/src/controlTasks.c **** 
   6:Core/drogui/src/controlTasks.c **** pwm m1, m2, m3, m4;
   7:Core/drogui/src/controlTasks.c **** pid roll2w, pitch2w, yaw2w; 
   8:Core/drogui/src/controlTasks.c **** pid wroll_control, wpitch_control, wyaw_control;
   9:Core/drogui/src/controlTasks.c **** pid z_control, x_control, y_control;
  10:Core/drogui/src/controlTasks.c **** 
  11:Core/drogui/src/controlTasks.c **** 
  12:Core/drogui/src/controlTasks.c **** float  H, H_comp, R, P, Y, H_ref, X_C, Y_C, R_MAX = PI/22.0 , P_MAX = PI/22.0;
  13:Core/drogui/src/controlTasks.c **** float M1,M2,M3,M4;
  14:Core/drogui/src/controlTasks.c **** 
  15:Core/drogui/src/controlTasks.c **** float roll_off = 0 , pitch_off = 0, yaw_off = 0, x_off = 0, y_off = 0, z_off = 0;
  16:Core/drogui/src/controlTasks.c **** float wroll_ref, wpitch_ref, wyaw_ref, roll_ref, pitch_ref, yaw_ref, x_ref, y_ref, z_ref;
  17:Core/drogui/src/controlTasks.c **** float wroll_err,wpitch_err,wyaw_err; 
  18:Core/drogui/src/controlTasks.c **** 
  19:Core/drogui/src/controlTasks.c **** //TIMEr TIMEr_wcontrol, TIMEr_rpycontrol, TIMEr_xyzcontrol;
  20:Core/drogui/src/controlTasks.c **** 
  21:Core/drogui/src/controlTasks.c **** void saturateM(float H){
  35              		.loc 1 21 24 view -0
  36              		.cfi_startproc
  37              		@ args = 0, pretend = 0, frame = 16
ARM GAS  C:\Users\USUARIO\AppData\Local\Temp\ccHfGsZ3.s 			page 2


  38              		@ frame_needed = 0, uses_anonymous_args = 0
  39              		.loc 1 21 24 is_stmt 0 view .LVU1
  40 0000 2DE9F04F 		push	{r4, r5, r6, r7, r8, r9, r10, fp, lr}
  41              	.LCFI0:
  42              		.cfi_def_cfa_offset 36
  43              		.cfi_offset 4, -36
  44              		.cfi_offset 5, -32
  45              		.cfi_offset 6, -28
  46              		.cfi_offset 7, -24
  47              		.cfi_offset 8, -20
  48              		.cfi_offset 9, -16
  49              		.cfi_offset 10, -12
  50              		.cfi_offset 11, -8
  51              		.cfi_offset 14, -4
  52 0004 2DED088B 		vpush.64	{d8, d9, d10, d11}
  53              	.LCFI1:
  54              		.cfi_def_cfa_offset 68
  55              		.cfi_offset 80, -68
  56              		.cfi_offset 81, -64
  57              		.cfi_offset 82, -60
  58              		.cfi_offset 83, -56
  59              		.cfi_offset 84, -52
  60              		.cfi_offset 85, -48
  61              		.cfi_offset 86, -44
  62              		.cfi_offset 87, -40
  63 0008 85B0     		sub	sp, sp, #20
  64              	.LCFI2:
  65              		.cfi_def_cfa_offset 88
  66 000a F0EE40AA 		vmov.f32	s21, s0
  22:Core/drogui/src/controlTasks.c ****     float f_max = 1;
  67              		.loc 1 22 5 is_stmt 1 view .LVU2
  68              	.LVL1:
  23:Core/drogui/src/controlTasks.c ****     float arr_M[] = {M1, M2, M3, M4};
  69              		.loc 1 23 5 view .LVU3
  70              		.loc 1 23 11 is_stmt 0 view .LVU4
  71 000e 6A4B     		ldr	r3, .L5+16
  72 0010 93ED00BA 		vldr.32	s22, [r3]
  73 0014 8DED00BA 		vstr.32	s22, [sp]
  74 0018 684B     		ldr	r3, .L5+20
  75 001a 1B68     		ldr	r3, [r3]	@ float
  76 001c 0193     		str	r3, [sp, #4]	@ float
  77 001e 684B     		ldr	r3, .L5+24
  78 0020 1B68     		ldr	r3, [r3]	@ float
  79 0022 0293     		str	r3, [sp, #8]	@ float
  80 0024 674B     		ldr	r3, .L5+28
  81 0026 1B68     		ldr	r3, [r3]	@ float
  82 0028 0393     		str	r3, [sp, #12]	@ float
  24:Core/drogui/src/controlTasks.c ****     for(int i = 0; i < 4 ; i++){
  83              		.loc 1 24 5 is_stmt 1 view .LVU5
  84              	.LBB2:
  85              		.loc 1 24 9 view .LVU6
  86              	.LVL2:
  87              		.loc 1 24 13 is_stmt 0 view .LVU7
  88 002a 4FF0000A 		mov	r10, #0
  89              	.LBE2:
  22:Core/drogui/src/controlTasks.c ****     float f_max = 1;
  90              		.loc 1 22 11 view .LVU8
ARM GAS  C:\Users\USUARIO\AppData\Local\Temp\ccHfGsZ3.s 			page 3


  91 002e B7EE008A 		vmov.f32	s16, #1.0e+0
  92              	.LBB4:
  93              		.loc 1 24 5 view .LVU9
  94 0032 60E0     		b	.L2
  95              	.LVL3:
  96              	.L3:
  97              	.LBB3:
  25:Core/drogui/src/controlTasks.c ****         float delta = fmax(fmax(arr_M[i] + H - 10000, -arr_M[i]-H), 0);
  98              		.loc 1 25 9 is_stmt 1 discriminator 3 view .LVU10
  99              		.loc 1 25 38 is_stmt 0 discriminator 3 view .LVU11
 100 0034 04AB     		add	r3, sp, #16
 101 0036 03EB8A03 		add	r3, r3, r10, lsl #2
 102 003a 53ED048A 		vldr.32	s17, [r3, #-16]
 103              		.loc 1 25 42 discriminator 3 view .LVU12
 104 003e 38EEAAAA 		vadd.f32	s20, s17, s21
 105              		.loc 1 25 46 discriminator 3 view .LVU13
 106 0042 DFED617A 		vldr.32	s15, .L5+32
 107 0046 3AEE67AA 		vsub.f32	s20, s20, s15
 108              		.loc 1 25 55 discriminator 3 view .LVU14
 109 004a F1EE687A 		vneg.f32	s15, s17
 110              		.loc 1 25 23 discriminator 3 view .LVU15
 111 004e 77EEEA7A 		vsub.f32	s15, s15, s21
 112 0052 17EE900A 		vmov	r0, s15
 113 0056 FFF7FEFF 		bl	__aeabi_f2d
 114              	.LVL4:
 115 005a 41EC190B 		vmov	d9, r0, r1
 116 005e 1AEE100A 		vmov	r0, s20
 117 0062 FFF7FEFF 		bl	__aeabi_f2d
 118              	.LVL5:
 119 0066 B0EE491A 		vmov.f32	s2, s18
 120 006a F0EE691A 		vmov.f32	s3, s19
 121 006e 41EC100B 		vmov	d0, r0, r1
 122 0072 FFF7FEFF 		bl	fmax
 123              	.LVL6:
 124 0076 9FED4C1B 		vldr.64	d1, .L5
 125 007a FFF7FEFF 		bl	fmax
 126              	.LVL7:
 127 007e 51EC100B 		vmov	r0, r1, d0
 128              		.loc 1 25 15 discriminator 3 view .LVU16
 129 0082 FFF7FEFF 		bl	__aeabi_d2f
 130              	.LVL8:
 131 0086 8346     		mov	fp, r0	@ float
 132              	.LVL9:
  26:Core/drogui/src/controlTasks.c ****         f_max = fmax(f_max, fabs(arr_M[i] / (fabs(arr_M[i]) - delta + 0.0000001)) );
 133              		.loc 1 26 9 is_stmt 1 discriminator 3 view .LVU17
 134              		.loc 1 26 39 is_stmt 0 discriminator 3 view .LVU18
 135 0088 18EE900A 		vmov	r0, s17
 136              	.LVL10:
 137              		.loc 1 26 39 discriminator 3 view .LVU19
 138 008c FFF7FEFF 		bl	__aeabi_f2d
 139              	.LVL11:
 140 0090 0446     		mov	r4, r0
 141 0092 0D46     		mov	r5, r1
 142              		.loc 1 26 46 discriminator 3 view .LVU20
 143 0094 F0EEE87A 		vabs.f32	s15, s17
 144 0098 17EE900A 		vmov	r0, s15
 145 009c FFF7FEFF 		bl	__aeabi_f2d
ARM GAS  C:\Users\USUARIO\AppData\Local\Temp\ccHfGsZ3.s 			page 4


 146              	.LVL12:
 147 00a0 0646     		mov	r6, r0
 148 00a2 0F46     		mov	r7, r1
 149              		.loc 1 26 61 discriminator 3 view .LVU21
 150 00a4 5846     		mov	r0, fp	@ float
 151 00a6 FFF7FEFF 		bl	__aeabi_f2d
 152              	.LVL13:
 153 00aa 0246     		mov	r2, r0
 154 00ac 0B46     		mov	r3, r1
 155 00ae 3046     		mov	r0, r6
 156 00b0 3946     		mov	r1, r7
 157 00b2 FFF7FEFF 		bl	__aeabi_dsub
 158              	.LVL14:
 159              		.loc 1 26 69 discriminator 3 view .LVU22
 160 00b6 3EA3     		adr	r3, .L5+8
 161 00b8 D3E90023 		ldrd	r2, [r3]
 162 00bc FFF7FEFF 		bl	__aeabi_dadd
 163              	.LVL15:
 164 00c0 0246     		mov	r2, r0
 165 00c2 0B46     		mov	r3, r1
 166              		.loc 1 26 43 discriminator 3 view .LVU23
 167 00c4 2046     		mov	r0, r4
 168 00c6 2946     		mov	r1, r5
 169 00c8 FFF7FEFF 		bl	__aeabi_ddiv
 170              	.LVL16:
 171              		.loc 1 26 17 discriminator 3 view .LVU24
 172 00cc 8046     		mov	r8, r0
 173 00ce 21F00049 		bic	r9, r1, #-2147483648
 174 00d2 18EE100A 		vmov	r0, s16
 175 00d6 FFF7FEFF 		bl	__aeabi_f2d
 176              	.LVL17:
 177 00da 49EC118B 		vmov	d1, r8, r9
 178 00de 41EC100B 		vmov	d0, r0, r1
 179 00e2 FFF7FEFF 		bl	fmax
 180              	.LVL18:
 181 00e6 51EC100B 		vmov	r0, r1, d0
 182              		.loc 1 26 15 discriminator 3 view .LVU25
 183 00ea FFF7FEFF 		bl	__aeabi_d2f
 184              	.LVL19:
 185 00ee 08EE100A 		vmov	s16, r0
 186              	.LVL20:
 187              		.loc 1 26 15 discriminator 3 view .LVU26
 188              	.LBE3:
  24:Core/drogui/src/controlTasks.c ****     for(int i = 0; i < 4 ; i++){
 189              		.loc 1 24 28 is_stmt 1 discriminator 3 view .LVU27
  24:Core/drogui/src/controlTasks.c ****     for(int i = 0; i < 4 ; i++){
 190              		.loc 1 24 29 is_stmt 0 discriminator 3 view .LVU28
 191 00f2 0AF1010A 		add	r10, r10, #1
 192              	.LVL21:
 193              	.L2:
  24:Core/drogui/src/controlTasks.c ****     for(int i = 0; i < 4 ; i++){
 194              		.loc 1 24 20 is_stmt 1 discriminator 1 view .LVU29
  24:Core/drogui/src/controlTasks.c ****     for(int i = 0; i < 4 ; i++){
 195              		.loc 1 24 5 is_stmt 0 discriminator 1 view .LVU30
 196 00f6 BAF1030F 		cmp	r10, #3
 197 00fa 9BDD     		ble	.L3
 198              	.LBE4:
ARM GAS  C:\Users\USUARIO\AppData\Local\Temp\ccHfGsZ3.s 			page 5


  27:Core/drogui/src/controlTasks.c ****     }
  28:Core/drogui/src/controlTasks.c **** 
  29:Core/drogui/src/controlTasks.c ****     M1 = sqrt(M1 / f_max + H);
 199              		.loc 1 29 5 is_stmt 1 view .LVU31
 200              		.loc 1 29 18 is_stmt 0 view .LVU32
 201 00fc CBEE087A 		vdiv.f32	s15, s22, s16
 202              		.loc 1 29 10 view .LVU33
 203 0100 77EEAA7A 		vadd.f32	s15, s15, s21
 204 0104 17EE900A 		vmov	r0, s15
 205 0108 FFF7FEFF 		bl	__aeabi_f2d
 206              	.LVL22:
 207 010c 41EC100B 		vmov	d0, r0, r1
 208 0110 FFF7FEFF 		bl	sqrt
 209              	.LVL23:
 210 0114 51EC100B 		vmov	r0, r1, d0
 211 0118 FFF7FEFF 		bl	__aeabi_d2f
 212              	.LVL24:
 213              		.loc 1 29 8 view .LVU34
 214 011c 264B     		ldr	r3, .L5+16
 215 011e 1860     		str	r0, [r3]	@ float
  30:Core/drogui/src/controlTasks.c ****     M2 = sqrt(M2 / f_max + H);
 216              		.loc 1 30 5 is_stmt 1 view .LVU35
 217              		.loc 1 30 18 is_stmt 0 view .LVU36
 218 0120 264C     		ldr	r4, .L5+20
 219 0122 94ED007A 		vldr.32	s14, [r4]
 220 0126 C7EE087A 		vdiv.f32	s15, s14, s16
 221              		.loc 1 30 10 view .LVU37
 222 012a 77EEAA7A 		vadd.f32	s15, s15, s21
 223 012e 17EE900A 		vmov	r0, s15
 224 0132 FFF7FEFF 		bl	__aeabi_f2d
 225              	.LVL25:
 226 0136 41EC100B 		vmov	d0, r0, r1
 227 013a FFF7FEFF 		bl	sqrt
 228              	.LVL26:
 229 013e 51EC100B 		vmov	r0, r1, d0
 230 0142 FFF7FEFF 		bl	__aeabi_d2f
 231              	.LVL27:
 232              		.loc 1 30 8 view .LVU38
 233 0146 2060     		str	r0, [r4]	@ float
  31:Core/drogui/src/controlTasks.c ****     M3 = sqrt(M3 / f_max + H);
 234              		.loc 1 31 5 is_stmt 1 view .LVU39
 235              		.loc 1 31 18 is_stmt 0 view .LVU40
 236 0148 1D4C     		ldr	r4, .L5+24
 237 014a 94ED007A 		vldr.32	s14, [r4]
 238 014e C7EE087A 		vdiv.f32	s15, s14, s16
 239              		.loc 1 31 10 view .LVU41
 240 0152 77EEAA7A 		vadd.f32	s15, s15, s21
 241 0156 17EE900A 		vmov	r0, s15
 242 015a FFF7FEFF 		bl	__aeabi_f2d
 243              	.LVL28:
 244 015e 41EC100B 		vmov	d0, r0, r1
 245 0162 FFF7FEFF 		bl	sqrt
 246              	.LVL29:
 247 0166 51EC100B 		vmov	r0, r1, d0
 248 016a FFF7FEFF 		bl	__aeabi_d2f
 249              	.LVL30:
 250              		.loc 1 31 8 view .LVU42
ARM GAS  C:\Users\USUARIO\AppData\Local\Temp\ccHfGsZ3.s 			page 6


 251 016e 2060     		str	r0, [r4]	@ float
  32:Core/drogui/src/controlTasks.c ****     M4 = sqrt(M4 / f_max + H);
 252              		.loc 1 32 5 is_stmt 1 view .LVU43
 253              		.loc 1 32 18 is_stmt 0 view .LVU44
 254 0170 144C     		ldr	r4, .L5+28
 255 0172 94ED007A 		vldr.32	s14, [r4]
 256 0176 C7EE087A 		vdiv.f32	s15, s14, s16
 257              		.loc 1 32 10 view .LVU45
 258 017a 77EEAA7A 		vadd.f32	s15, s15, s21
 259 017e 17EE900A 		vmov	r0, s15
 260 0182 FFF7FEFF 		bl	__aeabi_f2d
 261              	.LVL31:
 262 0186 41EC100B 		vmov	d0, r0, r1
 263 018a FFF7FEFF 		bl	sqrt
 264              	.LVL32:
 265 018e 51EC100B 		vmov	r0, r1, d0
 266 0192 FFF7FEFF 		bl	__aeabi_d2f
 267              	.LVL33:
 268              		.loc 1 32 8 view .LVU46
 269 0196 2060     		str	r0, [r4]	@ float
  33:Core/drogui/src/controlTasks.c **** }
 270              		.loc 1 33 1 view .LVU47
 271 0198 05B0     		add	sp, sp, #20
 272              	.LCFI3:
 273              		.cfi_def_cfa_offset 68
 274              		@ sp needed
 275 019a BDEC088B 		vldm	sp!, {d8-d11}
 276              	.LCFI4:
 277              		.cfi_restore 86
 278              		.cfi_restore 87
 279              		.cfi_restore 84
 280              		.cfi_restore 85
 281              		.cfi_restore 82
 282              		.cfi_restore 83
 283              		.cfi_restore 80
 284              		.cfi_restore 81
 285              		.cfi_def_cfa_offset 36
 286              	.LVL34:
 287              		.loc 1 33 1 view .LVU48
 288 019e BDE8F08F 		pop	{r4, r5, r6, r7, r8, r9, r10, fp, pc}
 289              	.LVL35:
 290              	.L6:
 291              		.loc 1 33 1 view .LVU49
 292 01a2 00BFAFF3 		.align	3
 292      0080
 293              	.L5:
 294 01a8 00000000 		.word	0
 295 01ac 00000000 		.word	0
 296 01b0 48AFBC9A 		.word	-1698910392
 297 01b4 F2D77A3E 		.word	1048238066
 298 01b8 00000000 		.word	.LANCHOR0
 299 01bc 00000000 		.word	.LANCHOR1
 300 01c0 00000000 		.word	.LANCHOR2
 301 01c4 00000000 		.word	.LANCHOR3
 302 01c8 00401C46 		.word	1176256512
 303              		.cfi_endproc
 304              	.LFE174:
ARM GAS  C:\Users\USUARIO\AppData\Local\Temp\ccHfGsZ3.s 			page 7


 306              		.section	.text.updatePID,"ax",%progbits
 307              		.align	1
 308              		.global	updatePID
 309              		.syntax unified
 310              		.thumb
 311              		.thumb_func
 312              		.fpu fpv5-sp-d16
 314              	updatePID:
 315              	.LFB175:
  34:Core/drogui/src/controlTasks.c **** 
  35:Core/drogui/src/controlTasks.c **** 
  36:Core/drogui/src/controlTasks.c **** void updatePID(){
 316              		.loc 1 36 17 is_stmt 1 view -0
 317              		.cfi_startproc
 318              		@ args = 0, pretend = 0, frame = 0
 319              		@ frame_needed = 0, uses_anonymous_args = 0
 320 0000 10B5     		push	{r4, lr}
 321              	.LCFI5:
 322              		.cfi_def_cfa_offset 8
 323              		.cfi_offset 4, -8
 324              		.cfi_offset 14, -4
  37:Core/drogui/src/controlTasks.c ****     int index = getReg(PID_INDEX), var = getReg(PID_VAR);
 325              		.loc 1 37 5 view .LVU51
 326              		.loc 1 37 17 is_stmt 0 view .LVU52
 327 0002 6220     		movs	r0, #98
 328 0004 FFF7FEFF 		bl	getReg
 329              	.LVL36:
 330              		.loc 1 37 9 view .LVU53
 331 0008 FDEEC07A 		vcvt.s32.f32	s15, s0
 332 000c 17EE904A 		vmov	r4, s15	@ int
 333              	.LVL37:
 334              		.loc 1 37 42 view .LVU54
 335 0010 6420     		movs	r0, #100
 336 0012 FFF7FEFF 		bl	getReg
 337              	.LVL38:
  38:Core/drogui/src/controlTasks.c ****     if(index >= 0) {
 338              		.loc 1 38 5 is_stmt 1 view .LVU55
 339              		.loc 1 38 7 is_stmt 0 view .LVU56
 340 0016 002C     		cmp	r4, #0
 341 0018 C0F29980 		blt	.L7
 342 001c BDEEC00A 		vcvt.s32.f32	s0, s0
 343              	.LVL39:
  39:Core/drogui/src/controlTasks.c ****         switch(var){
 344              		.loc 1 39 9 is_stmt 1 view .LVU57
 345 0020 10EE103A 		vmov	r3, s0	@ int
 346 0024 052B     		cmp	r3, #5
 347 0026 7DD8     		bhi	.L9
 348 0028 DFE803F0 		tbb	[pc, r3]
 349              	.L11:
 350 002c 03       		.byte	(.L14-.L11)/2
 351 002d 26       		.byte	(.L13-.L11)/2
 352 002e 49       		.byte	(.L12-.L11)/2
 353 002f 7C       		.byte	(.L9-.L11)/2
 354 0030 7C       		.byte	(.L9-.L11)/2
 355 0031 6C       		.byte	(.L10-.L11)/2
 356              		.p2align 1
 357              	.L14:
ARM GAS  C:\Users\USUARIO\AppData\Local\Temp\ccHfGsZ3.s 			page 8


  40:Core/drogui/src/controlTasks.c **** 
  41:Core/drogui/src/controlTasks.c ****             case PID_ROLL:
  42:Core/drogui/src/controlTasks.c ****                 if(index == 0)
 358              		.loc 1 42 17 view .LVU58
 359              		.loc 1 42 19 is_stmt 0 view .LVU59
 360 0032 84B9     		cbnz	r4, .L15
  43:Core/drogui/src/controlTasks.c ****                     roll2w.kp[0] = getReg(ROLL_KP),  roll2w.ki[0] = getReg(ROLL_KI),  roll2w.kd[0] 
 361              		.loc 1 43 21 is_stmt 1 view .LVU60
 362              		.loc 1 43 36 is_stmt 0 view .LVU61
 363 0034 0A20     		movs	r0, #10
 364 0036 FFF7FEFF 		bl	getReg
 365              	.LVL40:
 366              		.loc 1 43 34 view .LVU62
 367 003a 454C     		ldr	r4, .L19
 368              	.LVL41:
 369              		.loc 1 43 34 view .LVU63
 370 003c 84ED000A 		vstr.32	s0, [r4]
 371              		.loc 1 43 69 view .LVU64
 372 0040 0C20     		movs	r0, #12
 373 0042 FFF7FEFF 		bl	getReg
 374              	.LVL42:
 375              		.loc 1 43 67 view .LVU65
 376 0046 84ED0A0A 		vstr.32	s0, [r4, #40]
 377              		.loc 1 43 102 view .LVU66
 378 004a 0E20     		movs	r0, #14
 379 004c FFF7FEFF 		bl	getReg
 380              	.LVL43:
 381              		.loc 1 43 100 view .LVU67
 382 0050 84ED050A 		vstr.32	s0, [r4, #20]
 383 0054 66E0     		b	.L9
 384              	.LVL44:
 385              	.L15:
  44:Core/drogui/src/controlTasks.c ****                 else
  45:Core/drogui/src/controlTasks.c ****                     wroll_control.kp[0] = getReg(ROLL_KP),  wroll_control.ki[0] = getReg(ROLL_KI), 
 386              		.loc 1 45 21 is_stmt 1 view .LVU68
 387              		.loc 1 45 43 is_stmt 0 view .LVU69
 388 0056 0A20     		movs	r0, #10
 389 0058 FFF7FEFF 		bl	getReg
 390              	.LVL45:
 391              		.loc 1 45 41 view .LVU70
 392 005c 3D4C     		ldr	r4, .L19+4
 393              	.LVL46:
 394              		.loc 1 45 41 view .LVU71
 395 005e 84ED000A 		vstr.32	s0, [r4]
 396              		.loc 1 45 83 view .LVU72
 397 0062 0C20     		movs	r0, #12
 398 0064 FFF7FEFF 		bl	getReg
 399              	.LVL47:
 400              		.loc 1 45 81 view .LVU73
 401 0068 84ED0A0A 		vstr.32	s0, [r4, #40]
 402              		.loc 1 45 123 view .LVU74
 403 006c 0E20     		movs	r0, #14
 404 006e FFF7FEFF 		bl	getReg
 405              	.LVL48:
 406              		.loc 1 45 121 view .LVU75
 407 0072 84ED050A 		vstr.32	s0, [r4, #20]
 408 0076 55E0     		b	.L9
ARM GAS  C:\Users\USUARIO\AppData\Local\Temp\ccHfGsZ3.s 			page 9


 409              	.LVL49:
 410              	.L13:
  46:Core/drogui/src/controlTasks.c **** 
  47:Core/drogui/src/controlTasks.c ****             break;
  48:Core/drogui/src/controlTasks.c ****             
  49:Core/drogui/src/controlTasks.c ****             case PID_PITCH:
  50:Core/drogui/src/controlTasks.c ****                 if(index == 0)
 411              		.loc 1 50 17 is_stmt 1 view .LVU76
 412              		.loc 1 50 19 is_stmt 0 view .LVU77
 413 0078 84B9     		cbnz	r4, .L16
  51:Core/drogui/src/controlTasks.c ****                     pitch2w.kp[0] = getReg(PITCH_KP),  pitch2w.ki[0] = getReg(PITCH_KI),  pitch2w.k
 414              		.loc 1 51 21 is_stmt 1 view .LVU78
 415              		.loc 1 51 37 is_stmt 0 view .LVU79
 416 007a 1020     		movs	r0, #16
 417 007c FFF7FEFF 		bl	getReg
 418              	.LVL50:
 419              		.loc 1 51 35 view .LVU80
 420 0080 354C     		ldr	r4, .L19+8
 421              	.LVL51:
 422              		.loc 1 51 35 view .LVU81
 423 0082 84ED000A 		vstr.32	s0, [r4]
 424              		.loc 1 51 72 view .LVU82
 425 0086 1220     		movs	r0, #18
 426 0088 FFF7FEFF 		bl	getReg
 427              	.LVL52:
 428              		.loc 1 51 70 view .LVU83
 429 008c 84ED0A0A 		vstr.32	s0, [r4, #40]
 430              		.loc 1 51 107 view .LVU84
 431 0090 1420     		movs	r0, #20
 432 0092 FFF7FEFF 		bl	getReg
 433              	.LVL53:
 434              		.loc 1 51 105 view .LVU85
 435 0096 84ED050A 		vstr.32	s0, [r4, #20]
 436 009a 43E0     		b	.L9
 437              	.LVL54:
 438              	.L16:
  52:Core/drogui/src/controlTasks.c ****                 else
  53:Core/drogui/src/controlTasks.c ****                     wpitch_control.kp[0] = getReg(PITCH_KP),  wpitch_control.ki[0] = getReg(PITCH_K
 439              		.loc 1 53 21 is_stmt 1 view .LVU86
 440              		.loc 1 53 44 is_stmt 0 view .LVU87
 441 009c 1020     		movs	r0, #16
 442 009e FFF7FEFF 		bl	getReg
 443              	.LVL55:
 444              		.loc 1 53 42 view .LVU88
 445 00a2 2E4C     		ldr	r4, .L19+12
 446              	.LVL56:
 447              		.loc 1 53 42 view .LVU89
 448 00a4 84ED000A 		vstr.32	s0, [r4]
 449              		.loc 1 53 86 view .LVU90
 450 00a8 1220     		movs	r0, #18
 451 00aa FFF7FEFF 		bl	getReg
 452              	.LVL57:
 453              		.loc 1 53 84 view .LVU91
 454 00ae 84ED0A0A 		vstr.32	s0, [r4, #40]
 455              		.loc 1 53 128 view .LVU92
 456 00b2 1420     		movs	r0, #20
 457 00b4 FFF7FEFF 		bl	getReg
ARM GAS  C:\Users\USUARIO\AppData\Local\Temp\ccHfGsZ3.s 			page 10


 458              	.LVL58:
 459              		.loc 1 53 126 view .LVU93
 460 00b8 84ED050A 		vstr.32	s0, [r4, #20]
 461 00bc 32E0     		b	.L9
 462              	.LVL59:
 463              	.L12:
  54:Core/drogui/src/controlTasks.c **** 
  55:Core/drogui/src/controlTasks.c ****             break;
  56:Core/drogui/src/controlTasks.c **** 
  57:Core/drogui/src/controlTasks.c ****             case PID_YAW:
  58:Core/drogui/src/controlTasks.c ****                 if(index == 0)
 464              		.loc 1 58 17 is_stmt 1 view .LVU94
 465              		.loc 1 58 19 is_stmt 0 view .LVU95
 466 00be 84B9     		cbnz	r4, .L17
  59:Core/drogui/src/controlTasks.c ****                     yaw2w.kp[0] = getReg(YAW_KP),  yaw2w.ki[0] = getReg(YAW_KI),  yaw2w.kd[0] = get
 467              		.loc 1 59 21 is_stmt 1 view .LVU96
 468              		.loc 1 59 35 is_stmt 0 view .LVU97
 469 00c0 1620     		movs	r0, #22
 470 00c2 FFF7FEFF 		bl	getReg
 471              	.LVL60:
 472              		.loc 1 59 33 view .LVU98
 473 00c6 264C     		ldr	r4, .L19+16
 474              	.LVL61:
 475              		.loc 1 59 33 view .LVU99
 476 00c8 84ED000A 		vstr.32	s0, [r4]
 477              		.loc 1 59 66 view .LVU100
 478 00cc 1820     		movs	r0, #24
 479 00ce FFF7FEFF 		bl	getReg
 480              	.LVL62:
 481              		.loc 1 59 64 view .LVU101
 482 00d2 84ED0A0A 		vstr.32	s0, [r4, #40]
 483              		.loc 1 59 97 view .LVU102
 484 00d6 1A20     		movs	r0, #26
 485 00d8 FFF7FEFF 		bl	getReg
 486              	.LVL63:
 487              		.loc 1 59 95 view .LVU103
 488 00dc 84ED050A 		vstr.32	s0, [r4, #20]
 489 00e0 20E0     		b	.L9
 490              	.LVL64:
 491              	.L17:
  60:Core/drogui/src/controlTasks.c ****                 else
  61:Core/drogui/src/controlTasks.c ****                     wyaw_control.kp[0] = getReg(YAW_KP),  wyaw_control.ki[0] = getReg(YAW_KI),  wya
 492              		.loc 1 61 21 is_stmt 1 view .LVU104
 493              		.loc 1 61 42 is_stmt 0 view .LVU105
 494 00e2 1620     		movs	r0, #22
 495 00e4 FFF7FEFF 		bl	getReg
 496              	.LVL65:
 497              		.loc 1 61 40 view .LVU106
 498 00e8 1E4C     		ldr	r4, .L19+20
 499              	.LVL66:
 500              		.loc 1 61 40 view .LVU107
 501 00ea 84ED000A 		vstr.32	s0, [r4]
 502              		.loc 1 61 80 view .LVU108
 503 00ee 1820     		movs	r0, #24
 504 00f0 FFF7FEFF 		bl	getReg
 505              	.LVL67:
 506              		.loc 1 61 78 view .LVU109
ARM GAS  C:\Users\USUARIO\AppData\Local\Temp\ccHfGsZ3.s 			page 11


 507 00f4 84ED0A0A 		vstr.32	s0, [r4, #40]
 508              		.loc 1 61 118 view .LVU110
 509 00f8 1A20     		movs	r0, #26
 510 00fa FFF7FEFF 		bl	getReg
 511              	.LVL68:
 512              		.loc 1 61 116 view .LVU111
 513 00fe 84ED050A 		vstr.32	s0, [r4, #20]
 514 0102 0FE0     		b	.L9
 515              	.LVL69:
 516              	.L10:
  62:Core/drogui/src/controlTasks.c **** 
  63:Core/drogui/src/controlTasks.c ****             break;
  64:Core/drogui/src/controlTasks.c ****             
  65:Core/drogui/src/controlTasks.c ****             case PID_Z:
  66:Core/drogui/src/controlTasks.c ****                 z_control.kp[0] = getReg(Z_KP);
 517              		.loc 1 66 17 is_stmt 1 view .LVU112
 518              		.loc 1 66 35 is_stmt 0 view .LVU113
 519 0104 2820     		movs	r0, #40
 520 0106 FFF7FEFF 		bl	getReg
 521              	.LVL70:
 522              		.loc 1 66 33 view .LVU114
 523 010a 174C     		ldr	r4, .L19+24
 524              	.LVL71:
 525              		.loc 1 66 33 view .LVU115
 526 010c 84ED000A 		vstr.32	s0, [r4]
  67:Core/drogui/src/controlTasks.c ****                 z_control.ki[0] = getReg(Z_KI);
 527              		.loc 1 67 17 is_stmt 1 view .LVU116
 528              		.loc 1 67 35 is_stmt 0 view .LVU117
 529 0110 2A20     		movs	r0, #42
 530 0112 FFF7FEFF 		bl	getReg
 531              	.LVL72:
 532              		.loc 1 67 33 view .LVU118
 533 0116 84ED0A0A 		vstr.32	s0, [r4, #40]
  68:Core/drogui/src/controlTasks.c ****                 z_control.kd[0] = getReg(Z_KD);
 534              		.loc 1 68 17 is_stmt 1 view .LVU119
 535              		.loc 1 68 35 is_stmt 0 view .LVU120
 536 011a 2C20     		movs	r0, #44
 537 011c FFF7FEFF 		bl	getReg
 538              	.LVL73:
 539              		.loc 1 68 33 view .LVU121
 540 0120 84ED050A 		vstr.32	s0, [r4, #20]
  69:Core/drogui/src/controlTasks.c ****             break;
 541              		.loc 1 69 13 is_stmt 1 view .LVU122
 542              	.L9:
  70:Core/drogui/src/controlTasks.c ****         }
  71:Core/drogui/src/controlTasks.c ****         roll2w.N_filt = pitch2w.N_filt = yaw2w.N_filt = wroll_control.N_filt = wpitch_control.N_fil
 543              		.loc 1 71 9 view .LVU123
 544              		.loc 1 71 126 is_stmt 0 view .LVU124
 545 0124 9A20     		movs	r0, #154
 546 0126 FFF7FEFF 		bl	getReg
 547              	.LVL74:
 548              		.loc 1 71 124 view .LVU125
 549 012a 0E4B     		ldr	r3, .L19+20
 550 012c 83ED260A 		vstr.32	s0, [r3, #152]
 551              		.loc 1 71 102 view .LVU126
 552 0130 0A4B     		ldr	r3, .L19+12
 553 0132 83ED260A 		vstr.32	s0, [r3, #152]
ARM GAS  C:\Users\USUARIO\AppData\Local\Temp\ccHfGsZ3.s 			page 12


 554              		.loc 1 71 78 view .LVU127
 555 0136 074B     		ldr	r3, .L19+4
 556 0138 83ED260A 		vstr.32	s0, [r3, #152]
 557              		.loc 1 71 55 view .LVU128
 558 013c 084B     		ldr	r3, .L19+16
 559 013e 83ED260A 		vstr.32	s0, [r3, #152]
 560              		.loc 1 71 40 view .LVU129
 561 0142 054B     		ldr	r3, .L19+8
 562 0144 83ED260A 		vstr.32	s0, [r3, #152]
 563              		.loc 1 71 23 view .LVU130
 564 0148 014B     		ldr	r3, .L19
 565 014a 83ED260A 		vstr.32	s0, [r3, #152]
 566              	.L7:
  72:Core/drogui/src/controlTasks.c ****     }
  73:Core/drogui/src/controlTasks.c **** }
 567              		.loc 1 73 1 view .LVU131
 568 014e 10BD     		pop	{r4, pc}
 569              	.L20:
 570              		.align	2
 571              	.L19:
 572 0150 00000000 		.word	.LANCHOR4
 573 0154 00000000 		.word	.LANCHOR5
 574 0158 00000000 		.word	.LANCHOR6
 575 015c 00000000 		.word	.LANCHOR7
 576 0160 00000000 		.word	.LANCHOR8
 577 0164 00000000 		.word	.LANCHOR9
 578 0168 00000000 		.word	.LANCHOR10
 579              		.cfi_endproc
 580              	.LFE175:
 582              		.section	.text.wControlTask,"ax",%progbits
 583              		.align	1
 584              		.global	wControlTask
 585              		.syntax unified
 586              		.thumb
 587              		.thumb_func
 588              		.fpu fpv5-sp-d16
 590              	wControlTask:
 591              	.LFB176:
  74:Core/drogui/src/controlTasks.c **** 
  75:Core/drogui/src/controlTasks.c **** 
  76:Core/drogui/src/controlTasks.c **** 
  77:Core/drogui/src/controlTasks.c **** 
  78:Core/drogui/src/controlTasks.c **** void wControlTask(){ 
 592              		.loc 1 78 20 is_stmt 1 view -0
 593              		.cfi_startproc
 594              		@ args = 0, pretend = 0, frame = 0
 595              		@ frame_needed = 0, uses_anonymous_args = 0
 596 0000 2DE9F843 		push	{r3, r4, r5, r6, r7, r8, r9, lr}
 597              	.LCFI6:
 598              		.cfi_def_cfa_offset 32
 599              		.cfi_offset 3, -32
 600              		.cfi_offset 4, -28
 601              		.cfi_offset 5, -24
 602              		.cfi_offset 6, -20
 603              		.cfi_offset 7, -16
 604              		.cfi_offset 8, -12
 605              		.cfi_offset 9, -8
ARM GAS  C:\Users\USUARIO\AppData\Local\Temp\ccHfGsZ3.s 			page 13


 606              		.cfi_offset 14, -4
 607 0004 2DED068B 		vpush.64	{d8, d9, d10}
 608              	.LCFI7:
 609              		.cfi_def_cfa_offset 56
 610              		.cfi_offset 80, -56
 611              		.cfi_offset 81, -52
 612              		.cfi_offset 82, -48
 613              		.cfi_offset 83, -44
 614              		.cfi_offset 84, -40
 615              		.cfi_offset 85, -36
  79:Core/drogui/src/controlTasks.c ****     
  80:Core/drogui/src/controlTasks.c ****     wroll_err = fmax( fmin( wroll_ref - gx , 100), -100);
 616              		.loc 1 80 5 view .LVU133
 617              		.loc 1 80 39 is_stmt 0 view .LVU134
 618 0008 C74B     		ldr	r3, .L25+24
 619 000a 93ED007A 		vldr.32	s14, [r3]
 620 000e C74B     		ldr	r3, .L25+28
 621 0010 D3ED007A 		vldr.32	s15, [r3]
 622              		.loc 1 80 17 view .LVU135
 623 0014 9FEDBEAB 		vldr.64	d10, .L25
 624 0018 77EE677A 		vsub.f32	s15, s14, s15
 625 001c 17EE900A 		vmov	r0, s15
 626 0020 FFF7FEFF 		bl	__aeabi_f2d
 627              	.LVL75:
 628 0024 B0EE4A1A 		vmov.f32	s2, s20
 629 0028 F0EE6A1A 		vmov.f32	s3, s21
 630 002c 41EC100B 		vmov	d0, r0, r1
 631 0030 FFF7FEFF 		bl	fmin
 632              	.LVL76:
 633 0034 9FEDB89B 		vldr.64	d9, .L25+8
 634 0038 B0EE491A 		vmov.f32	s2, s18
 635 003c F0EE691A 		vmov.f32	s3, s19
 636 0040 FFF7FEFF 		bl	fmax
 637              	.LVL77:
 638 0044 51EC100B 		vmov	r0, r1, d0
 639 0048 FFF7FEFF 		bl	__aeabi_d2f
 640              	.LVL78:
 641 004c 08EE100A 		vmov	s16, r0
 642              		.loc 1 80 15 view .LVU136
 643 0050 B74B     		ldr	r3, .L25+32
 644 0052 1860     		str	r0, [r3]	@ float
  81:Core/drogui/src/controlTasks.c ****     wpitch_err = fmax( fmin( wpitch_ref - gy , 100), -100);
 645              		.loc 1 81 5 is_stmt 1 view .LVU137
 646              		.loc 1 81 41 is_stmt 0 view .LVU138
 647 0054 B74B     		ldr	r3, .L25+36
 648 0056 93ED007A 		vldr.32	s14, [r3]
 649 005a B74B     		ldr	r3, .L25+40
 650 005c D3ED007A 		vldr.32	s15, [r3]
 651              		.loc 1 81 18 view .LVU139
 652 0060 77EE677A 		vsub.f32	s15, s14, s15
 653 0064 17EE900A 		vmov	r0, s15
 654 0068 FFF7FEFF 		bl	__aeabi_f2d
 655              	.LVL79:
 656 006c B0EE4A1A 		vmov.f32	s2, s20
 657 0070 F0EE6A1A 		vmov.f32	s3, s21
 658 0074 41EC100B 		vmov	d0, r0, r1
 659 0078 FFF7FEFF 		bl	fmin
ARM GAS  C:\Users\USUARIO\AppData\Local\Temp\ccHfGsZ3.s 			page 14


 660              	.LVL80:
 661 007c B0EE491A 		vmov.f32	s2, s18
 662 0080 F0EE691A 		vmov.f32	s3, s19
 663 0084 FFF7FEFF 		bl	fmax
 664              	.LVL81:
 665 0088 51EC100B 		vmov	r0, r1, d0
 666 008c FFF7FEFF 		bl	__aeabi_d2f
 667              	.LVL82:
 668              		.loc 1 81 16 view .LVU140
 669 0090 AA4D     		ldr	r5, .L25+44
 670 0092 2860     		str	r0, [r5]	@ float
  82:Core/drogui/src/controlTasks.c ****     wyaw_err = fmax( fmin( wyaw_ref - gz , 100), -100);
 671              		.loc 1 82 5 is_stmt 1 view .LVU141
 672              		.loc 1 82 37 is_stmt 0 view .LVU142
 673 0094 AA4B     		ldr	r3, .L25+48
 674 0096 93ED007A 		vldr.32	s14, [r3]
 675 009a AA4B     		ldr	r3, .L25+52
 676 009c D3ED007A 		vldr.32	s15, [r3]
 677              		.loc 1 82 16 view .LVU143
 678 00a0 77EE677A 		vsub.f32	s15, s14, s15
 679 00a4 17EE900A 		vmov	r0, s15
 680 00a8 FFF7FEFF 		bl	__aeabi_f2d
 681              	.LVL83:
 682 00ac B0EE4A1A 		vmov.f32	s2, s20
 683 00b0 F0EE6A1A 		vmov.f32	s3, s21
 684 00b4 41EC100B 		vmov	d0, r0, r1
 685 00b8 FFF7FEFF 		bl	fmin
 686              	.LVL84:
 687 00bc B0EE491A 		vmov.f32	s2, s18
 688 00c0 F0EE691A 		vmov.f32	s3, s19
 689 00c4 FFF7FEFF 		bl	fmax
 690              	.LVL85:
 691 00c8 51EC100B 		vmov	r0, r1, d0
 692 00cc FFF7FEFF 		bl	__aeabi_d2f
 693              	.LVL86:
 694              		.loc 1 82 14 view .LVU144
 695 00d0 DFF8B892 		ldr	r9, .L25+124
 696 00d4 C9F80000 		str	r0, [r9]	@ float
  83:Core/drogui/src/controlTasks.c **** 
  84:Core/drogui/src/controlTasks.c **** 
  85:Core/drogui/src/controlTasks.c ****     R = computePid(&wroll_control, wroll_err, TIME, 0);
 697              		.loc 1 85 5 is_stmt 1 view .LVU145
 698              		.loc 1 85 47 is_stmt 0 view .LVU146
 699 00d8 9B4C     		ldr	r4, .L25+56
 700 00da 2368     		ldr	r3, [r4]
 701 00dc 596A     		ldr	r1, [r3, #36]
 702              		.loc 1 85 9 view .LVU147
 703 00de DFED9B8A 		vldr.32	s17, .L25+60
 704 00e2 DFF8A482 		ldr	r8, .L25+120
 705 00e6 F0EE680A 		vmov.f32	s1, s17
 706 00ea B0EE480A 		vmov.f32	s0, s16
 707 00ee 4046     		mov	r0, r8
 708 00f0 FFF7FEFF 		bl	computePid
 709              	.LVL87:
 710              		.loc 1 85 7 view .LVU148
 711 00f4 964E     		ldr	r6, .L25+64
 712 00f6 86ED000A 		vstr.32	s0, [r6]
ARM GAS  C:\Users\USUARIO\AppData\Local\Temp\ccHfGsZ3.s 			page 15


  86:Core/drogui/src/controlTasks.c ****     P = computePid(&wpitch_control, wpitch_err, TIME, 0);
 713              		.loc 1 86 5 is_stmt 1 view .LVU149
 714              		.loc 1 86 49 is_stmt 0 view .LVU150
 715 00fa 2368     		ldr	r3, [r4]
 716 00fc 596A     		ldr	r1, [r3, #36]
 717              		.loc 1 86 9 view .LVU151
 718 00fe 954F     		ldr	r7, .L25+68
 719 0100 F0EE680A 		vmov.f32	s1, s17
 720 0104 95ED000A 		vldr.32	s0, [r5]
 721 0108 3846     		mov	r0, r7
 722 010a FFF7FEFF 		bl	computePid
 723              	.LVL88:
 724              		.loc 1 86 7 view .LVU152
 725 010e 924D     		ldr	r5, .L25+72
 726 0110 85ED000A 		vstr.32	s0, [r5]
  87:Core/drogui/src/controlTasks.c ****     Y = computePid(&wyaw_control, wyaw_err, TIME, 0);
 727              		.loc 1 87 5 is_stmt 1 view .LVU153
 728              		.loc 1 87 45 is_stmt 0 view .LVU154
 729 0114 2368     		ldr	r3, [r4]
 730 0116 596A     		ldr	r1, [r3, #36]
 731              		.loc 1 87 9 view .LVU155
 732 0118 F0EE680A 		vmov.f32	s1, s17
 733 011c 99ED000A 		vldr.32	s0, [r9]
 734 0120 8E48     		ldr	r0, .L25+76
 735 0122 FFF7FEFF 		bl	computePid
 736              	.LVL89:
 737              		.loc 1 87 7 view .LVU156
 738 0126 8E4C     		ldr	r4, .L25+80
 739 0128 84ED000A 		vstr.32	s0, [r4]
  88:Core/drogui/src/controlTasks.c **** 
  89:Core/drogui/src/controlTasks.c ****     setReg(DER_GYRO_X, wroll_control.errd);
 740              		.loc 1 89 5 is_stmt 1 view .LVU157
 741 012c 98ED170A 		vldr.32	s0, [r8, #92]
 742 0130 8820     		movs	r0, #136
 743 0132 FFF7FEFF 		bl	setReg
 744              	.LVL90:
  90:Core/drogui/src/controlTasks.c ****     setReg(DER_GYRO_Y, wpitch_control.errd);
 745              		.loc 1 90 5 view .LVU158
 746 0136 97ED170A 		vldr.32	s0, [r7, #92]
 747 013a 8A20     		movs	r0, #138
 748 013c FFF7FEFF 		bl	setReg
 749              	.LVL91:
  91:Core/drogui/src/controlTasks.c **** 
  92:Core/drogui/src/controlTasks.c **** 
  93:Core/drogui/src/controlTasks.c ****     /*R = getReg(ROLL_REF);
  94:Core/drogui/src/controlTasks.c ****     P = getReg(PITCH_REF);
  95:Core/drogui/src/controlTasks.c ****     Y = getReg(YAW_REF);*/
  96:Core/drogui/src/controlTasks.c **** 
  97:Core/drogui/src/controlTasks.c ****     setReg(ROLL_U, R);
 750              		.loc 1 97 5 view .LVU159
 751 0140 96ED000A 		vldr.32	s0, [r6]
 752 0144 3A20     		movs	r0, #58
 753 0146 FFF7FEFF 		bl	setReg
 754              	.LVL92:
  98:Core/drogui/src/controlTasks.c ****     setReg(PITCH_U, P);
 755              		.loc 1 98 5 view .LVU160
 756 014a 95ED000A 		vldr.32	s0, [r5]
ARM GAS  C:\Users\USUARIO\AppData\Local\Temp\ccHfGsZ3.s 			page 16


 757 014e 3C20     		movs	r0, #60
 758 0150 FFF7FEFF 		bl	setReg
 759              	.LVL93:
  99:Core/drogui/src/controlTasks.c ****     setReg(YAW_U, Y);
 760              		.loc 1 99 5 view .LVU161
 761 0154 94ED000A 		vldr.32	s0, [r4]
 762 0158 3E20     		movs	r0, #62
 763 015a FFF7FEFF 		bl	setReg
 764              	.LVL94:
 100:Core/drogui/src/controlTasks.c ****     setReg(Z_U, H_comp);
 765              		.loc 1 100 5 view .LVU162
 766 015e DFF83082 		ldr	r8, .L25+128
 767 0162 98ED000A 		vldr.32	s0, [r8]
 768 0166 4420     		movs	r0, #68
 769 0168 FFF7FEFF 		bl	setReg
 770              	.LVL95:
 101:Core/drogui/src/controlTasks.c **** 
 102:Core/drogui/src/controlTasks.c ****     M1 = R + P + Y;
 771              		.loc 1 102 5 view .LVU163
 772              		.loc 1 102 12 is_stmt 0 view .LVU164
 773 016c 96ED006A 		vldr.32	s12, [r6]
 774 0170 D5ED007A 		vldr.32	s15, [r5]
 775 0174 36EE277A 		vadd.f32	s14, s12, s15
 776              		.loc 1 102 16 view .LVU165
 777 0178 D4ED006A 		vldr.32	s13, [r4]
 778 017c 37EE267A 		vadd.f32	s14, s14, s13
 779              		.loc 1 102 8 view .LVU166
 780 0180 784F     		ldr	r7, .L25+84
 781 0182 87ED007A 		vstr.32	s14, [r7]
 103:Core/drogui/src/controlTasks.c ****     M2 = R - P - Y;
 782              		.loc 1 103 5 is_stmt 1 view .LVU167
 783              		.loc 1 103 12 is_stmt 0 view .LVU168
 784 0186 36EE677A 		vsub.f32	s14, s12, s15
 785              		.loc 1 103 16 view .LVU169
 786 018a 37EE667A 		vsub.f32	s14, s14, s13
 787              		.loc 1 103 8 view .LVU170
 788 018e 764E     		ldr	r6, .L25+88
 789 0190 86ED007A 		vstr.32	s14, [r6]
 104:Core/drogui/src/controlTasks.c ****     M3 = -R - P + Y;
 790              		.loc 1 104 5 is_stmt 1 view .LVU171
 791              		.loc 1 104 10 is_stmt 0 view .LVU172
 792 0194 B1EE467A 		vneg.f32	s14, s12
 793              		.loc 1 104 13 view .LVU173
 794 0198 37EE677A 		vsub.f32	s14, s14, s15
 795              		.loc 1 104 17 view .LVU174
 796 019c 36EE877A 		vadd.f32	s14, s13, s14
 797              		.loc 1 104 8 view .LVU175
 798 01a0 724D     		ldr	r5, .L25+92
 799 01a2 85ED007A 		vstr.32	s14, [r5]
 105:Core/drogui/src/controlTasks.c ****     M4 = -R + P - Y;
 800              		.loc 1 105 5 is_stmt 1 view .LVU176
 801              		.loc 1 105 13 is_stmt 0 view .LVU177
 802 01a6 77EEC67A 		vsub.f32	s15, s15, s12
 803              		.loc 1 105 17 view .LVU178
 804 01aa 77EEE67A 		vsub.f32	s15, s15, s13
 805              		.loc 1 105 8 view .LVU179
 806 01ae 704C     		ldr	r4, .L25+96
ARM GAS  C:\Users\USUARIO\AppData\Local\Temp\ccHfGsZ3.s 			page 17


 807 01b0 C4ED007A 		vstr.32	s15, [r4]
 106:Core/drogui/src/controlTasks.c **** 
 107:Core/drogui/src/controlTasks.c ****     saturateM(H_comp*H_comp);
 808              		.loc 1 107 5 is_stmt 1 view .LVU180
 809 01b4 98ED000A 		vldr.32	s0, [r8]
 810 01b8 20EE000A 		vmul.f32	s0, s0, s0
 811 01bc FFF7FEFF 		bl	saturateM
 812              	.LVL96:
 108:Core/drogui/src/controlTasks.c **** 
 109:Core/drogui/src/controlTasks.c ****     setReg(MOTOR_1, M1);
 813              		.loc 1 109 5 view .LVU181
 814 01c0 97ED000A 		vldr.32	s0, [r7]
 815 01c4 8C20     		movs	r0, #140
 816 01c6 FFF7FEFF 		bl	setReg
 817              	.LVL97:
 110:Core/drogui/src/controlTasks.c ****     setReg(MOTOR_2, M2);
 818              		.loc 1 110 5 view .LVU182
 819 01ca 96ED000A 		vldr.32	s0, [r6]
 820 01ce 8E20     		movs	r0, #142
 821 01d0 FFF7FEFF 		bl	setReg
 822              	.LVL98:
 111:Core/drogui/src/controlTasks.c ****     setReg(MOTOR_3, M3);
 823              		.loc 1 111 5 view .LVU183
 824 01d4 95ED000A 		vldr.32	s0, [r5]
 825 01d8 9020     		movs	r0, #144
 826 01da FFF7FEFF 		bl	setReg
 827              	.LVL99:
 112:Core/drogui/src/controlTasks.c ****     setReg(MOTOR_4, M4);
 828              		.loc 1 112 5 view .LVU184
 829 01de 94ED000A 		vldr.32	s0, [r4]
 830 01e2 9220     		movs	r0, #146
 831 01e4 FFF7FEFF 		bl	setReg
 832              	.LVL100:
 113:Core/drogui/src/controlTasks.c **** 
 114:Core/drogui/src/controlTasks.c ****     if(security){
 833              		.loc 1 114 5 view .LVU185
 834              		.loc 1 114 8 is_stmt 0 view .LVU186
 835 01e8 624B     		ldr	r3, .L25+100
 836 01ea 1B78     		ldrb	r3, [r3]	@ zero_extendqisi2
 837              		.loc 1 114 7 view .LVU187
 838 01ec 002B     		cmp	r3, #0
 839 01ee 73D1     		bne	.L24
 840              	.L22:
 115:Core/drogui/src/controlTasks.c ****         M1 = M2 = M3 = M4 = 0;
 116:Core/drogui/src/controlTasks.c ****         resetPid(&wroll_control, TIME);
 117:Core/drogui/src/controlTasks.c ****         resetPid(&wpitch_control, TIME);
 118:Core/drogui/src/controlTasks.c ****         resetPid(&wyaw_control, TIME);
 119:Core/drogui/src/controlTasks.c ****     }
 120:Core/drogui/src/controlTasks.c **** 
 121:Core/drogui/src/controlTasks.c ****     setPwm(&m1, fmin(fmax(M1,0), 100));
 841              		.loc 1 121 5 is_stmt 1 view .LVU188
 842              		.loc 1 121 17 is_stmt 0 view .LVU189
 843 01f0 9FED4B9B 		vldr.64	d9, .L25+16
 844 01f4 5B4B     		ldr	r3, .L25+84
 845 01f6 1868     		ldr	r0, [r3]	@ float
 846 01f8 FFF7FEFF 		bl	__aeabi_f2d
 847              	.LVL101:
ARM GAS  C:\Users\USUARIO\AppData\Local\Temp\ccHfGsZ3.s 			page 18


 848 01fc B0EE491A 		vmov.f32	s2, s18
 849 0200 F0EE691A 		vmov.f32	s3, s19
 850 0204 41EC100B 		vmov	d0, r0, r1
 851 0208 FFF7FEFF 		bl	fmax
 852              	.LVL102:
 853 020c 9FED408B 		vldr.64	d8, .L25
 854 0210 B0EE481A 		vmov.f32	s2, s16
 855 0214 F0EE681A 		vmov.f32	s3, s17
 856 0218 FFF7FEFF 		bl	fmin
 857              	.LVL103:
 858 021c 51EC100B 		vmov	r0, r1, d0
 859              		.loc 1 121 5 view .LVU190
 860 0220 FFF7FEFF 		bl	__aeabi_d2f
 861              	.LVL104:
 862 0224 00EE100A 		vmov	s0, r0
 863 0228 5348     		ldr	r0, .L25+104
 864 022a FFF7FEFF 		bl	setPwm
 865              	.LVL105:
 122:Core/drogui/src/controlTasks.c ****     setPwm(&m2, fmin(fmax(M2,0), 100));
 866              		.loc 1 122 5 is_stmt 1 view .LVU191
 867              		.loc 1 122 17 is_stmt 0 view .LVU192
 868 022e 4E4B     		ldr	r3, .L25+88
 869 0230 1868     		ldr	r0, [r3]	@ float
 870 0232 FFF7FEFF 		bl	__aeabi_f2d
 871              	.LVL106:
 872 0236 B0EE491A 		vmov.f32	s2, s18
 873 023a F0EE691A 		vmov.f32	s3, s19
 874 023e 41EC100B 		vmov	d0, r0, r1
 875 0242 FFF7FEFF 		bl	fmax
 876              	.LVL107:
 877 0246 B0EE481A 		vmov.f32	s2, s16
 878 024a F0EE681A 		vmov.f32	s3, s17
 879 024e FFF7FEFF 		bl	fmin
 880              	.LVL108:
 881 0252 51EC100B 		vmov	r0, r1, d0
 882              		.loc 1 122 5 view .LVU193
 883 0256 FFF7FEFF 		bl	__aeabi_d2f
 884              	.LVL109:
 885 025a 00EE100A 		vmov	s0, r0
 886 025e 4748     		ldr	r0, .L25+108
 887 0260 FFF7FEFF 		bl	setPwm
 888              	.LVL110:
 123:Core/drogui/src/controlTasks.c ****     setPwm(&m3, fmin(fmax(M3,0), 100));
 889              		.loc 1 123 5 is_stmt 1 view .LVU194
 890              		.loc 1 123 17 is_stmt 0 view .LVU195
 891 0264 414B     		ldr	r3, .L25+92
 892 0266 1868     		ldr	r0, [r3]	@ float
 893 0268 FFF7FEFF 		bl	__aeabi_f2d
 894              	.LVL111:
 895 026c B0EE491A 		vmov.f32	s2, s18
 896 0270 F0EE691A 		vmov.f32	s3, s19
 897 0274 41EC100B 		vmov	d0, r0, r1
 898 0278 FFF7FEFF 		bl	fmax
 899              	.LVL112:
 900 027c B0EE481A 		vmov.f32	s2, s16
 901 0280 F0EE681A 		vmov.f32	s3, s17
 902 0284 FFF7FEFF 		bl	fmin
ARM GAS  C:\Users\USUARIO\AppData\Local\Temp\ccHfGsZ3.s 			page 19


 903              	.LVL113:
 904 0288 51EC100B 		vmov	r0, r1, d0
 905              		.loc 1 123 5 view .LVU196
 906 028c FFF7FEFF 		bl	__aeabi_d2f
 907              	.LVL114:
 908 0290 00EE100A 		vmov	s0, r0
 909 0294 3A48     		ldr	r0, .L25+112
 910 0296 FFF7FEFF 		bl	setPwm
 911              	.LVL115:
 124:Core/drogui/src/controlTasks.c ****     setPwm(&m4, fmin(fmax(M4,0), 100));
 912              		.loc 1 124 5 is_stmt 1 view .LVU197
 913              		.loc 1 124 17 is_stmt 0 view .LVU198
 914 029a 354B     		ldr	r3, .L25+96
 915 029c 1868     		ldr	r0, [r3]	@ float
 916 029e FFF7FEFF 		bl	__aeabi_f2d
 917              	.LVL116:
 918 02a2 B0EE491A 		vmov.f32	s2, s18
 919 02a6 F0EE691A 		vmov.f32	s3, s19
 920 02aa 41EC100B 		vmov	d0, r0, r1
 921 02ae FFF7FEFF 		bl	fmax
 922              	.LVL117:
 923 02b2 B0EE481A 		vmov.f32	s2, s16
 924 02b6 F0EE681A 		vmov.f32	s3, s17
 925 02ba FFF7FEFF 		bl	fmin
 926              	.LVL118:
 927 02be 51EC100B 		vmov	r0, r1, d0
 928              		.loc 1 124 5 view .LVU199
 929 02c2 FFF7FEFF 		bl	__aeabi_d2f
 930              	.LVL119:
 931 02c6 00EE100A 		vmov	s0, r0
 932 02ca 2E48     		ldr	r0, .L25+116
 933 02cc FFF7FEFF 		bl	setPwm
 934              	.LVL120:
 125:Core/drogui/src/controlTasks.c **** }
 935              		.loc 1 125 1 view .LVU200
 936 02d0 BDEC068B 		vldm	sp!, {d8-d10}
 937              	.LCFI8:
 938              		.cfi_remember_state
 939              		.cfi_restore 84
 940              		.cfi_restore 85
 941              		.cfi_restore 82
 942              		.cfi_restore 83
 943              		.cfi_restore 80
 944              		.cfi_restore 81
 945              		.cfi_def_cfa_offset 32
 946 02d4 BDE8F883 		pop	{r3, r4, r5, r6, r7, r8, r9, pc}
 947              	.L24:
 948              	.LCFI9:
 949              		.cfi_restore_state
 115:Core/drogui/src/controlTasks.c ****         resetPid(&wroll_control, TIME);
 950              		.loc 1 115 9 is_stmt 1 view .LVU201
 115:Core/drogui/src/controlTasks.c ****         resetPid(&wroll_control, TIME);
 951              		.loc 1 115 27 is_stmt 0 view .LVU202
 952 02d8 C4ED008A 		vstr.32	s17, [r4]
 115:Core/drogui/src/controlTasks.c ****         resetPid(&wroll_control, TIME);
 953              		.loc 1 115 22 view .LVU203
 954 02dc C5ED008A 		vstr.32	s17, [r5]
ARM GAS  C:\Users\USUARIO\AppData\Local\Temp\ccHfGsZ3.s 			page 20


 115:Core/drogui/src/controlTasks.c ****         resetPid(&wroll_control, TIME);
 955              		.loc 1 115 17 view .LVU204
 956 02e0 C6ED008A 		vstr.32	s17, [r6]
 115:Core/drogui/src/controlTasks.c ****         resetPid(&wroll_control, TIME);
 957              		.loc 1 115 12 view .LVU205
 958 02e4 C7ED008A 		vstr.32	s17, [r7]
 116:Core/drogui/src/controlTasks.c ****         resetPid(&wpitch_control, TIME);
 959              		.loc 1 116 9 is_stmt 1 view .LVU206
 116:Core/drogui/src/controlTasks.c ****         resetPid(&wpitch_control, TIME);
 960              		.loc 1 116 34 is_stmt 0 view .LVU207
 961 02e8 174C     		ldr	r4, .L25+56
 962 02ea 2368     		ldr	r3, [r4]
 963 02ec 596A     		ldr	r1, [r3, #36]
 116:Core/drogui/src/controlTasks.c ****         resetPid(&wpitch_control, TIME);
 964              		.loc 1 116 9 view .LVU208
 965 02ee 2648     		ldr	r0, .L25+120
 966 02f0 FFF7FEFF 		bl	resetPid
 967              	.LVL121:
 117:Core/drogui/src/controlTasks.c ****         resetPid(&wyaw_control, TIME);
 968              		.loc 1 117 9 is_stmt 1 view .LVU209
 117:Core/drogui/src/controlTasks.c ****         resetPid(&wyaw_control, TIME);
 969              		.loc 1 117 35 is_stmt 0 view .LVU210
 970 02f4 2368     		ldr	r3, [r4]
 971 02f6 596A     		ldr	r1, [r3, #36]
 117:Core/drogui/src/controlTasks.c ****         resetPid(&wyaw_control, TIME);
 972              		.loc 1 117 9 view .LVU211
 973 02f8 1648     		ldr	r0, .L25+68
 974 02fa FFF7FEFF 		bl	resetPid
 975              	.LVL122:
 118:Core/drogui/src/controlTasks.c ****     }
 976              		.loc 1 118 9 is_stmt 1 view .LVU212
 118:Core/drogui/src/controlTasks.c ****     }
 977              		.loc 1 118 33 is_stmt 0 view .LVU213
 978 02fe 2368     		ldr	r3, [r4]
 979 0300 596A     		ldr	r1, [r3, #36]
 118:Core/drogui/src/controlTasks.c ****     }
 980              		.loc 1 118 9 view .LVU214
 981 0302 1648     		ldr	r0, .L25+76
 982 0304 FFF7FEFF 		bl	resetPid
 983              	.LVL123:
 984 0308 72E7     		b	.L22
 985              	.L26:
 986 030a 00BFAFF3 		.align	3
 986      0080
 987              	.L25:
 988 0310 00000000 		.word	0
 989 0314 00005940 		.word	1079574528
 990 0318 00000000 		.word	0
 991 031c 000059C0 		.word	-1067909120
 992 0320 00000000 		.word	0
 993 0324 00000000 		.word	0
 994 0328 00000000 		.word	.LANCHOR11
 995 032c 00000000 		.word	gx
 996 0330 00000000 		.word	.LANCHOR12
 997 0334 00000000 		.word	.LANCHOR13
 998 0338 00000000 		.word	gy
 999 033c 00000000 		.word	.LANCHOR14
ARM GAS  C:\Users\USUARIO\AppData\Local\Temp\ccHfGsZ3.s 			page 21


 1000 0340 00000000 		.word	.LANCHOR15
 1001 0344 00000000 		.word	gz
 1002 0348 00000000 		.word	htim5
 1003 034c 00000000 		.word	0
 1004 0350 00000000 		.word	.LANCHOR17
 1005 0354 00000000 		.word	.LANCHOR7
 1006 0358 00000000 		.word	.LANCHOR18
 1007 035c 00000000 		.word	.LANCHOR9
 1008 0360 00000000 		.word	.LANCHOR19
 1009 0364 00000000 		.word	.LANCHOR0
 1010 0368 00000000 		.word	.LANCHOR1
 1011 036c 00000000 		.word	.LANCHOR2
 1012 0370 00000000 		.word	.LANCHOR3
 1013 0374 00000000 		.word	security
 1014 0378 00000000 		.word	.LANCHOR21
 1015 037c 00000000 		.word	.LANCHOR22
 1016 0380 00000000 		.word	.LANCHOR23
 1017 0384 00000000 		.word	.LANCHOR24
 1018 0388 00000000 		.word	.LANCHOR5
 1019 038c 00000000 		.word	.LANCHOR16
 1020 0390 00000000 		.word	.LANCHOR20
 1021              		.cfi_endproc
 1022              	.LFE176:
 1024              		.section	.text.rpyControlTask,"ax",%progbits
 1025              		.align	1
 1026              		.global	rpyControlTask
 1027              		.syntax unified
 1028              		.thumb
 1029              		.thumb_func
 1030              		.fpu fpv5-sp-d16
 1032              	rpyControlTask:
 1033              	.LFB177:
 126:Core/drogui/src/controlTasks.c **** 
 127:Core/drogui/src/controlTasks.c **** void rpyControlTask(){
 1034              		.loc 1 127 22 is_stmt 1 view -0
 1035              		.cfi_startproc
 1036              		@ args = 0, pretend = 0, frame = 0
 1037              		@ frame_needed = 0, uses_anonymous_args = 0
 1038 0000 70B5     		push	{r4, r5, r6, lr}
 1039              	.LCFI10:
 1040              		.cfi_def_cfa_offset 16
 1041              		.cfi_offset 4, -16
 1042              		.cfi_offset 5, -12
 1043              		.cfi_offset 6, -8
 1044              		.cfi_offset 14, -4
 1045 0002 2DED028B 		vpush.64	{d8}
 1046              	.LCFI11:
 1047              		.cfi_def_cfa_offset 24
 1048              		.cfi_offset 80, -24
 1049              		.cfi_offset 81, -20
 128:Core/drogui/src/controlTasks.c **** 
 129:Core/drogui/src/controlTasks.c ****     wroll_ref = computePid(&roll2w, angle_dif(roll_ref, roll), TIME, 0);
 1050              		.loc 1 129 5 view .LVU216
 1051              		.loc 1 129 17 is_stmt 0 view .LVU217
 1052 0006 304B     		ldr	r3, .L31
 1053 0008 D3ED000A 		vldr.32	s1, [r3]
 1054 000c 2F4B     		ldr	r3, .L31+4
ARM GAS  C:\Users\USUARIO\AppData\Local\Temp\ccHfGsZ3.s 			page 22


 1055 000e 93ED000A 		vldr.32	s0, [r3]
 1056 0012 FFF7FEFF 		bl	angle_dif
 1057              	.LVL124:
 1058              		.loc 1 129 64 view .LVU218
 1059 0016 2E4C     		ldr	r4, .L31+8
 1060 0018 2368     		ldr	r3, [r4]
 1061 001a 596A     		ldr	r1, [r3, #36]
 1062              		.loc 1 129 17 view .LVU219
 1063 001c 9FED2D8A 		vldr.32	s16, .L31+12
 1064 0020 F0EE480A 		vmov.f32	s1, s16
 1065 0024 2C48     		ldr	r0, .L31+16
 1066 0026 FFF7FEFF 		bl	computePid
 1067              	.LVL125:
 1068              		.loc 1 129 15 view .LVU220
 1069 002a 2C4E     		ldr	r6, .L31+20
 1070 002c 86ED000A 		vstr.32	s0, [r6]
 130:Core/drogui/src/controlTasks.c ****     wpitch_ref = computePid(&pitch2w, angle_dif(pitch_ref, pitch),TIME, 0);
 1071              		.loc 1 130 5 is_stmt 1 view .LVU221
 1072              		.loc 1 130 18 is_stmt 0 view .LVU222
 1073 0030 2B4B     		ldr	r3, .L31+24
 1074 0032 D3ED000A 		vldr.32	s1, [r3]
 1075 0036 2B4B     		ldr	r3, .L31+28
 1076 0038 93ED000A 		vldr.32	s0, [r3]
 1077 003c FFF7FEFF 		bl	angle_dif
 1078              	.LVL126:
 1079              		.loc 1 130 67 view .LVU223
 1080 0040 2368     		ldr	r3, [r4]
 1081 0042 596A     		ldr	r1, [r3, #36]
 1082              		.loc 1 130 18 view .LVU224
 1083 0044 F0EE480A 		vmov.f32	s1, s16
 1084 0048 2748     		ldr	r0, .L31+32
 1085 004a FFF7FEFF 		bl	computePid
 1086              	.LVL127:
 1087              		.loc 1 130 16 view .LVU225
 1088 004e 274D     		ldr	r5, .L31+36
 1089 0050 85ED000A 		vstr.32	s0, [r5]
 131:Core/drogui/src/controlTasks.c ****     wyaw_ref = -computePid(&yaw2w, angle_dif(yaw_ref, yaw),TIME, 0);
 1090              		.loc 1 131 5 is_stmt 1 view .LVU226
 1091              		.loc 1 131 17 is_stmt 0 view .LVU227
 1092 0054 264B     		ldr	r3, .L31+40
 1093 0056 D3ED000A 		vldr.32	s1, [r3]
 1094 005a 264B     		ldr	r3, .L31+44
 1095 005c 93ED000A 		vldr.32	s0, [r3]
 1096 0060 FFF7FEFF 		bl	angle_dif
 1097              	.LVL128:
 1098              		.loc 1 131 60 view .LVU228
 1099 0064 2368     		ldr	r3, [r4]
 1100 0066 596A     		ldr	r1, [r3, #36]
 1101              		.loc 1 131 17 view .LVU229
 1102 0068 F0EE480A 		vmov.f32	s1, s16
 1103 006c 2248     		ldr	r0, .L31+48
 1104 006e FFF7FEFF 		bl	computePid
 1105              	.LVL129:
 1106              		.loc 1 131 16 view .LVU230
 1107 0072 B1EE400A 		vneg.f32	s0, s0
 1108              		.loc 1 131 14 view .LVU231
 1109 0076 214C     		ldr	r4, .L31+52
ARM GAS  C:\Users\USUARIO\AppData\Local\Temp\ccHfGsZ3.s 			page 23


 1110 0078 84ED000A 		vstr.32	s0, [r4]
 132:Core/drogui/src/controlTasks.c **** 
 133:Core/drogui/src/controlTasks.c **** /*
 134:Core/drogui/src/controlTasks.c ****     Serial.print("\nu values: ");
 135:Core/drogui/src/controlTasks.c ****     for(int i = 0 ; i < 13; i++) Serial.print(filter_wroll.arr_u.values[i]), Serial.print('\t');
 136:Core/drogui/src/controlTasks.c ****     Serial.print("\nu coeff: ");
 137:Core/drogui/src/controlTasks.c ****     for(int i = 0 ; i < 13; i++) Serial.print(filter_wroll.arr_u.coeff[i]), Serial.print('\t');
 138:Core/drogui/src/controlTasks.c ****     Serial.print("\ny values: ");
 139:Core/drogui/src/controlTasks.c ****     for(int i = 0 ; i < 12; i++) Serial.print(filter_wroll.arr_y.values[i]), Serial.print('\t');
 140:Core/drogui/src/controlTasks.c ****     Serial.print("\ny coeff: ");
 141:Core/drogui/src/controlTasks.c ****     for(int i = 0 ; i < 12; i++) Serial.print(filter_wroll.arr_y.coeff[i]), Serial.print('\t');
 142:Core/drogui/src/controlTasks.c ****     Serial.println("****************************************************************************");
 143:Core/drogui/src/controlTasks.c **** */
 144:Core/drogui/src/controlTasks.c ****     setReg(GYRO_X_REF,wroll_ref);
 1111              		.loc 1 144 5 is_stmt 1 view .LVU232
 1112 007c 96ED000A 		vldr.32	s0, [r6]
 1113 0080 8220     		movs	r0, #130
 1114 0082 FFF7FEFF 		bl	setReg
 1115              	.LVL130:
 145:Core/drogui/src/controlTasks.c ****     setReg(GYRO_Y_REF,wpitch_ref);
 1116              		.loc 1 145 5 view .LVU233
 1117 0086 95ED000A 		vldr.32	s0, [r5]
 1118 008a 8420     		movs	r0, #132
 1119 008c FFF7FEFF 		bl	setReg
 1120              	.LVL131:
 146:Core/drogui/src/controlTasks.c ****     setReg(GYRO_Z_REF,wyaw_ref);
 1121              		.loc 1 146 5 view .LVU234
 1122 0090 94ED000A 		vldr.32	s0, [r4]
 1123 0094 8620     		movs	r0, #134
 1124 0096 FFF7FEFF 		bl	setReg
 1125              	.LVL132:
 147:Core/drogui/src/controlTasks.c ****     
 148:Core/drogui/src/controlTasks.c ****     if(security){
 1126              		.loc 1 148 5 view .LVU235
 1127              		.loc 1 148 8 is_stmt 0 view .LVU236
 1128 009a 194B     		ldr	r3, .L31+56
 1129 009c 1B78     		ldrb	r3, [r3]	@ zero_extendqisi2
 1130              		.loc 1 148 7 view .LVU237
 1131 009e 13B9     		cbnz	r3, .L30
 1132              	.L27:
 149:Core/drogui/src/controlTasks.c ****         resetPid(&roll2w, TIME);
 150:Core/drogui/src/controlTasks.c ****         resetPid(&pitch2w, TIME);
 151:Core/drogui/src/controlTasks.c ****         resetPid(&yaw2w, TIME);
 152:Core/drogui/src/controlTasks.c ****     }
 153:Core/drogui/src/controlTasks.c **** }
 1133              		.loc 1 153 1 view .LVU238
 1134 00a0 BDEC028B 		vldm	sp!, {d8}
 1135              	.LCFI12:
 1136              		.cfi_remember_state
 1137              		.cfi_restore 80
 1138              		.cfi_restore 81
 1139              		.cfi_def_cfa_offset 16
 1140 00a4 70BD     		pop	{r4, r5, r6, pc}
 1141              	.L30:
 1142              	.LCFI13:
 1143              		.cfi_restore_state
 149:Core/drogui/src/controlTasks.c ****         resetPid(&roll2w, TIME);
ARM GAS  C:\Users\USUARIO\AppData\Local\Temp\ccHfGsZ3.s 			page 24


 1144              		.loc 1 149 9 is_stmt 1 view .LVU239
 149:Core/drogui/src/controlTasks.c ****         resetPid(&roll2w, TIME);
 1145              		.loc 1 149 27 is_stmt 0 view .LVU240
 1146 00a6 0A4C     		ldr	r4, .L31+8
 1147 00a8 2368     		ldr	r3, [r4]
 1148 00aa 596A     		ldr	r1, [r3, #36]
 149:Core/drogui/src/controlTasks.c ****         resetPid(&roll2w, TIME);
 1149              		.loc 1 149 9 view .LVU241
 1150 00ac 0A48     		ldr	r0, .L31+16
 1151 00ae FFF7FEFF 		bl	resetPid
 1152              	.LVL133:
 150:Core/drogui/src/controlTasks.c ****         resetPid(&yaw2w, TIME);
 1153              		.loc 1 150 9 is_stmt 1 view .LVU242
 150:Core/drogui/src/controlTasks.c ****         resetPid(&yaw2w, TIME);
 1154              		.loc 1 150 28 is_stmt 0 view .LVU243
 1155 00b2 2368     		ldr	r3, [r4]
 1156 00b4 596A     		ldr	r1, [r3, #36]
 150:Core/drogui/src/controlTasks.c ****         resetPid(&yaw2w, TIME);
 1157              		.loc 1 150 9 view .LVU244
 1158 00b6 0C48     		ldr	r0, .L31+32
 1159 00b8 FFF7FEFF 		bl	resetPid
 1160              	.LVL134:
 151:Core/drogui/src/controlTasks.c ****     }
 1161              		.loc 1 151 9 is_stmt 1 view .LVU245
 151:Core/drogui/src/controlTasks.c ****     }
 1162              		.loc 1 151 26 is_stmt 0 view .LVU246
 1163 00bc 2368     		ldr	r3, [r4]
 1164 00be 596A     		ldr	r1, [r3, #36]
 151:Core/drogui/src/controlTasks.c ****     }
 1165              		.loc 1 151 9 view .LVU247
 1166 00c0 0D48     		ldr	r0, .L31+48
 1167 00c2 FFF7FEFF 		bl	resetPid
 1168              	.LVL135:
 1169              		.loc 1 153 1 view .LVU248
 1170 00c6 EBE7     		b	.L27
 1171              	.L32:
 1172              		.align	2
 1173              	.L31:
 1174 00c8 00000000 		.word	roll
 1175 00cc 00000000 		.word	.LANCHOR25
 1176 00d0 00000000 		.word	htim5
 1177 00d4 00000000 		.word	0
 1178 00d8 00000000 		.word	.LANCHOR4
 1179 00dc 00000000 		.word	.LANCHOR11
 1180 00e0 00000000 		.word	pitch
 1181 00e4 00000000 		.word	.LANCHOR26
 1182 00e8 00000000 		.word	.LANCHOR6
 1183 00ec 00000000 		.word	.LANCHOR13
 1184 00f0 00000000 		.word	yaw
 1185 00f4 00000000 		.word	.LANCHOR27
 1186 00f8 00000000 		.word	.LANCHOR8
 1187 00fc 00000000 		.word	.LANCHOR15
 1188 0100 00000000 		.word	security
 1189              		.cfi_endproc
 1190              	.LFE177:
 1192              		.section	.text.xyzControlTask,"ax",%progbits
 1193              		.align	1
ARM GAS  C:\Users\USUARIO\AppData\Local\Temp\ccHfGsZ3.s 			page 25


 1194              		.global	xyzControlTask
 1195              		.syntax unified
 1196              		.thumb
 1197              		.thumb_func
 1198              		.fpu fpv5-sp-d16
 1200              	xyzControlTask:
 1201              	.LFB178:
 154:Core/drogui/src/controlTasks.c **** 
 155:Core/drogui/src/controlTasks.c **** void xyzControlTask(){
 1202              		.loc 1 155 22 is_stmt 1 view -0
 1203              		.cfi_startproc
 1204              		@ args = 0, pretend = 0, frame = 0
 1205              		@ frame_needed = 0, uses_anonymous_args = 0
 1206 0000 70B5     		push	{r4, r5, r6, lr}
 1207              	.LCFI14:
 1208              		.cfi_def_cfa_offset 16
 1209              		.cfi_offset 4, -16
 1210              		.cfi_offset 5, -12
 1211              		.cfi_offset 6, -8
 1212              		.cfi_offset 14, -4
 1213 0002 2DED028B 		vpush.64	{d8}
 1214              	.LCFI15:
 1215              		.cfi_def_cfa_offset 24
 1216              		.cfi_offset 80, -24
 1217              		.cfi_offset 81, -20
 156:Core/drogui/src/controlTasks.c ****     X_C = computePid(&x_control, -x, TIME, H);
 1218              		.loc 1 156 5 view .LVU250
 1219              		.loc 1 156 38 is_stmt 0 view .LVU251
 1220 0006 484D     		ldr	r5, .L37
 1221 0008 2B68     		ldr	r3, [r5]
 1222 000a 596A     		ldr	r1, [r3, #36]
 1223              		.loc 1 156 11 view .LVU252
 1224 000c 474C     		ldr	r4, .L37+4
 1225 000e 484B     		ldr	r3, .L37+8
 1226 0010 93ED000A 		vldr.32	s0, [r3]
 1227 0014 D4ED000A 		vldr.32	s1, [r4]
 1228 0018 B1EE400A 		vneg.f32	s0, s0
 1229 001c 4548     		ldr	r0, .L37+12
 1230 001e FFF7FEFF 		bl	computePid
 1231              	.LVL136:
 1232              		.loc 1 156 9 view .LVU253
 1233 0022 454B     		ldr	r3, .L37+16
 1234 0024 83ED000A 		vstr.32	s0, [r3]
 157:Core/drogui/src/controlTasks.c ****     Y_C = computePid(&y_control, -y, TIME, H);
 1235              		.loc 1 157 5 is_stmt 1 view .LVU254
 1236              		.loc 1 157 38 is_stmt 0 view .LVU255
 1237 0028 2B68     		ldr	r3, [r5]
 1238 002a 596A     		ldr	r1, [r3, #36]
 1239              		.loc 1 157 11 view .LVU256
 1240 002c 434B     		ldr	r3, .L37+20
 1241 002e 93ED000A 		vldr.32	s0, [r3]
 1242 0032 D4ED000A 		vldr.32	s1, [r4]
 1243 0036 B1EE400A 		vneg.f32	s0, s0
 1244 003a 4148     		ldr	r0, .L37+24
 1245 003c FFF7FEFF 		bl	computePid
 1246              	.LVL137:
 1247              		.loc 1 157 9 view .LVU257
ARM GAS  C:\Users\USUARIO\AppData\Local\Temp\ccHfGsZ3.s 			page 26


 1248 0040 404B     		ldr	r3, .L37+28
 1249 0042 83ED000A 		vstr.32	s0, [r3]
 158:Core/drogui/src/controlTasks.c **** 
 159:Core/drogui/src/controlTasks.c ****     rampValue(&z_ref, getReg(Z_REF), getReg(Z_REF_SIZE));
 1250              		.loc 1 159 5 is_stmt 1 view .LVU258
 1251 0046 5220     		movs	r0, #82
 1252 0048 FFF7FEFF 		bl	getReg
 1253              	.LVL138:
 1254 004c B0EE408A 		vmov.f32	s16, s0
 1255 0050 5E20     		movs	r0, #94
 1256 0052 FFF7FEFF 		bl	getReg
 1257              	.LVL139:
 1258 0056 F0EE400A 		vmov.f32	s1, s0
 1259 005a 3B4E     		ldr	r6, .L37+32
 1260 005c B0EE480A 		vmov.f32	s0, s16
 1261 0060 3046     		mov	r0, r6
 1262 0062 FFF7FEFF 		bl	rampValue
 1263              	.LVL140:
 160:Core/drogui/src/controlTasks.c **** 
 161:Core/drogui/src/controlTasks.c ****     H_ref = computePid(&z_control, z_ref - z, TIME,0) + getReg(Z_MG);
 1264              		.loc 1 161 5 view .LVU259
 1265              		.loc 1 161 47 is_stmt 0 view .LVU260
 1266 0066 2B68     		ldr	r3, [r5]
 1267 0068 596A     		ldr	r1, [r3, #36]
 1268              		.loc 1 161 13 view .LVU261
 1269 006a 96ED000A 		vldr.32	s0, [r6]
 1270 006e 374B     		ldr	r3, .L37+36
 1271 0070 D3ED007A 		vldr.32	s15, [r3]
 1272 0074 DFED360A 		vldr.32	s1, .L37+40
 1273 0078 30EE670A 		vsub.f32	s0, s0, s15
 1274 007c 3548     		ldr	r0, .L37+44
 1275 007e FFF7FEFF 		bl	computePid
 1276              	.LVL141:
 1277 0082 B0EE408A 		vmov.f32	s16, s0
 1278              		.loc 1 161 57 view .LVU262
 1279 0086 4620     		movs	r0, #70
 1280 0088 FFF7FEFF 		bl	getReg
 1281              	.LVL142:
 1282              		.loc 1 161 55 view .LVU263
 1283 008c 38EE000A 		vadd.f32	s0, s16, s0
 1284              		.loc 1 161 11 view .LVU264
 1285 0090 314B     		ldr	r3, .L37+48
 1286 0092 83ED000A 		vstr.32	s0, [r3]
 162:Core/drogui/src/controlTasks.c ****     rampValue(&H, H_ref, 0.2);
 1287              		.loc 1 162 5 is_stmt 1 view .LVU265
 1288 0096 DFED310A 		vldr.32	s1, .L37+52
 1289 009a 2046     		mov	r0, r4
 1290 009c FFF7FEFF 		bl	rampValue
 1291              	.LVL143:
 163:Core/drogui/src/controlTasks.c **** 
 164:Core/drogui/src/controlTasks.c ****     H_comp = H;
 1292              		.loc 1 164 5 view .LVU266
 1293              		.loc 1 164 12 is_stmt 0 view .LVU267
 1294 00a0 2268     		ldr	r2, [r4]	@ float
 1295 00a2 2F4B     		ldr	r3, .L37+56
 1296 00a4 1A60     		str	r2, [r3]	@ float
 165:Core/drogui/src/controlTasks.c **** 
ARM GAS  C:\Users\USUARIO\AppData\Local\Temp\ccHfGsZ3.s 			page 27


 166:Core/drogui/src/controlTasks.c ****     rampValue(&roll_ref, getReg(ROLL_REF) + roll_off, 0.015);
 1297              		.loc 1 166 5 is_stmt 1 view .LVU268
 1298              		.loc 1 166 26 is_stmt 0 view .LVU269
 1299 00a6 4820     		movs	r0, #72
 1300 00a8 FFF7FEFF 		bl	getReg
 1301              	.LVL144:
 1302              		.loc 1 166 5 view .LVU270
 1303 00ac 9FED2D8A 		vldr.32	s16, .L37+60
 1304 00b0 2D4B     		ldr	r3, .L37+64
 1305 00b2 D3ED007A 		vldr.32	s15, [r3]
 1306 00b6 F0EE480A 		vmov.f32	s1, s16
 1307 00ba 30EE270A 		vadd.f32	s0, s0, s15
 1308 00be 2B48     		ldr	r0, .L37+68
 1309 00c0 FFF7FEFF 		bl	rampValue
 1310              	.LVL145:
 167:Core/drogui/src/controlTasks.c ****     rampValue(&pitch_ref, getReg(PITCH_REF) + pitch_off, 0.015);
 1311              		.loc 1 167 5 is_stmt 1 view .LVU271
 1312              		.loc 1 167 27 is_stmt 0 view .LVU272
 1313 00c4 4A20     		movs	r0, #74
 1314 00c6 FFF7FEFF 		bl	getReg
 1315              	.LVL146:
 1316              		.loc 1 167 5 view .LVU273
 1317 00ca 294B     		ldr	r3, .L37+72
 1318 00cc D3ED007A 		vldr.32	s15, [r3]
 1319 00d0 F0EE480A 		vmov.f32	s1, s16
 1320 00d4 30EE270A 		vadd.f32	s0, s0, s15
 1321 00d8 2648     		ldr	r0, .L37+76
 1322 00da FFF7FEFF 		bl	rampValue
 1323              	.LVL147:
 168:Core/drogui/src/controlTasks.c ****     yaw_ref = getReg(YAW_REF) + yaw_off;
 1324              		.loc 1 168 5 is_stmt 1 view .LVU274
 1325              		.loc 1 168 15 is_stmt 0 view .LVU275
 1326 00de 4C20     		movs	r0, #76
 1327 00e0 FFF7FEFF 		bl	getReg
 1328              	.LVL148:
 1329              		.loc 1 168 31 view .LVU276
 1330 00e4 244B     		ldr	r3, .L37+80
 1331 00e6 D3ED007A 		vldr.32	s15, [r3]
 1332 00ea 30EE270A 		vadd.f32	s0, s0, s15
 1333              		.loc 1 168 13 view .LVU277
 1334 00ee 234B     		ldr	r3, .L37+84
 1335 00f0 83ED000A 		vstr.32	s0, [r3]
 169:Core/drogui/src/controlTasks.c **** 
 170:Core/drogui/src/controlTasks.c ****     if(security){
 1336              		.loc 1 170 5 is_stmt 1 view .LVU278
 1337              		.loc 1 170 8 is_stmt 0 view .LVU279
 1338 00f4 224B     		ldr	r3, .L37+88
 1339 00f6 1B78     		ldrb	r3, [r3]	@ zero_extendqisi2
 1340              		.loc 1 170 7 view .LVU280
 1341 00f8 13B9     		cbnz	r3, .L36
 1342              	.L33:
 171:Core/drogui/src/controlTasks.c ****         H = 0; z_ref = 0;
 172:Core/drogui/src/controlTasks.c ****         resetPid(&x_control, TIME);
 173:Core/drogui/src/controlTasks.c ****         resetPid(&y_control, TIME);
 174:Core/drogui/src/controlTasks.c ****         resetPid(&z_control, TIME);
 175:Core/drogui/src/controlTasks.c ****     }
 176:Core/drogui/src/controlTasks.c **** }
ARM GAS  C:\Users\USUARIO\AppData\Local\Temp\ccHfGsZ3.s 			page 28


 1343              		.loc 1 176 1 view .LVU281
 1344 00fa BDEC028B 		vldm	sp!, {d8}
 1345              	.LCFI16:
 1346              		.cfi_remember_state
 1347              		.cfi_restore 80
 1348              		.cfi_restore 81
 1349              		.cfi_def_cfa_offset 16
 1350 00fe 70BD     		pop	{r4, r5, r6, pc}
 1351              	.L36:
 1352              	.LCFI17:
 1353              		.cfi_restore_state
 171:Core/drogui/src/controlTasks.c ****         H = 0; z_ref = 0;
 1354              		.loc 1 171 9 is_stmt 1 view .LVU282
 171:Core/drogui/src/controlTasks.c ****         H = 0; z_ref = 0;
 1355              		.loc 1 171 11 is_stmt 0 view .LVU283
 1356 0100 0023     		movs	r3, #0
 1357 0102 2360     		str	r3, [r4]	@ float
 171:Core/drogui/src/controlTasks.c ****         H = 0; z_ref = 0;
 1358              		.loc 1 171 16 is_stmt 1 view .LVU284
 171:Core/drogui/src/controlTasks.c ****         H = 0; z_ref = 0;
 1359              		.loc 1 171 22 is_stmt 0 view .LVU285
 1360 0104 3360     		str	r3, [r6]	@ float
 172:Core/drogui/src/controlTasks.c ****         resetPid(&y_control, TIME);
 1361              		.loc 1 172 9 is_stmt 1 view .LVU286
 172:Core/drogui/src/controlTasks.c ****         resetPid(&y_control, TIME);
 1362              		.loc 1 172 30 is_stmt 0 view .LVU287
 1363 0106 2B68     		ldr	r3, [r5]
 1364 0108 596A     		ldr	r1, [r3, #36]
 172:Core/drogui/src/controlTasks.c ****         resetPid(&y_control, TIME);
 1365              		.loc 1 172 9 view .LVU288
 1366 010a 0A48     		ldr	r0, .L37+12
 1367 010c FFF7FEFF 		bl	resetPid
 1368              	.LVL149:
 173:Core/drogui/src/controlTasks.c ****         resetPid(&z_control, TIME);
 1369              		.loc 1 173 9 is_stmt 1 view .LVU289
 173:Core/drogui/src/controlTasks.c ****         resetPid(&z_control, TIME);
 1370              		.loc 1 173 30 is_stmt 0 view .LVU290
 1371 0110 2B68     		ldr	r3, [r5]
 1372 0112 596A     		ldr	r1, [r3, #36]
 173:Core/drogui/src/controlTasks.c ****         resetPid(&z_control, TIME);
 1373              		.loc 1 173 9 view .LVU291
 1374 0114 0A48     		ldr	r0, .L37+24
 1375 0116 FFF7FEFF 		bl	resetPid
 1376              	.LVL150:
 174:Core/drogui/src/controlTasks.c ****     }
 1377              		.loc 1 174 9 is_stmt 1 view .LVU292
 174:Core/drogui/src/controlTasks.c ****     }
 1378              		.loc 1 174 30 is_stmt 0 view .LVU293
 1379 011a 2B68     		ldr	r3, [r5]
 1380 011c 596A     		ldr	r1, [r3, #36]
 174:Core/drogui/src/controlTasks.c ****     }
 1381              		.loc 1 174 9 view .LVU294
 1382 011e 0D48     		ldr	r0, .L37+44
 1383 0120 FFF7FEFF 		bl	resetPid
 1384              	.LVL151:
 1385              		.loc 1 176 1 view .LVU295
 1386 0124 E9E7     		b	.L33
ARM GAS  C:\Users\USUARIO\AppData\Local\Temp\ccHfGsZ3.s 			page 29


 1387              	.L38:
 1388 0126 00BF     		.align	2
 1389              	.L37:
 1390 0128 00000000 		.word	htim5
 1391 012c 00000000 		.word	.LANCHOR28
 1392 0130 00000000 		.word	x
 1393 0134 00000000 		.word	.LANCHOR29
 1394 0138 00000000 		.word	.LANCHOR30
 1395 013c 00000000 		.word	y
 1396 0140 00000000 		.word	.LANCHOR31
 1397 0144 00000000 		.word	.LANCHOR32
 1398 0148 00000000 		.word	.LANCHOR33
 1399 014c 00000000 		.word	z
 1400 0150 00000000 		.word	0
 1401 0154 00000000 		.word	.LANCHOR10
 1402 0158 00000000 		.word	.LANCHOR34
 1403 015c CDCC4C3E 		.word	1045220557
 1404 0160 00000000 		.word	.LANCHOR20
 1405 0164 8FC2753C 		.word	1014350479
 1406 0168 00000000 		.word	.LANCHOR35
 1407 016c 00000000 		.word	.LANCHOR25
 1408 0170 00000000 		.word	.LANCHOR36
 1409 0174 00000000 		.word	.LANCHOR26
 1410 0178 00000000 		.word	.LANCHOR37
 1411 017c 00000000 		.word	.LANCHOR27
 1412 0180 00000000 		.word	security
 1413              		.cfi_endproc
 1414              	.LFE178:
 1416              		.section	.text.initControlTasks,"ax",%progbits
 1417              		.align	1
 1418              		.global	initControlTasks
 1419              		.syntax unified
 1420              		.thumb
 1421              		.thumb_func
 1422              		.fpu fpv5-sp-d16
 1424              	initControlTasks:
 1425              	.LFB179:
 177:Core/drogui/src/controlTasks.c **** 
 178:Core/drogui/src/controlTasks.c **** 
 179:Core/drogui/src/controlTasks.c **** void initControlTasks(){
 1426              		.loc 1 179 24 is_stmt 1 view -0
 1427              		.cfi_startproc
 1428              		@ args = 0, pretend = 0, frame = 0
 1429              		@ frame_needed = 0, uses_anonymous_args = 0
 1430 0000 38B5     		push	{r3, r4, r5, lr}
 1431              	.LCFI18:
 1432              		.cfi_def_cfa_offset 16
 1433              		.cfi_offset 3, -16
 1434              		.cfi_offset 4, -12
 1435              		.cfi_offset 5, -8
 1436              		.cfi_offset 14, -4
 1437 0002 2DED048B 		vpush.64	{d8, d9}
 1438              	.LCFI19:
 1439              		.cfi_def_cfa_offset 32
 1440              		.cfi_offset 80, -32
 1441              		.cfi_offset 81, -28
 1442              		.cfi_offset 82, -24
ARM GAS  C:\Users\USUARIO\AppData\Local\Temp\ccHfGsZ3.s 			page 30


 1443              		.cfi_offset 83, -20
 180:Core/drogui/src/controlTasks.c ****     initPwm(&m1, &htim3, TIM_CHANNEL_1, &(htim3.Instance->CCR1));
 1444              		.loc 1 180 5 view .LVU297
 1445              		.loc 1 180 48 is_stmt 0 view .LVU298
 1446 0006 6F4C     		ldr	r4, .L41
 1447 0008 2368     		ldr	r3, [r4]
 1448              		.loc 1 180 5 view .LVU299
 1449 000a 3433     		adds	r3, r3, #52
 1450 000c 0022     		movs	r2, #0
 1451 000e 2146     		mov	r1, r4
 1452 0010 6D48     		ldr	r0, .L41+4
 1453 0012 FFF7FEFF 		bl	initPwm
 1454              	.LVL152:
 181:Core/drogui/src/controlTasks.c ****     initPwm(&m2, &htim3, TIM_CHANNEL_2, &(htim3.Instance->CCR2));
 1455              		.loc 1 181 5 is_stmt 1 view .LVU300
 1456              		.loc 1 181 48 is_stmt 0 view .LVU301
 1457 0016 2368     		ldr	r3, [r4]
 1458              		.loc 1 181 5 view .LVU302
 1459 0018 3833     		adds	r3, r3, #56
 1460 001a 0422     		movs	r2, #4
 1461 001c 2146     		mov	r1, r4
 1462 001e 6B48     		ldr	r0, .L41+8
 1463 0020 FFF7FEFF 		bl	initPwm
 1464              	.LVL153:
 182:Core/drogui/src/controlTasks.c ****     initPwm(&m3, &htim4, TIM_CHANNEL_3, &(htim3.Instance->CCR3));
 1465              		.loc 1 182 5 is_stmt 1 view .LVU303
 1466              		.loc 1 182 48 is_stmt 0 view .LVU304
 1467 0024 2368     		ldr	r3, [r4]
 1468              		.loc 1 182 5 view .LVU305
 1469 0026 6A4D     		ldr	r5, .L41+12
 1470 0028 3C33     		adds	r3, r3, #60
 1471 002a 0822     		movs	r2, #8
 1472 002c 2946     		mov	r1, r5
 1473 002e 6948     		ldr	r0, .L41+16
 1474 0030 FFF7FEFF 		bl	initPwm
 1475              	.LVL154:
 183:Core/drogui/src/controlTasks.c ****     initPwm(&m4, &htim4, TIM_CHANNEL_4, &(htim3.Instance->CCR4));
 1476              		.loc 1 183 5 is_stmt 1 view .LVU306
 1477              		.loc 1 183 48 is_stmt 0 view .LVU307
 1478 0034 2368     		ldr	r3, [r4]
 1479              		.loc 1 183 5 view .LVU308
 1480 0036 4033     		adds	r3, r3, #64
 1481 0038 0C22     		movs	r2, #12
 1482 003a 2946     		mov	r1, r5
 1483 003c 6648     		ldr	r0, .L41+20
 1484 003e FFF7FEFF 		bl	initPwm
 1485              	.LVL155:
 184:Core/drogui/src/controlTasks.c **** 
 185:Core/drogui/src/controlTasks.c ****     initPid(&z_control, 0, 0, 0, 0, 1 , 100000, 15, NORMAL);
 1486              		.loc 1 185 5 is_stmt 1 view .LVU309
 1487 0042 DFED668A 		vldr.32	s17, .L41+24
 1488 0046 9FED668A 		vldr.32	s16, .L41+28
 1489 004a 0022     		movs	r2, #0
 1490 004c F2EE0E2A 		vmov.f32	s5, #1.5e+1
 1491 0050 B0EE682A 		vmov.f32	s4, s17
 1492 0054 F7EE001A 		vmov.f32	s3, #1.0e+0
 1493 0058 1146     		mov	r1, r2
ARM GAS  C:\Users\USUARIO\AppData\Local\Temp\ccHfGsZ3.s 			page 31


 1494 005a B0EE481A 		vmov.f32	s2, s16
 1495 005e F0EE480A 		vmov.f32	s1, s16
 1496 0062 B0EE480A 		vmov.f32	s0, s16
 1497 0066 5F48     		ldr	r0, .L41+32
 1498 0068 FFF7FEFF 		bl	initPid
 1499              	.LVL156:
 186:Core/drogui/src/controlTasks.c ****     initPid(&x_control, 0, 0, 0, 0, 1 , 100000, 0.09, NORMAL);
 1500              		.loc 1 186 5 view .LVU310
 1501 006c 9FED5E9A 		vldr.32	s18, .L41+36
 1502 0070 0022     		movs	r2, #0
 1503 0072 F0EE492A 		vmov.f32	s5, s18
 1504 0076 B0EE682A 		vmov.f32	s4, s17
 1505 007a F7EE001A 		vmov.f32	s3, #1.0e+0
 1506 007e 1146     		mov	r1, r2
 1507 0080 B0EE481A 		vmov.f32	s2, s16
 1508 0084 F0EE480A 		vmov.f32	s1, s16
 1509 0088 B0EE480A 		vmov.f32	s0, s16
 1510 008c 5748     		ldr	r0, .L41+40
 1511 008e FFF7FEFF 		bl	initPid
 1512              	.LVL157:
 187:Core/drogui/src/controlTasks.c ****     initPid(&y_control, 0, 0, 0, 0, 1 , 100000,0.09, NORMAL);
 1513              		.loc 1 187 5 view .LVU311
 1514 0092 0022     		movs	r2, #0
 1515 0094 F0EE492A 		vmov.f32	s5, s18
 1516 0098 B0EE682A 		vmov.f32	s4, s17
 1517 009c F7EE001A 		vmov.f32	s3, #1.0e+0
 1518 00a0 1146     		mov	r1, r2
 1519 00a2 B0EE481A 		vmov.f32	s2, s16
 1520 00a6 F0EE480A 		vmov.f32	s1, s16
 1521 00aa B0EE480A 		vmov.f32	s0, s16
 1522 00ae 5048     		ldr	r0, .L41+44
 1523 00b0 FFF7FEFF 		bl	initPid
 1524              	.LVL158:
 188:Core/drogui/src/controlTasks.c **** 
 189:Core/drogui/src/controlTasks.c ****     initPid(&roll2w, 0, 0, 0, TIME, 50, 1.57*0.5,80, (P2ID & D_INT));
 1525              		.loc 1 189 5 view .LVU312
 1526              		.loc 1 189 31 is_stmt 0 view .LVU313
 1527 00b4 4F4C     		ldr	r4, .L41+48
 1528 00b6 2368     		ldr	r3, [r4]
 1529 00b8 596A     		ldr	r1, [r3, #36]
 1530              		.loc 1 189 5 view .LVU314
 1531 00ba 9FED4F9A 		vldr.32	s18, .L41+52
 1532 00be DFED4F9A 		vldr.32	s19, .L41+56
 1533 00c2 DFED4F8A 		vldr.32	s17, .L41+60
 1534 00c6 0022     		movs	r2, #0
 1535 00c8 F0EE492A 		vmov.f32	s5, s18
 1536 00cc B0EE692A 		vmov.f32	s4, s19
 1537 00d0 F0EE681A 		vmov.f32	s3, s17
 1538 00d4 B0EE481A 		vmov.f32	s2, s16
 1539 00d8 F0EE480A 		vmov.f32	s1, s16
 1540 00dc B0EE480A 		vmov.f32	s0, s16
 1541 00e0 4848     		ldr	r0, .L41+64
 1542 00e2 FFF7FEFF 		bl	initPid
 1543              	.LVL159:
 190:Core/drogui/src/controlTasks.c ****     initPid(&pitch2w, 0, 0, 0, TIME, 50, 1.57*0.5,80, (P2ID & D_INT));
 1544              		.loc 1 190 5 is_stmt 1 view .LVU315
 1545              		.loc 1 190 32 is_stmt 0 view .LVU316
ARM GAS  C:\Users\USUARIO\AppData\Local\Temp\ccHfGsZ3.s 			page 32


 1546 00e6 2368     		ldr	r3, [r4]
 1547 00e8 596A     		ldr	r1, [r3, #36]
 1548              		.loc 1 190 5 view .LVU317
 1549 00ea 0022     		movs	r2, #0
 1550 00ec F0EE492A 		vmov.f32	s5, s18
 1551 00f0 B0EE692A 		vmov.f32	s4, s19
 1552 00f4 F0EE681A 		vmov.f32	s3, s17
 1553 00f8 B0EE481A 		vmov.f32	s2, s16
 1554 00fc F0EE480A 		vmov.f32	s1, s16
 1555 0100 B0EE480A 		vmov.f32	s0, s16
 1556 0104 4048     		ldr	r0, .L41+68
 1557 0106 FFF7FEFF 		bl	initPid
 1558              	.LVL160:
 191:Core/drogui/src/controlTasks.c ****     initPid(&yaw2w, 0, 0, 0, TIME, 50, 1.57*0.5,80, (P2ID & D_INT));
 1559              		.loc 1 191 5 is_stmt 1 view .LVU318
 1560              		.loc 1 191 30 is_stmt 0 view .LVU319
 1561 010a 2368     		ldr	r3, [r4]
 1562 010c 596A     		ldr	r1, [r3, #36]
 1563              		.loc 1 191 5 view .LVU320
 1564 010e 0022     		movs	r2, #0
 1565 0110 F0EE492A 		vmov.f32	s5, s18
 1566 0114 B0EE692A 		vmov.f32	s4, s19
 1567 0118 F0EE681A 		vmov.f32	s3, s17
 1568 011c B0EE481A 		vmov.f32	s2, s16
 1569 0120 F0EE480A 		vmov.f32	s1, s16
 1570 0124 B0EE480A 		vmov.f32	s0, s16
 1571 0128 3848     		ldr	r0, .L41+72
 1572 012a FFF7FEFF 		bl	initPid
 1573              	.LVL161:
 192:Core/drogui/src/controlTasks.c **** 
 193:Core/drogui/src/controlTasks.c ****     initPid(&wroll_control, 0, 0, 0, TIME, 50,  80, 3000, (P2ID & D_INT));
 1574              		.loc 1 193 5 is_stmt 1 view .LVU321
 1575              		.loc 1 193 38 is_stmt 0 view .LVU322
 1576 012e 2368     		ldr	r3, [r4]
 1577 0130 596A     		ldr	r1, [r3, #36]
 1578              		.loc 1 193 5 view .LVU323
 1579 0132 DFED379A 		vldr.32	s19, .L41+76
 1580 0136 0022     		movs	r2, #0
 1581 0138 F0EE692A 		vmov.f32	s5, s19
 1582 013c B0EE492A 		vmov.f32	s4, s18
 1583 0140 F0EE681A 		vmov.f32	s3, s17
 1584 0144 B0EE481A 		vmov.f32	s2, s16
 1585 0148 F0EE480A 		vmov.f32	s1, s16
 1586 014c B0EE480A 		vmov.f32	s0, s16
 1587 0150 3048     		ldr	r0, .L41+80
 1588 0152 FFF7FEFF 		bl	initPid
 1589              	.LVL162:
 194:Core/drogui/src/controlTasks.c ****     initPid(&wpitch_control, 0, 0, 0, TIME, 50, 80, 3000, (P2ID & D_INT));
 1590              		.loc 1 194 5 is_stmt 1 view .LVU324
 1591              		.loc 1 194 39 is_stmt 0 view .LVU325
 1592 0156 2368     		ldr	r3, [r4]
 1593 0158 596A     		ldr	r1, [r3, #36]
 1594              		.loc 1 194 5 view .LVU326
 1595 015a 0022     		movs	r2, #0
 1596 015c F0EE692A 		vmov.f32	s5, s19
 1597 0160 B0EE492A 		vmov.f32	s4, s18
 1598 0164 F0EE681A 		vmov.f32	s3, s17
ARM GAS  C:\Users\USUARIO\AppData\Local\Temp\ccHfGsZ3.s 			page 33


 1599 0168 B0EE481A 		vmov.f32	s2, s16
 1600 016c F0EE480A 		vmov.f32	s1, s16
 1601 0170 B0EE480A 		vmov.f32	s0, s16
 1602 0174 2848     		ldr	r0, .L41+84
 1603 0176 FFF7FEFF 		bl	initPid
 1604              	.LVL163:
 195:Core/drogui/src/controlTasks.c ****     initPid(&wyaw_control, 0, 0, 0, TIME, 50, 80, 3000, (P2ID & D_INT));
 1605              		.loc 1 195 5 is_stmt 1 view .LVU327
 1606              		.loc 1 195 37 is_stmt 0 view .LVU328
 1607 017a 2368     		ldr	r3, [r4]
 1608 017c 596A     		ldr	r1, [r3, #36]
 1609              		.loc 1 195 5 view .LVU329
 1610 017e 0022     		movs	r2, #0
 1611 0180 F0EE692A 		vmov.f32	s5, s19
 1612 0184 B0EE492A 		vmov.f32	s4, s18
 1613 0188 F0EE681A 		vmov.f32	s3, s17
 1614 018c B0EE481A 		vmov.f32	s2, s16
 1615 0190 F0EE480A 		vmov.f32	s1, s16
 1616 0194 B0EE480A 		vmov.f32	s0, s16
 1617 0198 2048     		ldr	r0, .L41+88
 1618 019a FFF7FEFF 		bl	initPid
 1619              	.LVL164:
 196:Core/drogui/src/controlTasks.c ****     
 197:Core/drogui/src/controlTasks.c ****     setReg(PID_INDEX, -1);
 1620              		.loc 1 197 5 is_stmt 1 view .LVU330
 1621 019e BFEE000A 		vmov.f32	s0, #-1.0e+0
 1622 01a2 6220     		movs	r0, #98
 1623 01a4 FFF7FEFF 		bl	setReg
 1624              	.LVL165:
 198:Core/drogui/src/controlTasks.c ****     setReg(PID_VAR, -1);
 1625              		.loc 1 198 5 view .LVU331
 1626 01a8 BFEE000A 		vmov.f32	s0, #-1.0e+0
 1627 01ac 6420     		movs	r0, #100
 1628 01ae FFF7FEFF 		bl	setReg
 1629              	.LVL166:
 199:Core/drogui/src/controlTasks.c ****     setReg(N_FILTER, 50);
 1630              		.loc 1 199 5 view .LVU332
 1631 01b2 B0EE680A 		vmov.f32	s0, s17
 1632 01b6 9A20     		movs	r0, #154
 1633 01b8 FFF7FEFF 		bl	setReg
 1634              	.LVL167:
 200:Core/drogui/src/controlTasks.c ****     //addTask(&wControlTask, 1000, 1);
 201:Core/drogui/src/controlTasks.c ****     //addTask(&rpyControlTask, 2000, 1);
 202:Core/drogui/src/controlTasks.c ****     //addTask(&xyzControlTask, 10000, 1);
 203:Core/drogui/src/controlTasks.c **** }
 1635              		.loc 1 203 1 is_stmt 0 view .LVU333
 1636 01bc BDEC048B 		vldm	sp!, {d8-d9}
 1637              	.LCFI20:
 1638              		.cfi_restore 82
 1639              		.cfi_restore 83
 1640              		.cfi_restore 80
 1641              		.cfi_restore 81
 1642              		.cfi_def_cfa_offset 16
 1643 01c0 38BD     		pop	{r3, r4, r5, pc}
 1644              	.L42:
 1645 01c2 00BF     		.align	2
 1646              	.L41:
ARM GAS  C:\Users\USUARIO\AppData\Local\Temp\ccHfGsZ3.s 			page 34


 1647 01c4 00000000 		.word	htim3
 1648 01c8 00000000 		.word	.LANCHOR21
 1649 01cc 00000000 		.word	.LANCHOR22
 1650 01d0 00000000 		.word	htim4
 1651 01d4 00000000 		.word	.LANCHOR23
 1652 01d8 00000000 		.word	.LANCHOR24
 1653 01dc 0050C347 		.word	1203982336
 1654 01e0 00000000 		.word	0
 1655 01e4 00000000 		.word	.LANCHOR10
 1656 01e8 EC51B83D 		.word	1035489772
 1657 01ec 00000000 		.word	.LANCHOR29
 1658 01f0 00000000 		.word	.LANCHOR31
 1659 01f4 00000000 		.word	htim5
 1660 01f8 0000A042 		.word	1117782016
 1661 01fc C3F5483F 		.word	1061746115
 1662 0200 00004842 		.word	1112014848
 1663 0204 00000000 		.word	.LANCHOR4
 1664 0208 00000000 		.word	.LANCHOR6
 1665 020c 00000000 		.word	.LANCHOR8
 1666 0210 00803B45 		.word	1161527296
 1667 0214 00000000 		.word	.LANCHOR5
 1668 0218 00000000 		.word	.LANCHOR7
 1669 021c 00000000 		.word	.LANCHOR9
 1670              		.cfi_endproc
 1671              	.LFE179:
 1673              		.global	wyaw_err
 1674              		.global	wpitch_err
 1675              		.global	wroll_err
 1676              		.global	z_ref
 1677              		.global	y_ref
 1678              		.global	x_ref
 1679              		.global	yaw_ref
 1680              		.global	pitch_ref
 1681              		.global	roll_ref
 1682              		.global	wyaw_ref
 1683              		.global	wpitch_ref
 1684              		.global	wroll_ref
 1685              		.global	z_off
 1686              		.global	y_off
 1687              		.global	x_off
 1688              		.global	yaw_off
 1689              		.global	pitch_off
 1690              		.global	roll_off
 1691              		.global	M4
 1692              		.global	M3
 1693              		.global	M2
 1694              		.global	M1
 1695              		.global	P_MAX
 1696              		.global	R_MAX
 1697              		.global	Y_C
 1698              		.global	X_C
 1699              		.global	H_ref
 1700              		.global	Y
 1701              		.global	P
 1702              		.global	R
 1703              		.global	H_comp
 1704              		.global	H
ARM GAS  C:\Users\USUARIO\AppData\Local\Temp\ccHfGsZ3.s 			page 35


 1705              		.global	y_control
 1706              		.global	x_control
 1707              		.global	z_control
 1708              		.global	wyaw_control
 1709              		.global	wpitch_control
 1710              		.global	wroll_control
 1711              		.global	yaw2w
 1712              		.global	pitch2w
 1713              		.global	roll2w
 1714              		.global	m4
 1715              		.global	m3
 1716              		.global	m2
 1717              		.global	m1
 1718              		.section	.bss.H,"aw",%nobits
 1719              		.align	2
 1720              		.set	.LANCHOR28,. + 0
 1723              	H:
 1724 0000 00000000 		.space	4
 1725              		.section	.bss.H_comp,"aw",%nobits
 1726              		.align	2
 1727              		.set	.LANCHOR20,. + 0
 1730              	H_comp:
 1731 0000 00000000 		.space	4
 1732              		.section	.bss.H_ref,"aw",%nobits
 1733              		.align	2
 1734              		.set	.LANCHOR34,. + 0
 1737              	H_ref:
 1738 0000 00000000 		.space	4
 1739              		.section	.bss.M1,"aw",%nobits
 1740              		.align	2
 1741              		.set	.LANCHOR0,. + 0
 1744              	M1:
 1745 0000 00000000 		.space	4
 1746              		.section	.bss.M2,"aw",%nobits
 1747              		.align	2
 1748              		.set	.LANCHOR1,. + 0
 1751              	M2:
 1752 0000 00000000 		.space	4
 1753              		.section	.bss.M3,"aw",%nobits
 1754              		.align	2
 1755              		.set	.LANCHOR2,. + 0
 1758              	M3:
 1759 0000 00000000 		.space	4
 1760              		.section	.bss.M4,"aw",%nobits
 1761              		.align	2
 1762              		.set	.LANCHOR3,. + 0
 1765              	M4:
 1766 0000 00000000 		.space	4
 1767              		.section	.bss.P,"aw",%nobits
 1768              		.align	2
 1769              		.set	.LANCHOR18,. + 0
 1772              	P:
 1773 0000 00000000 		.space	4
 1774              		.section	.bss.R,"aw",%nobits
 1775              		.align	2
 1776              		.set	.LANCHOR17,. + 0
 1779              	R:
ARM GAS  C:\Users\USUARIO\AppData\Local\Temp\ccHfGsZ3.s 			page 36


 1780 0000 00000000 		.space	4
 1781              		.section	.bss.X_C,"aw",%nobits
 1782              		.align	2
 1783              		.set	.LANCHOR30,. + 0
 1786              	X_C:
 1787 0000 00000000 		.space	4
 1788              		.section	.bss.Y,"aw",%nobits
 1789              		.align	2
 1790              		.set	.LANCHOR19,. + 0
 1793              	Y:
 1794 0000 00000000 		.space	4
 1795              		.section	.bss.Y_C,"aw",%nobits
 1796              		.align	2
 1797              		.set	.LANCHOR32,. + 0
 1800              	Y_C:
 1801 0000 00000000 		.space	4
 1802              		.section	.bss.m1,"aw",%nobits
 1803              		.align	2
 1804              		.set	.LANCHOR21,. + 0
 1807              	m1:
 1808 0000 00000000 		.space	12
 1808      00000000 
 1808      00000000 
 1809              		.section	.bss.m2,"aw",%nobits
 1810              		.align	2
 1811              		.set	.LANCHOR22,. + 0
 1814              	m2:
 1815 0000 00000000 		.space	12
 1815      00000000 
 1815      00000000 
 1816              		.section	.bss.m3,"aw",%nobits
 1817              		.align	2
 1818              		.set	.LANCHOR23,. + 0
 1821              	m3:
 1822 0000 00000000 		.space	12
 1822      00000000 
 1822      00000000 
 1823              		.section	.bss.m4,"aw",%nobits
 1824              		.align	2
 1825              		.set	.LANCHOR24,. + 0
 1828              	m4:
 1829 0000 00000000 		.space	12
 1829      00000000 
 1829      00000000 
 1830              		.section	.bss.pitch2w,"aw",%nobits
 1831              		.align	2
 1832              		.set	.LANCHOR6,. + 0
 1835              	pitch2w:
 1836 0000 00000000 		.space	156
 1836      00000000 
 1836      00000000 
 1836      00000000 
 1836      00000000 
 1837              		.section	.bss.pitch_off,"aw",%nobits
 1838              		.align	2
 1839              		.set	.LANCHOR36,. + 0
 1842              	pitch_off:
ARM GAS  C:\Users\USUARIO\AppData\Local\Temp\ccHfGsZ3.s 			page 37


 1843 0000 00000000 		.space	4
 1844              		.section	.bss.pitch_ref,"aw",%nobits
 1845              		.align	2
 1846              		.set	.LANCHOR26,. + 0
 1849              	pitch_ref:
 1850 0000 00000000 		.space	4
 1851              		.section	.bss.roll2w,"aw",%nobits
 1852              		.align	2
 1853              		.set	.LANCHOR4,. + 0
 1856              	roll2w:
 1857 0000 00000000 		.space	156
 1857      00000000 
 1857      00000000 
 1857      00000000 
 1857      00000000 
 1858              		.section	.bss.roll_off,"aw",%nobits
 1859              		.align	2
 1860              		.set	.LANCHOR35,. + 0
 1863              	roll_off:
 1864 0000 00000000 		.space	4
 1865              		.section	.bss.roll_ref,"aw",%nobits
 1866              		.align	2
 1867              		.set	.LANCHOR25,. + 0
 1870              	roll_ref:
 1871 0000 00000000 		.space	4
 1872              		.section	.bss.wpitch_control,"aw",%nobits
 1873              		.align	2
 1874              		.set	.LANCHOR7,. + 0
 1877              	wpitch_control:
 1878 0000 00000000 		.space	156
 1878      00000000 
 1878      00000000 
 1878      00000000 
 1878      00000000 
 1879              		.section	.bss.wpitch_err,"aw",%nobits
 1880              		.align	2
 1881              		.set	.LANCHOR14,. + 0
 1884              	wpitch_err:
 1885 0000 00000000 		.space	4
 1886              		.section	.bss.wpitch_ref,"aw",%nobits
 1887              		.align	2
 1888              		.set	.LANCHOR13,. + 0
 1891              	wpitch_ref:
 1892 0000 00000000 		.space	4
 1893              		.section	.bss.wroll_control,"aw",%nobits
 1894              		.align	2
 1895              		.set	.LANCHOR5,. + 0
 1898              	wroll_control:
 1899 0000 00000000 		.space	156
 1899      00000000 
 1899      00000000 
 1899      00000000 
 1899      00000000 
 1900              		.section	.bss.wroll_err,"aw",%nobits
 1901              		.align	2
 1902              		.set	.LANCHOR12,. + 0
 1905              	wroll_err:
ARM GAS  C:\Users\USUARIO\AppData\Local\Temp\ccHfGsZ3.s 			page 38


 1906 0000 00000000 		.space	4
 1907              		.section	.bss.wroll_ref,"aw",%nobits
 1908              		.align	2
 1909              		.set	.LANCHOR11,. + 0
 1912              	wroll_ref:
 1913 0000 00000000 		.space	4
 1914              		.section	.bss.wyaw_control,"aw",%nobits
 1915              		.align	2
 1916              		.set	.LANCHOR9,. + 0
 1919              	wyaw_control:
 1920 0000 00000000 		.space	156
 1920      00000000 
 1920      00000000 
 1920      00000000 
 1920      00000000 
 1921              		.section	.bss.wyaw_err,"aw",%nobits
 1922              		.align	2
 1923              		.set	.LANCHOR16,. + 0
 1926              	wyaw_err:
 1927 0000 00000000 		.space	4
 1928              		.section	.bss.wyaw_ref,"aw",%nobits
 1929              		.align	2
 1930              		.set	.LANCHOR15,. + 0
 1933              	wyaw_ref:
 1934 0000 00000000 		.space	4
 1935              		.section	.bss.x_control,"aw",%nobits
 1936              		.align	2
 1937              		.set	.LANCHOR29,. + 0
 1940              	x_control:
 1941 0000 00000000 		.space	156
 1941      00000000 
 1941      00000000 
 1941      00000000 
 1941      00000000 
 1942              		.section	.bss.x_off,"aw",%nobits
 1943              		.align	2
 1946              	x_off:
 1947 0000 00000000 		.space	4
 1948              		.section	.bss.x_ref,"aw",%nobits
 1949              		.align	2
 1952              	x_ref:
 1953 0000 00000000 		.space	4
 1954              		.section	.bss.y_control,"aw",%nobits
 1955              		.align	2
 1956              		.set	.LANCHOR31,. + 0
 1959              	y_control:
 1960 0000 00000000 		.space	156
 1960      00000000 
 1960      00000000 
 1960      00000000 
 1960      00000000 
 1961              		.section	.bss.y_off,"aw",%nobits
 1962              		.align	2
 1965              	y_off:
 1966 0000 00000000 		.space	4
 1967              		.section	.bss.y_ref,"aw",%nobits
 1968              		.align	2
ARM GAS  C:\Users\USUARIO\AppData\Local\Temp\ccHfGsZ3.s 			page 39


 1971              	y_ref:
 1972 0000 00000000 		.space	4
 1973              		.section	.bss.yaw2w,"aw",%nobits
 1974              		.align	2
 1975              		.set	.LANCHOR8,. + 0
 1978              	yaw2w:
 1979 0000 00000000 		.space	156
 1979      00000000 
 1979      00000000 
 1979      00000000 
 1979      00000000 
 1980              		.section	.bss.yaw_off,"aw",%nobits
 1981              		.align	2
 1982              		.set	.LANCHOR37,. + 0
 1985              	yaw_off:
 1986 0000 00000000 		.space	4
 1987              		.section	.bss.yaw_ref,"aw",%nobits
 1988              		.align	2
 1989              		.set	.LANCHOR27,. + 0
 1992              	yaw_ref:
 1993 0000 00000000 		.space	4
 1994              		.section	.bss.z_control,"aw",%nobits
 1995              		.align	2
 1996              		.set	.LANCHOR10,. + 0
 1999              	z_control:
 2000 0000 00000000 		.space	156
 2000      00000000 
 2000      00000000 
 2000      00000000 
 2000      00000000 
 2001              		.section	.bss.z_off,"aw",%nobits
 2002              		.align	2
 2005              	z_off:
 2006 0000 00000000 		.space	4
 2007              		.section	.bss.z_ref,"aw",%nobits
 2008              		.align	2
 2009              		.set	.LANCHOR33,. + 0
 2012              	z_ref:
 2013 0000 00000000 		.space	4
 2014              		.section	.data.P_MAX,"aw"
 2015              		.align	2
 2018              	P_MAX:
 2019 0000 143A123E 		.word	1041381908
 2020              		.section	.data.R_MAX,"aw"
 2021              		.align	2
 2024              	R_MAX:
 2025 0000 143A123E 		.word	1041381908
 2026              		.text
 2027              	.Letext0:
 2028              		.file 2 "c:\\program files (x86)\\gnu arm embedded toolchain\\10 2020-q4-major\\arm-none-eabi\\inc
 2029              		.file 3 "c:\\program files (x86)\\gnu arm embedded toolchain\\10 2020-q4-major\\arm-none-eabi\\inc
 2030              		.file 4 "Drivers/CMSIS/Device/ST/STM32F7xx/Include/stm32f746xx.h"
 2031              		.file 5 "Drivers/STM32F7xx_HAL_Driver/Inc/stm32f7xx_hal_def.h"
 2032              		.file 6 "Drivers/STM32F7xx_HAL_Driver/Inc/stm32f7xx_hal_dma.h"
 2033              		.file 7 "Drivers/STM32F7xx_HAL_Driver/Inc/stm32f7xx_hal_tim.h"
 2034              		.file 8 "Drivers/CMSIS/DSP/Include/arm_math.h"
 2035              		.file 9 "Core/drogui/include/filter.h"
ARM GAS  C:\Users\USUARIO\AppData\Local\Temp\ccHfGsZ3.s 			page 40


 2036              		.file 10 "Core/drogui/include/control.h"
 2037              		.file 11 "Core/drogui/include/registerMap.h"
 2038              		.file 12 "Core/drogui/include/utils.h"
 2039              		.file 13 "Core/drogui/include/sensorsTasks.h"
 2040              		.file 14 "Core/drogui/include/controlTasks.h"
 2041              		.file 15 "Core/Inc/tim.h"
 2042              		.file 16 "Core/drogui/include/pwm.h"
 2043              		.file 17 "c:\\program files (x86)\\gnu arm embedded toolchain\\10 2020-q4-major\\arm-none-eabi\\in
ARM GAS  C:\Users\USUARIO\AppData\Local\Temp\ccHfGsZ3.s 			page 41


DEFINED SYMBOLS
                            *ABS*:00000000 controlTasks.c
C:\Users\USUARIO\AppData\Local\Temp\ccHfGsZ3.s:23     .text.saturateM:00000000 $t
C:\Users\USUARIO\AppData\Local\Temp\ccHfGsZ3.s:31     .text.saturateM:00000000 saturateM
C:\Users\USUARIO\AppData\Local\Temp\ccHfGsZ3.s:294    .text.saturateM:000001a8 $d
C:\Users\USUARIO\AppData\Local\Temp\ccHfGsZ3.s:307    .text.updatePID:00000000 $t
C:\Users\USUARIO\AppData\Local\Temp\ccHfGsZ3.s:314    .text.updatePID:00000000 updatePID
C:\Users\USUARIO\AppData\Local\Temp\ccHfGsZ3.s:350    .text.updatePID:0000002c $d
C:\Users\USUARIO\AppData\Local\Temp\ccHfGsZ3.s:356    .text.updatePID:00000032 $t
C:\Users\USUARIO\AppData\Local\Temp\ccHfGsZ3.s:572    .text.updatePID:00000150 $d
C:\Users\USUARIO\AppData\Local\Temp\ccHfGsZ3.s:583    .text.wControlTask:00000000 $t
C:\Users\USUARIO\AppData\Local\Temp\ccHfGsZ3.s:590    .text.wControlTask:00000000 wControlTask
C:\Users\USUARIO\AppData\Local\Temp\ccHfGsZ3.s:988    .text.wControlTask:00000310 $d
C:\Users\USUARIO\AppData\Local\Temp\ccHfGsZ3.s:1025   .text.rpyControlTask:00000000 $t
C:\Users\USUARIO\AppData\Local\Temp\ccHfGsZ3.s:1032   .text.rpyControlTask:00000000 rpyControlTask
C:\Users\USUARIO\AppData\Local\Temp\ccHfGsZ3.s:1174   .text.rpyControlTask:000000c8 $d
C:\Users\USUARIO\AppData\Local\Temp\ccHfGsZ3.s:1193   .text.xyzControlTask:00000000 $t
C:\Users\USUARIO\AppData\Local\Temp\ccHfGsZ3.s:1200   .text.xyzControlTask:00000000 xyzControlTask
C:\Users\USUARIO\AppData\Local\Temp\ccHfGsZ3.s:1390   .text.xyzControlTask:00000128 $d
C:\Users\USUARIO\AppData\Local\Temp\ccHfGsZ3.s:1417   .text.initControlTasks:00000000 $t
C:\Users\USUARIO\AppData\Local\Temp\ccHfGsZ3.s:1424   .text.initControlTasks:00000000 initControlTasks
C:\Users\USUARIO\AppData\Local\Temp\ccHfGsZ3.s:1647   .text.initControlTasks:000001c4 $d
C:\Users\USUARIO\AppData\Local\Temp\ccHfGsZ3.s:1926   .bss.wyaw_err:00000000 wyaw_err
C:\Users\USUARIO\AppData\Local\Temp\ccHfGsZ3.s:1884   .bss.wpitch_err:00000000 wpitch_err
C:\Users\USUARIO\AppData\Local\Temp\ccHfGsZ3.s:1905   .bss.wroll_err:00000000 wroll_err
C:\Users\USUARIO\AppData\Local\Temp\ccHfGsZ3.s:2012   .bss.z_ref:00000000 z_ref
C:\Users\USUARIO\AppData\Local\Temp\ccHfGsZ3.s:1971   .bss.y_ref:00000000 y_ref
C:\Users\USUARIO\AppData\Local\Temp\ccHfGsZ3.s:1952   .bss.x_ref:00000000 x_ref
C:\Users\USUARIO\AppData\Local\Temp\ccHfGsZ3.s:1992   .bss.yaw_ref:00000000 yaw_ref
C:\Users\USUARIO\AppData\Local\Temp\ccHfGsZ3.s:1849   .bss.pitch_ref:00000000 pitch_ref
C:\Users\USUARIO\AppData\Local\Temp\ccHfGsZ3.s:1870   .bss.roll_ref:00000000 roll_ref
C:\Users\USUARIO\AppData\Local\Temp\ccHfGsZ3.s:1933   .bss.wyaw_ref:00000000 wyaw_ref
C:\Users\USUARIO\AppData\Local\Temp\ccHfGsZ3.s:1891   .bss.wpitch_ref:00000000 wpitch_ref
C:\Users\USUARIO\AppData\Local\Temp\ccHfGsZ3.s:1912   .bss.wroll_ref:00000000 wroll_ref
C:\Users\USUARIO\AppData\Local\Temp\ccHfGsZ3.s:2005   .bss.z_off:00000000 z_off
C:\Users\USUARIO\AppData\Local\Temp\ccHfGsZ3.s:1965   .bss.y_off:00000000 y_off
C:\Users\USUARIO\AppData\Local\Temp\ccHfGsZ3.s:1946   .bss.x_off:00000000 x_off
C:\Users\USUARIO\AppData\Local\Temp\ccHfGsZ3.s:1985   .bss.yaw_off:00000000 yaw_off
C:\Users\USUARIO\AppData\Local\Temp\ccHfGsZ3.s:1842   .bss.pitch_off:00000000 pitch_off
C:\Users\USUARIO\AppData\Local\Temp\ccHfGsZ3.s:1863   .bss.roll_off:00000000 roll_off
C:\Users\USUARIO\AppData\Local\Temp\ccHfGsZ3.s:1765   .bss.M4:00000000 M4
C:\Users\USUARIO\AppData\Local\Temp\ccHfGsZ3.s:1758   .bss.M3:00000000 M3
C:\Users\USUARIO\AppData\Local\Temp\ccHfGsZ3.s:1751   .bss.M2:00000000 M2
C:\Users\USUARIO\AppData\Local\Temp\ccHfGsZ3.s:1744   .bss.M1:00000000 M1
C:\Users\USUARIO\AppData\Local\Temp\ccHfGsZ3.s:2018   .data.P_MAX:00000000 P_MAX
C:\Users\USUARIO\AppData\Local\Temp\ccHfGsZ3.s:2024   .data.R_MAX:00000000 R_MAX
C:\Users\USUARIO\AppData\Local\Temp\ccHfGsZ3.s:1800   .bss.Y_C:00000000 Y_C
C:\Users\USUARIO\AppData\Local\Temp\ccHfGsZ3.s:1786   .bss.X_C:00000000 X_C
C:\Users\USUARIO\AppData\Local\Temp\ccHfGsZ3.s:1737   .bss.H_ref:00000000 H_ref
C:\Users\USUARIO\AppData\Local\Temp\ccHfGsZ3.s:1793   .bss.Y:00000000 Y
C:\Users\USUARIO\AppData\Local\Temp\ccHfGsZ3.s:1772   .bss.P:00000000 P
C:\Users\USUARIO\AppData\Local\Temp\ccHfGsZ3.s:1779   .bss.R:00000000 R
C:\Users\USUARIO\AppData\Local\Temp\ccHfGsZ3.s:1730   .bss.H_comp:00000000 H_comp
C:\Users\USUARIO\AppData\Local\Temp\ccHfGsZ3.s:1723   .bss.H:00000000 H
C:\Users\USUARIO\AppData\Local\Temp\ccHfGsZ3.s:1959   .bss.y_control:00000000 y_control
C:\Users\USUARIO\AppData\Local\Temp\ccHfGsZ3.s:1940   .bss.x_control:00000000 x_control
C:\Users\USUARIO\AppData\Local\Temp\ccHfGsZ3.s:1999   .bss.z_control:00000000 z_control
ARM GAS  C:\Users\USUARIO\AppData\Local\Temp\ccHfGsZ3.s 			page 42


C:\Users\USUARIO\AppData\Local\Temp\ccHfGsZ3.s:1919   .bss.wyaw_control:00000000 wyaw_control
C:\Users\USUARIO\AppData\Local\Temp\ccHfGsZ3.s:1877   .bss.wpitch_control:00000000 wpitch_control
C:\Users\USUARIO\AppData\Local\Temp\ccHfGsZ3.s:1898   .bss.wroll_control:00000000 wroll_control
C:\Users\USUARIO\AppData\Local\Temp\ccHfGsZ3.s:1978   .bss.yaw2w:00000000 yaw2w
C:\Users\USUARIO\AppData\Local\Temp\ccHfGsZ3.s:1835   .bss.pitch2w:00000000 pitch2w
C:\Users\USUARIO\AppData\Local\Temp\ccHfGsZ3.s:1856   .bss.roll2w:00000000 roll2w
C:\Users\USUARIO\AppData\Local\Temp\ccHfGsZ3.s:1828   .bss.m4:00000000 m4
C:\Users\USUARIO\AppData\Local\Temp\ccHfGsZ3.s:1821   .bss.m3:00000000 m3
C:\Users\USUARIO\AppData\Local\Temp\ccHfGsZ3.s:1814   .bss.m2:00000000 m2
C:\Users\USUARIO\AppData\Local\Temp\ccHfGsZ3.s:1807   .bss.m1:00000000 m1
C:\Users\USUARIO\AppData\Local\Temp\ccHfGsZ3.s:1719   .bss.H:00000000 $d
C:\Users\USUARIO\AppData\Local\Temp\ccHfGsZ3.s:1726   .bss.H_comp:00000000 $d
C:\Users\USUARIO\AppData\Local\Temp\ccHfGsZ3.s:1733   .bss.H_ref:00000000 $d
C:\Users\USUARIO\AppData\Local\Temp\ccHfGsZ3.s:1740   .bss.M1:00000000 $d
C:\Users\USUARIO\AppData\Local\Temp\ccHfGsZ3.s:1747   .bss.M2:00000000 $d
C:\Users\USUARIO\AppData\Local\Temp\ccHfGsZ3.s:1754   .bss.M3:00000000 $d
C:\Users\USUARIO\AppData\Local\Temp\ccHfGsZ3.s:1761   .bss.M4:00000000 $d
C:\Users\USUARIO\AppData\Local\Temp\ccHfGsZ3.s:1768   .bss.P:00000000 $d
C:\Users\USUARIO\AppData\Local\Temp\ccHfGsZ3.s:1775   .bss.R:00000000 $d
C:\Users\USUARIO\AppData\Local\Temp\ccHfGsZ3.s:1782   .bss.X_C:00000000 $d
C:\Users\USUARIO\AppData\Local\Temp\ccHfGsZ3.s:1789   .bss.Y:00000000 $d
C:\Users\USUARIO\AppData\Local\Temp\ccHfGsZ3.s:1796   .bss.Y_C:00000000 $d
C:\Users\USUARIO\AppData\Local\Temp\ccHfGsZ3.s:1803   .bss.m1:00000000 $d
C:\Users\USUARIO\AppData\Local\Temp\ccHfGsZ3.s:1810   .bss.m2:00000000 $d
C:\Users\USUARIO\AppData\Local\Temp\ccHfGsZ3.s:1817   .bss.m3:00000000 $d
C:\Users\USUARIO\AppData\Local\Temp\ccHfGsZ3.s:1824   .bss.m4:00000000 $d
C:\Users\USUARIO\AppData\Local\Temp\ccHfGsZ3.s:1831   .bss.pitch2w:00000000 $d
C:\Users\USUARIO\AppData\Local\Temp\ccHfGsZ3.s:1838   .bss.pitch_off:00000000 $d
C:\Users\USUARIO\AppData\Local\Temp\ccHfGsZ3.s:1845   .bss.pitch_ref:00000000 $d
C:\Users\USUARIO\AppData\Local\Temp\ccHfGsZ3.s:1852   .bss.roll2w:00000000 $d
C:\Users\USUARIO\AppData\Local\Temp\ccHfGsZ3.s:1859   .bss.roll_off:00000000 $d
C:\Users\USUARIO\AppData\Local\Temp\ccHfGsZ3.s:1866   .bss.roll_ref:00000000 $d
C:\Users\USUARIO\AppData\Local\Temp\ccHfGsZ3.s:1873   .bss.wpitch_control:00000000 $d
C:\Users\USUARIO\AppData\Local\Temp\ccHfGsZ3.s:1880   .bss.wpitch_err:00000000 $d
C:\Users\USUARIO\AppData\Local\Temp\ccHfGsZ3.s:1887   .bss.wpitch_ref:00000000 $d
C:\Users\USUARIO\AppData\Local\Temp\ccHfGsZ3.s:1894   .bss.wroll_control:00000000 $d
C:\Users\USUARIO\AppData\Local\Temp\ccHfGsZ3.s:1901   .bss.wroll_err:00000000 $d
C:\Users\USUARIO\AppData\Local\Temp\ccHfGsZ3.s:1908   .bss.wroll_ref:00000000 $d
C:\Users\USUARIO\AppData\Local\Temp\ccHfGsZ3.s:1915   .bss.wyaw_control:00000000 $d
C:\Users\USUARIO\AppData\Local\Temp\ccHfGsZ3.s:1922   .bss.wyaw_err:00000000 $d
C:\Users\USUARIO\AppData\Local\Temp\ccHfGsZ3.s:1929   .bss.wyaw_ref:00000000 $d
C:\Users\USUARIO\AppData\Local\Temp\ccHfGsZ3.s:1936   .bss.x_control:00000000 $d
C:\Users\USUARIO\AppData\Local\Temp\ccHfGsZ3.s:1943   .bss.x_off:00000000 $d
C:\Users\USUARIO\AppData\Local\Temp\ccHfGsZ3.s:1949   .bss.x_ref:00000000 $d
C:\Users\USUARIO\AppData\Local\Temp\ccHfGsZ3.s:1955   .bss.y_control:00000000 $d
C:\Users\USUARIO\AppData\Local\Temp\ccHfGsZ3.s:1962   .bss.y_off:00000000 $d
C:\Users\USUARIO\AppData\Local\Temp\ccHfGsZ3.s:1968   .bss.y_ref:00000000 $d
C:\Users\USUARIO\AppData\Local\Temp\ccHfGsZ3.s:1974   .bss.yaw2w:00000000 $d
C:\Users\USUARIO\AppData\Local\Temp\ccHfGsZ3.s:1981   .bss.yaw_off:00000000 $d
C:\Users\USUARIO\AppData\Local\Temp\ccHfGsZ3.s:1988   .bss.yaw_ref:00000000 $d
C:\Users\USUARIO\AppData\Local\Temp\ccHfGsZ3.s:1995   .bss.z_control:00000000 $d
C:\Users\USUARIO\AppData\Local\Temp\ccHfGsZ3.s:2002   .bss.z_off:00000000 $d
C:\Users\USUARIO\AppData\Local\Temp\ccHfGsZ3.s:2008   .bss.z_ref:00000000 $d
C:\Users\USUARIO\AppData\Local\Temp\ccHfGsZ3.s:2015   .data.P_MAX:00000000 $d
C:\Users\USUARIO\AppData\Local\Temp\ccHfGsZ3.s:2021   .data.R_MAX:00000000 $d

UNDEFINED SYMBOLS
ARM GAS  C:\Users\USUARIO\AppData\Local\Temp\ccHfGsZ3.s 			page 43


__aeabi_f2d
__aeabi_d2f
__aeabi_dsub
__aeabi_dadd
__aeabi_ddiv
fmax
sqrt
getReg
fmin
computePid
setReg
setPwm
resetPid
gx
gy
gz
htim5
security
angle_dif
roll
pitch
yaw
rampValue
x
y
z
initPwm
initPid
htim3
htim4
