ARM GAS  C:\Users\USUARIO\AppData\Local\Temp\ccZGJjAx.s 			page 1


   1              		.cpu cortex-m7
   2              		.eabi_attribute 27, 1
   3              		.eabi_attribute 28, 1
   4              		.eabi_attribute 20, 1
   5              		.eabi_attribute 21, 1
   6              		.eabi_attribute 23, 3
   7              		.eabi_attribute 24, 1
   8              		.eabi_attribute 25, 1
   9              		.eabi_attribute 26, 1
  10              		.eabi_attribute 30, 1
  11              		.eabi_attribute 34, 1
  12              		.eabi_attribute 18, 4
  13              		.file	"debugTasks.c"
  14              		.text
  15              	.Ltext0:
  16              		.cfi_sections	.debug_frame
  17              		.section	.text.blinkTask,"ax",%progbits
  18              		.align	1
  19              		.global	blinkTask
  20              		.arch armv7e-m
  21              		.syntax unified
  22              		.thumb
  23              		.thumb_func
  24              		.fpu fpv5-sp-d16
  26              	blinkTask:
  27              	.LVL0:
  28              	.LFB177:
  29              		.file 1 "Core/drogui/src/debugTasks.c"
   1:Core/drogui/src/debugTasks.c **** #include "debugTasks.h"
   2:Core/drogui/src/debugTasks.c **** #include "utils.h"
   3:Core/drogui/src/debugTasks.c **** #include "usart.h"
   4:Core/drogui/src/debugTasks.c **** #include "sensorsTasks.h"
   5:Core/drogui/src/debugTasks.c **** #include "task.h"
   6:Core/drogui/src/debugTasks.c **** #include <stdio.h>
   7:Core/drogui/src/debugTasks.c **** #include <string.h>
   8:Core/drogui/src/debugTasks.c **** #include "filter.h"
   9:Core/drogui/src/debugTasks.c **** 
  10:Core/drogui/src/debugTasks.c **** 
  11:Core/drogui/src/debugTasks.c **** void blinkTask(void *argument){
  30              		.loc 1 11 31 view -0
  31              		.cfi_startproc
  32              		@ args = 0, pretend = 0, frame = 0
  33              		@ frame_needed = 0, uses_anonymous_args = 0
  34              		.loc 1 11 31 is_stmt 0 view .LVU1
  35 0000 08B5     		push	{r3, lr}
  36              	.LCFI0:
  37              		.cfi_def_cfa_offset 8
  38              		.cfi_offset 3, -8
  39              		.cfi_offset 14, -4
  12:Core/drogui/src/debugTasks.c **** 
  13:Core/drogui/src/debugTasks.c ****     HAL_GPIO_TogglePin(LED_GPIO_Port, LED_Pin);
  40              		.loc 1 13 5 is_stmt 1 view .LVU2
  41 0002 0221     		movs	r1, #2
  42 0004 0148     		ldr	r0, .L3
  43              	.LVL1:
  44              		.loc 1 13 5 is_stmt 0 view .LVU3
  45 0006 FFF7FEFF 		bl	HAL_GPIO_TogglePin
ARM GAS  C:\Users\USUARIO\AppData\Local\Temp\ccZGJjAx.s 			page 2


  46              	.LVL2:
  14:Core/drogui/src/debugTasks.c **** }
  47              		.loc 1 14 1 view .LVU4
  48 000a 08BD     		pop	{r3, pc}
  49              	.L4:
  50              		.align	2
  51              	.L3:
  52 000c 00100240 		.word	1073876992
  53              		.cfi_endproc
  54              	.LFE177:
  56              		.global	__aeabi_f2d
  57              		.section	.rodata.debugTask.str1.4,"aMS",%progbits,1
  58              		.align	2
  59              	.LC0:
  60 0000 25660925 		.ascii	"%f\011%f\011%f;\012\000"
  60      66092566 
  60      3B0A00
  61              		.section	.text.debugTask,"ax",%progbits
  62              		.align	1
  63              		.global	debugTask
  64              		.syntax unified
  65              		.thumb
  66              		.thumb_func
  67              		.fpu fpv5-sp-d16
  69              	debugTask:
  70              	.LVL3:
  71              	.LFB178:
  15:Core/drogui/src/debugTasks.c **** 
  16:Core/drogui/src/debugTasks.c **** char buff[50] = "hola\n";
  17:Core/drogui/src/debugTasks.c **** void debugTask(void *argument){
  72              		.loc 1 17 31 is_stmt 1 view -0
  73              		.cfi_startproc
  74              		@ args = 0, pretend = 0, frame = 0
  75              		@ frame_needed = 0, uses_anonymous_args = 0
  76              		.loc 1 17 31 is_stmt 0 view .LVU6
  77 0000 D0B5     		push	{r4, r6, r7, lr}
  78              	.LCFI1:
  79              		.cfi_def_cfa_offset 16
  80              		.cfi_offset 4, -16
  81              		.cfi_offset 6, -12
  82              		.cfi_offset 7, -8
  83              		.cfi_offset 14, -4
  84 0002 84B0     		sub	sp, sp, #16
  85              	.LCFI2:
  86              		.cfi_def_cfa_offset 32
  18:Core/drogui/src/debugTasks.c ****     
  19:Core/drogui/src/debugTasks.c ****     sprintf(buff, "%f\t%f\t%f;\n", roll, pitch, yaw);
  87              		.loc 1 19 5 is_stmt 1 view .LVU7
  88 0004 114B     		ldr	r3, .L7
  89 0006 1868     		ldr	r0, [r3]	@ float
  90              	.LVL4:
  91              		.loc 1 19 5 is_stmt 0 view .LVU8
  92 0008 FFF7FEFF 		bl	__aeabi_f2d
  93              	.LVL5:
  94 000c 0646     		mov	r6, r0
  95 000e 0F46     		mov	r7, r1
  96 0010 0F4C     		ldr	r4, .L7+4
ARM GAS  C:\Users\USUARIO\AppData\Local\Temp\ccZGJjAx.s 			page 3


  97 0012 104B     		ldr	r3, .L7+8
  98 0014 1868     		ldr	r0, [r3]	@ float
  99 0016 FFF7FEFF 		bl	__aeabi_f2d
 100              	.LVL6:
 101 001a CDE90201 		strd	r0, [sp, #8]
 102 001e 0E4B     		ldr	r3, .L7+12
 103 0020 1868     		ldr	r0, [r3]	@ float
 104 0022 FFF7FEFF 		bl	__aeabi_f2d
 105              	.LVL7:
 106 0026 CDE90001 		strd	r0, [sp]
 107 002a 3246     		mov	r2, r6
 108 002c 3B46     		mov	r3, r7
 109 002e 0B49     		ldr	r1, .L7+16
 110 0030 2046     		mov	r0, r4
 111 0032 FFF7FEFF 		bl	sprintf
 112              	.LVL8:
  20:Core/drogui/src/debugTasks.c ****     HAL_UART_Transmit(&huart2, (uint8_t*) buff, strlen(buff), 100);
 113              		.loc 1 20 5 is_stmt 1 view .LVU9
 114              		.loc 1 20 49 is_stmt 0 view .LVU10
 115 0036 2046     		mov	r0, r4
 116 0038 FFF7FEFF 		bl	strlen
 117              	.LVL9:
 118              		.loc 1 20 5 view .LVU11
 119 003c 6423     		movs	r3, #100
 120 003e 82B2     		uxth	r2, r0
 121 0040 2146     		mov	r1, r4
 122 0042 0748     		ldr	r0, .L7+20
 123 0044 FFF7FEFF 		bl	HAL_UART_Transmit
 124              	.LVL10:
  21:Core/drogui/src/debugTasks.c **** }
 125              		.loc 1 21 1 view .LVU12
 126 0048 04B0     		add	sp, sp, #16
 127              	.LCFI3:
 128              		.cfi_def_cfa_offset 16
 129              		@ sp needed
 130 004a D0BD     		pop	{r4, r6, r7, pc}
 131              	.L8:
 132              		.align	2
 133              	.L7:
 134 004c 00000000 		.word	roll
 135 0050 00000000 		.word	.LANCHOR0
 136 0054 00000000 		.word	yaw
 137 0058 00000000 		.word	pitch
 138 005c 00000000 		.word	.LC0
 139 0060 00000000 		.word	huart2
 140              		.cfi_endproc
 141              	.LFE178:
 143              		.section	.text.initDebug,"ax",%progbits
 144              		.align	1
 145              		.global	initDebug
 146              		.syntax unified
 147              		.thumb
 148              		.thumb_func
 149              		.fpu fpv5-sp-d16
 151              	initDebug:
 152              	.LFB179:
  22:Core/drogui/src/debugTasks.c **** 
ARM GAS  C:\Users\USUARIO\AppData\Local\Temp\ccZGJjAx.s 			page 4


  23:Core/drogui/src/debugTasks.c **** void initDebug(){
 153              		.loc 1 23 17 is_stmt 1 view -0
 154              		.cfi_startproc
 155              		@ args = 0, pretend = 0, frame = 0
 156              		@ frame_needed = 0, uses_anonymous_args = 0
 157 0000 08B5     		push	{r3, lr}
 158              	.LCFI4:
 159              		.cfi_def_cfa_offset 8
 160              		.cfi_offset 3, -8
 161              		.cfi_offset 14, -4
  24:Core/drogui/src/debugTasks.c ****     
  25:Core/drogui/src/debugTasks.c ****     addTask(&debugTask, 1000, 1);
 162              		.loc 1 25 5 view .LVU14
 163 0002 0122     		movs	r2, #1
 164 0004 4FF47A71 		mov	r1, #1000
 165 0008 0448     		ldr	r0, .L11
 166 000a FFF7FEFF 		bl	addTask
 167              	.LVL11:
  26:Core/drogui/src/debugTasks.c ****     addTask(&blinkTask, 1000000, 1);
 168              		.loc 1 26 5 view .LVU15
 169 000e 0122     		movs	r2, #1
 170 0010 0349     		ldr	r1, .L11+4
 171 0012 0448     		ldr	r0, .L11+8
 172 0014 FFF7FEFF 		bl	addTask
 173              	.LVL12:
  27:Core/drogui/src/debugTasks.c **** 
  28:Core/drogui/src/debugTasks.c **** }...
 174              		.loc 1 28 1 is_stmt 0 view .LVU16
 175 0018 08BD     		pop	{r3, pc}
 176              	.L12:
 177 001a 00BF     		.align	2
 178              	.L11:
 179 001c 00000000 		.word	debugTask
 180 0020 40420F00 		.word	1000000
 181 0024 00000000 		.word	blinkTask
 182              		.cfi_endproc
 183              	.LFE179:
 185              		.global	buff
 186              		.section	.data.buff,"aw"
 187              		.align	2
 188              		.set	.LANCHOR0,. + 0
 191              	buff:
 192 0000 686F6C61 		.ascii	"hola\012\000"
 192      0A00
 193 0006 00000000 		.space	44
 193      00000000 
 193      00000000 
 193      00000000 
 193      00000000 
 194              		.text
 195              	.Letext0:
 196              		.file 2 "c:\\program files (x86)\\gnu arm embedded toolchain\\10 2020-q4-major\\arm-none-eabi\\inc
 197              		.file 3 "c:\\program files (x86)\\gnu arm embedded toolchain\\10 2020-q4-major\\arm-none-eabi\\inc
 198              		.file 4 "Drivers/CMSIS/Device/ST/STM32F7xx/Include/stm32f746xx.h"
 199              		.file 5 "Drivers/STM32F7xx_HAL_Driver/Inc/stm32f7xx_hal_def.h"
 200              		.file 6 "Drivers/STM32F7xx_HAL_Driver/Inc/stm32f7xx_hal_dma.h"
 201              		.file 7 "Drivers/STM32F7xx_HAL_Driver/Inc/stm32f7xx_hal_uart.h"
ARM GAS  C:\Users\USUARIO\AppData\Local\Temp\ccZGJjAx.s 			page 5


 202              		.file 8 "Core/Inc/usart.h"
 203              		.file 9 "Core/drogui/include/sensorsTasks.h"
 204              		.file 10 "Core/drogui/include/task.h"
 205              		.file 11 "c:\\program files (x86)\\gnu arm embedded toolchain\\10 2020-q4-major\\arm-none-eabi\\in
 206              		.file 12 "c:\\program files (x86)\\gnu arm embedded toolchain\\10 2020-q4-major\\arm-none-eabi\\in
 207              		.file 13 "Drivers/STM32F7xx_HAL_Driver/Inc/stm32f7xx_hal_gpio.h"
ARM GAS  C:\Users\USUARIO\AppData\Local\Temp\ccZGJjAx.s 			page 6


DEFINED SYMBOLS
                            *ABS*:00000000 debugTasks.c
C:\Users\USUARIO\AppData\Local\Temp\ccZGJjAx.s:18     .text.blinkTask:00000000 $t
C:\Users\USUARIO\AppData\Local\Temp\ccZGJjAx.s:26     .text.blinkTask:00000000 blinkTask
C:\Users\USUARIO\AppData\Local\Temp\ccZGJjAx.s:52     .text.blinkTask:0000000c $d
C:\Users\USUARIO\AppData\Local\Temp\ccZGJjAx.s:58     .rodata.debugTask.str1.4:00000000 $d
C:\Users\USUARIO\AppData\Local\Temp\ccZGJjAx.s:62     .text.debugTask:00000000 $t
C:\Users\USUARIO\AppData\Local\Temp\ccZGJjAx.s:69     .text.debugTask:00000000 debugTask
C:\Users\USUARIO\AppData\Local\Temp\ccZGJjAx.s:134    .text.debugTask:0000004c $d
C:\Users\USUARIO\AppData\Local\Temp\ccZGJjAx.s:144    .text.initDebug:00000000 $t
C:\Users\USUARIO\AppData\Local\Temp\ccZGJjAx.s:151    .text.initDebug:00000000 initDebug
C:\Users\USUARIO\AppData\Local\Temp\ccZGJjAx.s:179    .text.initDebug:0000001c $d
C:\Users\USUARIO\AppData\Local\Temp\ccZGJjAx.s:191    .data.buff:00000000 buff
C:\Users\USUARIO\AppData\Local\Temp\ccZGJjAx.s:187    .data.buff:00000000 $d

UNDEFINED SYMBOLS
HAL_GPIO_TogglePin
__aeabi_f2d
sprintf
strlen
HAL_UART_Transmit
roll
yaw
pitch
huart2
addTask
