ARM GAS  C:\Users\GUILLE~1\AppData\Local\Temp\ccOsukhD.s 			page 1


   1              		.cpu cortex-m7
   2              		.eabi_attribute 27, 1
   3              		.eabi_attribute 28, 1
   4              		.eabi_attribute 20, 1
   5              		.eabi_attribute 21, 1
   6              		.eabi_attribute 23, 3
   7              		.eabi_attribute 24, 1
   8              		.eabi_attribute 25, 1
   9              		.eabi_attribute 26, 1
  10              		.eabi_attribute 30, 1
  11              		.eabi_attribute 34, 1
  12              		.eabi_attribute 18, 4
  13              		.file	"debugTasks.c"
  14              		.text
  15              	.Ltext0:
  16              		.cfi_sections	.debug_frame
  17              		.section	.text.blinkTask,"ax",%progbits
  18              		.align	1
  19              		.global	blinkTask
  20              		.arch armv7e-m
  21              		.syntax unified
  22              		.thumb
  23              		.thumb_func
  24              		.fpu fpv5-sp-d16
  26              	blinkTask:
  27              	.LVL0:
  28              	.LFB177:
  29              		.file 1 "Core/drogui/src/debugTasks.c"
   1:Core/drogui/src/debugTasks.c **** #include "debugTasks.h"
   2:Core/drogui/src/debugTasks.c **** #include "utils.h"
   3:Core/drogui/src/debugTasks.c **** #include "usart.h"
   4:Core/drogui/src/debugTasks.c **** #include "sensorsTasks.h"
   5:Core/drogui/src/debugTasks.c **** #include "task.h"
   6:Core/drogui/src/debugTasks.c **** #include <stdio.h>
   7:Core/drogui/src/debugTasks.c **** #include <string.h>
   8:Core/drogui/src/debugTasks.c **** 
   9:Core/drogui/src/debugTasks.c **** 
  10:Core/drogui/src/debugTasks.c **** void blinkTask(void *argument){
  30              		.loc 1 10 31 view -0
  31              		.cfi_startproc
  32              		@ args = 0, pretend = 0, frame = 0
  33              		@ frame_needed = 0, uses_anonymous_args = 0
  34              		.loc 1 10 31 is_stmt 0 view .LVU1
  35 0000 08B5     		push	{r3, lr}
  36              	.LCFI0:
  37              		.cfi_def_cfa_offset 8
  38              		.cfi_offset 3, -8
  39              		.cfi_offset 14, -4
  11:Core/drogui/src/debugTasks.c **** 
  12:Core/drogui/src/debugTasks.c ****     HAL_GPIO_TogglePin(LED_GPIO_Port, LED_Pin);
  40              		.loc 1 12 5 is_stmt 1 view .LVU2
  41 0002 0221     		movs	r1, #2
  42 0004 0148     		ldr	r0, .L3
  43              	.LVL1:
  44              		.loc 1 12 5 is_stmt 0 view .LVU3
  45 0006 FFF7FEFF 		bl	HAL_GPIO_TogglePin
  46              	.LVL2:
ARM GAS  C:\Users\GUILLE~1\AppData\Local\Temp\ccOsukhD.s 			page 2


  13:Core/drogui/src/debugTasks.c **** }
  47              		.loc 1 13 1 view .LVU4
  48 000a 08BD     		pop	{r3, pc}
  49              	.L4:
  50              		.align	2
  51              	.L3:
  52 000c 00100240 		.word	1073876992
  53              		.cfi_endproc
  54              	.LFE177:
  56              		.global	__aeabi_f2d
  57              		.section	.rodata.debugTask.str1.4,"aMS",%progbits,1
  58              		.align	2
  59              	.LC0:
  60 0000 25660925 		.ascii	"%f\011%f\011%lu ;\012\000"
  60      6609256C 
  60      75203B0A 
  60      00
  61              		.section	.text.debugTask,"ax",%progbits
  62              		.align	1
  63              		.global	debugTask
  64              		.syntax unified
  65              		.thumb
  66              		.thumb_func
  67              		.fpu fpv5-sp-d16
  69              	debugTask:
  70              	.LVL3:
  71              	.LFB178:
  14:Core/drogui/src/debugTasks.c **** 
  15:Core/drogui/src/debugTasks.c **** char buff[50] = "hola\n";
  16:Core/drogui/src/debugTasks.c **** void debugTask(void *argument){
  72              		.loc 1 16 31 is_stmt 1 view -0
  73              		.cfi_startproc
  74              		@ args = 0, pretend = 0, frame = 0
  75              		@ frame_needed = 0, uses_anonymous_args = 0
  76              		.loc 1 16 31 is_stmt 0 view .LVU6
  77 0000 F0B5     		push	{r4, r5, r6, r7, lr}
  78              	.LCFI1:
  79              		.cfi_def_cfa_offset 20
  80              		.cfi_offset 4, -20
  81              		.cfi_offset 5, -16
  82              		.cfi_offset 6, -12
  83              		.cfi_offset 7, -8
  84              		.cfi_offset 14, -4
  85 0002 85B0     		sub	sp, sp, #20
  86              	.LCFI2:
  87              		.cfi_def_cfa_offset 40
  17:Core/drogui/src/debugTasks.c ****     
  18:Core/drogui/src/debugTasks.c ****     sprintf(buff, "%f\t%f\t%lu ;\n", myIMU.gx/5, gx, TIME);
  88              		.loc 1 18 5 is_stmt 1 view .LVU7
  89              		.loc 1 18 43 is_stmt 0 view .LVU8
  90 0004 144B     		ldr	r3, .L7
  91 0006 93ED077A 		vldr.32	s14, [r3, #28]
  92              		.loc 1 18 54 view .LVU9
  93 000a 144B     		ldr	r3, .L7+4
  94 000c 1B68     		ldr	r3, [r3]
  95 000e 5D6A     		ldr	r5, [r3, #36]
  96              		.loc 1 18 5 view .LVU10
ARM GAS  C:\Users\GUILLE~1\AppData\Local\Temp\ccOsukhD.s 			page 3


  97 0010 F1EE047A 		vmov.f32	s15, #5.0e+0
  98 0014 C7EE277A 		vdiv.f32	s15, s14, s15
  99 0018 17EE900A 		vmov	r0, s15
 100              	.LVL4:
 101              		.loc 1 18 5 view .LVU11
 102 001c FFF7FEFF 		bl	__aeabi_f2d
 103              	.LVL5:
 104 0020 0646     		mov	r6, r0
 105 0022 0F46     		mov	r7, r1
 106 0024 0E4C     		ldr	r4, .L7+8
 107 0026 0295     		str	r5, [sp, #8]
 108 0028 0E4B     		ldr	r3, .L7+12
 109 002a 1868     		ldr	r0, [r3]	@ float
 110 002c FFF7FEFF 		bl	__aeabi_f2d
 111              	.LVL6:
 112 0030 CDE90001 		strd	r0, [sp]
 113 0034 3246     		mov	r2, r6
 114 0036 3B46     		mov	r3, r7
 115 0038 0B49     		ldr	r1, .L7+16
 116 003a 2046     		mov	r0, r4
 117 003c FFF7FEFF 		bl	sprintf
 118              	.LVL7:
  19:Core/drogui/src/debugTasks.c ****     HAL_UART_Transmit(&huart2, (uint8_t*) buff, strlen(buff), 100);
 119              		.loc 1 19 5 is_stmt 1 view .LVU12
 120              		.loc 1 19 49 is_stmt 0 view .LVU13
 121 0040 2046     		mov	r0, r4
 122 0042 FFF7FEFF 		bl	strlen
 123              	.LVL8:
 124              		.loc 1 19 5 view .LVU14
 125 0046 6423     		movs	r3, #100
 126 0048 82B2     		uxth	r2, r0
 127 004a 2146     		mov	r1, r4
 128 004c 0748     		ldr	r0, .L7+20
 129 004e FFF7FEFF 		bl	HAL_UART_Transmit
 130              	.LVL9:
  20:Core/drogui/src/debugTasks.c **** }
 131              		.loc 1 20 1 view .LVU15
 132 0052 05B0     		add	sp, sp, #20
 133              	.LCFI3:
 134              		.cfi_def_cfa_offset 20
 135              		@ sp needed
 136 0054 F0BD     		pop	{r4, r5, r6, r7, pc}
 137              	.L8:
 138 0056 00BF     		.align	2
 139              	.L7:
 140 0058 00000000 		.word	myIMU
 141 005c 00000000 		.word	htim5
 142 0060 00000000 		.word	.LANCHOR0
 143 0064 00000000 		.word	gx
 144 0068 00000000 		.word	.LC0
 145 006c 00000000 		.word	huart2
 146              		.cfi_endproc
 147              	.LFE178:
 149              		.section	.text.initDebug,"ax",%progbits
 150              		.align	1
 151              		.global	initDebug
 152              		.syntax unified
ARM GAS  C:\Users\GUILLE~1\AppData\Local\Temp\ccOsukhD.s 			page 4


 153              		.thumb
 154              		.thumb_func
 155              		.fpu fpv5-sp-d16
 157              	initDebug:
 158              	.LFB179:
  21:Core/drogui/src/debugTasks.c **** 
  22:Core/drogui/src/debugTasks.c **** void initDebug(){
 159              		.loc 1 22 17 is_stmt 1 view -0
 160              		.cfi_startproc
 161              		@ args = 0, pretend = 0, frame = 0
 162              		@ frame_needed = 0, uses_anonymous_args = 0
 163 0000 08B5     		push	{r3, lr}
 164              	.LCFI4:
 165              		.cfi_def_cfa_offset 8
 166              		.cfi_offset 3, -8
 167              		.cfi_offset 14, -4
  23:Core/drogui/src/debugTasks.c ****     //addTask(&debugTask, 1000, 1);
  24:Core/drogui/src/debugTasks.c ****     addTask(&blinkTask, 1000000, 1);
 168              		.loc 1 24 5 view .LVU17
 169 0002 0122     		movs	r2, #1
 170 0004 0249     		ldr	r1, .L11
 171 0006 0348     		ldr	r0, .L11+4
 172 0008 FFF7FEFF 		bl	addTask
 173              	.LVL10:
  25:Core/drogui/src/debugTasks.c **** }...
 174              		.loc 1 25 1 is_stmt 0 view .LVU18
 175 000c 08BD     		pop	{r3, pc}
 176              	.L12:
 177 000e 00BF     		.align	2
 178              	.L11:
 179 0010 40420F00 		.word	1000000
 180 0014 00000000 		.word	blinkTask
 181              		.cfi_endproc
 182              	.LFE179:
 184              		.global	buff
 185              		.section	.data.buff,"aw"
 186              		.align	2
 187              		.set	.LANCHOR0,. + 0
 190              	buff:
 191 0000 686F6C61 		.ascii	"hola\012\000"
 191      0A00
 192 0006 00000000 		.space	44
 192      00000000 
 192      00000000 
 192      00000000 
 192      00000000 
 193              		.text
 194              	.Letext0:
 195              		.file 2 "c:\\program files (x86)\\gnu arm embedded toolchain\\10 2020-q4-major\\arm-none-eabi\\inc
 196              		.file 3 "c:\\program files (x86)\\gnu arm embedded toolchain\\10 2020-q4-major\\arm-none-eabi\\inc
 197              		.file 4 "Drivers/CMSIS/Device/ST/STM32F7xx/Include/stm32f746xx.h"
 198              		.file 5 "Drivers/STM32F7xx_HAL_Driver/Inc/stm32f7xx_hal_def.h"
 199              		.file 6 "Drivers/STM32F7xx_HAL_Driver/Inc/stm32f7xx_hal_dma.h"
 200              		.file 7 "Drivers/STM32F7xx_HAL_Driver/Inc/stm32f7xx_hal_tim.h"
 201              		.file 8 "Drivers/STM32F7xx_HAL_Driver/Inc/stm32f7xx_hal_uart.h"
 202              		.file 9 "Core/drogui/include/MPU9250.h"
 203              		.file 10 "Core/Inc/usart.h"
ARM GAS  C:\Users\GUILLE~1\AppData\Local\Temp\ccOsukhD.s 			page 5


 204              		.file 11 "Core/drogui/include/sensorsTasks.h"
 205              		.file 12 "Core/Inc/tim.h"
 206              		.file 13 "Core/drogui/include/task.h"
 207              		.file 14 "c:\\program files (x86)\\gnu arm embedded toolchain\\10 2020-q4-major\\arm-none-eabi\\in
 208              		.file 15 "c:\\program files (x86)\\gnu arm embedded toolchain\\10 2020-q4-major\\arm-none-eabi\\in
 209              		.file 16 "Drivers/STM32F7xx_HAL_Driver/Inc/stm32f7xx_hal_gpio.h"
ARM GAS  C:\Users\GUILLE~1\AppData\Local\Temp\ccOsukhD.s 			page 6


DEFINED SYMBOLS
                            *ABS*:00000000 debugTasks.c
C:\Users\GUILLE~1\AppData\Local\Temp\ccOsukhD.s:18     .text.blinkTask:00000000 $t
C:\Users\GUILLE~1\AppData\Local\Temp\ccOsukhD.s:26     .text.blinkTask:00000000 blinkTask
C:\Users\GUILLE~1\AppData\Local\Temp\ccOsukhD.s:52     .text.blinkTask:0000000c $d
C:\Users\GUILLE~1\AppData\Local\Temp\ccOsukhD.s:58     .rodata.debugTask.str1.4:00000000 $d
C:\Users\GUILLE~1\AppData\Local\Temp\ccOsukhD.s:62     .text.debugTask:00000000 $t
C:\Users\GUILLE~1\AppData\Local\Temp\ccOsukhD.s:69     .text.debugTask:00000000 debugTask
C:\Users\GUILLE~1\AppData\Local\Temp\ccOsukhD.s:140    .text.debugTask:00000058 $d
C:\Users\GUILLE~1\AppData\Local\Temp\ccOsukhD.s:150    .text.initDebug:00000000 $t
C:\Users\GUILLE~1\AppData\Local\Temp\ccOsukhD.s:157    .text.initDebug:00000000 initDebug
C:\Users\GUILLE~1\AppData\Local\Temp\ccOsukhD.s:179    .text.initDebug:00000010 $d
C:\Users\GUILLE~1\AppData\Local\Temp\ccOsukhD.s:190    .data.buff:00000000 buff
C:\Users\GUILLE~1\AppData\Local\Temp\ccOsukhD.s:186    .data.buff:00000000 $d

UNDEFINED SYMBOLS
HAL_GPIO_TogglePin
__aeabi_f2d
sprintf
strlen
HAL_UART_Transmit
myIMU
htim5
gx
huart2
addTask
