ARM GAS  C:\Users\julit\AppData\Local\Temp\cc8ISyra.s 			page 1


   1              		.cpu cortex-m7
   2              		.eabi_attribute 27, 1
   3              		.eabi_attribute 28, 1
   4              		.eabi_attribute 20, 1
   5              		.eabi_attribute 21, 1
   6              		.eabi_attribute 23, 3
   7              		.eabi_attribute 24, 1
   8              		.eabi_attribute 25, 1
   9              		.eabi_attribute 26, 1
  10              		.eabi_attribute 30, 1
  11              		.eabi_attribute 34, 1
  12              		.eabi_attribute 18, 4
  13              		.file	"debugTasks.c"
  14              		.text
  15              	.Ltext0:
  16              		.cfi_sections	.debug_frame
  17              		.section	.text.blinkTask,"ax",%progbits
  18              		.align	1
  19              		.global	blinkTask
  20              		.arch armv7e-m
  21              		.syntax unified
  22              		.thumb
  23              		.thumb_func
  24              		.fpu fpv5-sp-d16
  26              	blinkTask:
  27              	.LVL0:
  28              	.LFB177:
  29              		.file 1 "Core/drogui/src/debugTasks.c"
   1:Core/drogui/src/debugTasks.c **** #include "debugTasks.h"
   2:Core/drogui/src/debugTasks.c **** #include "utils.h"
   3:Core/drogui/src/debugTasks.c **** #include "usart.h"
   4:Core/drogui/src/debugTasks.c **** #include "sensorsTasks.h"
   5:Core/drogui/src/debugTasks.c **** #include "controlTasks.h"
   6:Core/drogui/src/debugTasks.c **** #include "task.h"
   7:Core/drogui/src/debugTasks.c **** #include <stdio.h>
   8:Core/drogui/src/debugTasks.c **** #include <string.h>
   9:Core/drogui/src/debugTasks.c **** #include "filter.h"
  10:Core/drogui/src/debugTasks.c **** 
  11:Core/drogui/src/debugTasks.c **** 
  12:Core/drogui/src/debugTasks.c **** void blinkTask(void *argument){
  30              		.loc 1 12 31 view -0
  31              		.cfi_startproc
  32              		@ args = 0, pretend = 0, frame = 0
  33              		@ frame_needed = 0, uses_anonymous_args = 0
  34              		.loc 1 12 31 is_stmt 0 view .LVU1
  35 0000 08B5     		push	{r3, lr}
  36              	.LCFI0:
  37              		.cfi_def_cfa_offset 8
  38              		.cfi_offset 3, -8
  39              		.cfi_offset 14, -4
  13:Core/drogui/src/debugTasks.c ****     HAL_GPIO_TogglePin(LED_GPIO_Port, LED_Pin);
  40              		.loc 1 13 5 is_stmt 1 view .LVU2
  41 0002 0221     		movs	r1, #2
  42 0004 0148     		ldr	r0, .L3
  43              	.LVL1:
  44              		.loc 1 13 5 is_stmt 0 view .LVU3
  45 0006 FFF7FEFF 		bl	HAL_GPIO_TogglePin
ARM GAS  C:\Users\julit\AppData\Local\Temp\cc8ISyra.s 			page 2


  46              	.LVL2:
  14:Core/drogui/src/debugTasks.c **** }
  47              		.loc 1 14 1 view .LVU4
  48 000a 08BD     		pop	{r3, pc}
  49              	.L4:
  50              		.align	2
  51              	.L3:
  52 000c 00100240 		.word	1073876992
  53              		.cfi_endproc
  54              	.LFE177:
  56              		.section	.text.securityTask,"ax",%progbits
  57              		.align	1
  58              		.global	securityTask
  59              		.syntax unified
  60              		.thumb
  61              		.thumb_func
  62              		.fpu fpv5-sp-d16
  64              	securityTask:
  65              	.LFB179:
  15:Core/drogui/src/debugTasks.c **** 
  16:Core/drogui/src/debugTasks.c **** char buff[50] = "hola\n";
  17:Core/drogui/src/debugTasks.c **** void debugTask(void *argument){
  18:Core/drogui/src/debugTasks.c ****     
  19:Core/drogui/src/debugTasks.c ****     sprintf(buff, "%f\t%f\t%f \n", roll, pitch, yaw);
  20:Core/drogui/src/debugTasks.c ****     HAL_UART_Transmit(&huart2, (uint8_t*) buff, strlen(buff), 100);
  21:Core/drogui/src/debugTasks.c **** }
  22:Core/drogui/src/debugTasks.c **** void securityTask(){
  66              		.loc 1 22 20 is_stmt 1 view -0
  67              		.cfi_startproc
  68              		@ args = 0, pretend = 0, frame = 0
  69              		@ frame_needed = 0, uses_anonymous_args = 0
  70 0000 08B5     		push	{r3, lr}
  71              	.LCFI1:
  72              		.cfi_def_cfa_offset 8
  73              		.cfi_offset 3, -8
  74              		.cfi_offset 14, -4
  23:Core/drogui/src/debugTasks.c ****     if(getReg(Z_REF) == 0 /*|| (fabs(angle_dif(roll_ref, roll))> pi/9) || (fabs(angle_dif(pitch_ref
  75              		.loc 1 23 5 view .LVU6
  76              		.loc 1 23 8 is_stmt 0 view .LVU7
  77 0002 5220     		movs	r0, #82
  78 0004 FFF7FEFF 		bl	getReg
  79              	.LVL3:
  80              		.loc 1 23 7 view .LVU8
  81 0008 B5EE400A 		vcmp.f32	s0, #0
  82 000c F1EE10FA 		vmrs	APSR_nzcv, FPSCR
  83 0010 03D0     		beq	.L12
  24:Core/drogui/src/debugTasks.c ****         updatePID();
  25:Core/drogui/src/debugTasks.c ****         if(getReg(CAL_GYR_TRG) == 1) calibrateGyro(&myIMU), setReg(CAL_GYR_TRG, 0);
  26:Core/drogui/src/debugTasks.c ****         if(getReg(CAL_ACC_TRG) == 1) calibrateAccel(&myIMU), setReg(CAL_ACC_TRG, 0);
  27:Core/drogui/src/debugTasks.c ****         if(getReg(CAL_MAG_TRG) == 1) calibrateMag(&myIMU), setReg(CAL_MAG_TRG, 0);
  28:Core/drogui/src/debugTasks.c ****         security = true;
  29:Core/drogui/src/debugTasks.c ****     }
  30:Core/drogui/src/debugTasks.c ****     else security = false;
  84              		.loc 1 30 10 is_stmt 1 view .LVU9
  85              		.loc 1 30 19 is_stmt 0 view .LVU10
  86 0012 214B     		ldr	r3, .L16
  87 0014 0022     		movs	r2, #0
ARM GAS  C:\Users\julit\AppData\Local\Temp\cc8ISyra.s 			page 3


  88 0016 1A70     		strb	r2, [r3]
  89              	.L5:
  31:Core/drogui/src/debugTasks.c **** }
  90              		.loc 1 31 1 view .LVU11
  91 0018 08BD     		pop	{r3, pc}
  92              	.L12:
  24:Core/drogui/src/debugTasks.c ****         updatePID();
  93              		.loc 1 24 9 is_stmt 1 view .LVU12
  94 001a FFF7FEFF 		bl	updatePID
  95              	.LVL4:
  25:Core/drogui/src/debugTasks.c ****         if(getReg(CAL_ACC_TRG) == 1) calibrateAccel(&myIMU), setReg(CAL_ACC_TRG, 0);
  96              		.loc 1 25 9 view .LVU13
  25:Core/drogui/src/debugTasks.c ****         if(getReg(CAL_ACC_TRG) == 1) calibrateAccel(&myIMU), setReg(CAL_ACC_TRG, 0);
  97              		.loc 1 25 12 is_stmt 0 view .LVU14
  98 001e 9420     		movs	r0, #148
  99 0020 FFF7FEFF 		bl	getReg
 100              	.LVL5:
  25:Core/drogui/src/debugTasks.c ****         if(getReg(CAL_ACC_TRG) == 1) calibrateAccel(&myIMU), setReg(CAL_ACC_TRG, 0);
 101              		.loc 1 25 11 view .LVU15
 102 0024 F7EE007A 		vmov.f32	s15, #1.0e+0
 103 0028 B4EE670A 		vcmp.f32	s0, s15
 104 002c F1EE10FA 		vmrs	APSR_nzcv, FPSCR
 105 0030 17D0     		beq	.L13
 106              	.L7:
  26:Core/drogui/src/debugTasks.c ****         if(getReg(CAL_MAG_TRG) == 1) calibrateMag(&myIMU), setReg(CAL_MAG_TRG, 0);
 107              		.loc 1 26 9 is_stmt 1 view .LVU16
  26:Core/drogui/src/debugTasks.c ****         if(getReg(CAL_MAG_TRG) == 1) calibrateMag(&myIMU), setReg(CAL_MAG_TRG, 0);
 108              		.loc 1 26 12 is_stmt 0 view .LVU17
 109 0032 9620     		movs	r0, #150
 110 0034 FFF7FEFF 		bl	getReg
 111              	.LVL6:
  26:Core/drogui/src/debugTasks.c ****         if(getReg(CAL_MAG_TRG) == 1) calibrateMag(&myIMU), setReg(CAL_MAG_TRG, 0);
 112              		.loc 1 26 11 view .LVU18
 113 0038 F7EE007A 		vmov.f32	s15, #1.0e+0
 114 003c B4EE670A 		vcmp.f32	s0, s15
 115 0040 F1EE10FA 		vmrs	APSR_nzcv, FPSCR
 116 0044 16D0     		beq	.L14
 117              	.L8:
  27:Core/drogui/src/debugTasks.c ****         security = true;
 118              		.loc 1 27 9 is_stmt 1 view .LVU19
  27:Core/drogui/src/debugTasks.c ****         security = true;
 119              		.loc 1 27 12 is_stmt 0 view .LVU20
 120 0046 9820     		movs	r0, #152
 121 0048 FFF7FEFF 		bl	getReg
 122              	.LVL7:
  27:Core/drogui/src/debugTasks.c ****         security = true;
 123              		.loc 1 27 11 view .LVU21
 124 004c F7EE007A 		vmov.f32	s15, #1.0e+0
 125 0050 B4EE670A 		vcmp.f32	s0, s15
 126 0054 F1EE10FA 		vmrs	APSR_nzcv, FPSCR
 127 0058 15D0     		beq	.L15
 128              	.L9:
  28:Core/drogui/src/debugTasks.c ****     }
 129              		.loc 1 28 9 is_stmt 1 view .LVU22
  28:Core/drogui/src/debugTasks.c ****     }
 130              		.loc 1 28 18 is_stmt 0 view .LVU23
 131 005a 0F4B     		ldr	r3, .L16
ARM GAS  C:\Users\julit\AppData\Local\Temp\cc8ISyra.s 			page 4


 132 005c 0122     		movs	r2, #1
 133 005e 1A70     		strb	r2, [r3]
 134 0060 DAE7     		b	.L5
 135              	.L13:
  25:Core/drogui/src/debugTasks.c ****         if(getReg(CAL_ACC_TRG) == 1) calibrateAccel(&myIMU), setReg(CAL_ACC_TRG, 0);
 136              		.loc 1 25 38 is_stmt 1 discriminator 1 view .LVU24
 137 0062 0E48     		ldr	r0, .L16+4
 138 0064 FFF7FEFF 		bl	calibrateGyro
 139              	.LVL8:
  25:Core/drogui/src/debugTasks.c ****         if(getReg(CAL_ACC_TRG) == 1) calibrateAccel(&myIMU), setReg(CAL_ACC_TRG, 0);
 140              		.loc 1 25 61 is_stmt 0 discriminator 1 view .LVU25
 141 0068 9FED0D0A 		vldr.32	s0, .L16+8
 142 006c 9420     		movs	r0, #148
 143 006e FFF7FEFF 		bl	setReg
 144              	.LVL9:
 145 0072 DEE7     		b	.L7
 146              	.L14:
  26:Core/drogui/src/debugTasks.c ****         if(getReg(CAL_MAG_TRG) == 1) calibrateMag(&myIMU), setReg(CAL_MAG_TRG, 0);
 147              		.loc 1 26 38 is_stmt 1 discriminator 1 view .LVU26
 148 0074 0948     		ldr	r0, .L16+4
 149 0076 FFF7FEFF 		bl	calibrateAccel
 150              	.LVL10:
  26:Core/drogui/src/debugTasks.c ****         if(getReg(CAL_MAG_TRG) == 1) calibrateMag(&myIMU), setReg(CAL_MAG_TRG, 0);
 151              		.loc 1 26 62 is_stmt 0 discriminator 1 view .LVU27
 152 007a 9FED090A 		vldr.32	s0, .L16+8
 153 007e 9620     		movs	r0, #150
 154 0080 FFF7FEFF 		bl	setReg
 155              	.LVL11:
 156 0084 DFE7     		b	.L8
 157              	.L15:
  27:Core/drogui/src/debugTasks.c ****         security = true;
 158              		.loc 1 27 38 is_stmt 1 discriminator 1 view .LVU28
 159 0086 0548     		ldr	r0, .L16+4
 160 0088 FFF7FEFF 		bl	calibrateMag
 161              	.LVL12:
  27:Core/drogui/src/debugTasks.c ****         security = true;
 162              		.loc 1 27 60 is_stmt 0 discriminator 1 view .LVU29
 163 008c 9FED040A 		vldr.32	s0, .L16+8
 164 0090 9820     		movs	r0, #152
 165 0092 FFF7FEFF 		bl	setReg
 166              	.LVL13:
 167 0096 E0E7     		b	.L9
 168              	.L17:
 169              		.align	2
 170              	.L16:
 171 0098 00000000 		.word	security
 172 009c 00000000 		.word	myIMU
 173 00a0 00000000 		.word	0
 174              		.cfi_endproc
 175              	.LFE179:
 177              		.global	__aeabi_f2d
 178              		.section	.rodata.debugTask.str1.4,"aMS",%progbits,1
 179              		.align	2
 180              	.LC0:
 181 0000 25660925 		.ascii	"%f\011%f\011%f \012\000"
 181      66092566 
 181      200A00
ARM GAS  C:\Users\julit\AppData\Local\Temp\cc8ISyra.s 			page 5


 182              		.section	.text.debugTask,"ax",%progbits
 183              		.align	1
 184              		.global	debugTask
 185              		.syntax unified
 186              		.thumb
 187              		.thumb_func
 188              		.fpu fpv5-sp-d16
 190              	debugTask:
 191              	.LVL14:
 192              	.LFB178:
  17:Core/drogui/src/debugTasks.c ****     
 193              		.loc 1 17 31 is_stmt 1 view -0
 194              		.cfi_startproc
 195              		@ args = 0, pretend = 0, frame = 0
 196              		@ frame_needed = 0, uses_anonymous_args = 0
  17:Core/drogui/src/debugTasks.c ****     
 197              		.loc 1 17 31 is_stmt 0 view .LVU31
 198 0000 D0B5     		push	{r4, r6, r7, lr}
 199              	.LCFI2:
 200              		.cfi_def_cfa_offset 16
 201              		.cfi_offset 4, -16
 202              		.cfi_offset 6, -12
 203              		.cfi_offset 7, -8
 204              		.cfi_offset 14, -4
 205 0002 84B0     		sub	sp, sp, #16
 206              	.LCFI3:
 207              		.cfi_def_cfa_offset 32
  19:Core/drogui/src/debugTasks.c ****     HAL_UART_Transmit(&huart2, (uint8_t*) buff, strlen(buff), 100);
 208              		.loc 1 19 5 is_stmt 1 view .LVU32
 209 0004 114B     		ldr	r3, .L20
 210 0006 1868     		ldr	r0, [r3]	@ float
 211              	.LVL15:
  19:Core/drogui/src/debugTasks.c ****     HAL_UART_Transmit(&huart2, (uint8_t*) buff, strlen(buff), 100);
 212              		.loc 1 19 5 is_stmt 0 view .LVU33
 213 0008 FFF7FEFF 		bl	__aeabi_f2d
 214              	.LVL16:
 215 000c 0646     		mov	r6, r0
 216 000e 0F46     		mov	r7, r1
 217 0010 0F4C     		ldr	r4, .L20+4
 218 0012 104B     		ldr	r3, .L20+8
 219 0014 1868     		ldr	r0, [r3]	@ float
 220 0016 FFF7FEFF 		bl	__aeabi_f2d
 221              	.LVL17:
 222 001a CDE90201 		strd	r0, [sp, #8]
 223 001e 0E4B     		ldr	r3, .L20+12
 224 0020 1868     		ldr	r0, [r3]	@ float
 225 0022 FFF7FEFF 		bl	__aeabi_f2d
 226              	.LVL18:
 227 0026 CDE90001 		strd	r0, [sp]
 228 002a 3246     		mov	r2, r6
 229 002c 3B46     		mov	r3, r7
 230 002e 0B49     		ldr	r1, .L20+16
 231 0030 2046     		mov	r0, r4
 232 0032 FFF7FEFF 		bl	sprintf
 233              	.LVL19:
  20:Core/drogui/src/debugTasks.c **** }
 234              		.loc 1 20 5 is_stmt 1 view .LVU34
ARM GAS  C:\Users\julit\AppData\Local\Temp\cc8ISyra.s 			page 6


  20:Core/drogui/src/debugTasks.c **** }
 235              		.loc 1 20 49 is_stmt 0 view .LVU35
 236 0036 2046     		mov	r0, r4
 237 0038 FFF7FEFF 		bl	strlen
 238              	.LVL20:
  20:Core/drogui/src/debugTasks.c **** }
 239              		.loc 1 20 5 view .LVU36
 240 003c 6423     		movs	r3, #100
 241 003e 82B2     		uxth	r2, r0
 242 0040 2146     		mov	r1, r4
 243 0042 0748     		ldr	r0, .L20+20
 244 0044 FFF7FEFF 		bl	HAL_UART_Transmit
 245              	.LVL21:
  21:Core/drogui/src/debugTasks.c **** void securityTask(){
 246              		.loc 1 21 1 view .LVU37
 247 0048 04B0     		add	sp, sp, #16
 248              	.LCFI4:
 249              		.cfi_def_cfa_offset 16
 250              		@ sp needed
 251 004a D0BD     		pop	{r4, r6, r7, pc}
 252              	.L21:
 253              		.align	2
 254              	.L20:
 255 004c 00000000 		.word	roll
 256 0050 00000000 		.word	.LANCHOR0
 257 0054 00000000 		.word	yaw
 258 0058 00000000 		.word	pitch
 259 005c 00000000 		.word	.LC0
 260 0060 00000000 		.word	huart2
 261              		.cfi_endproc
 262              	.LFE178:
 264              		.section	.text.initDebug,"ax",%progbits
 265              		.align	1
 266              		.global	initDebug
 267              		.syntax unified
 268              		.thumb
 269              		.thumb_func
 270              		.fpu fpv5-sp-d16
 272              	initDebug:
 273              	.LFB180:
  32:Core/drogui/src/debugTasks.c **** 
  33:Core/drogui/src/debugTasks.c **** void initDebug(){
 274              		.loc 1 33 17 is_stmt 1 view -0
 275              		.cfi_startproc
 276              		@ args = 0, pretend = 0, frame = 0
 277              		@ frame_needed = 0, uses_anonymous_args = 0
 278 0000 08B5     		push	{r3, lr}
 279              	.LCFI5:
 280              		.cfi_def_cfa_offset 8
 281              		.cfi_offset 3, -8
 282              		.cfi_offset 14, -4
  34:Core/drogui/src/debugTasks.c ****     
  35:Core/drogui/src/debugTasks.c ****     //addTask(&debugTask, 10000, 1);
  36:Core/drogui/src/debugTasks.c ****     addTask(&blinkTask, 100000, 1);
 283              		.loc 1 36 5 view .LVU39
 284 0002 0122     		movs	r2, #1
 285 0004 0549     		ldr	r1, .L24
ARM GAS  C:\Users\julit\AppData\Local\Temp\cc8ISyra.s 			page 7


 286 0006 0648     		ldr	r0, .L24+4
 287 0008 FFF7FEFF 		bl	addTask
 288              	.LVL22:
  37:Core/drogui/src/debugTasks.c ****     addTask(&securityTask, 1000, 1);
 289              		.loc 1 37 5 view .LVU40
 290 000c 0122     		movs	r2, #1
 291 000e 4FF47A71 		mov	r1, #1000
 292 0012 0448     		ldr	r0, .L24+8
 293 0014 FFF7FEFF 		bl	addTask
 294              	.LVL23:
  38:Core/drogui/src/debugTasks.c **** }...
 295              		.loc 1 38 1 is_stmt 0 view .LVU41
 296 0018 08BD     		pop	{r3, pc}
 297              	.L25:
 298 001a 00BF     		.align	2
 299              	.L24:
 300 001c A0860100 		.word	100000
 301 0020 00000000 		.word	blinkTask
 302 0024 00000000 		.word	securityTask
 303              		.cfi_endproc
 304              	.LFE180:
 306              		.global	buff
 307              		.section	.data.buff,"aw"
 308              		.align	2
 309              		.set	.LANCHOR0,. + 0
 312              	buff:
 313 0000 686F6C61 		.ascii	"hola\012\000"
 313      0A00
 314 0006 00000000 		.space	44
 314      00000000 
 314      00000000 
 314      00000000 
 314      00000000 
 315              		.text
 316              	.Letext0:
 317              		.file 2 "c:\\program files (x86)\\gnu arm embedded toolchain\\10 2020-q4-major\\arm-none-eabi\\inc
 318              		.file 3 "c:\\program files (x86)\\gnu arm embedded toolchain\\10 2020-q4-major\\arm-none-eabi\\inc
 319              		.file 4 "Drivers/CMSIS/Device/ST/STM32F7xx/Include/stm32f746xx.h"
 320              		.file 5 "Drivers/STM32F7xx_HAL_Driver/Inc/stm32f7xx_hal_def.h"
 321              		.file 6 "Drivers/STM32F7xx_HAL_Driver/Inc/stm32f7xx_hal_dma.h"
 322              		.file 7 "Drivers/STM32F7xx_HAL_Driver/Inc/stm32f7xx_hal_uart.h"
 323              		.file 8 "Core/drogui/include/utils.h"
 324              		.file 9 "Core/Inc/usart.h"
 325              		.file 10 "Core/drogui/include/MPU9250.h"
 326              		.file 11 "Core/drogui/include/sensorsTasks.h"
 327              		.file 12 "Core/drogui/include/task.h"
 328              		.file 13 "Core/drogui/include/controlTasks.h"
 329              		.file 14 "c:\\program files (x86)\\gnu arm embedded toolchain\\10 2020-q4-major\\arm-none-eabi\\in
 330              		.file 15 "c:\\program files (x86)\\gnu arm embedded toolchain\\10 2020-q4-major\\arm-none-eabi\\in
 331              		.file 16 "Drivers/STM32F7xx_HAL_Driver/Inc/stm32f7xx_hal_gpio.h"
ARM GAS  C:\Users\julit\AppData\Local\Temp\cc8ISyra.s 			page 8


DEFINED SYMBOLS
                            *ABS*:00000000 debugTasks.c
C:\Users\julit\AppData\Local\Temp\cc8ISyra.s:18     .text.blinkTask:00000000 $t
C:\Users\julit\AppData\Local\Temp\cc8ISyra.s:26     .text.blinkTask:00000000 blinkTask
C:\Users\julit\AppData\Local\Temp\cc8ISyra.s:52     .text.blinkTask:0000000c $d
C:\Users\julit\AppData\Local\Temp\cc8ISyra.s:57     .text.securityTask:00000000 $t
C:\Users\julit\AppData\Local\Temp\cc8ISyra.s:64     .text.securityTask:00000000 securityTask
C:\Users\julit\AppData\Local\Temp\cc8ISyra.s:171    .text.securityTask:00000098 $d
C:\Users\julit\AppData\Local\Temp\cc8ISyra.s:179    .rodata.debugTask.str1.4:00000000 $d
C:\Users\julit\AppData\Local\Temp\cc8ISyra.s:183    .text.debugTask:00000000 $t
C:\Users\julit\AppData\Local\Temp\cc8ISyra.s:190    .text.debugTask:00000000 debugTask
C:\Users\julit\AppData\Local\Temp\cc8ISyra.s:255    .text.debugTask:0000004c $d
C:\Users\julit\AppData\Local\Temp\cc8ISyra.s:265    .text.initDebug:00000000 $t
C:\Users\julit\AppData\Local\Temp\cc8ISyra.s:272    .text.initDebug:00000000 initDebug
C:\Users\julit\AppData\Local\Temp\cc8ISyra.s:300    .text.initDebug:0000001c $d
C:\Users\julit\AppData\Local\Temp\cc8ISyra.s:312    .data.buff:00000000 buff
C:\Users\julit\AppData\Local\Temp\cc8ISyra.s:308    .data.buff:00000000 $d

UNDEFINED SYMBOLS
HAL_GPIO_TogglePin
getReg
updatePID
calibrateGyro
setReg
calibrateAccel
calibrateMag
security
myIMU
__aeabi_f2d
sprintf
strlen
HAL_UART_Transmit
roll
yaw
pitch
huart2
addTask
