ARM GAS  C:\Users\GUILLE~1\AppData\Local\Temp\ccfe9Jjb.s 			page 1


   1              		.cpu cortex-m7
   2              		.eabi_attribute 27, 1
   3              		.eabi_attribute 28, 1
   4              		.eabi_attribute 20, 1
   5              		.eabi_attribute 21, 1
   6              		.eabi_attribute 23, 3
   7              		.eabi_attribute 24, 1
   8              		.eabi_attribute 25, 1
   9              		.eabi_attribute 26, 1
  10              		.eabi_attribute 30, 1
  11              		.eabi_attribute 34, 1
  12              		.eabi_attribute 18, 4
  13              		.file	"drogui.c"
  14              		.text
  15              	.Ltext0:
  16              		.cfi_sections	.debug_frame
  17              		.section	.rodata._main.str1.4,"aMS",%progbits,1
  18              		.align	2
  19              	.LC0:
  20 0000 73746172 		.ascii	"start system\012\000"
  20      74207379 
  20      7374656D 
  20      0A00
  21              		.global	__aeabi_f2d
  22 000e 0000     		.align	2
  23              	.LC1:
  24 0010 25660A00 		.ascii	"%f\012\000"
  25              		.section	.text._main,"ax",%progbits
  26              		.align	1
  27              		.global	_main
  28              		.arch armv7e-m
  29              		.syntax unified
  30              		.thumb
  31              		.thumb_func
  32              		.fpu fpv5-sp-d16
  34              	_main:
  35              	.LFB177:
  36              		.file 1 "Core/drogui/test/drogui.c"
   1:Core/drogui/test/drogui.c **** #define DROGUI
   2:Core/drogui/test/drogui.c **** #ifdef DROGUI
   3:Core/drogui/test/drogui.c **** #include "_main.h"
   4:Core/drogui/test/drogui.c **** #include "tim.h"
   5:Core/drogui/test/drogui.c **** #include "sensorsTasks.h"
   6:Core/drogui/test/drogui.c **** #include "controlTasks.h"
   7:Core/drogui/test/drogui.c **** #include "debugTasks.h"
   8:Core/drogui/test/drogui.c **** #include "task.h"
   9:Core/drogui/test/drogui.c **** #include "usart.h"
  10:Core/drogui/test/drogui.c **** #include <stdio.h>
  11:Core/drogui/test/drogui.c **** #include <string.h>
  12:Core/drogui/test/drogui.c **** char auxbuff[50];
  13:Core/drogui/test/drogui.c **** void _main(){
  37              		.loc 1 13 13 view -0
  38              		.cfi_startproc
  39              		@ args = 0, pretend = 0, frame = 0
  40              		@ frame_needed = 0, uses_anonymous_args = 0
  41 0000 38B5     		push	{r3, r4, r5, lr}
  42              	.LCFI0:
ARM GAS  C:\Users\GUILLE~1\AppData\Local\Temp\ccfe9Jjb.s 			page 2


  43              		.cfi_def_cfa_offset 16
  44              		.cfi_offset 3, -16
  45              		.cfi_offset 4, -12
  46              		.cfi_offset 5, -8
  47              		.cfi_offset 14, -4
  14:Core/drogui/test/drogui.c **** 
  15:Core/drogui/test/drogui.c ****     HAL_TIM_Base_Start(&htim5);
  48              		.loc 1 15 5 view .LVU1
  49 0002 1448     		ldr	r0, .L3
  50 0004 FFF7FEFF 		bl	HAL_TIM_Base_Start
  51              	.LVL0:
  16:Core/drogui/test/drogui.c ****     
  17:Core/drogui/test/drogui.c ****     
  18:Core/drogui/test/drogui.c ****     HAL_UART_Transmit(&huart2, (uint8_t*) "start system\n", 14, 100);
  52              		.loc 1 18 5 view .LVU2
  53 0008 134D     		ldr	r5, .L3+4
  54 000a 6423     		movs	r3, #100
  55 000c 0E22     		movs	r2, #14
  56 000e 1349     		ldr	r1, .L3+8
  57 0010 2846     		mov	r0, r5
  58 0012 FFF7FEFF 		bl	HAL_UART_Transmit
  59              	.LVL1:
  19:Core/drogui/test/drogui.c ****     initDebug();
  60              		.loc 1 19 5 view .LVU3
  61 0016 FFF7FEFF 		bl	initDebug
  62              	.LVL2:
  20:Core/drogui/test/drogui.c ****     //initSensorsTasks();
  21:Core/drogui/test/drogui.c ****     initControlTasks();
  63              		.loc 1 21 5 view .LVU4
  64 001a FFF7FEFF 		bl	initControlTasks
  65              	.LVL3:
  22:Core/drogui/test/drogui.c ****     sprintf(auxbuff, "%f\n", getReg(N_FILTER));
  66              		.loc 1 22 5 view .LVU5
  67              		.loc 1 22 30 is_stmt 0 view .LVU6
  68 001e 9A20     		movs	r0, #154
  69 0020 FFF7FEFF 		bl	getReg
  70              	.LVL4:
  71 0024 10EE100A 		vmov	r0, s0
  72              		.loc 1 22 5 view .LVU7
  73 0028 FFF7FEFF 		bl	__aeabi_f2d
  74              	.LVL5:
  75 002c 0246     		mov	r2, r0
  76 002e 0B46     		mov	r3, r1
  77 0030 0B4C     		ldr	r4, .L3+12
  78 0032 0C49     		ldr	r1, .L3+16
  79 0034 2046     		mov	r0, r4
  80 0036 FFF7FEFF 		bl	sprintf
  81              	.LVL6:
  23:Core/drogui/test/drogui.c ****     HAL_UART_Transmit(&huart2, (uint8_t*) auxbuff, strlen(auxbuff), 100);
  82              		.loc 1 23 5 is_stmt 1 view .LVU8
  83              		.loc 1 23 52 is_stmt 0 view .LVU9
  84 003a 2046     		mov	r0, r4
  85 003c FFF7FEFF 		bl	strlen
  86              	.LVL7:
  87              		.loc 1 23 5 view .LVU10
  88 0040 6423     		movs	r3, #100
  89 0042 82B2     		uxth	r2, r0
ARM GAS  C:\Users\GUILLE~1\AppData\Local\Temp\ccfe9Jjb.s 			page 3


  90 0044 2146     		mov	r1, r4
  91 0046 2846     		mov	r0, r5
  92 0048 FFF7FEFF 		bl	HAL_UART_Transmit
  93              	.LVL8:
  24:Core/drogui/test/drogui.c ****     initRTOS();
  94              		.loc 1 24 5 is_stmt 1 view .LVU11
  95 004c FFF7FEFF 		bl	initRTOS
  96              	.LVL9:
  25:Core/drogui/test/drogui.c **** 
  26:Core/drogui/test/drogui.c **** }
  97              		.loc 1 26 1 is_stmt 0 view .LVU12
  98 0050 38BD     		pop	{r3, r4, r5, pc}
  99              	.L4:
 100 0052 00BF     		.align	2
 101              	.L3:
 102 0054 00000000 		.word	htim5
 103 0058 00000000 		.word	huart2
 104 005c 00000000 		.word	.LC0
 105 0060 00000000 		.word	.LANCHOR0
 106 0064 10000000 		.word	.LC1
 107              		.cfi_endproc
 108              	.LFE177:
 110              		.global	auxbuff
 111              		.section	.bss.auxbuff,"aw",%nobits
 112              		.align	2
 113              		.set	.LANCHOR0,. + 0
 116              	auxbuff:
 117 0000 00000000 		.space	50
 117      00000000 
 117      00000000 
 117      00000000 
 117      00000000 
 118              		.text
 119              	.Letext0:
 120              		.file 2 "c:\\program files (x86)\\gnu arm embedded toolchain\\10 2020-q4-major\\arm-none-eabi\\inc
 121              		.file 3 "c:\\program files (x86)\\gnu arm embedded toolchain\\10 2020-q4-major\\arm-none-eabi\\inc
 122              		.file 4 "Drivers/CMSIS/Device/ST/STM32F7xx/Include/stm32f746xx.h"
 123              		.file 5 "Drivers/STM32F7xx_HAL_Driver/Inc/stm32f7xx_hal_def.h"
 124              		.file 6 "Drivers/STM32F7xx_HAL_Driver/Inc/stm32f7xx_hal_dma.h"
 125              		.file 7 "Drivers/STM32F7xx_HAL_Driver/Inc/stm32f7xx_hal_tim.h"
 126              		.file 8 "Drivers/STM32F7xx_HAL_Driver/Inc/stm32f7xx_hal_uart.h"
 127              		.file 9 "Core/Inc/tim.h"
 128              		.file 10 "Core/Inc/usart.h"
 129              		.file 11 "Core/drogui/include/debugTasks.h"
 130              		.file 12 "Core/drogui/include/controlTasks.h"
 131              		.file 13 "Core/drogui/include/utils.h"
 132              		.file 14 "c:\\program files (x86)\\gnu arm embedded toolchain\\10 2020-q4-major\\arm-none-eabi\\in
 133              		.file 15 "c:\\program files (x86)\\gnu arm embedded toolchain\\10 2020-q4-major\\arm-none-eabi\\in
 134              		.file 16 "Core/drogui/include/task.h"
ARM GAS  C:\Users\GUILLE~1\AppData\Local\Temp\ccfe9Jjb.s 			page 4

