ARM GAS  C:\Users\julit\AppData\Local\Temp\cc4flmhh.s 			page 1


   1              		.cpu cortex-m7
   2              		.eabi_attribute 27, 1
   3              		.eabi_attribute 28, 1
   4              		.eabi_attribute 20, 1
   5              		.eabi_attribute 21, 1
   6              		.eabi_attribute 23, 3
   7              		.eabi_attribute 24, 1
   8              		.eabi_attribute 25, 1
   9              		.eabi_attribute 26, 1
  10              		.eabi_attribute 30, 1
  11              		.eabi_attribute 34, 1
  12              		.eabi_attribute 18, 4
  13              		.file	"drogui.c"
  14              		.text
  15              	.Ltext0:
  16              		.cfi_sections	.debug_frame
  17              		.section	.rodata._main.str1.4,"aMS",%progbits,1
  18              		.align	2
  19              	.LC0:
  20 0000 53746172 		.ascii	"Start System\012\000"
  20      74205379 
  20      7374656D 
  20      0A00
  21              		.section	.text._main,"ax",%progbits
  22              		.align	1
  23              		.global	_main
  24              		.arch armv7e-m
  25              		.syntax unified
  26              		.thumb
  27              		.thumb_func
  28              		.fpu fpv5-sp-d16
  30              	_main:
  31              	.LFB177:
  32              		.file 1 "Core/drogui/test/drogui.c"
   1:Core/drogui/test/drogui.c **** #define DROGUI
   2:Core/drogui/test/drogui.c **** #ifdef DROGUI
   3:Core/drogui/test/drogui.c **** #include "_main.h"
   4:Core/drogui/test/drogui.c **** #include "tim.h"
   5:Core/drogui/test/drogui.c **** #include "sensorsTasks.h"
   6:Core/drogui/test/drogui.c **** #include "controlTasks.h"
   7:Core/drogui/test/drogui.c **** #include "debugTasks.h"
   8:Core/drogui/test/drogui.c **** #include "task.h"
   9:Core/drogui/test/drogui.c **** #include "usart.h"
  10:Core/drogui/test/drogui.c **** #include <stdio.h>
  11:Core/drogui/test/drogui.c **** #include <string.h>
  12:Core/drogui/test/drogui.c **** char auxbuff[50];
  13:Core/drogui/test/drogui.c **** void _main(){
  33              		.loc 1 13 13 view -0
  34              		.cfi_startproc
  35              		@ args = 0, pretend = 0, frame = 0
  36              		@ frame_needed = 0, uses_anonymous_args = 0
  37 0000 08B5     		push	{r3, lr}
  38              	.LCFI0:
  39              		.cfi_def_cfa_offset 8
  40              		.cfi_offset 3, -8
  41              		.cfi_offset 14, -4
  14:Core/drogui/test/drogui.c **** 
ARM GAS  C:\Users\julit\AppData\Local\Temp\cc4flmhh.s 			page 2


  15:Core/drogui/test/drogui.c ****     HAL_TIM_Base_Start(&htim5);
  42              		.loc 1 15 5 view .LVU1
  43 0002 0B48     		ldr	r0, .L3
  44 0004 FFF7FEFF 		bl	HAL_TIM_Base_Start
  45              	.LVL0:
  16:Core/drogui/test/drogui.c **** 
  17:Core/drogui/test/drogui.c ****     HAL_Delay(1000);
  46              		.loc 1 17 5 view .LVU2
  47 0008 4FF47A70 		mov	r0, #1000
  48 000c FFF7FEFF 		bl	HAL_Delay
  49              	.LVL1:
  18:Core/drogui/test/drogui.c ****     HAL_UART_Transmit(&huart2, (uint8_t*) "Start System\n", 14, 100);
  50              		.loc 1 18 5 view .LVU3
  51 0010 6423     		movs	r3, #100
  52 0012 0E22     		movs	r2, #14
  53 0014 0749     		ldr	r1, .L3+4
  54 0016 0848     		ldr	r0, .L3+8
  55 0018 FFF7FEFF 		bl	HAL_UART_Transmit
  56              	.LVL2:
  19:Core/drogui/test/drogui.c ****     initDebug();
  57              		.loc 1 19 5 view .LVU4
  58 001c FFF7FEFF 		bl	initDebug
  59              	.LVL3:
  20:Core/drogui/test/drogui.c ****     initControlTasks();
  60              		.loc 1 20 5 view .LVU5
  61 0020 FFF7FEFF 		bl	initControlTasks
  62              	.LVL4:
  21:Core/drogui/test/drogui.c ****     initSensorsTasks();
  63              		.loc 1 21 5 view .LVU6
  64 0024 FFF7FEFF 		bl	initSensorsTasks
  65              	.LVL5:
  22:Core/drogui/test/drogui.c **** 
  23:Core/drogui/test/drogui.c ****     //sprintf(auxbuff, "%d\n", __FPU_USED);
  24:Core/drogui/test/drogui.c ****     //HAL_UART_Transmit(&huart2, (uint8_t*) auxbuff, strlen(auxbuff), 100);
  25:Core/drogui/test/drogui.c ****     initRTOS();
  66              		.loc 1 25 5 view .LVU7
  67 0028 FFF7FEFF 		bl	initRTOS
  68              	.LVL6:
  26:Core/drogui/test/drogui.c **** }
  69              		.loc 1 26 1 is_stmt 0 view .LVU8
  70 002c 08BD     		pop	{r3, pc}
  71              	.L4:
  72 002e 00BF     		.align	2
  73              	.L3:
  74 0030 00000000 		.word	htim5
  75 0034 00000000 		.word	.LC0
  76 0038 00000000 		.word	huart2
  77              		.cfi_endproc
  78              	.LFE177:
  80              		.global	auxbuff
  81              		.section	.bss.auxbuff,"aw",%nobits
  82              		.align	2
  85              	auxbuff:
  86 0000 00000000 		.space	50
  86      00000000 
  86      00000000 
  86      00000000 
ARM GAS  C:\Users\julit\AppData\Local\Temp\cc4flmhh.s 			page 3


  86      00000000 
  87              		.text
  88              	.Letext0:
  89              		.file 2 "c:\\program files (x86)\\gnu arm embedded toolchain\\10 2020-q4-major\\arm-none-eabi\\inc
  90              		.file 3 "c:\\program files (x86)\\gnu arm embedded toolchain\\10 2020-q4-major\\arm-none-eabi\\inc
  91              		.file 4 "Drivers/CMSIS/Device/ST/STM32F7xx/Include/stm32f746xx.h"
  92              		.file 5 "Drivers/STM32F7xx_HAL_Driver/Inc/stm32f7xx_hal_def.h"
  93              		.file 6 "Drivers/STM32F7xx_HAL_Driver/Inc/stm32f7xx_hal_dma.h"
  94              		.file 7 "Drivers/STM32F7xx_HAL_Driver/Inc/stm32f7xx_hal_tim.h"
  95              		.file 8 "Drivers/STM32F7xx_HAL_Driver/Inc/stm32f7xx_hal_uart.h"
  96              		.file 9 "Core/Inc/tim.h"
  97              		.file 10 "Core/Inc/usart.h"
  98              		.file 11 "Drivers/STM32F7xx_HAL_Driver/Inc/stm32f7xx_hal.h"
  99              		.file 12 "Core/drogui/include/debugTasks.h"
 100              		.file 13 "Core/drogui/include/controlTasks.h"
 101              		.file 14 "Core/drogui/include/sensorsTasks.h"
 102              		.file 15 "Core/drogui/include/task.h"
ARM GAS  C:\Users\julit\AppData\Local\Temp\cc4flmhh.s 			page 4


DEFINED SYMBOLS
                            *ABS*:00000000 drogui.c
C:\Users\julit\AppData\Local\Temp\cc4flmhh.s:18     .rodata._main.str1.4:00000000 $d
C:\Users\julit\AppData\Local\Temp\cc4flmhh.s:22     .text._main:00000000 $t
C:\Users\julit\AppData\Local\Temp\cc4flmhh.s:30     .text._main:00000000 _main
C:\Users\julit\AppData\Local\Temp\cc4flmhh.s:74     .text._main:00000030 $d
C:\Users\julit\AppData\Local\Temp\cc4flmhh.s:85     .bss.auxbuff:00000000 auxbuff
C:\Users\julit\AppData\Local\Temp\cc4flmhh.s:82     .bss.auxbuff:00000000 $d

UNDEFINED SYMBOLS
HAL_TIM_Base_Start
HAL_Delay
HAL_UART_Transmit
initDebug
initControlTasks
initSensorsTasks
initRTOS
htim5
huart2
