ARM GAS  C:\Users\GUILLE~1\AppData\Local\Temp\ccM2WArk.s 			page 1


   1              		.cpu cortex-m7
   2              		.eabi_attribute 27, 1
   3              		.eabi_attribute 28, 1
   4              		.eabi_attribute 20, 1
   5              		.eabi_attribute 21, 1
   6              		.eabi_attribute 23, 3
   7              		.eabi_attribute 24, 1
   8              		.eabi_attribute 25, 1
   9              		.eabi_attribute 26, 1
  10              		.eabi_attribute 30, 1
  11              		.eabi_attribute 34, 1
  12              		.eabi_attribute 18, 4
  13              		.file	"filter.c"
  14              		.text
  15              	.Ltext0:
  16              		.cfi_sections	.debug_frame
  17              		.section	.text.initArrCoeff,"ax",%progbits
  18              		.align	1
  19              		.global	initArrCoeff
  20              		.arch armv7e-m
  21              		.syntax unified
  22              		.thumb
  23              		.thumb_func
  24              		.fpu fpv5-sp-d16
  26              	initArrCoeff:
  27              	.LVL0:
  28              	.LFB143:
  29              		.file 1 "Core/drogui/src/filter.c"
   1:Core/drogui/src/filter.c **** #include "filter.h"
   2:Core/drogui/src/filter.c **** #include "utils.h"
   3:Core/drogui/src/filter.c **** #include <stdlib.h>
   4:Core/drogui/src/filter.c **** void initFilter(filter* f, int n, float* a, float* b){
   5:Core/drogui/src/filter.c ****     
   6:Core/drogui/src/filter.c ****     initArrCoeff(&(f->arr_y),n-1, a);
   7:Core/drogui/src/filter.c ****     initArrCoeff(&(f->arr_u),n, b);
   8:Core/drogui/src/filter.c ****     f -> n = n;
   9:Core/drogui/src/filter.c **** }
  10:Core/drogui/src/filter.c **** 
  11:Core/drogui/src/filter.c **** 
  12:Core/drogui/src/filter.c **** float computeFilter(filter *f, float x){
  13:Core/drogui/src/filter.c ****     addArrCoeff(&(f->arr_u), x);
  14:Core/drogui/src/filter.c ****     float y = computeArrCoeff(&(f->arr_u)) - computeArrCoeff(&(f->arr_y));
  15:Core/drogui/src/filter.c ****     addArrCoeff(&(f->arr_y), y);
  16:Core/drogui/src/filter.c ****     return y;
  17:Core/drogui/src/filter.c **** }
  18:Core/drogui/src/filter.c **** 
  19:Core/drogui/src/filter.c **** 
  20:Core/drogui/src/filter.c **** void initArrCoeff(arrCoeff* a,int n,float * coeff){
  30              		.loc 1 20 51 view -0
  31              		.cfi_startproc
  32              		@ args = 0, pretend = 0, frame = 0
  33              		@ frame_needed = 0, uses_anonymous_args = 0
  34              		.loc 1 20 51 is_stmt 0 view .LVU1
  35 0000 10B5     		push	{r4, lr}
  36              	.LCFI0:
  37              		.cfi_def_cfa_offset 8
  38              		.cfi_offset 4, -8
ARM GAS  C:\Users\GUILLE~1\AppData\Local\Temp\ccM2WArk.s 			page 2


  39              		.cfi_offset 14, -4
  40 0002 0446     		mov	r4, r0
  41 0004 0846     		mov	r0, r1
  42              	.LVL1:
  21:Core/drogui/src/filter.c ****     a->coeff = coeff;
  43              		.loc 1 21 5 is_stmt 1 view .LVU2
  44              		.loc 1 21 14 is_stmt 0 view .LVU3
  45 0006 E260     		str	r2, [r4, #12]
  22:Core/drogui/src/filter.c ****     a->n = n;
  46              		.loc 1 22 5 is_stmt 1 view .LVU4
  47              		.loc 1 22 10 is_stmt 0 view .LVU5
  48 0008 2160     		str	r1, [r4]
  23:Core/drogui/src/filter.c ****     a->values = (float*) calloc(n, sizeof(float));
  49              		.loc 1 23 5 is_stmt 1 view .LVU6
  50              		.loc 1 23 26 is_stmt 0 view .LVU7
  51 000a 0421     		movs	r1, #4
  52              	.LVL2:
  53              		.loc 1 23 26 view .LVU8
  54 000c FFF7FEFF 		bl	calloc
  55              	.LVL3:
  56              		.loc 1 23 15 view .LVU9
  57 0010 A060     		str	r0, [r4, #8]
  24:Core/drogui/src/filter.c ****     a->head = 0;
  58              		.loc 1 24 5 is_stmt 1 view .LVU10
  59              		.loc 1 24 13 is_stmt 0 view .LVU11
  60 0012 0023     		movs	r3, #0
  61 0014 6360     		str	r3, [r4, #4]
  25:Core/drogui/src/filter.c **** }
  62              		.loc 1 25 1 view .LVU12
  63 0016 10BD     		pop	{r4, pc}
  64              		.loc 1 25 1 view .LVU13
  65              		.cfi_endproc
  66              	.LFE143:
  68              		.section	.text.initFilter,"ax",%progbits
  69              		.align	1
  70              		.global	initFilter
  71              		.syntax unified
  72              		.thumb
  73              		.thumb_func
  74              		.fpu fpv5-sp-d16
  76              	initFilter:
  77              	.LVL4:
  78              	.LFB141:
   4:Core/drogui/src/filter.c ****     
  79              		.loc 1 4 54 is_stmt 1 view -0
  80              		.cfi_startproc
  81              		@ args = 0, pretend = 0, frame = 0
  82              		@ frame_needed = 0, uses_anonymous_args = 0
   4:Core/drogui/src/filter.c ****     
  83              		.loc 1 4 54 is_stmt 0 view .LVU15
  84 0000 70B5     		push	{r4, r5, r6, lr}
  85              	.LCFI1:
  86              		.cfi_def_cfa_offset 16
  87              		.cfi_offset 4, -16
  88              		.cfi_offset 5, -12
  89              		.cfi_offset 6, -8
  90              		.cfi_offset 14, -4
ARM GAS  C:\Users\GUILLE~1\AppData\Local\Temp\ccM2WArk.s 			page 3


  91 0002 0446     		mov	r4, r0
  92 0004 0D46     		mov	r5, r1
  93 0006 1E46     		mov	r6, r3
   6:Core/drogui/src/filter.c ****     initArrCoeff(&(f->arr_u),n, b);
  94              		.loc 1 6 5 is_stmt 1 view .LVU16
  95 0008 0139     		subs	r1, r1, #1
  96              	.LVL5:
   6:Core/drogui/src/filter.c ****     initArrCoeff(&(f->arr_u),n, b);
  97              		.loc 1 6 5 is_stmt 0 view .LVU17
  98 000a 1430     		adds	r0, r0, #20
  99              	.LVL6:
   6:Core/drogui/src/filter.c ****     initArrCoeff(&(f->arr_u),n, b);
 100              		.loc 1 6 5 view .LVU18
 101 000c FFF7FEFF 		bl	initArrCoeff
 102              	.LVL7:
   7:Core/drogui/src/filter.c ****     f -> n = n;
 103              		.loc 1 7 5 is_stmt 1 view .LVU19
 104 0010 3246     		mov	r2, r6
 105 0012 2946     		mov	r1, r5
 106 0014 201D     		adds	r0, r4, #4
 107 0016 FFF7FEFF 		bl	initArrCoeff
 108              	.LVL8:
   8:Core/drogui/src/filter.c **** }
 109              		.loc 1 8 5 view .LVU20
   8:Core/drogui/src/filter.c **** }
 110              		.loc 1 8 12 is_stmt 0 view .LVU21
 111 001a 2560     		str	r5, [r4]
   9:Core/drogui/src/filter.c **** 
 112              		.loc 1 9 1 view .LVU22
 113 001c 70BD     		pop	{r4, r5, r6, pc}
   9:Core/drogui/src/filter.c **** 
 114              		.loc 1 9 1 view .LVU23
 115              		.cfi_endproc
 116              	.LFE141:
 118              		.section	.text.computeArrCoeff,"ax",%progbits
 119              		.align	1
 120              		.global	computeArrCoeff
 121              		.syntax unified
 122              		.thumb
 123              		.thumb_func
 124              		.fpu fpv5-sp-d16
 126              	computeArrCoeff:
 127              	.LVL9:
 128              	.LFB144:
  26:Core/drogui/src/filter.c **** 
  27:Core/drogui/src/filter.c **** 
  28:Core/drogui/src/filter.c **** float computeArrCoeff(arrCoeff* a){
 129              		.loc 1 28 35 is_stmt 1 view -0
 130              		.cfi_startproc
 131              		@ args = 0, pretend = 0, frame = 0
 132              		@ frame_needed = 0, uses_anonymous_args = 0
 133              		@ link register save eliminated.
  29:Core/drogui/src/filter.c ****     float ans = 0;
 134              		.loc 1 29 5 view .LVU25
  30:Core/drogui/src/filter.c ****     for(int aux = (a->head-1+a->n)%(a->n), i = 0 ; i < (a->n) ; i++){
 135              		.loc 1 30 5 view .LVU26
 136              	.LBB2:
ARM GAS  C:\Users\GUILLE~1\AppData\Local\Temp\ccM2WArk.s 			page 4


 137              		.loc 1 30 9 view .LVU27
 138              		.loc 1 30 21 is_stmt 0 view .LVU28
 139 0000 4368     		ldr	r3, [r0, #4]
 140              		.loc 1 30 27 view .LVU29
 141 0002 013B     		subs	r3, r3, #1
 142              		.loc 1 30 31 view .LVU30
 143 0004 0268     		ldr	r2, [r0]
 144              		.loc 1 30 29 view .LVU31
 145 0006 1344     		add	r3, r3, r2
 146              		.loc 1 30 13 view .LVU32
 147 0008 93FBF2F1 		sdiv	r1, r3, r2
 148 000c 02FB1133 		mls	r3, r2, r1, r3
 149              	.LVL10:
 150              		.loc 1 30 44 view .LVU33
 151 0010 0021     		movs	r1, #0
 152              	.LBE2:
  29:Core/drogui/src/filter.c ****     float ans = 0;
 153              		.loc 1 29 11 view .LVU34
 154 0012 9FED100A 		vldr.32	s0, .L13
 155              	.LVL11:
 156              	.LBB3:
 157              		.loc 1 30 52 is_stmt 1 view .LVU35
 158              		.loc 1 30 5 is_stmt 0 view .LVU36
 159 0016 8A42     		cmp	r2, r1
 160 0018 1ADD     		ble	.L12
 161              	.LBE3:
  28:Core/drogui/src/filter.c ****     float ans = 0;
 162              		.loc 1 28 35 view .LVU37
 163 001a 10B4     		push	{r4}
 164              	.LCFI2:
 165              		.cfi_def_cfa_offset 4
 166              		.cfi_offset 4, -4
 167              	.L7:
 168              	.LBB4:
  31:Core/drogui/src/filter.c ****         ans += (a->coeff)[i] * (a->values[aux]);
 169              		.loc 1 31 9 is_stmt 1 discriminator 3 view .LVU38
 170              		.loc 1 31 26 is_stmt 0 discriminator 3 view .LVU39
 171 001c C468     		ldr	r4, [r0, #12]
 172 001e 04EB810C 		add	ip, r4, r1, lsl #2
 173 0022 DCED007A 		vldr.32	s15, [ip]
 174              		.loc 1 31 42 discriminator 3 view .LVU40
 175 0026 8468     		ldr	r4, [r0, #8]
 176 0028 04EB830C 		add	ip, r4, r3, lsl #2
 177 002c 9CED007A 		vldr.32	s14, [ip]
 178              		.loc 1 31 30 discriminator 3 view .LVU41
 179 0030 67EE877A 		vmul.f32	s15, s15, s14
 180              		.loc 1 31 13 discriminator 3 view .LVU42
 181 0034 30EE270A 		vadd.f32	s0, s0, s15
 182              	.LVL12:
  32:Core/drogui/src/filter.c ****         aux = (aux - 1 + a->n )%(a->n);
 183              		.loc 1 32 9 is_stmt 1 discriminator 3 view .LVU43
 184              		.loc 1 32 20 is_stmt 0 discriminator 3 view .LVU44
 185 0038 013B     		subs	r3, r3, #1
 186              	.LVL13:
 187              		.loc 1 32 24 discriminator 3 view .LVU45
 188 003a 1344     		add	r3, r3, r2
 189              	.LVL14:
ARM GAS  C:\Users\GUILLE~1\AppData\Local\Temp\ccM2WArk.s 			page 5


 190              		.loc 1 32 13 discriminator 3 view .LVU46
 191 003c 93FBF2FC 		sdiv	ip, r3, r2
 192 0040 02FB1C33 		mls	r3, r2, ip, r3
 193              	.LVL15:
  30:Core/drogui/src/filter.c ****         ans += (a->coeff)[i] * (a->values[aux]);
 194              		.loc 1 30 65 is_stmt 1 discriminator 3 view .LVU47
  30:Core/drogui/src/filter.c ****         ans += (a->coeff)[i] * (a->values[aux]);
 195              		.loc 1 30 66 is_stmt 0 discriminator 3 view .LVU48
 196 0044 0131     		adds	r1, r1, #1
 197              	.LVL16:
  30:Core/drogui/src/filter.c ****         ans += (a->coeff)[i] * (a->values[aux]);
 198              		.loc 1 30 52 is_stmt 1 discriminator 3 view .LVU49
  30:Core/drogui/src/filter.c ****         ans += (a->coeff)[i] * (a->values[aux]);
 199              		.loc 1 30 5 is_stmt 0 discriminator 3 view .LVU50
 200 0046 8A42     		cmp	r2, r1
 201 0048 E8DC     		bgt	.L7
 202              	.LBE4:
  33:Core/drogui/src/filter.c ****     }
  34:Core/drogui/src/filter.c ****     return ans;
 203              		.loc 1 34 5 is_stmt 1 view .LVU51
  35:Core/drogui/src/filter.c **** }
 204              		.loc 1 35 1 is_stmt 0 view .LVU52
 205 004a 5DF8044B 		ldr	r4, [sp], #4
 206              	.LCFI3:
 207              		.cfi_restore 4
 208              		.cfi_def_cfa_offset 0
 209 004e 7047     		bx	lr
 210              	.L12:
 211              		.loc 1 35 1 view .LVU53
 212 0050 7047     		bx	lr
 213              	.L14:
 214 0052 00BF     		.align	2
 215              	.L13:
 216 0054 00000000 		.word	0
 217              		.cfi_endproc
 218              	.LFE144:
 220              		.section	.text.addArrCoeff,"ax",%progbits
 221              		.align	1
 222              		.global	addArrCoeff
 223              		.syntax unified
 224              		.thumb
 225              		.thumb_func
 226              		.fpu fpv5-sp-d16
 228              	addArrCoeff:
 229              	.LVL17:
 230              	.LFB145:
  36:Core/drogui/src/filter.c **** 
  37:Core/drogui/src/filter.c **** void addArrCoeff(arrCoeff* a, float x){
 231              		.loc 1 37 39 is_stmt 1 view -0
 232              		.cfi_startproc
 233              		@ args = 0, pretend = 0, frame = 0
 234              		@ frame_needed = 0, uses_anonymous_args = 0
 235              		@ link register save eliminated.
  38:Core/drogui/src/filter.c ****     (a->values)[a->head++] = x;
 236              		.loc 1 38 5 view .LVU55
 237              		.loc 1 38 7 is_stmt 0 view .LVU56
 238 0000 8368     		ldr	r3, [r0, #8]
ARM GAS  C:\Users\GUILLE~1\AppData\Local\Temp\ccM2WArk.s 			page 6


 239              		.loc 1 38 18 view .LVU57
 240 0002 4268     		ldr	r2, [r0, #4]
 241              		.loc 1 38 24 view .LVU58
 242 0004 511C     		adds	r1, r2, #1
 243 0006 4160     		str	r1, [r0, #4]
 244              		.loc 1 38 16 view .LVU59
 245 0008 03EB8203 		add	r3, r3, r2, lsl #2
 246              		.loc 1 38 28 view .LVU60
 247 000c 83ED000A 		vstr.32	s0, [r3]
  39:Core/drogui/src/filter.c ****     a->head %= a->n;
 248              		.loc 1 39 5 is_stmt 1 view .LVU61
 249              		.loc 1 39 17 is_stmt 0 view .LVU62
 250 0010 0268     		ldr	r2, [r0]
 251              		.loc 1 39 13 view .LVU63
 252 0012 4368     		ldr	r3, [r0, #4]
 253 0014 93FBF2F1 		sdiv	r1, r3, r2
 254 0018 02FB1133 		mls	r3, r2, r1, r3
 255 001c 4360     		str	r3, [r0, #4]
  40:Core/drogui/src/filter.c **** }
 256              		.loc 1 40 1 view .LVU64
 257 001e 7047     		bx	lr
 258              		.cfi_endproc
 259              	.LFE145:
 261              		.section	.text.computeFilter,"ax",%progbits
 262              		.align	1
 263              		.global	computeFilter
 264              		.syntax unified
 265              		.thumb
 266              		.thumb_func
 267              		.fpu fpv5-sp-d16
 269              	computeFilter:
 270              	.LVL18:
 271              	.LFB142:
  12:Core/drogui/src/filter.c ****     addArrCoeff(&(f->arr_u), x);
 272              		.loc 1 12 40 is_stmt 1 view -0
 273              		.cfi_startproc
 274              		@ args = 0, pretend = 0, frame = 0
 275              		@ frame_needed = 0, uses_anonymous_args = 0
  12:Core/drogui/src/filter.c ****     addArrCoeff(&(f->arr_u), x);
 276              		.loc 1 12 40 is_stmt 0 view .LVU66
 277 0000 38B5     		push	{r3, r4, r5, lr}
 278              	.LCFI4:
 279              		.cfi_def_cfa_offset 16
 280              		.cfi_offset 3, -16
 281              		.cfi_offset 4, -12
 282              		.cfi_offset 5, -8
 283              		.cfi_offset 14, -4
 284 0002 2DED028B 		vpush.64	{d8}
 285              	.LCFI5:
 286              		.cfi_def_cfa_offset 24
 287              		.cfi_offset 80, -24
 288              		.cfi_offset 81, -20
 289 0006 0446     		mov	r4, r0
  13:Core/drogui/src/filter.c ****     float y = computeArrCoeff(&(f->arr_u)) - computeArrCoeff(&(f->arr_y));
 290              		.loc 1 13 5 is_stmt 1 view .LVU67
 291 0008 051D     		adds	r5, r0, #4
 292 000a 2846     		mov	r0, r5
ARM GAS  C:\Users\GUILLE~1\AppData\Local\Temp\ccM2WArk.s 			page 7


 293              	.LVL19:
  13:Core/drogui/src/filter.c ****     float y = computeArrCoeff(&(f->arr_u)) - computeArrCoeff(&(f->arr_y));
 294              		.loc 1 13 5 is_stmt 0 view .LVU68
 295 000c FFF7FEFF 		bl	addArrCoeff
 296              	.LVL20:
  14:Core/drogui/src/filter.c ****     addArrCoeff(&(f->arr_y), y);
 297              		.loc 1 14 5 is_stmt 1 view .LVU69
  14:Core/drogui/src/filter.c ****     addArrCoeff(&(f->arr_y), y);
 298              		.loc 1 14 15 is_stmt 0 view .LVU70
 299 0010 2846     		mov	r0, r5
 300 0012 FFF7FEFF 		bl	computeArrCoeff
 301              	.LVL21:
 302 0016 B0EE408A 		vmov.f32	s16, s0
  14:Core/drogui/src/filter.c ****     addArrCoeff(&(f->arr_y), y);
 303              		.loc 1 14 46 view .LVU71
 304 001a 1434     		adds	r4, r4, #20
 305              	.LVL22:
  14:Core/drogui/src/filter.c ****     addArrCoeff(&(f->arr_y), y);
 306              		.loc 1 14 46 view .LVU72
 307 001c 2046     		mov	r0, r4
 308 001e FFF7FEFF 		bl	computeArrCoeff
 309              	.LVL23:
  14:Core/drogui/src/filter.c ****     addArrCoeff(&(f->arr_y), y);
 310              		.loc 1 14 11 view .LVU73
 311 0022 38EE408A 		vsub.f32	s16, s16, s0
 312              	.LVL24:
  15:Core/drogui/src/filter.c ****     return y;
 313              		.loc 1 15 5 is_stmt 1 view .LVU74
 314 0026 B0EE480A 		vmov.f32	s0, s16
 315 002a 2046     		mov	r0, r4
 316 002c FFF7FEFF 		bl	addArrCoeff
 317              	.LVL25:
  16:Core/drogui/src/filter.c **** }
 318              		.loc 1 16 5 view .LVU75
  17:Core/drogui/src/filter.c **** 
 319              		.loc 1 17 1 is_stmt 0 view .LVU76
 320 0030 B0EE480A 		vmov.f32	s0, s16
 321 0034 BDEC028B 		vldm	sp!, {d8}
 322              	.LCFI6:
 323              		.cfi_restore 80
 324              		.cfi_restore 81
 325              		.cfi_def_cfa_offset 16
 326              	.LVL26:
  17:Core/drogui/src/filter.c **** 
 327              		.loc 1 17 1 view .LVU77
 328 0038 38BD     		pop	{r3, r4, r5, pc}
  17:Core/drogui/src/filter.c **** 
 329              		.loc 1 17 1 view .LVU78
 330              		.cfi_endproc
 331              	.LFE142:
 333              		.section	.text.initDNotchFilter,"ax",%progbits
 334              		.align	1
 335              		.global	initDNotchFilter
 336              		.syntax unified
 337              		.thumb
 338              		.thumb_func
 339              		.fpu fpv5-sp-d16
ARM GAS  C:\Users\GUILLE~1\AppData\Local\Temp\ccM2WArk.s 			page 8


 341              	initDNotchFilter:
 342              	.LVL27:
 343              	.LFB146:
  41:Core/drogui/src/filter.c **** 
  42:Core/drogui/src/filter.c **** void initDNotchFilter(dNotchFilter* df, int n, float threshold, float fs, float a, float zeta){
 344              		.loc 1 42 95 is_stmt 1 view -0
 345              		.cfi_startproc
 346              		@ args = 0, pretend = 0, frame = 0
 347              		@ frame_needed = 0, uses_anonymous_args = 0
 348              		.loc 1 42 95 is_stmt 0 view .LVU80
 349 0000 10B5     		push	{r4, lr}
 350              	.LCFI7:
 351              		.cfi_def_cfa_offset 8
 352              		.cfi_offset 4, -8
 353              		.cfi_offset 14, -4
 354 0002 0446     		mov	r4, r0
 355 0004 0846     		mov	r0, r1
 356              	.LVL28:
  43:Core/drogui/src/filter.c ****     df -> n = n;
 357              		.loc 1 43 5 is_stmt 1 view .LVU81
 358              		.loc 1 43 13 is_stmt 0 view .LVU82
 359 0006 A162     		str	r1, [r4, #40]
  44:Core/drogui/src/filter.c ****     df -> a = a;
 360              		.loc 1 44 5 is_stmt 1 view .LVU83
 361              		.loc 1 44 13 is_stmt 0 view .LVU84
 362 0008 84ED0D1A 		vstr.32	s2, [r4, #52]
  45:Core/drogui/src/filter.c ****     df -> zeta = zeta;
 363              		.loc 1 45 5 is_stmt 1 view .LVU85
 364              		.loc 1 45 16 is_stmt 0 view .LVU86
 365 000c C4ED0E1A 		vstr.32	s3, [r4, #56]
  46:Core/drogui/src/filter.c ****     df -> fs = fs;
 366              		.loc 1 46 5 is_stmt 1 view .LVU87
 367              		.loc 1 46 14 is_stmt 0 view .LVU88
 368 0010 C4ED0B0A 		vstr.32	s1, [r4, #44]
  47:Core/drogui/src/filter.c ****     df -> threshold = threshold;
 369              		.loc 1 47 5 is_stmt 1 view .LVU89
 370              		.loc 1 47 21 is_stmt 0 view .LVU90
 371 0014 84ED0C0A 		vstr.32	s0, [r4, #48]
  48:Core/drogui/src/filter.c ****     
  49:Core/drogui/src/filter.c ****     df -> num[0]  = 1; df -> num[1] = df -> num[2] = 0;
 372              		.loc 1 49 5 is_stmt 1 view .LVU91
 373              		.loc 1 49 19 is_stmt 0 view .LVU92
 374 0018 4FF07E53 		mov	r3, #1065353216
 375 001c E363     		str	r3, [r4, #60]	@ float
 376              		.loc 1 49 24 is_stmt 1 view .LVU93
 377              		.loc 1 49 52 is_stmt 0 view .LVU94
 378 001e 0023     		movs	r3, #0
 379 0020 6364     		str	r3, [r4, #68]	@ float
 380              		.loc 1 49 37 view .LVU95
 381 0022 2364     		str	r3, [r4, #64]	@ float
  50:Core/drogui/src/filter.c ****     df -> den[0] = 0; df -> den[1] = 0;
 382              		.loc 1 50 5 is_stmt 1 view .LVU96
 383              		.loc 1 50 18 is_stmt 0 view .LVU97
 384 0024 A364     		str	r3, [r4, #72]	@ float
 385              		.loc 1 50 23 is_stmt 1 view .LVU98
 386              		.loc 1 50 36 is_stmt 0 view .LVU99
 387 0026 E364     		str	r3, [r4, #76]	@ float
ARM GAS  C:\Users\GUILLE~1\AppData\Local\Temp\ccM2WArk.s 			page 9


  51:Core/drogui/src/filter.c **** 
  52:Core/drogui/src/filter.c ****     df -> values = (float*) calloc(n, sizeof(float));
 388              		.loc 1 52 5 is_stmt 1 view .LVU100
 389              		.loc 1 52 29 is_stmt 0 view .LVU101
 390 0028 0421     		movs	r1, #4
 391              	.LVL29:
 392              		.loc 1 52 29 view .LVU102
 393 002a FFF7FEFF 		bl	calloc
 394              	.LVL30:
 395              		.loc 1 52 18 view .LVU103
 396 002e 6062     		str	r0, [r4, #36]
  53:Core/drogui/src/filter.c ****     df -> head = 0;
 397              		.loc 1 53 5 is_stmt 1 view .LVU104
 398              		.loc 1 53 16 is_stmt 0 view .LVU105
 399 0030 0023     		movs	r3, #0
 400 0032 2365     		str	r3, [r4, #80]
  54:Core/drogui/src/filter.c ****     /*df -> FFT = arduinoFFT(); 
  55:Core/drogui/src/filter.c ****     df->exponent = (df -> FFT).Exponent(df -> n);
  56:Core/drogui/src/filter.c ****     
  57:Core/drogui/src/filter.c ****     initFilter(&(df->f), 3, df->den, df-> num);*/
  58:Core/drogui/src/filter.c **** }
 401              		.loc 1 58 1 view .LVU106
 402 0034 10BD     		pop	{r4, pc}
 403              		.loc 1 58 1 view .LVU107
 404              		.cfi_endproc
 405              	.LFE146:
 407              		.global	__aeabi_f2d
 408              		.global	__aeabi_dmul
 409              		.global	__aeabi_d2f
 410              		.section	.text.updateCoeffNotch,"ax",%progbits
 411              		.align	1
 412              		.global	updateCoeffNotch
 413              		.syntax unified
 414              		.thumb
 415              		.thumb_func
 416              		.fpu fpv5-sp-d16
 418              	updateCoeffNotch:
 419              	.LVL31:
 420              	.LFB147:
  59:Core/drogui/src/filter.c **** 
  60:Core/drogui/src/filter.c **** void updateCoeffNotch(dNotchFilter *df, float fc){
 421              		.loc 1 60 50 is_stmt 1 view -0
 422              		.cfi_startproc
 423              		@ args = 0, pretend = 0, frame = 0
 424              		@ frame_needed = 0, uses_anonymous_args = 0
 425              		.loc 1 60 50 is_stmt 0 view .LVU109
 426 0000 10B5     		push	{r4, lr}
 427              	.LCFI8:
 428              		.cfi_def_cfa_offset 8
 429              		.cfi_offset 4, -8
 430              		.cfi_offset 14, -4
 431 0002 0446     		mov	r4, r0
 432 0004 10EE100A 		vmov	r0, s0
 433              	.LVL32:
  61:Core/drogui/src/filter.c ****     
  62:Core/drogui/src/filter.c ****     float wn = 2*pi*fc;
 434              		.loc 1 62 5 is_stmt 1 view .LVU110
ARM GAS  C:\Users\GUILLE~1\AppData\Local\Temp\ccM2WArk.s 			page 10


 435              		.loc 1 62 20 is_stmt 0 view .LVU111
 436 0008 FFF7FEFF 		bl	__aeabi_f2d
 437              	.LVL33:
 438              		.loc 1 62 20 view .LVU112
 439 000c 2EA3     		adr	r3, .L22
 440 000e D3E90023 		ldrd	r2, [r3]
 441 0012 FFF7FEFF 		bl	__aeabi_dmul
 442              	.LVL34:
 443              		.loc 1 62 11 view .LVU113
 444 0016 FFF7FEFF 		bl	__aeabi_d2f
 445              	.LVL35:
 446 001a 05EE100A 		vmov	s10, r0
 447              	.LVL36:
  63:Core/drogui/src/filter.c ****     float p = 2*(df->zeta)*wn + wn*wn;
 448              		.loc 1 63 5 is_stmt 1 view .LVU114
 449              		.loc 1 63 20 is_stmt 0 view .LVU115
 450 001e D4ED0E7A 		vldr.32	s15, [r4, #56]
 451              		.loc 1 63 16 view .LVU116
 452 0022 77EEA77A 		vadd.f32	s15, s15, s15
 453              		.loc 1 63 27 view .LVU117
 454 0026 67EE857A 		vmul.f32	s15, s15, s10
 455              		.loc 1 63 35 view .LVU118
 456 002a 25EE056A 		vmul.f32	s12, s10, s10
 457              		.loc 1 63 11 view .LVU119
 458 002e 77EE867A 		vadd.f32	s15, s15, s12
 459              	.LVL37:
  64:Core/drogui/src/filter.c ****     float ts = 1/(df->fs);
 460              		.loc 1 64 5 is_stmt 1 view .LVU120
 461              		.loc 1 64 21 is_stmt 0 view .LVU121
 462 0032 94ED0B7A 		vldr.32	s14, [r4, #44]
 463              		.loc 1 64 11 view .LVU122
 464 0036 F7EE004A 		vmov.f32	s9, #1.0e+0
 465 003a C4EE875A 		vdiv.f32	s11, s9, s14
 466              	.LVL38:
  65:Core/drogui/src/filter.c ****     float q = wn*wn;
 467              		.loc 1 65 5 is_stmt 1 view .LVU123
  66:Core/drogui/src/filter.c ****     float n = wn*((df->a) +1/(df -> a));
 468              		.loc 1 66 5 view .LVU124
 469              		.loc 1 66 22 is_stmt 0 view .LVU125
 470 003e D4ED0D6A 		vldr.32	s13, [r4, #52]
 471              		.loc 1 66 29 view .LVU126
 472 0042 84EEA67A 		vdiv.f32	s14, s9, s13
 473              		.loc 1 66 27 view .LVU127
 474 0046 36EE877A 		vadd.f32	s14, s13, s14
 475              		.loc 1 66 11 view .LVU128
 476 004a 27EE057A 		vmul.f32	s14, s14, s10
 477              	.LVL39:
  67:Core/drogui/src/filter.c ****     
  68:Core/drogui/src/filter.c ****     df -> num[0] = (4+p*ts*ts)/(4+2*n*ts + q*ts*ts);
 478              		.loc 1 68 5 is_stmt 1 view .LVU129
 479              		.loc 1 68 24 is_stmt 0 view .LVU130
 480 004e 27EEA54A 		vmul.f32	s8, s15, s11
 481              		.loc 1 68 27 view .LVU131
 482 0052 24EE254A 		vmul.f32	s8, s8, s11
 483              		.loc 1 68 22 view .LVU132
 484 0056 F1EE004A 		vmov.f32	s9, #4.0e+0
 485 005a 34EE244A 		vadd.f32	s8, s8, s9
ARM GAS  C:\Users\GUILLE~1\AppData\Local\Temp\ccM2WArk.s 			page 11


 486              		.loc 1 68 36 view .LVU133
 487 005e 37EE077A 		vadd.f32	s14, s14, s14
 488              	.LVL40:
 489              		.loc 1 68 38 view .LVU134
 490 0062 27EE257A 		vmul.f32	s14, s14, s11
 491              		.loc 1 68 34 view .LVU135
 492 0066 77EE246A 		vadd.f32	s13, s14, s9
 493              	.LVL41:
 494              		.loc 1 68 45 view .LVU136
 495 006a 26EE255A 		vmul.f32	s10, s12, s11
 496              		.loc 1 68 48 view .LVU137
 497 006e 25EE255A 		vmul.f32	s10, s10, s11
 498              		.loc 1 68 42 view .LVU138
 499 0072 76EE856A 		vadd.f32	s13, s13, s10
 500              		.loc 1 68 31 view .LVU139
 501 0076 C4EE263A 		vdiv.f32	s7, s8, s13
 502              		.loc 1 68 18 view .LVU140
 503 007a C4ED0F3A 		vstr.32	s7, [r4, #60]
  69:Core/drogui/src/filter.c ****     df -> num[1] = (2*p*ts*ts-8)/(4+2*n*ts + q*ts*ts);
 504              		.loc 1 69 5 is_stmt 1 view .LVU141
 505              		.loc 1 69 22 is_stmt 0 view .LVU142
 506 007e 77EEA77A 		vadd.f32	s15, s15, s15
 507              	.LVL42:
 508              		.loc 1 69 24 view .LVU143
 509 0082 67EEA57A 		vmul.f32	s15, s15, s11
 510              		.loc 1 69 27 view .LVU144
 511 0086 67EEA57A 		vmul.f32	s15, s15, s11
 512              		.loc 1 69 30 view .LVU145
 513 008a B2EE004A 		vmov.f32	s8, #8.0e+0
 514 008e 77EEC47A 		vsub.f32	s15, s15, s8
 515              		.loc 1 69 33 view .LVU146
 516 0092 87EEA63A 		vdiv.f32	s6, s15, s13
 517              		.loc 1 69 18 view .LVU147
 518 0096 84ED103A 		vstr.32	s6, [r4, #64]
  70:Core/drogui/src/filter.c ****     df -> num[2] = (4+p*ts*ts)/(4+2*n*ts + q*ts*ts);
 519              		.loc 1 70 5 is_stmt 1 view .LVU148
 520              		.loc 1 70 18 is_stmt 0 view .LVU149
 521 009a C4ED113A 		vstr.32	s7, [r4, #68]
  71:Core/drogui/src/filter.c ****      
  72:Core/drogui/src/filter.c ****     df -> den[0] = (2*q*ts*ts-8)/(4+2*n*ts + q*ts*ts);
 522              		.loc 1 72 5 is_stmt 1 view .LVU150
 523              		.loc 1 72 22 is_stmt 0 view .LVU151
 524 009e 36EE066A 		vadd.f32	s12, s12, s12
 525              	.LVL43:
 526              		.loc 1 72 24 view .LVU152
 527 00a2 26EE256A 		vmul.f32	s12, s12, s11
 528              		.loc 1 72 27 view .LVU153
 529 00a6 26EE256A 		vmul.f32	s12, s12, s11
 530              		.loc 1 72 30 view .LVU154
 531 00aa 36EE446A 		vsub.f32	s12, s12, s8
 532              		.loc 1 72 33 view .LVU155
 533 00ae C6EE267A 		vdiv.f32	s15, s12, s13
 534              		.loc 1 72 18 view .LVU156
 535 00b2 C4ED127A 		vstr.32	s15, [r4, #72]
  73:Core/drogui/src/filter.c ****     df -> den[1] = (4-2*n*ts+q*ts*ts)/(4+2*n*ts + q*ts*ts);
 536              		.loc 1 73 5 is_stmt 1 view .LVU157
 537              		.loc 1 73 22 is_stmt 0 view .LVU158
ARM GAS  C:\Users\GUILLE~1\AppData\Local\Temp\ccM2WArk.s 			page 12


 538 00b6 34EEC77A 		vsub.f32	s14, s9, s14
 539              		.loc 1 73 29 view .LVU159
 540 00ba 35EE075A 		vadd.f32	s10, s10, s14
 541              		.loc 1 73 38 view .LVU160
 542 00be C5EE267A 		vdiv.f32	s15, s10, s13
 543              		.loc 1 73 18 view .LVU161
 544 00c2 C4ED137A 		vstr.32	s15, [r4, #76]
  74:Core/drogui/src/filter.c **** }
 545              		.loc 1 74 1 view .LVU162
 546 00c6 10BD     		pop	{r4, pc}
 547              	.LVL44:
 548              	.L23:
 549              		.loc 1 74 1 view .LVU163
 550              		.align	3
 551              	.L22:
 552 00c8 182D4454 		.word	1413754136
 553 00cc FB211940 		.word	1075388923
 554              		.cfi_endproc
 555              	.LFE147:
 557              		.section	.text.computeDNotch,"ax",%progbits
 558              		.align	1
 559              		.global	computeDNotch
 560              		.syntax unified
 561              		.thumb
 562              		.thumb_func
 563              		.fpu fpv5-sp-d16
 565              	computeDNotch:
 566              	.LVL45:
 567              	.LFB148:
  75:Core/drogui/src/filter.c **** 
  76:Core/drogui/src/filter.c **** 
  77:Core/drogui/src/filter.c **** float computeDNotch(dNotchFilter *df, float val){
 568              		.loc 1 77 49 is_stmt 1 view -0
 569              		.cfi_startproc
 570              		@ args = 0, pretend = 0, frame = 0
 571              		@ frame_needed = 1, uses_anonymous_args = 0
 572              		.loc 1 77 49 is_stmt 0 view .LVU165
 573 0000 B0B5     		push	{r4, r5, r7, lr}
 574              	.LCFI9:
 575              		.cfi_def_cfa_offset 16
 576              		.cfi_offset 4, -16
 577              		.cfi_offset 5, -12
 578              		.cfi_offset 7, -8
 579              		.cfi_offset 14, -4
 580 0002 2DED028B 		vpush.64	{d8}
 581              	.LCFI10:
 582              		.cfi_def_cfa_offset 24
 583              		.cfi_offset 80, -24
 584              		.cfi_offset 81, -20
 585 0006 00AF     		add	r7, sp, #0
 586              	.LCFI11:
 587              		.cfi_def_cfa_register 7
 588 0008 0446     		mov	r4, r0
 589 000a B0EE408A 		vmov.f32	s16, s0
  78:Core/drogui/src/filter.c **** 
  79:Core/drogui/src/filter.c ****     if(df -> head < df -> n){
 590              		.loc 1 79 5 is_stmt 1 view .LVU166
ARM GAS  C:\Users\GUILLE~1\AppData\Local\Temp\ccM2WArk.s 			page 13


 591              		.loc 1 79 11 is_stmt 0 view .LVU167
 592 000e 036D     		ldr	r3, [r0, #80]
 593              		.loc 1 79 24 view .LVU168
 594 0010 826A     		ldr	r2, [r0, #40]
 595              		.loc 1 79 7 view .LVU169
 596 0012 9342     		cmp	r3, r2
 597 0014 25DA     		bge	.L37
  80:Core/drogui/src/filter.c ****         df -> values[df -> head++]  = val;
 598              		.loc 1 80 9 is_stmt 1 view .LVU170
 599              		.loc 1 80 12 is_stmt 0 view .LVU171
 600 0016 426A     		ldr	r2, [r0, #36]
 601              		.loc 1 80 32 view .LVU172
 602 0018 591C     		adds	r1, r3, #1
 603 001a 0165     		str	r1, [r0, #80]
 604              		.loc 1 80 21 view .LVU173
 605 001c 02EB8303 		add	r3, r2, r3, lsl #2
 606              		.loc 1 80 37 view .LVU174
 607 0020 83ED000A 		vstr.32	s0, [r3]
 608              	.L26:
  81:Core/drogui/src/filter.c ****     }
  82:Core/drogui/src/filter.c ****     else{
  83:Core/drogui/src/filter.c ****         for(int i = 0; i < df->n-1 ; i++)
  84:Core/drogui/src/filter.c ****             df-> values[i] = df-> values[i +1]; 
  85:Core/drogui/src/filter.c ****         df->values[ df -> n - 1] = val;
  86:Core/drogui/src/filter.c ****     }
  87:Core/drogui/src/filter.c **** 
  88:Core/drogui/src/filter.c ****     if(df -> head == df -> n){
 609              		.loc 1 88 5 is_stmt 1 view .LVU175
 610              		.loc 1 88 11 is_stmt 0 view .LVU176
 611 0024 226D     		ldr	r2, [r4, #80]
 612              		.loc 1 88 25 view .LVU177
 613 0026 A36A     		ldr	r3, [r4, #40]
 614              		.loc 1 88 7 view .LVU178
 615 0028 9A42     		cmp	r2, r3
 616 002a 1CD0     		beq	.L41
 617              	.LVL46:
 618              	.L28:
  89:Core/drogui/src/filter.c ****         float fft[df->n];
  90:Core/drogui/src/filter.c ****         /*float imag[df->n], fft[df->n];
  91:Core/drogui/src/filter.c ****         for (uint16_t i = 0; i < df->n; i++) fft[i] = df->values[i], imag[i] = 0; 
  92:Core/drogui/src/filter.c ****         
  93:Core/drogui/src/filter.c ****         
  94:Core/drogui/src/filter.c ****         (df->FFT).Compute(fft, imag, df -> n, df->exponent, FFT_FORWARD); 
  95:Core/drogui/src/filter.c ****         (df->FFT).ComplexToMagnitude(fft, imag, df -> n); */
  96:Core/drogui/src/filter.c ****         
  97:Core/drogui/src/filter.c ****         
  98:Core/drogui/src/filter.c ****         for(int i = 0; i< df -> n ; i++) fft[i] = (i > 0 ? 2 : 1) * fft[i] / (df->n);
  99:Core/drogui/src/filter.c **** 
 100:Core/drogui/src/filter.c ****         int thres_ind = (df -> threshold)*(df -> n)/(df -> fs);
 101:Core/drogui/src/filter.c ****         float maxi = 0; float fc = 0;
 102:Core/drogui/src/filter.c **** 
 103:Core/drogui/src/filter.c ****         for(int i = thres_ind; i <= df -> n/2 + 1 ; i++) 
 104:Core/drogui/src/filter.c ****             if(fft[i] > maxi) maxi = fft[i], fc = (i)*(df->fs)/(df -> n);
 105:Core/drogui/src/filter.c ****         
 106:Core/drogui/src/filter.c ****         updateCoeffNotch(df, fc);
 107:Core/drogui/src/filter.c ****         
 108:Core/drogui/src/filter.c ****         val = computeFilter(&(df->f), val);
ARM GAS  C:\Users\GUILLE~1\AppData\Local\Temp\ccM2WArk.s 			page 14


 109:Core/drogui/src/filter.c ****         df->values[df->n-1] = val;
 110:Core/drogui/src/filter.c ****     }       
 111:Core/drogui/src/filter.c ****     
 112:Core/drogui/src/filter.c ****     return val;    
 619              		.loc 1 112 5 is_stmt 1 view .LVU179
 113:Core/drogui/src/filter.c **** }
 620              		.loc 1 113 1 is_stmt 0 view .LVU180
 621 002c B0EE480A 		vmov.f32	s0, s16
 622              		.loc 1 113 1 view .LVU181
 623 0030 BD46     		mov	sp, r7
 624              	.LCFI12:
 625              		.cfi_remember_state
 626              		.cfi_def_cfa_register 13
 627              		@ sp needed
 628 0032 BDEC028B 		vldm	sp!, {d8}
 629              	.LCFI13:
 630              		.cfi_restore 80
 631              		.cfi_restore 81
 632              		.cfi_def_cfa_offset 16
 633 0036 B0BD     		pop	{r4, r5, r7, pc}
 634              	.LVL47:
 635              	.L27:
 636              	.LCFI14:
 637              		.cfi_restore_state
 638              	.LBB5:
  84:Core/drogui/src/filter.c ****         df->values[ df -> n - 1] = val;
 639              		.loc 1 84 13 is_stmt 1 discriminator 3 view .LVU182
  84:Core/drogui/src/filter.c ****         df->values[ df -> n - 1] = val;
 640              		.loc 1 84 32 is_stmt 0 discriminator 3 view .LVU183
 641 0038 626A     		ldr	r2, [r4, #36]
  84:Core/drogui/src/filter.c ****         df->values[ df -> n - 1] = val;
 642              		.loc 1 84 24 discriminator 3 view .LVU184
 643 003a 02EB8301 		add	r1, r2, r3, lsl #2
  84:Core/drogui/src/filter.c ****         df->values[ df -> n - 1] = val;
 644              		.loc 1 84 41 discriminator 3 view .LVU185
 645 003e 0133     		adds	r3, r3, #1
 646              	.LVL48:
  84:Core/drogui/src/filter.c ****         df->values[ df -> n - 1] = val;
 647              		.loc 1 84 41 discriminator 3 view .LVU186
 648 0040 02EB8302 		add	r2, r2, r3, lsl #2
 649 0044 1268     		ldr	r2, [r2]	@ float
  84:Core/drogui/src/filter.c ****         df->values[ df -> n - 1] = val;
 650              		.loc 1 84 28 discriminator 3 view .LVU187
 651 0046 0A60     		str	r2, [r1]	@ float
  83:Core/drogui/src/filter.c ****             df-> values[i] = df-> values[i +1]; 
 652              		.loc 1 83 38 is_stmt 1 discriminator 3 view .LVU188
 653              	.LVL49:
 654              	.L25:
  83:Core/drogui/src/filter.c ****             df-> values[i] = df-> values[i +1]; 
 655              		.loc 1 83 24 discriminator 1 view .LVU189
  83:Core/drogui/src/filter.c ****             df-> values[i] = df-> values[i +1]; 
 656              		.loc 1 83 30 is_stmt 0 discriminator 1 view .LVU190
 657 0048 A26A     		ldr	r2, [r4, #40]
  83:Core/drogui/src/filter.c ****             df-> values[i] = df-> values[i +1]; 
 658              		.loc 1 83 33 discriminator 1 view .LVU191
 659 004a 511E     		subs	r1, r2, #1
  83:Core/drogui/src/filter.c ****             df-> values[i] = df-> values[i +1]; 
ARM GAS  C:\Users\GUILLE~1\AppData\Local\Temp\ccM2WArk.s 			page 15


 660              		.loc 1 83 9 discriminator 1 view .LVU192
 661 004c 9942     		cmp	r1, r3
 662 004e F3DC     		bgt	.L27
 663              	.LBE5:
  85:Core/drogui/src/filter.c ****     }
 664              		.loc 1 85 9 is_stmt 1 view .LVU193
  85:Core/drogui/src/filter.c ****     }
 665              		.loc 1 85 11 is_stmt 0 view .LVU194
 666 0050 636A     		ldr	r3, [r4, #36]
 667              	.LVL50:
  85:Core/drogui/src/filter.c ****     }
 668              		.loc 1 85 19 view .LVU195
 669 0052 6FF04041 		mvn	r1, #-1073741824
 670 0056 1144     		add	r1, r1, r2
 671 0058 03EB8103 		add	r3, r3, r1, lsl #2
  85:Core/drogui/src/filter.c ****     }
 672              		.loc 1 85 34 view .LVU196
 673 005c 83ED008A 		vstr.32	s16, [r3]
 674 0060 E0E7     		b	.L26
 675              	.L37:
 676              	.LBB6:
  83:Core/drogui/src/filter.c ****             df-> values[i] = df-> values[i +1]; 
 677              		.loc 1 83 17 view .LVU197
 678 0062 0023     		movs	r3, #0
 679 0064 F0E7     		b	.L25
 680              	.L41:
  83:Core/drogui/src/filter.c ****             df-> values[i] = df-> values[i +1]; 
 681              		.loc 1 83 17 view .LVU198
 682              	.LBE6:
 683              	.LBB7:
  88:Core/drogui/src/filter.c ****         float fft[df->n];
 684              		.loc 1 88 30 discriminator 1 view .LVU199
 685 0066 6D46     		mov	r5, sp
  89:Core/drogui/src/filter.c ****         /*float imag[df->n], fft[df->n];
 686              		.loc 1 89 9 is_stmt 1 discriminator 1 view .LVU200
 687              	.LVL51:
  89:Core/drogui/src/filter.c ****         /*float imag[df->n], fft[df->n];
 688              		.loc 1 89 15 is_stmt 0 discriminator 1 view .LVU201
 689 0068 9B00     		lsls	r3, r3, #2
 690              	.LVL52:
  89:Core/drogui/src/filter.c ****         /*float imag[df->n], fft[df->n];
 691              		.loc 1 89 15 discriminator 1 view .LVU202
 692 006a 0733     		adds	r3, r3, #7
 693 006c 23F00703 		bic	r3, r3, #7
 694 0070 ADEB030D 		sub	sp, sp, r3
 695 0074 6846     		mov	r0, sp
 696              	.LVL53:
  98:Core/drogui/src/filter.c **** 
 697              		.loc 1 98 9 is_stmt 1 discriminator 1 view .LVU203
 698              	.LBB8:
  98:Core/drogui/src/filter.c **** 
 699              		.loc 1 98 13 discriminator 1 view .LVU204
  98:Core/drogui/src/filter.c **** 
 700              		.loc 1 98 17 is_stmt 0 discriminator 1 view .LVU205
 701 0076 0022     		movs	r2, #0
  98:Core/drogui/src/filter.c **** 
 702              		.loc 1 98 9 discriminator 1 view .LVU206
ARM GAS  C:\Users\GUILLE~1\AppData\Local\Temp\ccM2WArk.s 			page 16


 703 0078 10E0     		b	.L29
 704              	.LVL54:
 705              	.L38:
  98:Core/drogui/src/filter.c **** 
 706              		.loc 1 98 67 view .LVU207
 707 007a F7EE007A 		vmov.f32	s15, #1.0e+0
 708              	.L30:
  98:Core/drogui/src/filter.c **** 
 709              		.loc 1 98 72 discriminator 5 view .LVU208
 710 007e 00EB8201 		add	r1, r0, r2, lsl #2
 711 0082 91ED007A 		vldr.32	s14, [r1]
  98:Core/drogui/src/filter.c **** 
 712              		.loc 1 98 67 discriminator 5 view .LVU209
 713 0086 27EE277A 		vmul.f32	s14, s14, s15
  98:Core/drogui/src/filter.c **** 
 714              		.loc 1 98 76 discriminator 5 view .LVU210
 715 008a 07EE903A 		vmov	s15, r3	@ int
 716 008e F8EEE77A 		vcvt.f32.s32	s15, s15
 717 0092 C7EE276A 		vdiv.f32	s13, s14, s15
  98:Core/drogui/src/filter.c **** 
 718              		.loc 1 98 49 discriminator 5 view .LVU211
 719 0096 C1ED006A 		vstr.32	s13, [r1]
  98:Core/drogui/src/filter.c **** 
 720              		.loc 1 98 37 is_stmt 1 discriminator 5 view .LVU212
  98:Core/drogui/src/filter.c **** 
 721              		.loc 1 98 38 is_stmt 0 discriminator 5 view .LVU213
 722 009a 0132     		adds	r2, r2, #1
 723              	.LVL55:
 724              	.L29:
  98:Core/drogui/src/filter.c **** 
 725              		.loc 1 98 24 is_stmt 1 discriminator 6 view .LVU214
  98:Core/drogui/src/filter.c **** 
 726              		.loc 1 98 30 is_stmt 0 discriminator 6 view .LVU215
 727 009c A36A     		ldr	r3, [r4, #40]
  98:Core/drogui/src/filter.c **** 
 728              		.loc 1 98 9 discriminator 6 view .LVU216
 729 009e 9A42     		cmp	r2, r3
 730 00a0 04DA     		bge	.L42
  98:Core/drogui/src/filter.c **** 
 731              		.loc 1 98 42 is_stmt 1 discriminator 7 view .LVU217
  98:Core/drogui/src/filter.c **** 
 732              		.loc 1 98 67 is_stmt 0 discriminator 7 view .LVU218
 733 00a2 002A     		cmp	r2, #0
 734 00a4 E9DD     		ble	.L38
  98:Core/drogui/src/filter.c **** 
 735              		.loc 1 98 67 view .LVU219
 736 00a6 F0EE007A 		vmov.f32	s15, #2.0e+0
 737 00aa E8E7     		b	.L30
 738              	.L42:
 739              	.LBE8:
 100:Core/drogui/src/filter.c ****         float maxi = 0; float fc = 0;
 740              		.loc 1 100 9 is_stmt 1 view .LVU220
 100:Core/drogui/src/filter.c ****         float maxi = 0; float fc = 0;
 741              		.loc 1 100 29 is_stmt 0 view .LVU221
 742 00ac 94ED0C7A 		vldr.32	s14, [r4, #48]
 100:Core/drogui/src/filter.c ****         float maxi = 0; float fc = 0;
 743              		.loc 1 100 42 view .LVU222
ARM GAS  C:\Users\GUILLE~1\AppData\Local\Temp\ccM2WArk.s 			page 17


 744 00b0 07EE903A 		vmov	s15, r3	@ int
 745 00b4 B8EEE76A 		vcvt.f32.s32	s12, s15
 746 00b8 27EE067A 		vmul.f32	s14, s14, s12
 100:Core/drogui/src/filter.c ****         float maxi = 0; float fc = 0;
 747              		.loc 1 100 57 view .LVU223
 748 00bc D4ED0B6A 		vldr.32	s13, [r4, #44]
 100:Core/drogui/src/filter.c ****         float maxi = 0; float fc = 0;
 749              		.loc 1 100 52 view .LVU224
 750 00c0 C7EE267A 		vdiv.f32	s15, s14, s13
 100:Core/drogui/src/filter.c ****         float maxi = 0; float fc = 0;
 751              		.loc 1 100 13 view .LVU225
 752 00c4 FDEEE77A 		vcvt.s32.f32	s15, s15
 753 00c8 17EE901A 		vmov	r1, s15	@ int
 754              	.LVL56:
 101:Core/drogui/src/filter.c **** 
 755              		.loc 1 101 9 is_stmt 1 view .LVU226
 101:Core/drogui/src/filter.c **** 
 756              		.loc 1 101 25 view .LVU227
 103:Core/drogui/src/filter.c ****             if(fft[i] > maxi) maxi = fft[i], fc = (i)*(df->fs)/(df -> n);
 757              		.loc 1 103 9 view .LVU228
 758              	.LBB9:
 103:Core/drogui/src/filter.c ****             if(fft[i] > maxi) maxi = fft[i], fc = (i)*(df->fs)/(df -> n);
 759              		.loc 1 103 13 view .LVU229
 103:Core/drogui/src/filter.c ****             if(fft[i] > maxi) maxi = fft[i], fc = (i)*(df->fs)/(df -> n);
 760              		.loc 1 103 13 is_stmt 0 view .LVU230
 761              	.LBE9:
 101:Core/drogui/src/filter.c **** 
 762              		.loc 1 101 31 view .LVU231
 763 00cc 9FED1B0A 		vldr.32	s0, .L45
 764              	.LVL57:
 101:Core/drogui/src/filter.c **** 
 765              		.loc 1 101 15 view .LVU232
 766 00d0 B0EE407A 		vmov.f32	s14, s0
 767              	.LBB10:
 103:Core/drogui/src/filter.c ****             if(fft[i] > maxi) maxi = fft[i], fc = (i)*(df->fs)/(df -> n);
 768              		.loc 1 103 9 view .LVU233
 769 00d4 00E0     		b	.L32
 770              	.LVL58:
 771              	.L33:
 103:Core/drogui/src/filter.c ****             if(fft[i] > maxi) maxi = fft[i], fc = (i)*(df->fs)/(df -> n);
 772              		.loc 1 103 53 is_stmt 1 discriminator 2 view .LVU234
 103:Core/drogui/src/filter.c ****             if(fft[i] > maxi) maxi = fft[i], fc = (i)*(df->fs)/(df -> n);
 773              		.loc 1 103 54 is_stmt 0 discriminator 2 view .LVU235
 774 00d6 0131     		adds	r1, r1, #1
 775              	.LVL59:
 776              	.L32:
 103:Core/drogui/src/filter.c ****             if(fft[i] > maxi) maxi = fft[i], fc = (i)*(df->fs)/(df -> n);
 777              		.loc 1 103 32 is_stmt 1 discriminator 1 view .LVU236
 103:Core/drogui/src/filter.c ****             if(fft[i] > maxi) maxi = fft[i], fc = (i)*(df->fs)/(df -> n);
 778              		.loc 1 103 44 is_stmt 0 discriminator 1 view .LVU237
 779 00d8 1A46     		mov	r2, r3
 780 00da 002B     		cmp	r3, #0
 781 00dc 17DB     		blt	.L43
 782              	.L35:
 103:Core/drogui/src/filter.c ****             if(fft[i] > maxi) maxi = fft[i], fc = (i)*(df->fs)/(df -> n);
 783              		.loc 1 103 44 discriminator 1 view .LVU238
 784 00de 5210     		asrs	r2, r2, #1
ARM GAS  C:\Users\GUILLE~1\AppData\Local\Temp\ccM2WArk.s 			page 18


 103:Core/drogui/src/filter.c ****             if(fft[i] > maxi) maxi = fft[i], fc = (i)*(df->fs)/(df -> n);
 785              		.loc 1 103 47 discriminator 1 view .LVU239
 786 00e0 0132     		adds	r2, r2, #1
 103:Core/drogui/src/filter.c ****             if(fft[i] > maxi) maxi = fft[i], fc = (i)*(df->fs)/(df -> n);
 787              		.loc 1 103 9 discriminator 1 view .LVU240
 788 00e2 8A42     		cmp	r2, r1
 789 00e4 15DB     		blt	.L44
 104:Core/drogui/src/filter.c ****         
 790              		.loc 1 104 13 is_stmt 1 view .LVU241
 104:Core/drogui/src/filter.c ****         
 791              		.loc 1 104 19 is_stmt 0 view .LVU242
 792 00e6 00EB8102 		add	r2, r0, r1, lsl #2
 793 00ea D2ED007A 		vldr.32	s15, [r2]
 104:Core/drogui/src/filter.c ****         
 794              		.loc 1 104 15 view .LVU243
 795 00ee B4EEE77A 		vcmpe.f32	s14, s15
 796 00f2 F1EE10FA 		vmrs	APSR_nzcv, FPSCR
 797 00f6 EED5     		bpl	.L33
 104:Core/drogui/src/filter.c ****         
 798              		.loc 1 104 31 is_stmt 1 discriminator 1 view .LVU244
 799              	.LVL60:
 104:Core/drogui/src/filter.c ****         
 800              		.loc 1 104 54 is_stmt 0 discriminator 1 view .LVU245
 801 00f8 07EE101A 		vmov	s14, r1	@ int
 802 00fc B8EEC77A 		vcvt.f32.s32	s14, s14
 803 0100 27EE267A 		vmul.f32	s14, s14, s13
 104:Core/drogui/src/filter.c ****         
 804              		.loc 1 104 49 discriminator 1 view .LVU246
 805 0104 87EE060A 		vdiv.f32	s0, s14, s12
 806              	.LVL61:
 104:Core/drogui/src/filter.c ****         
 807              		.loc 1 104 36 discriminator 1 view .LVU247
 808 0108 B0EE677A 		vmov.f32	s14, s15
 809 010c E3E7     		b	.L33
 810              	.LVL62:
 811              	.L43:
 103:Core/drogui/src/filter.c ****             if(fft[i] > maxi) maxi = fft[i], fc = (i)*(df->fs)/(df -> n);
 812              		.loc 1 103 44 discriminator 1 view .LVU248
 813 010e 5A1C     		adds	r2, r3, #1
 814 0110 E5E7     		b	.L35
 815              	.L44:
 103:Core/drogui/src/filter.c ****             if(fft[i] > maxi) maxi = fft[i], fc = (i)*(df->fs)/(df -> n);
 816              		.loc 1 103 44 discriminator 1 view .LVU249
 817              	.LBE10:
 106:Core/drogui/src/filter.c ****         
 818              		.loc 1 106 9 is_stmt 1 view .LVU250
 819 0112 2046     		mov	r0, r4
 820              	.LVL63:
 106:Core/drogui/src/filter.c ****         
 821              		.loc 1 106 9 is_stmt 0 view .LVU251
 822 0114 FFF7FEFF 		bl	updateCoeffNotch
 823              	.LVL64:
 108:Core/drogui/src/filter.c ****         df->values[df->n-1] = val;
 824              		.loc 1 108 9 is_stmt 1 view .LVU252
 108:Core/drogui/src/filter.c ****         df->values[df->n-1] = val;
 825              		.loc 1 108 15 is_stmt 0 view .LVU253
 826 0118 B0EE480A 		vmov.f32	s0, s16
ARM GAS  C:\Users\GUILLE~1\AppData\Local\Temp\ccM2WArk.s 			page 19


 827 011c 2046     		mov	r0, r4
 828 011e FFF7FEFF 		bl	computeFilter
 829              	.LVL65:
 830 0122 B0EE408A 		vmov.f32	s16, s0
 831              	.LVL66:
 109:Core/drogui/src/filter.c ****     }       
 832              		.loc 1 109 9 is_stmt 1 view .LVU254
 109:Core/drogui/src/filter.c ****     }       
 833              		.loc 1 109 11 is_stmt 0 view .LVU255
 834 0126 636A     		ldr	r3, [r4, #36]
 109:Core/drogui/src/filter.c ****     }       
 835              		.loc 1 109 22 view .LVU256
 836 0128 A16A     		ldr	r1, [r4, #40]
 109:Core/drogui/src/filter.c ****     }       
 837              		.loc 1 109 19 view .LVU257
 838 012a 6FF04042 		mvn	r2, #-1073741824
 839 012e 0A44     		add	r2, r2, r1
 840 0130 03EB8203 		add	r3, r3, r2, lsl #2
 109:Core/drogui/src/filter.c ****     }       
 841              		.loc 1 109 29 view .LVU258
 842 0134 83ED000A 		vstr.32	s0, [r3]
 843 0138 AD46     		mov	sp, r5
 844              	.LVL67:
 109:Core/drogui/src/filter.c ****     }       
 845              		.loc 1 109 29 view .LVU259
 846 013a 77E7     		b	.L28
 847              	.L46:
 848              		.align	2
 849              	.L45:
 850 013c 00000000 		.word	0
 851              	.LBE7:
 852              		.cfi_endproc
 853              	.LFE148:
 855              		.text
 856              	.Letext0:
 857              		.file 2 "c:\\program files (x86)\\gnu arm embedded toolchain\\10 2020-q4-major\\arm-none-eabi\\inc
 858              		.file 3 "c:\\program files (x86)\\gnu arm embedded toolchain\\10 2020-q4-major\\arm-none-eabi\\inc
 859              		.file 4 "Core/drogui/include/filter.h"
 860              		.file 5 "c:\\program files (x86)\\gnu arm embedded toolchain\\10 2020-q4-major\\arm-none-eabi\\inc
ARM GAS  C:\Users\GUILLE~1\AppData\Local\Temp\ccM2WArk.s 			page 20


DEFINED SYMBOLS
                            *ABS*:00000000 filter.c
C:\Users\GUILLE~1\AppData\Local\Temp\ccM2WArk.s:18     .text.initArrCoeff:00000000 $t
C:\Users\GUILLE~1\AppData\Local\Temp\ccM2WArk.s:26     .text.initArrCoeff:00000000 initArrCoeff
C:\Users\GUILLE~1\AppData\Local\Temp\ccM2WArk.s:69     .text.initFilter:00000000 $t
C:\Users\GUILLE~1\AppData\Local\Temp\ccM2WArk.s:76     .text.initFilter:00000000 initFilter
C:\Users\GUILLE~1\AppData\Local\Temp\ccM2WArk.s:119    .text.computeArrCoeff:00000000 $t
C:\Users\GUILLE~1\AppData\Local\Temp\ccM2WArk.s:126    .text.computeArrCoeff:00000000 computeArrCoeff
C:\Users\GUILLE~1\AppData\Local\Temp\ccM2WArk.s:216    .text.computeArrCoeff:00000054 $d
C:\Users\GUILLE~1\AppData\Local\Temp\ccM2WArk.s:221    .text.addArrCoeff:00000000 $t
C:\Users\GUILLE~1\AppData\Local\Temp\ccM2WArk.s:228    .text.addArrCoeff:00000000 addArrCoeff
C:\Users\GUILLE~1\AppData\Local\Temp\ccM2WArk.s:262    .text.computeFilter:00000000 $t
C:\Users\GUILLE~1\AppData\Local\Temp\ccM2WArk.s:269    .text.computeFilter:00000000 computeFilter
C:\Users\GUILLE~1\AppData\Local\Temp\ccM2WArk.s:334    .text.initDNotchFilter:00000000 $t
C:\Users\GUILLE~1\AppData\Local\Temp\ccM2WArk.s:341    .text.initDNotchFilter:00000000 initDNotchFilter
C:\Users\GUILLE~1\AppData\Local\Temp\ccM2WArk.s:411    .text.updateCoeffNotch:00000000 $t
C:\Users\GUILLE~1\AppData\Local\Temp\ccM2WArk.s:418    .text.updateCoeffNotch:00000000 updateCoeffNotch
C:\Users\GUILLE~1\AppData\Local\Temp\ccM2WArk.s:552    .text.updateCoeffNotch:000000c8 $d
C:\Users\GUILLE~1\AppData\Local\Temp\ccM2WArk.s:558    .text.computeDNotch:00000000 $t
C:\Users\GUILLE~1\AppData\Local\Temp\ccM2WArk.s:565    .text.computeDNotch:00000000 computeDNotch
C:\Users\GUILLE~1\AppData\Local\Temp\ccM2WArk.s:850    .text.computeDNotch:0000013c $d

UNDEFINED SYMBOLS
calloc
__aeabi_f2d
__aeabi_dmul
__aeabi_d2f
