ARM GAS  C:\Users\GUILLE~1\AppData\Local\Temp\cc90awgZ.s 			page 1


   1              		.cpu cortex-m7
   2              		.eabi_attribute 27, 1
   3              		.eabi_attribute 28, 1
   4              		.eabi_attribute 20, 1
   5              		.eabi_attribute 21, 1
   6              		.eabi_attribute 23, 3
   7              		.eabi_attribute 24, 1
   8              		.eabi_attribute 25, 1
   9              		.eabi_attribute 26, 1
  10              		.eabi_attribute 30, 1
  11              		.eabi_attribute 34, 1
  12              		.eabi_attribute 18, 4
  13              		.file	"freeRtosTest.c"
  14              		.text
  15              	.Ltext0:
  16              		.cfi_sections	.debug_frame
  17              		.section	.text.blinkTask,"ax",%progbits
  18              		.align	1
  19              		.global	blinkTask
  20              		.arch armv7e-m
  21              		.syntax unified
  22              		.thumb
  23              		.thumb_func
  24              		.fpu fpv5-sp-d16
  26              	blinkTask:
  27              	.LFB181:
  28              		.file 1 "Core/drogui/test/freeRtosTest.c"
   1:Core/drogui/test/freeRtosTest.c **** #define FREE_RTOS_TEST
   2:Core/drogui/test/freeRtosTest.c **** #ifdef FREE_RTOS_TEST
   3:Core/drogui/test/freeRtosTest.c **** 
   4:Core/drogui/test/freeRtosTest.c **** #include "_main.h"
   5:Core/drogui/test/freeRtosTest.c **** #include "usart.h"
   6:Core/drogui/test/freeRtosTest.c **** #include <stdio.h>
   7:Core/drogui/test/freeRtosTest.c **** #include <string.h>
   8:Core/drogui/test/freeRtosTest.c **** #include "_freertos.h"
   9:Core/drogui/test/freeRtosTest.c **** #include "sensorsTasks.h"
  10:Core/drogui/test/freeRtosTest.c **** 
  11:Core/drogui/test/freeRtosTest.c **** 
  12:Core/drogui/test/freeRtosTest.c **** osThreadId_t debugHandle;
  13:Core/drogui/test/freeRtosTest.c **** const osThreadAttr_t debugAttributes = {    .name = "debugTask", \
  14:Core/drogui/test/freeRtosTest.c ****                                             .stack_size = 512 * 4, \
  15:Core/drogui/test/freeRtosTest.c ****                                             .priority = (osPriority_t) osPriorityNormal};
  16:Core/drogui/test/freeRtosTest.c **** 
  17:Core/drogui/test/freeRtosTest.c **** 
  18:Core/drogui/test/freeRtosTest.c **** osThreadId_t blinkHandle;
  19:Core/drogui/test/freeRtosTest.c **** const osThreadAttr_t blinkAttributes = {    .name = "blinkTask",\
  20:Core/drogui/test/freeRtosTest.c ****                                             .stack_size = 128 * 4,\
  21:Core/drogui/test/freeRtosTest.c ****                                             .priority = (osPriority_t) osPriorityNormal};
  22:Core/drogui/test/freeRtosTest.c **** 
  23:Core/drogui/test/freeRtosTest.c **** void blinkTask(void *argument){
  29              		.loc 1 23 31 view -0
  30              		.cfi_startproc
  31              		@ Volatile: function does not return.
  32              		@ args = 0, pretend = 0, frame = 0
  33              		@ frame_needed = 0, uses_anonymous_args = 0
  34              	.LVL0:
  35              		.loc 1 23 31 is_stmt 0 view .LVU1
ARM GAS  C:\Users\GUILLE~1\AppData\Local\Temp\cc90awgZ.s 			page 2


  36 0000 08B5     		push	{r3, lr}
  37              	.LCFI0:
  38              		.cfi_def_cfa_offset 8
  39              		.cfi_offset 3, -8
  40              		.cfi_offset 14, -4
  41              	.LVL1:
  42              	.L2:
  24:Core/drogui/test/freeRtosTest.c **** 
  25:Core/drogui/test/freeRtosTest.c ****     for(;;){
  43              		.loc 1 25 5 is_stmt 1 discriminator 1 view .LVU2
  26:Core/drogui/test/freeRtosTest.c ****         HAL_GPIO_TogglePin(LED_GPIO_Port, LED_Pin);
  44              		.loc 1 26 9 discriminator 1 view .LVU3
  45 0002 0221     		movs	r1, #2
  46 0004 0348     		ldr	r0, .L4
  47 0006 FFF7FEFF 		bl	HAL_GPIO_TogglePin
  48              	.LVL2:
  27:Core/drogui/test/freeRtosTest.c ****         osDelay(1000);
  49              		.loc 1 27 9 discriminator 1 view .LVU4
  50 000a 4FF47A70 		mov	r0, #1000
  51 000e FFF7FEFF 		bl	osDelay
  52              	.LVL3:
  25:Core/drogui/test/freeRtosTest.c ****         HAL_GPIO_TogglePin(LED_GPIO_Port, LED_Pin);
  53              		.loc 1 25 10 discriminator 1 view .LVU5
  54 0012 F6E7     		b	.L2
  55              	.L5:
  56              		.align	2
  57              	.L4:
  58 0014 00100240 		.word	1073876992
  59              		.cfi_endproc
  60              	.LFE181:
  62              		.global	__aeabi_f2d
  63              		.section	.rodata.debugTask.str1.4,"aMS",%progbits,1
  64              		.align	2
  65              	.LC0:
  66 0000 25660925 		.ascii	"%f\011%f\011%f;\012\000"
  66      66092566 
  66      3B0A00
  67              		.section	.text.debugTask,"ax",%progbits
  68              		.align	1
  69              		.global	debugTask
  70              		.syntax unified
  71              		.thumb
  72              		.thumb_func
  73              		.fpu fpv5-sp-d16
  75              	debugTask:
  76              	.LFB182:
  28:Core/drogui/test/freeRtosTest.c ****     }
  29:Core/drogui/test/freeRtosTest.c **** }
  30:Core/drogui/test/freeRtosTest.c **** 
  31:Core/drogui/test/freeRtosTest.c **** char buff[50] = "hola\n";
  32:Core/drogui/test/freeRtosTest.c **** void debugTask(void *argument){
  77              		.loc 1 32 31 view -0
  78              		.cfi_startproc
  79              		@ Volatile: function does not return.
  80              		@ args = 0, pretend = 0, frame = 0
  81              		@ frame_needed = 0, uses_anonymous_args = 0
  82              	.LVL4:
ARM GAS  C:\Users\GUILLE~1\AppData\Local\Temp\cc90awgZ.s 			page 3


  83              		.loc 1 32 31 is_stmt 0 view .LVU7
  84 0000 80B5     		push	{r7, lr}
  85              	.LCFI1:
  86              		.cfi_def_cfa_offset 8
  87              		.cfi_offset 7, -8
  88              		.cfi_offset 14, -4
  89 0002 84B0     		sub	sp, sp, #16
  90              	.LCFI2:
  91              		.cfi_def_cfa_offset 24
  92              	.LVL5:
  93              	.L7:
  33:Core/drogui/test/freeRtosTest.c ****     
  34:Core/drogui/test/freeRtosTest.c ****     for(;;){
  94              		.loc 1 34 5 is_stmt 1 discriminator 1 view .LVU8
  35:Core/drogui/test/freeRtosTest.c ****         sprintf(buff, "%f\t%f\t%f;\n", myIMU.gx/5, gx, gy);
  95              		.loc 1 35 9 discriminator 1 view .LVU9
  96              		.loc 1 35 45 is_stmt 0 discriminator 1 view .LVU10
  97 0004 164B     		ldr	r3, .L9
  98 0006 93ED077A 		vldr.32	s14, [r3, #28]
  99              		.loc 1 35 9 discriminator 1 view .LVU11
 100 000a F1EE047A 		vmov.f32	s15, #5.0e+0
 101 000e C7EE277A 		vdiv.f32	s15, s14, s15
 102 0012 17EE900A 		vmov	r0, s15
 103 0016 FFF7FEFF 		bl	__aeabi_f2d
 104              	.LVL6:
 105 001a 0646     		mov	r6, r0
 106 001c 0F46     		mov	r7, r1
 107 001e 114C     		ldr	r4, .L9+4
 108 0020 114B     		ldr	r3, .L9+8
 109 0022 1868     		ldr	r0, [r3]	@ float
 110 0024 FFF7FEFF 		bl	__aeabi_f2d
 111              	.LVL7:
 112 0028 CDE90201 		strd	r0, [sp, #8]
 113 002c 0F4B     		ldr	r3, .L9+12
 114 002e 1868     		ldr	r0, [r3]	@ float
 115 0030 FFF7FEFF 		bl	__aeabi_f2d
 116              	.LVL8:
 117 0034 CDE90001 		strd	r0, [sp]
 118 0038 3246     		mov	r2, r6
 119 003a 3B46     		mov	r3, r7
 120 003c 0C49     		ldr	r1, .L9+16
 121 003e 2046     		mov	r0, r4
 122 0040 FFF7FEFF 		bl	sprintf
 123              	.LVL9:
  36:Core/drogui/test/freeRtosTest.c ****         HAL_UART_Transmit(&huart2, (uint8_t*) buff, strlen(buff), 100);
 124              		.loc 1 36 9 is_stmt 1 discriminator 1 view .LVU12
 125              		.loc 1 36 53 is_stmt 0 discriminator 1 view .LVU13
 126 0044 2046     		mov	r0, r4
 127 0046 FFF7FEFF 		bl	strlen
 128              	.LVL10:
 129              		.loc 1 36 9 discriminator 1 view .LVU14
 130 004a 6423     		movs	r3, #100
 131 004c 82B2     		uxth	r2, r0
 132 004e 2146     		mov	r1, r4
 133 0050 0848     		ldr	r0, .L9+20
 134 0052 FFF7FEFF 		bl	HAL_UART_Transmit
 135              	.LVL11:
ARM GAS  C:\Users\GUILLE~1\AppData\Local\Temp\cc90awgZ.s 			page 4


  37:Core/drogui/test/freeRtosTest.c ****         osDelay(1);
 136              		.loc 1 37 9 is_stmt 1 discriminator 1 view .LVU15
 137 0056 0120     		movs	r0, #1
 138 0058 FFF7FEFF 		bl	osDelay
 139              	.LVL12:
  34:Core/drogui/test/freeRtosTest.c ****         sprintf(buff, "%f\t%f\t%f;\n", myIMU.gx/5, gx, gy);
 140              		.loc 1 34 10 discriminator 1 view .LVU16
 141 005c D2E7     		b	.L7
 142              	.L10:
 143 005e 00BF     		.align	2
 144              	.L9:
 145 0060 00000000 		.word	myIMU
 146 0064 00000000 		.word	.LANCHOR0
 147 0068 00000000 		.word	gy
 148 006c 00000000 		.word	gx
 149 0070 00000000 		.word	.LC0
 150 0074 00000000 		.word	huart2
 151              		.cfi_endproc
 152              	.LFE182:
 154              		.section	.text.initSystem,"ax",%progbits
 155              		.align	1
 156              		.global	initSystem
 157              		.syntax unified
 158              		.thumb
 159              		.thumb_func
 160              		.fpu fpv5-sp-d16
 162              	initSystem:
 163              	.LFB183:
  38:Core/drogui/test/freeRtosTest.c ****     }
  39:Core/drogui/test/freeRtosTest.c **** }
  40:Core/drogui/test/freeRtosTest.c **** 
  41:Core/drogui/test/freeRtosTest.c **** void initSystem(){
 164              		.loc 1 41 18 view -0
 165              		.cfi_startproc
 166              		@ args = 0, pretend = 0, frame = 0
 167              		@ frame_needed = 0, uses_anonymous_args = 0
 168 0000 08B5     		push	{r3, lr}
 169              	.LCFI3:
 170              		.cfi_def_cfa_offset 8
 171              		.cfi_offset 3, -8
 172              		.cfi_offset 14, -4
  42:Core/drogui/test/freeRtosTest.c ****     blinkHandle = osThreadNew(blinkTask, NULL, &blinkAttributes);
 173              		.loc 1 42 5 view .LVU18
 174              		.loc 1 42 19 is_stmt 0 view .LVU19
 175 0002 074A     		ldr	r2, .L13
 176 0004 0021     		movs	r1, #0
 177 0006 0748     		ldr	r0, .L13+4
 178 0008 FFF7FEFF 		bl	osThreadNew
 179              	.LVL13:
 180              		.loc 1 42 17 view .LVU20
 181 000c 064B     		ldr	r3, .L13+8
 182 000e 1860     		str	r0, [r3]
  43:Core/drogui/test/freeRtosTest.c ****     debugHandle = osThreadNew(debugTask, NULL, &debugAttributes);
 183              		.loc 1 43 5 is_stmt 1 view .LVU21
 184              		.loc 1 43 19 is_stmt 0 view .LVU22
 185 0010 064A     		ldr	r2, .L13+12
 186 0012 0021     		movs	r1, #0
ARM GAS  C:\Users\GUILLE~1\AppData\Local\Temp\cc90awgZ.s 			page 5


 187 0014 0648     		ldr	r0, .L13+16
 188 0016 FFF7FEFF 		bl	osThreadNew
 189              	.LVL14:
 190              		.loc 1 43 17 view .LVU23
 191 001a 064B     		ldr	r3, .L13+20
 192 001c 1860     		str	r0, [r3]
  44:Core/drogui/test/freeRtosTest.c **** }
 193              		.loc 1 44 1 view .LVU24
 194 001e 08BD     		pop	{r3, pc}
 195              	.L14:
 196              		.align	2
 197              	.L13:
 198 0020 00000000 		.word	.LANCHOR1
 199 0024 00000000 		.word	blinkTask
 200 0028 00000000 		.word	.LANCHOR2
 201 002c 00000000 		.word	.LANCHOR3
 202 0030 00000000 		.word	debugTask
 203 0034 00000000 		.word	.LANCHOR4
 204              		.cfi_endproc
 205              	.LFE183:
 207              		.global	buff
 208              		.global	blinkAttributes
 209              		.section	.rodata.str1.4,"aMS",%progbits,1
 210              		.align	2
 211              	.LC1:
 212 0000 626C696E 		.ascii	"blinkTask\000"
 212      6B546173 
 212      6B00
 213              		.global	blinkHandle
 214              		.global	debugAttributes
 215 000a 0000     		.align	2
 216              	.LC2:
 217 000c 64656275 		.ascii	"debugTask\000"
 217      67546173 
 217      6B00
 218              		.global	debugHandle
 219              		.section	.bss.blinkHandle,"aw",%nobits
 220              		.align	2
 221              		.set	.LANCHOR2,. + 0
 224              	blinkHandle:
 225 0000 00000000 		.space	4
 226              		.section	.bss.debugHandle,"aw",%nobits
 227              		.align	2
 228              		.set	.LANCHOR4,. + 0
 231              	debugHandle:
 232 0000 00000000 		.space	4
 233              		.section	.data.buff,"aw"
 234              		.align	2
 235              		.set	.LANCHOR0,. + 0
 238              	buff:
 239 0000 686F6C61 		.ascii	"hola\012\000"
 239      0A00
 240 0006 00000000 		.space	44
 240      00000000 
 240      00000000 
 240      00000000 
 240      00000000 
ARM GAS  C:\Users\GUILLE~1\AppData\Local\Temp\cc90awgZ.s 			page 6


 241              		.section	.rodata.blinkAttributes,"a"
 242              		.align	2
 243              		.set	.LANCHOR1,. + 0
 246              	blinkAttributes:
 247 0000 00000000 		.word	.LC1
 248 0004 00000000 		.space	16
 248      00000000 
 248      00000000 
 248      00000000 
 249 0014 00020000 		.word	512
 250 0018 18000000 		.word	24
 251 001c 00000000 		.space	8
 251      00000000 
 252              		.section	.rodata.debugAttributes,"a"
 253              		.align	2
 254              		.set	.LANCHOR3,. + 0
 257              	debugAttributes:
 258 0000 0C000000 		.word	.LC2
 259 0004 00000000 		.space	16
 259      00000000 
 259      00000000 
 259      00000000 
 260 0014 00080000 		.word	2048
 261 0018 18000000 		.word	24
 262 001c 00000000 		.space	8
 262      00000000 
 263              		.text
 264              	.Letext0:
 265              		.file 2 "c:\\program files (x86)\\gnu arm embedded toolchain\\10 2020-q4-major\\arm-none-eabi\\inc
 266              		.file 3 "c:\\program files (x86)\\gnu arm embedded toolchain\\10 2020-q4-major\\arm-none-eabi\\inc
 267              		.file 4 "Drivers/CMSIS/Device/ST/STM32F7xx/Include/stm32f746xx.h"
 268              		.file 5 "Drivers/STM32F7xx_HAL_Driver/Inc/stm32f7xx_hal_def.h"
 269              		.file 6 "Drivers/STM32F7xx_HAL_Driver/Inc/stm32f7xx_hal_dma.h"
 270              		.file 7 "Drivers/STM32F7xx_HAL_Driver/Inc/stm32f7xx_hal_uart.h"
 271              		.file 8 "Middlewares/Third_Party/FreeRTOS/Source/CMSIS_RTOS_V2/cmsis_os2.h"
 272              		.file 9 "Core/drogui/include/MPU9250.h"
 273              		.file 10 "Core/drogui/include/sensorsTasks.h"
 274              		.file 11 "Core/Inc/usart.h"
 275              		.file 12 "c:\\program files (x86)\\gnu arm embedded toolchain\\10 2020-q4-major\\arm-none-eabi\\in
 276              		.file 13 "c:\\program files (x86)\\gnu arm embedded toolchain\\10 2020-q4-major\\arm-none-eabi\\in
 277              		.file 14 "Drivers/STM32F7xx_HAL_Driver/Inc/stm32f7xx_hal_gpio.h"
ARM GAS  C:\Users\GUILLE~1\AppData\Local\Temp\cc90awgZ.s 			page 7

