ARM GAS  C:\Users\GUILLE~1\AppData\Local\Temp\ccf6bjE9.s 			page 1


   1              		.cpu cortex-m7
   2              		.eabi_attribute 27, 1
   3              		.eabi_attribute 28, 1
   4              		.eabi_attribute 20, 1
   5              		.eabi_attribute 21, 1
   6              		.eabi_attribute 23, 3
   7              		.eabi_attribute 24, 1
   8              		.eabi_attribute 25, 1
   9              		.eabi_attribute 26, 1
  10              		.eabi_attribute 30, 1
  11              		.eabi_attribute 34, 1
  12              		.eabi_attribute 18, 4
  13              		.file	"freeRtosTest.c"
  14              		.text
  15              	.Ltext0:
  16              		.cfi_sections	.debug_frame
  17              		.section	.text.blinkTask,"ax",%progbits
  18              		.align	1
  19              		.global	blinkTask
  20              		.arch armv7e-m
  21              		.syntax unified
  22              		.thumb
  23              		.thumb_func
  24              		.fpu fpv5-sp-d16
  26              	blinkTask:
  27              	.LFB181:
  28              		.file 1 "Core/drogui/test/freeRtosTest.c"
   1:Core/drogui/test/freeRtosTest.c **** #define FREE_RTOS_TEST
   2:Core/drogui/test/freeRtosTest.c **** #ifdef FREE_RTOS_TEST
   3:Core/drogui/test/freeRtosTest.c **** 
   4:Core/drogui/test/freeRtosTest.c **** #include "_main.h"
   5:Core/drogui/test/freeRtosTest.c **** #include "usart.h"
   6:Core/drogui/test/freeRtosTest.c **** #include <stdio.h>
   7:Core/drogui/test/freeRtosTest.c **** #include <string.h>
   8:Core/drogui/test/freeRtosTest.c **** #include "_freertos.h"
   9:Core/drogui/test/freeRtosTest.c **** #include "sensorsTasks.h"
  10:Core/drogui/test/freeRtosTest.c **** 
  11:Core/drogui/test/freeRtosTest.c **** 
  12:Core/drogui/test/freeRtosTest.c **** osThreadId_t debugHandle;
  13:Core/drogui/test/freeRtosTest.c **** const osThreadAttr_t debugAttributes = {    .name = "debugTask", \
  14:Core/drogui/test/freeRtosTest.c ****                                             .stack_size = 512 * 4, \
  15:Core/drogui/test/freeRtosTest.c ****                                             .priority = (osPriority_t) osPriorityNormal};
  16:Core/drogui/test/freeRtosTest.c **** 
  17:Core/drogui/test/freeRtosTest.c **** 
  18:Core/drogui/test/freeRtosTest.c **** osThreadId_t blinkHandle;
  19:Core/drogui/test/freeRtosTest.c **** const osThreadAttr_t blinkAttributes = {    .name = "blinkTask",\
  20:Core/drogui/test/freeRtosTest.c ****                                             .stack_size = 128 * 4,\
  21:Core/drogui/test/freeRtosTest.c ****                                             .priority = (osPriority_t) osPriorityNormal};
  22:Core/drogui/test/freeRtosTest.c **** 
  23:Core/drogui/test/freeRtosTest.c **** void blinkTask(void *argument){
  29              		.loc 1 23 31 view -0
  30              		.cfi_startproc
  31              		@ Volatile: function does not return.
  32              		@ args = 0, pretend = 0, frame = 0
  33              		@ frame_needed = 0, uses_anonymous_args = 0
  34              	.LVL0:
  35              		.loc 1 23 31 is_stmt 0 view .LVU1
ARM GAS  C:\Users\GUILLE~1\AppData\Local\Temp\ccf6bjE9.s 			page 2


  36 0000 08B5     		push	{r3, lr}
  37              	.LCFI0:
  38              		.cfi_def_cfa_offset 8
  39              		.cfi_offset 3, -8
  40              		.cfi_offset 14, -4
  41              	.LVL1:
  42              	.L2:
  24:Core/drogui/test/freeRtosTest.c **** 
  25:Core/drogui/test/freeRtosTest.c ****     for(;;){
  43              		.loc 1 25 5 is_stmt 1 discriminator 1 view .LVU2
  26:Core/drogui/test/freeRtosTest.c ****         HAL_GPIO_TogglePin(LED_GPIO_Port, LED_Pin);
  44              		.loc 1 26 9 discriminator 1 view .LVU3
  45 0002 0221     		movs	r1, #2
  46 0004 0348     		ldr	r0, .L4
  47 0006 FFF7FEFF 		bl	HAL_GPIO_TogglePin
  48              	.LVL2:
  27:Core/drogui/test/freeRtosTest.c ****         osDelay(1000);
  49              		.loc 1 27 9 discriminator 1 view .LVU4
  50 000a 4FF47A70 		mov	r0, #1000
  51 000e FFF7FEFF 		bl	osDelay
  52              	.LVL3:
  25:Core/drogui/test/freeRtosTest.c ****         HAL_GPIO_TogglePin(LED_GPIO_Port, LED_Pin);
  53              		.loc 1 25 10 discriminator 1 view .LVU5
  54 0012 F6E7     		b	.L2
  55              	.L5:
  56              		.align	2
  57              	.L4:
  58 0014 00100240 		.word	1073876992
  59              		.cfi_endproc
  60              	.LFE181:
  62              		.global	__aeabi_f2d
  63              		.section	.rodata.debugTask.str1.4,"aMS",%progbits,1
  64              		.align	2
  65              	.LC0:
  66 0000 25660925 		.ascii	"%f\011%f ;\012\000"
  66      66203B0A 
  66      00
  67              		.section	.text.debugTask,"ax",%progbits
  68              		.align	1
  69              		.global	debugTask
  70              		.syntax unified
  71              		.thumb
  72              		.thumb_func
  73              		.fpu fpv5-sp-d16
  75              	debugTask:
  76              	.LFB182:
  28:Core/drogui/test/freeRtosTest.c ****     }
  29:Core/drogui/test/freeRtosTest.c **** }
  30:Core/drogui/test/freeRtosTest.c **** 
  31:Core/drogui/test/freeRtosTest.c **** char buff[50] = "hola\n";
  32:Core/drogui/test/freeRtosTest.c **** void debugTask(void *argument){
  77              		.loc 1 32 31 view -0
  78              		.cfi_startproc
  79              		@ Volatile: function does not return.
  80              		@ args = 0, pretend = 0, frame = 0
  81              		@ frame_needed = 0, uses_anonymous_args = 0
  82              	.LVL4:
ARM GAS  C:\Users\GUILLE~1\AppData\Local\Temp\ccf6bjE9.s 			page 3


  83              		.loc 1 32 31 is_stmt 0 view .LVU7
  84 0000 80B5     		push	{r7, lr}
  85              	.LCFI1:
  86              		.cfi_def_cfa_offset 8
  87              		.cfi_offset 7, -8
  88              		.cfi_offset 14, -4
  89 0002 82B0     		sub	sp, sp, #8
  90              	.LCFI2:
  91              		.cfi_def_cfa_offset 16
  92              	.LVL5:
  93              	.L7:
  33:Core/drogui/test/freeRtosTest.c ****     
  34:Core/drogui/test/freeRtosTest.c ****     for(;;){
  94              		.loc 1 34 5 is_stmt 1 discriminator 1 view .LVU8
  35:Core/drogui/test/freeRtosTest.c ****         sprintf(buff, "%f\t%f ;\n", myIMU.gx/5, gx);
  95              		.loc 1 35 9 discriminator 1 view .LVU9
  96              		.loc 1 35 42 is_stmt 0 discriminator 1 view .LVU10
  97 0004 134B     		ldr	r3, .L9
  98 0006 93ED077A 		vldr.32	s14, [r3, #28]
  99              		.loc 1 35 9 discriminator 1 view .LVU11
 100 000a F1EE047A 		vmov.f32	s15, #5.0e+0
 101 000e C7EE277A 		vdiv.f32	s15, s14, s15
 102 0012 17EE900A 		vmov	r0, s15
 103 0016 FFF7FEFF 		bl	__aeabi_f2d
 104              	.LVL6:
 105 001a 0646     		mov	r6, r0
 106 001c 0F46     		mov	r7, r1
 107 001e 0E4C     		ldr	r4, .L9+4
 108 0020 0E4B     		ldr	r3, .L9+8
 109 0022 1868     		ldr	r0, [r3]	@ float
 110 0024 FFF7FEFF 		bl	__aeabi_f2d
 111              	.LVL7:
 112 0028 CDE90001 		strd	r0, [sp]
 113 002c 3246     		mov	r2, r6
 114 002e 3B46     		mov	r3, r7
 115 0030 0B49     		ldr	r1, .L9+12
 116 0032 2046     		mov	r0, r4
 117 0034 FFF7FEFF 		bl	sprintf
 118              	.LVL8:
  36:Core/drogui/test/freeRtosTest.c ****         HAL_UART_Transmit(&huart2, (uint8_t*) buff, strlen(buff), 100);
 119              		.loc 1 36 9 is_stmt 1 discriminator 1 view .LVU12
 120              		.loc 1 36 53 is_stmt 0 discriminator 1 view .LVU13
 121 0038 2046     		mov	r0, r4
 122 003a FFF7FEFF 		bl	strlen
 123              	.LVL9:
 124              		.loc 1 36 9 discriminator 1 view .LVU14
 125 003e 6423     		movs	r3, #100
 126 0040 82B2     		uxth	r2, r0
 127 0042 2146     		mov	r1, r4
 128 0044 0748     		ldr	r0, .L9+16
 129 0046 FFF7FEFF 		bl	HAL_UART_Transmit
 130              	.LVL10:
  37:Core/drogui/test/freeRtosTest.c ****         osDelay(10);
 131              		.loc 1 37 9 is_stmt 1 discriminator 1 view .LVU15
 132 004a 0A20     		movs	r0, #10
 133 004c FFF7FEFF 		bl	osDelay
 134              	.LVL11:
ARM GAS  C:\Users\GUILLE~1\AppData\Local\Temp\ccf6bjE9.s 			page 4


  34:Core/drogui/test/freeRtosTest.c ****         sprintf(buff, "%f\t%f ;\n", myIMU.gx/5, gx);
 135              		.loc 1 34 10 discriminator 1 view .LVU16
 136 0050 D8E7     		b	.L7
 137              	.L10:
 138 0052 00BF     		.align	2
 139              	.L9:
 140 0054 00000000 		.word	myIMU
 141 0058 00000000 		.word	.LANCHOR0
 142 005c 00000000 		.word	gx
 143 0060 00000000 		.word	.LC0
 144 0064 00000000 		.word	huart2
 145              		.cfi_endproc
 146              	.LFE182:
 148              		.section	.text.initSystem,"ax",%progbits
 149              		.align	1
 150              		.global	initSystem
 151              		.syntax unified
 152              		.thumb
 153              		.thumb_func
 154              		.fpu fpv5-sp-d16
 156              	initSystem:
 157              	.LFB183:
  38:Core/drogui/test/freeRtosTest.c ****     }
  39:Core/drogui/test/freeRtosTest.c **** }
  40:Core/drogui/test/freeRtosTest.c **** 
  41:Core/drogui/test/freeRtosTest.c **** void initSystem(){
 158              		.loc 1 41 18 view -0
 159              		.cfi_startproc
 160              		@ args = 0, pretend = 0, frame = 0
 161              		@ frame_needed = 0, uses_anonymous_args = 0
 162 0000 08B5     		push	{r3, lr}
 163              	.LCFI3:
 164              		.cfi_def_cfa_offset 8
 165              		.cfi_offset 3, -8
 166              		.cfi_offset 14, -4
  42:Core/drogui/test/freeRtosTest.c ****     blinkHandle = osThreadNew(blinkTask, NULL, &blinkAttributes);
 167              		.loc 1 42 5 view .LVU18
 168              		.loc 1 42 19 is_stmt 0 view .LVU19
 169 0002 074A     		ldr	r2, .L13
 170 0004 0021     		movs	r1, #0
 171 0006 0748     		ldr	r0, .L13+4
 172 0008 FFF7FEFF 		bl	osThreadNew
 173              	.LVL12:
 174              		.loc 1 42 17 view .LVU20
 175 000c 064B     		ldr	r3, .L13+8
 176 000e 1860     		str	r0, [r3]
  43:Core/drogui/test/freeRtosTest.c ****     debugHandle = osThreadNew(debugTask, NULL, &debugAttributes);
 177              		.loc 1 43 5 is_stmt 1 view .LVU21
 178              		.loc 1 43 19 is_stmt 0 view .LVU22
 179 0010 064A     		ldr	r2, .L13+12
 180 0012 0021     		movs	r1, #0
 181 0014 0648     		ldr	r0, .L13+16
 182 0016 FFF7FEFF 		bl	osThreadNew
 183              	.LVL13:
 184              		.loc 1 43 17 view .LVU23
 185 001a 064B     		ldr	r3, .L13+20
 186 001c 1860     		str	r0, [r3]
ARM GAS  C:\Users\GUILLE~1\AppData\Local\Temp\ccf6bjE9.s 			page 5


  44:Core/drogui/test/freeRtosTest.c **** }
 187              		.loc 1 44 1 view .LVU24
 188 001e 08BD     		pop	{r3, pc}
 189              	.L14:
 190              		.align	2
 191              	.L13:
 192 0020 00000000 		.word	.LANCHOR1
 193 0024 00000000 		.word	blinkTask
 194 0028 00000000 		.word	.LANCHOR2
 195 002c 00000000 		.word	.LANCHOR3
 196 0030 00000000 		.word	debugTask
 197 0034 00000000 		.word	.LANCHOR4
 198              		.cfi_endproc
 199              	.LFE183:
 201              		.global	buff
 202              		.global	blinkAttributes
 203              		.section	.rodata.str1.4,"aMS",%progbits,1
 204              		.align	2
 205              	.LC1:
 206 0000 626C696E 		.ascii	"blinkTask\000"
 206      6B546173 
 206      6B00
 207              		.global	blinkHandle
 208              		.global	debugAttributes
 209 000a 0000     		.align	2
 210              	.LC2:
 211 000c 64656275 		.ascii	"debugTask\000"
 211      67546173 
 211      6B00
 212              		.global	debugHandle
 213              		.section	.bss.blinkHandle,"aw",%nobits
 214              		.align	2
 215              		.set	.LANCHOR2,. + 0
 218              	blinkHandle:
 219 0000 00000000 		.space	4
 220              		.section	.bss.debugHandle,"aw",%nobits
 221              		.align	2
 222              		.set	.LANCHOR4,. + 0
 225              	debugHandle:
 226 0000 00000000 		.space	4
 227              		.section	.data.buff,"aw"
 228              		.align	2
 229              		.set	.LANCHOR0,. + 0
 232              	buff:
 233 0000 686F6C61 		.ascii	"hola\012\000"
 233      0A00
 234 0006 00000000 		.space	44
 234      00000000 
 234      00000000 
 234      00000000 
 234      00000000 
 235              		.section	.rodata.blinkAttributes,"a"
 236              		.align	2
 237              		.set	.LANCHOR1,. + 0
 240              	blinkAttributes:
 241 0000 00000000 		.word	.LC1
 242 0004 00000000 		.space	16
ARM GAS  C:\Users\GUILLE~1\AppData\Local\Temp\ccf6bjE9.s 			page 6


 242      00000000 
 242      00000000 
 242      00000000 
 243 0014 00020000 		.word	512
 244 0018 18000000 		.word	24
 245 001c 00000000 		.space	8
 245      00000000 
 246              		.section	.rodata.debugAttributes,"a"
 247              		.align	2
 248              		.set	.LANCHOR3,. + 0
 251              	debugAttributes:
 252 0000 0C000000 		.word	.LC2
 253 0004 00000000 		.space	16
 253      00000000 
 253      00000000 
 253      00000000 
 254 0014 00080000 		.word	2048
 255 0018 18000000 		.word	24
 256 001c 00000000 		.space	8
 256      00000000 
 257              		.text
 258              	.Letext0:
 259              		.file 2 "c:\\program files (x86)\\gnu arm embedded toolchain\\10 2020-q4-major\\arm-none-eabi\\inc
 260              		.file 3 "c:\\program files (x86)\\gnu arm embedded toolchain\\10 2020-q4-major\\arm-none-eabi\\inc
 261              		.file 4 "Drivers/CMSIS/Device/ST/STM32F7xx/Include/stm32f746xx.h"
 262              		.file 5 "Drivers/STM32F7xx_HAL_Driver/Inc/stm32f7xx_hal_def.h"
 263              		.file 6 "Drivers/STM32F7xx_HAL_Driver/Inc/stm32f7xx_hal_dma.h"
 264              		.file 7 "Drivers/STM32F7xx_HAL_Driver/Inc/stm32f7xx_hal_uart.h"
 265              		.file 8 "Middlewares/Third_Party/FreeRTOS/Source/CMSIS_RTOS_V2/cmsis_os2.h"
 266              		.file 9 "Core/drogui/include/MPU9250.h"
 267              		.file 10 "Core/Inc/usart.h"
 268              		.file 11 "Core/drogui/include/sensorsTasks.h"
 269              		.file 12 "c:\\program files (x86)\\gnu arm embedded toolchain\\10 2020-q4-major\\arm-none-eabi\\in
 270              		.file 13 "c:\\program files (x86)\\gnu arm embedded toolchain\\10 2020-q4-major\\arm-none-eabi\\in
 271              		.file 14 "Drivers/STM32F7xx_HAL_Driver/Inc/stm32f7xx_hal_gpio.h"
ARM GAS  C:\Users\GUILLE~1\AppData\Local\Temp\ccf6bjE9.s 			page 7


DEFINED SYMBOLS
                            *ABS*:00000000 freeRtosTest.c
C:\Users\GUILLE~1\AppData\Local\Temp\ccf6bjE9.s:18     .text.blinkTask:00000000 $t
C:\Users\GUILLE~1\AppData\Local\Temp\ccf6bjE9.s:26     .text.blinkTask:00000000 blinkTask
C:\Users\GUILLE~1\AppData\Local\Temp\ccf6bjE9.s:58     .text.blinkTask:00000014 $d
C:\Users\GUILLE~1\AppData\Local\Temp\ccf6bjE9.s:64     .rodata.debugTask.str1.4:00000000 $d
C:\Users\GUILLE~1\AppData\Local\Temp\ccf6bjE9.s:68     .text.debugTask:00000000 $t
C:\Users\GUILLE~1\AppData\Local\Temp\ccf6bjE9.s:75     .text.debugTask:00000000 debugTask
C:\Users\GUILLE~1\AppData\Local\Temp\ccf6bjE9.s:140    .text.debugTask:00000054 $d
C:\Users\GUILLE~1\AppData\Local\Temp\ccf6bjE9.s:149    .text.initSystem:00000000 $t
C:\Users\GUILLE~1\AppData\Local\Temp\ccf6bjE9.s:156    .text.initSystem:00000000 initSystem
C:\Users\GUILLE~1\AppData\Local\Temp\ccf6bjE9.s:192    .text.initSystem:00000020 $d
C:\Users\GUILLE~1\AppData\Local\Temp\ccf6bjE9.s:232    .data.buff:00000000 buff
C:\Users\GUILLE~1\AppData\Local\Temp\ccf6bjE9.s:240    .rodata.blinkAttributes:00000000 blinkAttributes
C:\Users\GUILLE~1\AppData\Local\Temp\ccf6bjE9.s:204    .rodata.str1.4:00000000 $d
C:\Users\GUILLE~1\AppData\Local\Temp\ccf6bjE9.s:218    .bss.blinkHandle:00000000 blinkHandle
C:\Users\GUILLE~1\AppData\Local\Temp\ccf6bjE9.s:251    .rodata.debugAttributes:00000000 debugAttributes
C:\Users\GUILLE~1\AppData\Local\Temp\ccf6bjE9.s:225    .bss.debugHandle:00000000 debugHandle
C:\Users\GUILLE~1\AppData\Local\Temp\ccf6bjE9.s:214    .bss.blinkHandle:00000000 $d
C:\Users\GUILLE~1\AppData\Local\Temp\ccf6bjE9.s:221    .bss.debugHandle:00000000 $d
C:\Users\GUILLE~1\AppData\Local\Temp\ccf6bjE9.s:228    .data.buff:00000000 $d
C:\Users\GUILLE~1\AppData\Local\Temp\ccf6bjE9.s:236    .rodata.blinkAttributes:00000000 $d
C:\Users\GUILLE~1\AppData\Local\Temp\ccf6bjE9.s:247    .rodata.debugAttributes:00000000 $d

UNDEFINED SYMBOLS
HAL_GPIO_TogglePin
osDelay
__aeabi_f2d
sprintf
strlen
HAL_UART_Transmit
myIMU
gx
huart2
osThreadNew
