ARM GAS  C:\Users\GUILLE~1\AppData\Local\Temp\ccyyrO17.s 			page 1


   1              		.cpu cortex-m7
   2              		.eabi_attribute 27, 1
   3              		.eabi_attribute 28, 1
   4              		.eabi_attribute 20, 1
   5              		.eabi_attribute 21, 1
   6              		.eabi_attribute 23, 3
   7              		.eabi_attribute 24, 1
   8              		.eabi_attribute 25, 1
   9              		.eabi_attribute 26, 1
  10              		.eabi_attribute 30, 1
  11              		.eabi_attribute 34, 1
  12              		.eabi_attribute 18, 4
  13              		.file	"i2c.c"
  14              		.text
  15              	.Ltext0:
  16              		.cfi_sections	.debug_frame
  17              		.section	.text.MX_I2C1_Init,"ax",%progbits
  18              		.align	1
  19              		.global	MX_I2C1_Init
  20              		.arch armv7e-m
  21              		.syntax unified
  22              		.thumb
  23              		.thumb_func
  24              		.fpu fpv5-sp-d16
  26              	MX_I2C1_Init:
  27              	.LFB144:
  28              		.file 1 "Core/Src/i2c.c"
   1:Core/Src/i2c.c **** /**
   2:Core/Src/i2c.c ****   ******************************************************************************
   3:Core/Src/i2c.c ****   * @file    i2c.c
   4:Core/Src/i2c.c ****   * @brief   This file provides code for the configuration
   5:Core/Src/i2c.c ****   *          of the I2C instances.
   6:Core/Src/i2c.c ****   ******************************************************************************
   7:Core/Src/i2c.c ****   * @attention
   8:Core/Src/i2c.c ****   *
   9:Core/Src/i2c.c ****   * <h2><center>&copy; Copyright (c) 2021 STMicroelectronics.
  10:Core/Src/i2c.c ****   * All rights reserved.</center></h2>
  11:Core/Src/i2c.c ****   *
  12:Core/Src/i2c.c ****   * This software component is licensed by ST under Ultimate Liberty license
  13:Core/Src/i2c.c ****   * SLA0044, the "License"; You may not use this file except in compliance with
  14:Core/Src/i2c.c ****   * the License. You may obtain a copy of the License at:
  15:Core/Src/i2c.c ****   *                             www.st.com/SLA0044
  16:Core/Src/i2c.c ****   *
  17:Core/Src/i2c.c ****   ******************************************************************************
  18:Core/Src/i2c.c ****   */
  19:Core/Src/i2c.c **** 
  20:Core/Src/i2c.c **** /* Includes ------------------------------------------------------------------*/
  21:Core/Src/i2c.c **** #include "i2c.h"
  22:Core/Src/i2c.c **** #include "main.h"
  23:Core/Src/i2c.c **** #include "usart.h"
  24:Core/Src/i2c.c **** #include <string.h>
  25:Core/Src/i2c.c **** #include <stdio.h>
  26:Core/Src/i2c.c **** 
  27:Core/Src/i2c.c **** /* USER CODE BEGIN 0 */
  28:Core/Src/i2c.c **** 
  29:Core/Src/i2c.c **** /* USER CODE END 0 */
  30:Core/Src/i2c.c **** 
ARM GAS  C:\Users\GUILLE~1\AppData\Local\Temp\ccyyrO17.s 			page 2


  31:Core/Src/i2c.c **** I2C_HandleTypeDef hi2c1;
  32:Core/Src/i2c.c **** I2C_HandleTypeDef hi2c4;
  33:Core/Src/i2c.c **** 
  34:Core/Src/i2c.c **** /* I2C1 init function */
  35:Core/Src/i2c.c **** void MX_I2C1_Init(void)
  36:Core/Src/i2c.c **** {
  29              		.loc 1 36 1 view -0
  30              		.cfi_startproc
  31              		@ args = 0, pretend = 0, frame = 0
  32              		@ frame_needed = 0, uses_anonymous_args = 0
  33 0000 08B5     		push	{r3, lr}
  34              	.LCFI0:
  35              		.cfi_def_cfa_offset 8
  36              		.cfi_offset 3, -8
  37              		.cfi_offset 14, -4
  37:Core/Src/i2c.c **** 
  38:Core/Src/i2c.c ****   /* USER CODE BEGIN I2C1_Init 0 */
  39:Core/Src/i2c.c **** 
  40:Core/Src/i2c.c ****   /* USER CODE END I2C1_Init 0 */
  41:Core/Src/i2c.c **** 
  42:Core/Src/i2c.c ****   /* USER CODE BEGIN I2C1_Init 1 */
  43:Core/Src/i2c.c **** 
  44:Core/Src/i2c.c ****   /* USER CODE END I2C1_Init 1 */
  45:Core/Src/i2c.c ****   hi2c1.Instance = I2C1;
  38              		.loc 1 45 3 view .LVU1
  39              		.loc 1 45 18 is_stmt 0 view .LVU2
  40 0002 1248     		ldr	r0, .L9
  41 0004 124B     		ldr	r3, .L9+4
  42 0006 0360     		str	r3, [r0]
  46:Core/Src/i2c.c ****   hi2c1.Init.Timing = 0x00401959;
  43              		.loc 1 46 3 is_stmt 1 view .LVU3
  44              		.loc 1 46 21 is_stmt 0 view .LVU4
  45 0008 124B     		ldr	r3, .L9+8
  46 000a 4360     		str	r3, [r0, #4]
  47:Core/Src/i2c.c ****   hi2c1.Init.OwnAddress1 = 0;
  47              		.loc 1 47 3 is_stmt 1 view .LVU5
  48              		.loc 1 47 26 is_stmt 0 view .LVU6
  49 000c 0023     		movs	r3, #0
  50 000e 8360     		str	r3, [r0, #8]
  48:Core/Src/i2c.c ****   hi2c1.Init.AddressingMode = I2C_ADDRESSINGMODE_7BIT;
  51              		.loc 1 48 3 is_stmt 1 view .LVU7
  52              		.loc 1 48 29 is_stmt 0 view .LVU8
  53 0010 0122     		movs	r2, #1
  54 0012 C260     		str	r2, [r0, #12]
  49:Core/Src/i2c.c ****   hi2c1.Init.DualAddressMode = I2C_DUALADDRESS_DISABLE;
  55              		.loc 1 49 3 is_stmt 1 view .LVU9
  56              		.loc 1 49 30 is_stmt 0 view .LVU10
  57 0014 0361     		str	r3, [r0, #16]
  50:Core/Src/i2c.c ****   hi2c1.Init.OwnAddress2 = 0;
  58              		.loc 1 50 3 is_stmt 1 view .LVU11
  59              		.loc 1 50 26 is_stmt 0 view .LVU12
  60 0016 4361     		str	r3, [r0, #20]
  51:Core/Src/i2c.c ****   hi2c1.Init.OwnAddress2Masks = I2C_OA2_NOMASK;
  61              		.loc 1 51 3 is_stmt 1 view .LVU13
  62              		.loc 1 51 31 is_stmt 0 view .LVU14
  63 0018 8361     		str	r3, [r0, #24]
  52:Core/Src/i2c.c ****   hi2c1.Init.GeneralCallMode = I2C_GENERALCALL_DISABLE;
ARM GAS  C:\Users\GUILLE~1\AppData\Local\Temp\ccyyrO17.s 			page 3


  64              		.loc 1 52 3 is_stmt 1 view .LVU15
  65              		.loc 1 52 30 is_stmt 0 view .LVU16
  66 001a C361     		str	r3, [r0, #28]
  53:Core/Src/i2c.c ****   hi2c1.Init.NoStretchMode = I2C_NOSTRETCH_DISABLE;
  67              		.loc 1 53 3 is_stmt 1 view .LVU17
  68              		.loc 1 53 28 is_stmt 0 view .LVU18
  69 001c 0362     		str	r3, [r0, #32]
  54:Core/Src/i2c.c ****   if (HAL_I2C_Init(&hi2c1) != HAL_OK)
  70              		.loc 1 54 3 is_stmt 1 view .LVU19
  71              		.loc 1 54 7 is_stmt 0 view .LVU20
  72 001e FFF7FEFF 		bl	HAL_I2C_Init
  73              	.LVL0:
  74              		.loc 1 54 6 view .LVU21
  75 0022 50B9     		cbnz	r0, .L6
  76              	.L2:
  55:Core/Src/i2c.c ****   {
  56:Core/Src/i2c.c ****     Error_Handler();
  57:Core/Src/i2c.c ****   }
  58:Core/Src/i2c.c ****   /** Configure Analogue filter
  59:Core/Src/i2c.c ****   */
  60:Core/Src/i2c.c ****   if (HAL_I2CEx_ConfigAnalogFilter(&hi2c1, I2C_ANALOGFILTER_ENABLE) != HAL_OK)
  77              		.loc 1 60 3 is_stmt 1 view .LVU22
  78              		.loc 1 60 7 is_stmt 0 view .LVU23
  79 0024 0021     		movs	r1, #0
  80 0026 0948     		ldr	r0, .L9
  81 0028 FFF7FEFF 		bl	HAL_I2CEx_ConfigAnalogFilter
  82              	.LVL1:
  83              		.loc 1 60 6 view .LVU24
  84 002c 40B9     		cbnz	r0, .L7
  85              	.L3:
  61:Core/Src/i2c.c ****   {
  62:Core/Src/i2c.c ****     Error_Handler();
  63:Core/Src/i2c.c ****   }
  64:Core/Src/i2c.c ****   /** Configure Digital filter
  65:Core/Src/i2c.c ****   */
  66:Core/Src/i2c.c ****   if (HAL_I2CEx_ConfigDigitalFilter(&hi2c1, 0) != HAL_OK)
  86              		.loc 1 66 3 is_stmt 1 view .LVU25
  87              		.loc 1 66 7 is_stmt 0 view .LVU26
  88 002e 0021     		movs	r1, #0
  89 0030 0648     		ldr	r0, .L9
  90 0032 FFF7FEFF 		bl	HAL_I2CEx_ConfigDigitalFilter
  91              	.LVL2:
  92              		.loc 1 66 6 view .LVU27
  93 0036 30B9     		cbnz	r0, .L8
  94              	.L1:
  67:Core/Src/i2c.c ****   {
  68:Core/Src/i2c.c ****     Error_Handler();
  69:Core/Src/i2c.c ****   }
  70:Core/Src/i2c.c ****   /* USER CODE BEGIN I2C1_Init 2 */
  71:Core/Src/i2c.c **** 
  72:Core/Src/i2c.c ****   /* USER CODE END I2C1_Init 2 */
  73:Core/Src/i2c.c **** 
  74:Core/Src/i2c.c **** }
  95              		.loc 1 74 1 view .LVU28
  96 0038 08BD     		pop	{r3, pc}
  97              	.L6:
  56:Core/Src/i2c.c ****   }
ARM GAS  C:\Users\GUILLE~1\AppData\Local\Temp\ccyyrO17.s 			page 4


  98              		.loc 1 56 5 is_stmt 1 view .LVU29
  99 003a FFF7FEFF 		bl	Error_Handler
 100              	.LVL3:
 101 003e F1E7     		b	.L2
 102              	.L7:
  62:Core/Src/i2c.c ****   }
 103              		.loc 1 62 5 view .LVU30
 104 0040 FFF7FEFF 		bl	Error_Handler
 105              	.LVL4:
 106 0044 F3E7     		b	.L3
 107              	.L8:
  68:Core/Src/i2c.c ****   }
 108              		.loc 1 68 5 view .LVU31
 109 0046 FFF7FEFF 		bl	Error_Handler
 110              	.LVL5:
 111              		.loc 1 74 1 is_stmt 0 view .LVU32
 112 004a F5E7     		b	.L1
 113              	.L10:
 114              		.align	2
 115              	.L9:
 116 004c 00000000 		.word	.LANCHOR0
 117 0050 00540040 		.word	1073763328
 118 0054 59194000 		.word	4200793
 119              		.cfi_endproc
 120              	.LFE144:
 122              		.section	.text.MX_I2C4_Init,"ax",%progbits
 123              		.align	1
 124              		.global	MX_I2C4_Init
 125              		.syntax unified
 126              		.thumb
 127              		.thumb_func
 128              		.fpu fpv5-sp-d16
 130              	MX_I2C4_Init:
 131              	.LFB145:
  75:Core/Src/i2c.c **** /* I2C4 init function */
  76:Core/Src/i2c.c **** void MX_I2C4_Init(void)
  77:Core/Src/i2c.c **** {
 132              		.loc 1 77 1 is_stmt 1 view -0
 133              		.cfi_startproc
 134              		@ args = 0, pretend = 0, frame = 0
 135              		@ frame_needed = 0, uses_anonymous_args = 0
 136 0000 08B5     		push	{r3, lr}
 137              	.LCFI1:
 138              		.cfi_def_cfa_offset 8
 139              		.cfi_offset 3, -8
 140              		.cfi_offset 14, -4
  78:Core/Src/i2c.c **** 
  79:Core/Src/i2c.c ****   /* USER CODE BEGIN I2C4_Init 0 */
  80:Core/Src/i2c.c **** 
  81:Core/Src/i2c.c ****   /* USER CODE END I2C4_Init 0 */
  82:Core/Src/i2c.c **** 
  83:Core/Src/i2c.c ****   /* USER CODE BEGIN I2C4_Init 1 */
  84:Core/Src/i2c.c **** 
  85:Core/Src/i2c.c ****   /* USER CODE END I2C4_Init 1 */
  86:Core/Src/i2c.c ****   hi2c4.Instance = I2C4;
 141              		.loc 1 86 3 view .LVU34
 142              		.loc 1 86 18 is_stmt 0 view .LVU35
ARM GAS  C:\Users\GUILLE~1\AppData\Local\Temp\ccyyrO17.s 			page 5


 143 0002 1448     		ldr	r0, .L19
 144 0004 144B     		ldr	r3, .L19+4
 145 0006 0360     		str	r3, [r0]
  87:Core/Src/i2c.c ****   hi2c4.Init.Timing = 0x00401959;
 146              		.loc 1 87 3 is_stmt 1 view .LVU36
 147              		.loc 1 87 21 is_stmt 0 view .LVU37
 148 0008 144B     		ldr	r3, .L19+8
 149 000a 4360     		str	r3, [r0, #4]
  88:Core/Src/i2c.c ****   hi2c4.Init.OwnAddress1 = 192;
 150              		.loc 1 88 3 is_stmt 1 view .LVU38
 151              		.loc 1 88 26 is_stmt 0 view .LVU39
 152 000c C023     		movs	r3, #192
 153 000e 8360     		str	r3, [r0, #8]
  89:Core/Src/i2c.c ****   hi2c4.Init.AddressingMode = I2C_ADDRESSINGMODE_7BIT;
 154              		.loc 1 89 3 is_stmt 1 view .LVU40
 155              		.loc 1 89 29 is_stmt 0 view .LVU41
 156 0010 0123     		movs	r3, #1
 157 0012 C360     		str	r3, [r0, #12]
  90:Core/Src/i2c.c ****   hi2c4.Init.DualAddressMode = I2C_DUALADDRESS_DISABLE;
 158              		.loc 1 90 3 is_stmt 1 view .LVU42
 159              		.loc 1 90 30 is_stmt 0 view .LVU43
 160 0014 0023     		movs	r3, #0
 161 0016 0361     		str	r3, [r0, #16]
  91:Core/Src/i2c.c ****   hi2c4.Init.OwnAddress2 = 0;
 162              		.loc 1 91 3 is_stmt 1 view .LVU44
 163              		.loc 1 91 26 is_stmt 0 view .LVU45
 164 0018 4361     		str	r3, [r0, #20]
  92:Core/Src/i2c.c ****   hi2c4.Init.OwnAddress2Masks = I2C_OA2_NOMASK;
 165              		.loc 1 92 3 is_stmt 1 view .LVU46
 166              		.loc 1 92 31 is_stmt 0 view .LVU47
 167 001a 8361     		str	r3, [r0, #24]
  93:Core/Src/i2c.c ****   hi2c4.Init.GeneralCallMode = I2C_GENERALCALL_DISABLE;
 168              		.loc 1 93 3 is_stmt 1 view .LVU48
 169              		.loc 1 93 30 is_stmt 0 view .LVU49
 170 001c C361     		str	r3, [r0, #28]
  94:Core/Src/i2c.c ****   hi2c4.Init.NoStretchMode = I2C_NOSTRETCH_DISABLE;
 171              		.loc 1 94 3 is_stmt 1 view .LVU50
 172              		.loc 1 94 28 is_stmt 0 view .LVU51
 173 001e 0362     		str	r3, [r0, #32]
  95:Core/Src/i2c.c ****   if (HAL_I2C_Init(&hi2c4) != HAL_OK)
 174              		.loc 1 95 3 is_stmt 1 view .LVU52
 175              		.loc 1 95 7 is_stmt 0 view .LVU53
 176 0020 FFF7FEFF 		bl	HAL_I2C_Init
 177              	.LVL6:
 178              		.loc 1 95 6 view .LVU54
 179 0024 68B9     		cbnz	r0, .L16
 180              	.L12:
  96:Core/Src/i2c.c ****   {
  97:Core/Src/i2c.c ****     Error_Handler();
  98:Core/Src/i2c.c ****   }
  99:Core/Src/i2c.c ****   /** Configure Analogue filter
 100:Core/Src/i2c.c ****   */
 101:Core/Src/i2c.c ****   if (HAL_I2CEx_ConfigAnalogFilter(&hi2c4, I2C_ANALOGFILTER_ENABLE) != HAL_OK)
 181              		.loc 1 101 3 is_stmt 1 view .LVU55
 182              		.loc 1 101 7 is_stmt 0 view .LVU56
 183 0026 0021     		movs	r1, #0
 184 0028 0A48     		ldr	r0, .L19
ARM GAS  C:\Users\GUILLE~1\AppData\Local\Temp\ccyyrO17.s 			page 6


 185 002a FFF7FEFF 		bl	HAL_I2CEx_ConfigAnalogFilter
 186              	.LVL7:
 187              		.loc 1 101 6 view .LVU57
 188 002e 58B9     		cbnz	r0, .L17
 189              	.L13:
 102:Core/Src/i2c.c ****   {
 103:Core/Src/i2c.c ****     Error_Handler();
 104:Core/Src/i2c.c ****   }
 105:Core/Src/i2c.c ****   /** Configure Digital filter
 106:Core/Src/i2c.c ****   */
 107:Core/Src/i2c.c ****   if (HAL_I2CEx_ConfigDigitalFilter(&hi2c4, 0) != HAL_OK)
 190              		.loc 1 107 3 is_stmt 1 view .LVU58
 191              		.loc 1 107 7 is_stmt 0 view .LVU59
 192 0030 0021     		movs	r1, #0
 193 0032 0848     		ldr	r0, .L19
 194 0034 FFF7FEFF 		bl	HAL_I2CEx_ConfigDigitalFilter
 195              	.LVL8:
 196              		.loc 1 107 6 view .LVU60
 197 0038 48B9     		cbnz	r0, .L18
 198              	.L14:
 108:Core/Src/i2c.c ****   {
 109:Core/Src/i2c.c ****     Error_Handler();
 110:Core/Src/i2c.c ****   }
 111:Core/Src/i2c.c **** 
 112:Core/Src/i2c.c ****   HAL_I2C_EnableListen_IT(&hi2c4);  //Enable slave interrupt reception
 199              		.loc 1 112 3 is_stmt 1 view .LVU61
 200 003a 0648     		ldr	r0, .L19
 201 003c FFF7FEFF 		bl	HAL_I2C_EnableListen_IT
 202              	.LVL9:
 113:Core/Src/i2c.c **** 
 114:Core/Src/i2c.c **** }
 203              		.loc 1 114 1 is_stmt 0 view .LVU62
 204 0040 08BD     		pop	{r3, pc}
 205              	.L16:
  97:Core/Src/i2c.c ****   }
 206              		.loc 1 97 5 is_stmt 1 view .LVU63
 207 0042 FFF7FEFF 		bl	Error_Handler
 208              	.LVL10:
 209 0046 EEE7     		b	.L12
 210              	.L17:
 103:Core/Src/i2c.c ****   }
 211              		.loc 1 103 5 view .LVU64
 212 0048 FFF7FEFF 		bl	Error_Handler
 213              	.LVL11:
 214 004c F0E7     		b	.L13
 215              	.L18:
 109:Core/Src/i2c.c ****   }
 216              		.loc 1 109 5 view .LVU65
 217 004e FFF7FEFF 		bl	Error_Handler
 218              	.LVL12:
 219 0052 F2E7     		b	.L14
 220              	.L20:
 221              		.align	2
 222              	.L19:
 223 0054 00000000 		.word	.LANCHOR1
 224 0058 00600040 		.word	1073766400
 225 005c 59194000 		.word	4200793
ARM GAS  C:\Users\GUILLE~1\AppData\Local\Temp\ccyyrO17.s 			page 7


 226              		.cfi_endproc
 227              	.LFE145:
 229              		.section	.text.HAL_I2C_MspInit,"ax",%progbits
 230              		.align	1
 231              		.global	HAL_I2C_MspInit
 232              		.syntax unified
 233              		.thumb
 234              		.thumb_func
 235              		.fpu fpv5-sp-d16
 237              	HAL_I2C_MspInit:
 238              	.LVL13:
 239              	.LFB146:
 115:Core/Src/i2c.c **** 
 116:Core/Src/i2c.c **** void HAL_I2C_MspInit(I2C_HandleTypeDef* i2cHandle)
 117:Core/Src/i2c.c **** {
 240              		.loc 1 117 1 view -0
 241              		.cfi_startproc
 242              		@ args = 0, pretend = 0, frame = 40
 243              		@ frame_needed = 0, uses_anonymous_args = 0
 244              		.loc 1 117 1 is_stmt 0 view .LVU67
 245 0000 10B5     		push	{r4, lr}
 246              	.LCFI2:
 247              		.cfi_def_cfa_offset 8
 248              		.cfi_offset 4, -8
 249              		.cfi_offset 14, -4
 250 0002 8AB0     		sub	sp, sp, #40
 251              	.LCFI3:
 252              		.cfi_def_cfa_offset 48
 118:Core/Src/i2c.c **** 
 119:Core/Src/i2c.c ****   GPIO_InitTypeDef GPIO_InitStruct = {0};
 253              		.loc 1 119 3 is_stmt 1 view .LVU68
 254              		.loc 1 119 20 is_stmt 0 view .LVU69
 255 0004 0023     		movs	r3, #0
 256 0006 0593     		str	r3, [sp, #20]
 257 0008 0693     		str	r3, [sp, #24]
 258 000a 0793     		str	r3, [sp, #28]
 259 000c 0893     		str	r3, [sp, #32]
 260 000e 0993     		str	r3, [sp, #36]
 120:Core/Src/i2c.c ****   if(i2cHandle->Instance==I2C1)
 261              		.loc 1 120 3 is_stmt 1 view .LVU70
 262              		.loc 1 120 15 is_stmt 0 view .LVU71
 263 0010 0368     		ldr	r3, [r0]
 264              		.loc 1 120 5 view .LVU72
 265 0012 2A4A     		ldr	r2, .L27
 266 0014 9342     		cmp	r3, r2
 267 0016 04D0     		beq	.L25
 121:Core/Src/i2c.c ****   {
 122:Core/Src/i2c.c ****   /* USER CODE BEGIN I2C1_MspInit 0 */
 123:Core/Src/i2c.c **** 
 124:Core/Src/i2c.c ****   /* USER CODE END I2C1_MspInit 0 */
 125:Core/Src/i2c.c **** 
 126:Core/Src/i2c.c ****     __HAL_RCC_GPIOB_CLK_ENABLE();
 127:Core/Src/i2c.c ****     /**I2C1 GPIO Configuration
 128:Core/Src/i2c.c ****     PB6     ------> I2C1_SCL
 129:Core/Src/i2c.c ****     PB7     ------> I2C1_SDA
 130:Core/Src/i2c.c ****     */
 131:Core/Src/i2c.c ****     GPIO_InitStruct.Pin = GPIO_PIN_6|GPIO_PIN_7;
ARM GAS  C:\Users\GUILLE~1\AppData\Local\Temp\ccyyrO17.s 			page 8


 132:Core/Src/i2c.c ****     GPIO_InitStruct.Mode = GPIO_MODE_AF_OD;
 133:Core/Src/i2c.c ****     GPIO_InitStruct.Pull = GPIO_PULLUP;
 134:Core/Src/i2c.c ****     GPIO_InitStruct.Speed = GPIO_SPEED_FREQ_VERY_HIGH;
 135:Core/Src/i2c.c ****     GPIO_InitStruct.Alternate = GPIO_AF4_I2C1;
 136:Core/Src/i2c.c ****     HAL_GPIO_Init(GPIOB, &GPIO_InitStruct);
 137:Core/Src/i2c.c **** 
 138:Core/Src/i2c.c ****     /* I2C1 clock enable */
 139:Core/Src/i2c.c ****     __HAL_RCC_I2C1_CLK_ENABLE();
 140:Core/Src/i2c.c ****   /* USER CODE BEGIN I2C1_MspInit 1 */
 141:Core/Src/i2c.c **** 
 142:Core/Src/i2c.c ****   /* USER CODE END I2C1_MspInit 1 */
 143:Core/Src/i2c.c ****   }
 144:Core/Src/i2c.c ****   else if(i2cHandle->Instance==I2C4)
 268              		.loc 1 144 8 is_stmt 1 view .LVU73
 269              		.loc 1 144 10 is_stmt 0 view .LVU74
 270 0018 294A     		ldr	r2, .L27+4
 271 001a 9342     		cmp	r3, r2
 272 001c 23D0     		beq	.L26
 273              	.LVL14:
 274              	.L21:
 145:Core/Src/i2c.c ****   {
 146:Core/Src/i2c.c ****   /* USER CODE BEGIN I2C4_MspInit 0 */
 147:Core/Src/i2c.c **** 
 148:Core/Src/i2c.c ****   /* USER CODE END I2C4_MspInit 0 */
 149:Core/Src/i2c.c **** 
 150:Core/Src/i2c.c ****     __HAL_RCC_GPIOD_CLK_ENABLE();
 151:Core/Src/i2c.c ****     /**I2C4 GPIO Configuration
 152:Core/Src/i2c.c ****     PD12     ------> I2C4_SCL
 153:Core/Src/i2c.c ****     PD13     ------> I2C4_SDA
 154:Core/Src/i2c.c ****     */
 155:Core/Src/i2c.c ****     GPIO_InitStruct.Pin = GPIO_PIN_12|GPIO_PIN_13;
 156:Core/Src/i2c.c ****     GPIO_InitStruct.Mode = GPIO_MODE_AF_OD;
 157:Core/Src/i2c.c ****     GPIO_InitStruct.Pull = GPIO_PULLUP;
 158:Core/Src/i2c.c ****     GPIO_InitStruct.Speed = GPIO_SPEED_FREQ_VERY_HIGH;
 159:Core/Src/i2c.c ****     GPIO_InitStruct.Alternate = GPIO_AF4_I2C4;
 160:Core/Src/i2c.c ****     HAL_GPIO_Init(GPIOD, &GPIO_InitStruct);
 161:Core/Src/i2c.c **** 
 162:Core/Src/i2c.c ****     /* I2C4 clock enable */
 163:Core/Src/i2c.c ****     __HAL_RCC_I2C4_CLK_ENABLE();
 164:Core/Src/i2c.c **** 
 165:Core/Src/i2c.c ****     /* I2C4 interrupt Init */
 166:Core/Src/i2c.c ****     HAL_NVIC_SetPriority(I2C4_EV_IRQn, 5, 0);
 167:Core/Src/i2c.c ****     HAL_NVIC_EnableIRQ(I2C4_EV_IRQn);
 168:Core/Src/i2c.c ****   /* USER CODE BEGIN I2C4_MspInit 1 */
 169:Core/Src/i2c.c **** 
 170:Core/Src/i2c.c ****   /* USER CODE END I2C4_MspInit 1 */
 171:Core/Src/i2c.c ****   }
 172:Core/Src/i2c.c **** }
 275              		.loc 1 172 1 view .LVU75
 276 001e 0AB0     		add	sp, sp, #40
 277              	.LCFI4:
 278              		.cfi_remember_state
 279              		.cfi_def_cfa_offset 8
 280              		@ sp needed
 281 0020 10BD     		pop	{r4, pc}
 282              	.LVL15:
 283              	.L25:
ARM GAS  C:\Users\GUILLE~1\AppData\Local\Temp\ccyyrO17.s 			page 9


 284              	.LCFI5:
 285              		.cfi_restore_state
 126:Core/Src/i2c.c ****     /**I2C1 GPIO Configuration
 286              		.loc 1 126 5 is_stmt 1 view .LVU76
 287              	.LBB2:
 126:Core/Src/i2c.c ****     /**I2C1 GPIO Configuration
 288              		.loc 1 126 5 view .LVU77
 126:Core/Src/i2c.c ****     /**I2C1 GPIO Configuration
 289              		.loc 1 126 5 view .LVU78
 290 0022 284C     		ldr	r4, .L27+8
 291 0024 236B     		ldr	r3, [r4, #48]
 292 0026 43F00203 		orr	r3, r3, #2
 293 002a 2363     		str	r3, [r4, #48]
 126:Core/Src/i2c.c ****     /**I2C1 GPIO Configuration
 294              		.loc 1 126 5 view .LVU79
 295 002c 236B     		ldr	r3, [r4, #48]
 296 002e 03F00203 		and	r3, r3, #2
 297 0032 0193     		str	r3, [sp, #4]
 126:Core/Src/i2c.c ****     /**I2C1 GPIO Configuration
 298              		.loc 1 126 5 view .LVU80
 299 0034 019B     		ldr	r3, [sp, #4]
 300              	.LBE2:
 126:Core/Src/i2c.c ****     /**I2C1 GPIO Configuration
 301              		.loc 1 126 5 view .LVU81
 131:Core/Src/i2c.c ****     GPIO_InitStruct.Mode = GPIO_MODE_AF_OD;
 302              		.loc 1 131 5 view .LVU82
 131:Core/Src/i2c.c ****     GPIO_InitStruct.Mode = GPIO_MODE_AF_OD;
 303              		.loc 1 131 25 is_stmt 0 view .LVU83
 304 0036 C023     		movs	r3, #192
 305 0038 0593     		str	r3, [sp, #20]
 132:Core/Src/i2c.c ****     GPIO_InitStruct.Pull = GPIO_PULLUP;
 306              		.loc 1 132 5 is_stmt 1 view .LVU84
 132:Core/Src/i2c.c ****     GPIO_InitStruct.Pull = GPIO_PULLUP;
 307              		.loc 1 132 26 is_stmt 0 view .LVU85
 308 003a 1223     		movs	r3, #18
 309 003c 0693     		str	r3, [sp, #24]
 133:Core/Src/i2c.c ****     GPIO_InitStruct.Speed = GPIO_SPEED_FREQ_VERY_HIGH;
 310              		.loc 1 133 5 is_stmt 1 view .LVU86
 133:Core/Src/i2c.c ****     GPIO_InitStruct.Speed = GPIO_SPEED_FREQ_VERY_HIGH;
 311              		.loc 1 133 26 is_stmt 0 view .LVU87
 312 003e 0123     		movs	r3, #1
 313 0040 0793     		str	r3, [sp, #28]
 134:Core/Src/i2c.c ****     GPIO_InitStruct.Alternate = GPIO_AF4_I2C1;
 314              		.loc 1 134 5 is_stmt 1 view .LVU88
 134:Core/Src/i2c.c ****     GPIO_InitStruct.Alternate = GPIO_AF4_I2C1;
 315              		.loc 1 134 27 is_stmt 0 view .LVU89
 316 0042 0323     		movs	r3, #3
 317 0044 0893     		str	r3, [sp, #32]
 135:Core/Src/i2c.c ****     HAL_GPIO_Init(GPIOB, &GPIO_InitStruct);
 318              		.loc 1 135 5 is_stmt 1 view .LVU90
 135:Core/Src/i2c.c ****     HAL_GPIO_Init(GPIOB, &GPIO_InitStruct);
 319              		.loc 1 135 31 is_stmt 0 view .LVU91
 320 0046 0423     		movs	r3, #4
 321 0048 0993     		str	r3, [sp, #36]
 136:Core/Src/i2c.c **** 
 322              		.loc 1 136 5 is_stmt 1 view .LVU92
 323 004a 05A9     		add	r1, sp, #20
ARM GAS  C:\Users\GUILLE~1\AppData\Local\Temp\ccyyrO17.s 			page 10


 324 004c 1E48     		ldr	r0, .L27+12
 325              	.LVL16:
 136:Core/Src/i2c.c **** 
 326              		.loc 1 136 5 is_stmt 0 view .LVU93
 327 004e FFF7FEFF 		bl	HAL_GPIO_Init
 328              	.LVL17:
 139:Core/Src/i2c.c ****   /* USER CODE BEGIN I2C1_MspInit 1 */
 329              		.loc 1 139 5 is_stmt 1 view .LVU94
 330              	.LBB3:
 139:Core/Src/i2c.c ****   /* USER CODE BEGIN I2C1_MspInit 1 */
 331              		.loc 1 139 5 view .LVU95
 139:Core/Src/i2c.c ****   /* USER CODE BEGIN I2C1_MspInit 1 */
 332              		.loc 1 139 5 view .LVU96
 333 0052 236C     		ldr	r3, [r4, #64]
 334 0054 43F40013 		orr	r3, r3, #2097152
 335 0058 2364     		str	r3, [r4, #64]
 139:Core/Src/i2c.c ****   /* USER CODE BEGIN I2C1_MspInit 1 */
 336              		.loc 1 139 5 view .LVU97
 337 005a 236C     		ldr	r3, [r4, #64]
 338 005c 03F40013 		and	r3, r3, #2097152
 339 0060 0293     		str	r3, [sp, #8]
 139:Core/Src/i2c.c ****   /* USER CODE BEGIN I2C1_MspInit 1 */
 340              		.loc 1 139 5 view .LVU98
 341 0062 029B     		ldr	r3, [sp, #8]
 342              	.LBE3:
 139:Core/Src/i2c.c ****   /* USER CODE BEGIN I2C1_MspInit 1 */
 343              		.loc 1 139 5 view .LVU99
 344 0064 DBE7     		b	.L21
 345              	.LVL18:
 346              	.L26:
 150:Core/Src/i2c.c ****     /**I2C4 GPIO Configuration
 347              		.loc 1 150 5 view .LVU100
 348              	.LBB4:
 150:Core/Src/i2c.c ****     /**I2C4 GPIO Configuration
 349              		.loc 1 150 5 view .LVU101
 150:Core/Src/i2c.c ****     /**I2C4 GPIO Configuration
 350              		.loc 1 150 5 view .LVU102
 351 0066 174C     		ldr	r4, .L27+8
 352 0068 236B     		ldr	r3, [r4, #48]
 353 006a 43F00803 		orr	r3, r3, #8
 354 006e 2363     		str	r3, [r4, #48]
 150:Core/Src/i2c.c ****     /**I2C4 GPIO Configuration
 355              		.loc 1 150 5 view .LVU103
 356 0070 236B     		ldr	r3, [r4, #48]
 357 0072 03F00803 		and	r3, r3, #8
 358 0076 0393     		str	r3, [sp, #12]
 150:Core/Src/i2c.c ****     /**I2C4 GPIO Configuration
 359              		.loc 1 150 5 view .LVU104
 360 0078 039B     		ldr	r3, [sp, #12]
 361              	.LBE4:
 150:Core/Src/i2c.c ****     /**I2C4 GPIO Configuration
 362              		.loc 1 150 5 view .LVU105
 155:Core/Src/i2c.c ****     GPIO_InitStruct.Mode = GPIO_MODE_AF_OD;
 363              		.loc 1 155 5 view .LVU106
 155:Core/Src/i2c.c ****     GPIO_InitStruct.Mode = GPIO_MODE_AF_OD;
 364              		.loc 1 155 25 is_stmt 0 view .LVU107
 365 007a 4FF44053 		mov	r3, #12288
ARM GAS  C:\Users\GUILLE~1\AppData\Local\Temp\ccyyrO17.s 			page 11


 366 007e 0593     		str	r3, [sp, #20]
 156:Core/Src/i2c.c ****     GPIO_InitStruct.Pull = GPIO_PULLUP;
 367              		.loc 1 156 5 is_stmt 1 view .LVU108
 156:Core/Src/i2c.c ****     GPIO_InitStruct.Pull = GPIO_PULLUP;
 368              		.loc 1 156 26 is_stmt 0 view .LVU109
 369 0080 1223     		movs	r3, #18
 370 0082 0693     		str	r3, [sp, #24]
 157:Core/Src/i2c.c ****     GPIO_InitStruct.Speed = GPIO_SPEED_FREQ_VERY_HIGH;
 371              		.loc 1 157 5 is_stmt 1 view .LVU110
 157:Core/Src/i2c.c ****     GPIO_InitStruct.Speed = GPIO_SPEED_FREQ_VERY_HIGH;
 372              		.loc 1 157 26 is_stmt 0 view .LVU111
 373 0084 0123     		movs	r3, #1
 374 0086 0793     		str	r3, [sp, #28]
 158:Core/Src/i2c.c ****     GPIO_InitStruct.Alternate = GPIO_AF4_I2C4;
 375              		.loc 1 158 5 is_stmt 1 view .LVU112
 158:Core/Src/i2c.c ****     GPIO_InitStruct.Alternate = GPIO_AF4_I2C4;
 376              		.loc 1 158 27 is_stmt 0 view .LVU113
 377 0088 0323     		movs	r3, #3
 378 008a 0893     		str	r3, [sp, #32]
 159:Core/Src/i2c.c ****     HAL_GPIO_Init(GPIOD, &GPIO_InitStruct);
 379              		.loc 1 159 5 is_stmt 1 view .LVU114
 159:Core/Src/i2c.c ****     HAL_GPIO_Init(GPIOD, &GPIO_InitStruct);
 380              		.loc 1 159 31 is_stmt 0 view .LVU115
 381 008c 0423     		movs	r3, #4
 382 008e 0993     		str	r3, [sp, #36]
 160:Core/Src/i2c.c **** 
 383              		.loc 1 160 5 is_stmt 1 view .LVU116
 384 0090 05A9     		add	r1, sp, #20
 385 0092 0E48     		ldr	r0, .L27+16
 386              	.LVL19:
 160:Core/Src/i2c.c **** 
 387              		.loc 1 160 5 is_stmt 0 view .LVU117
 388 0094 FFF7FEFF 		bl	HAL_GPIO_Init
 389              	.LVL20:
 163:Core/Src/i2c.c **** 
 390              		.loc 1 163 5 is_stmt 1 view .LVU118
 391              	.LBB5:
 163:Core/Src/i2c.c **** 
 392              		.loc 1 163 5 view .LVU119
 163:Core/Src/i2c.c **** 
 393              		.loc 1 163 5 view .LVU120
 394 0098 236C     		ldr	r3, [r4, #64]
 395 009a 43F08073 		orr	r3, r3, #16777216
 396 009e 2364     		str	r3, [r4, #64]
 163:Core/Src/i2c.c **** 
 397              		.loc 1 163 5 view .LVU121
 398 00a0 236C     		ldr	r3, [r4, #64]
 399 00a2 03F08073 		and	r3, r3, #16777216
 400 00a6 0493     		str	r3, [sp, #16]
 163:Core/Src/i2c.c **** 
 401              		.loc 1 163 5 view .LVU122
 402 00a8 049B     		ldr	r3, [sp, #16]
 403              	.LBE5:
 163:Core/Src/i2c.c **** 
 404              		.loc 1 163 5 view .LVU123
 166:Core/Src/i2c.c ****     HAL_NVIC_EnableIRQ(I2C4_EV_IRQn);
 405              		.loc 1 166 5 view .LVU124
ARM GAS  C:\Users\GUILLE~1\AppData\Local\Temp\ccyyrO17.s 			page 12


 406 00aa 0022     		movs	r2, #0
 407 00ac 0521     		movs	r1, #5
 408 00ae 5F20     		movs	r0, #95
 409 00b0 FFF7FEFF 		bl	HAL_NVIC_SetPriority
 410              	.LVL21:
 167:Core/Src/i2c.c ****   /* USER CODE BEGIN I2C4_MspInit 1 */
 411              		.loc 1 167 5 view .LVU125
 412 00b4 5F20     		movs	r0, #95
 413 00b6 FFF7FEFF 		bl	HAL_NVIC_EnableIRQ
 414              	.LVL22:
 415              		.loc 1 172 1 is_stmt 0 view .LVU126
 416 00ba B0E7     		b	.L21
 417              	.L28:
 418              		.align	2
 419              	.L27:
 420 00bc 00540040 		.word	1073763328
 421 00c0 00600040 		.word	1073766400
 422 00c4 00380240 		.word	1073887232
 423 00c8 00040240 		.word	1073873920
 424 00cc 000C0240 		.word	1073875968
 425              		.cfi_endproc
 426              	.LFE146:
 428              		.section	.rodata.I2C4_EV_IRQHandler.str1.4,"aMS",%progbits,1
 429              		.align	2
 430              	.LC0:
 431 0000 2025780A 		.ascii	" %x\012\000"
 431      00
 432 0005 000000   		.align	2
 433              	.LC1:
 434 0008 6572726F 		.ascii	"error\012\000"
 434      720A00
 435              		.section	.text.I2C4_EV_IRQHandler,"ax",%progbits
 436              		.align	1
 437              		.global	I2C4_EV_IRQHandler
 438              		.syntax unified
 439              		.thumb
 440              		.thumb_func
 441              		.fpu fpv5-sp-d16
 443              	I2C4_EV_IRQHandler:
 444              	.LFB147:
 173:Core/Src/i2c.c **** 
 174:Core/Src/i2c.c **** char buffer[40];
 175:Core/Src/i2c.c **** void I2C4_EV_IRQHandler(){
 445              		.loc 1 175 26 is_stmt 1 view -0
 446              		.cfi_startproc
 447              		@ args = 0, pretend = 0, frame = 8
 448              		@ frame_needed = 0, uses_anonymous_args = 0
 449 0000 10B5     		push	{r4, lr}
 450              	.LCFI6:
 451              		.cfi_def_cfa_offset 8
 452              		.cfi_offset 4, -8
 453              		.cfi_offset 14, -4
 454 0002 82B0     		sub	sp, sp, #8
 455              	.LCFI7:
 456              		.cfi_def_cfa_offset 16
 176:Core/Src/i2c.c ****   uint8_t ans;
 457              		.loc 1 176 3 view .LVU128
ARM GAS  C:\Users\GUILLE~1\AppData\Local\Temp\ccyyrO17.s 			page 13


 177:Core/Src/i2c.c ****   
 178:Core/Src/i2c.c ****   HAL_I2C_EV_IRQHandler(&hi2c4);
 458              		.loc 1 178 3 view .LVU129
 459 0004 134C     		ldr	r4, .L33
 460 0006 2046     		mov	r0, r4
 461 0008 FFF7FEFF 		bl	HAL_I2C_EV_IRQHandler
 462              	.LVL23:
 179:Core/Src/i2c.c **** 
 180:Core/Src/i2c.c ****   HAL_StatusTypeDef answer = HAL_I2C_Slave_Receive(&hi2c4, &ans, 1, 1000);
 463              		.loc 1 180 3 view .LVU130
 464              		.loc 1 180 30 is_stmt 0 view .LVU131
 465 000c 4FF47A73 		mov	r3, #1000
 466 0010 0122     		movs	r2, #1
 467 0012 0DF10701 		add	r1, sp, #7
 468 0016 2046     		mov	r0, r4
 469 0018 FFF7FEFF 		bl	HAL_I2C_Slave_Receive
 470              	.LVL24:
 181:Core/Src/i2c.c ****   if(answer == HAL_OK){
 471              		.loc 1 181 3 is_stmt 1 view .LVU132
 472              		.loc 1 181 5 is_stmt 0 view .LVU133
 473 001c 90B9     		cbnz	r0, .L30
 182:Core/Src/i2c.c ****     sprintf(buffer, " %x\n", ans);
 474              		.loc 1 182 5 is_stmt 1 view .LVU134
 475 001e 0E4C     		ldr	r4, .L33+4
 476 0020 9DF80720 		ldrb	r2, [sp, #7]	@ zero_extendqisi2
 477 0024 0D49     		ldr	r1, .L33+8
 478 0026 2046     		mov	r0, r4
 479              	.LVL25:
 480              		.loc 1 182 5 is_stmt 0 view .LVU135
 481 0028 FFF7FEFF 		bl	sprintf
 482              	.LVL26:
 183:Core/Src/i2c.c ****     HAL_UART_Transmit(&huart2, (uint8_t *)buffer, strlen(buffer), 1000);
 483              		.loc 1 183 5 is_stmt 1 view .LVU136
 484              		.loc 1 183 51 is_stmt 0 view .LVU137
 485 002c 2046     		mov	r0, r4
 486 002e FFF7FEFF 		bl	strlen
 487              	.LVL27:
 488              		.loc 1 183 5 view .LVU138
 489 0032 4FF47A73 		mov	r3, #1000
 490 0036 82B2     		uxth	r2, r0
 491 0038 2146     		mov	r1, r4
 492 003a 0948     		ldr	r0, .L33+12
 493 003c FFF7FEFF 		bl	HAL_UART_Transmit
 494              	.LVL28:
 495              	.L29:
 184:Core/Src/i2c.c ****   }
 185:Core/Src/i2c.c ****   else{
 186:Core/Src/i2c.c ****     HAL_UART_Transmit(&huart2, (uint8_t*)"error\n", 7, 100);
 187:Core/Src/i2c.c ****   }
 188:Core/Src/i2c.c ****   
 189:Core/Src/i2c.c **** }
 496              		.loc 1 189 1 view .LVU139
 497 0040 02B0     		add	sp, sp, #8
 498              	.LCFI8:
 499              		.cfi_remember_state
 500              		.cfi_def_cfa_offset 8
 501              		@ sp needed
ARM GAS  C:\Users\GUILLE~1\AppData\Local\Temp\ccyyrO17.s 			page 14


 502 0042 10BD     		pop	{r4, pc}
 503              	.LVL29:
 504              	.L30:
 505              	.LCFI9:
 506              		.cfi_restore_state
 186:Core/Src/i2c.c ****   }
 507              		.loc 1 186 5 is_stmt 1 view .LVU140
 508 0044 6423     		movs	r3, #100
 509 0046 0722     		movs	r2, #7
 510 0048 0649     		ldr	r1, .L33+16
 511 004a 0548     		ldr	r0, .L33+12
 512              	.LVL30:
 186:Core/Src/i2c.c ****   }
 513              		.loc 1 186 5 is_stmt 0 view .LVU141
 514 004c FFF7FEFF 		bl	HAL_UART_Transmit
 515              	.LVL31:
 516              		.loc 1 189 1 view .LVU142
 517 0050 F6E7     		b	.L29
 518              	.L34:
 519 0052 00BF     		.align	2
 520              	.L33:
 521 0054 00000000 		.word	.LANCHOR1
 522 0058 00000000 		.word	.LANCHOR2
 523 005c 00000000 		.word	.LC0
 524 0060 00000000 		.word	huart2
 525 0064 08000000 		.word	.LC1
 526              		.cfi_endproc
 527              	.LFE147:
 529              		.section	.text.HAL_I2C_MspDeInit,"ax",%progbits
 530              		.align	1
 531              		.global	HAL_I2C_MspDeInit
 532              		.syntax unified
 533              		.thumb
 534              		.thumb_func
 535              		.fpu fpv5-sp-d16
 537              	HAL_I2C_MspDeInit:
 538              	.LVL32:
 539              	.LFB148:
 190:Core/Src/i2c.c **** 
 191:Core/Src/i2c.c **** 
 192:Core/Src/i2c.c **** void HAL_I2C_MspDeInit(I2C_HandleTypeDef* i2cHandle)
 193:Core/Src/i2c.c **** {
 540              		.loc 1 193 1 is_stmt 1 view -0
 541              		.cfi_startproc
 542              		@ args = 0, pretend = 0, frame = 0
 543              		@ frame_needed = 0, uses_anonymous_args = 0
 544              		.loc 1 193 1 is_stmt 0 view .LVU144
 545 0000 10B5     		push	{r4, lr}
 546              	.LCFI10:
 547              		.cfi_def_cfa_offset 8
 548              		.cfi_offset 4, -8
 549              		.cfi_offset 14, -4
 194:Core/Src/i2c.c **** 
 195:Core/Src/i2c.c ****   if(i2cHandle->Instance==I2C1)
 550              		.loc 1 195 3 is_stmt 1 view .LVU145
 551              		.loc 1 195 15 is_stmt 0 view .LVU146
 552 0002 0368     		ldr	r3, [r0]
ARM GAS  C:\Users\GUILLE~1\AppData\Local\Temp\ccyyrO17.s 			page 15


 553              		.loc 1 195 5 view .LVU147
 554 0004 154A     		ldr	r2, .L41
 555 0006 9342     		cmp	r3, r2
 556 0008 03D0     		beq	.L39
 196:Core/Src/i2c.c ****   {
 197:Core/Src/i2c.c ****   /* USER CODE BEGIN I2C1_MspDeInit 0 */
 198:Core/Src/i2c.c **** 
 199:Core/Src/i2c.c ****   /* USER CODE END I2C1_MspDeInit 0 */
 200:Core/Src/i2c.c ****     /* Peripheral clock disable */
 201:Core/Src/i2c.c ****     __HAL_RCC_I2C1_CLK_DISABLE();
 202:Core/Src/i2c.c **** 
 203:Core/Src/i2c.c ****     /**I2C1 GPIO Configuration
 204:Core/Src/i2c.c ****     PB6     ------> I2C1_SCL
 205:Core/Src/i2c.c ****     PB7     ------> I2C1_SDA
 206:Core/Src/i2c.c ****     */
 207:Core/Src/i2c.c ****     HAL_GPIO_DeInit(GPIOB, GPIO_PIN_6);
 208:Core/Src/i2c.c **** 
 209:Core/Src/i2c.c ****     HAL_GPIO_DeInit(GPIOB, GPIO_PIN_7);
 210:Core/Src/i2c.c **** 
 211:Core/Src/i2c.c ****   /* USER CODE BEGIN I2C1_MspDeInit 1 */
 212:Core/Src/i2c.c **** 
 213:Core/Src/i2c.c ****   /* USER CODE END I2C1_MspDeInit 1 */
 214:Core/Src/i2c.c ****   }
 215:Core/Src/i2c.c ****   else if(i2cHandle->Instance==I2C4)
 557              		.loc 1 215 8 is_stmt 1 view .LVU148
 558              		.loc 1 215 10 is_stmt 0 view .LVU149
 559 000a 154A     		ldr	r2, .L41+4
 560 000c 9342     		cmp	r3, r2
 561 000e 10D0     		beq	.L40
 562              	.LVL33:
 563              	.L35:
 216:Core/Src/i2c.c ****   {
 217:Core/Src/i2c.c ****   /* USER CODE BEGIN I2C4_MspDeInit 0 */
 218:Core/Src/i2c.c **** 
 219:Core/Src/i2c.c ****   /* USER CODE END I2C4_MspDeInit 0 */
 220:Core/Src/i2c.c ****     /* Peripheral clock disable */
 221:Core/Src/i2c.c ****     __HAL_RCC_I2C4_CLK_DISABLE();
 222:Core/Src/i2c.c **** 
 223:Core/Src/i2c.c ****     /**I2C4 GPIO Configuration
 224:Core/Src/i2c.c ****     PD12     ------> I2C4_SCL
 225:Core/Src/i2c.c ****     PD13     ------> I2C4_SDA
 226:Core/Src/i2c.c ****     */
 227:Core/Src/i2c.c ****     HAL_GPIO_DeInit(GPIOD, GPIO_PIN_12);
 228:Core/Src/i2c.c **** 
 229:Core/Src/i2c.c ****     HAL_GPIO_DeInit(GPIOD, GPIO_PIN_13);
 230:Core/Src/i2c.c **** 
 231:Core/Src/i2c.c ****     /* I2C4 interrupt Deinit */
 232:Core/Src/i2c.c ****     HAL_NVIC_DisableIRQ(I2C4_EV_IRQn);
 233:Core/Src/i2c.c ****   /* USER CODE BEGIN I2C4_MspDeInit 1 */
 234:Core/Src/i2c.c **** 
 235:Core/Src/i2c.c ****   /* USER CODE END I2C4_MspDeInit 1 */
 236:Core/Src/i2c.c ****   }
 237:Core/Src/i2c.c **** }
 564              		.loc 1 237 1 view .LVU150
 565 0010 10BD     		pop	{r4, pc}
 566              	.LVL34:
 567              	.L39:
ARM GAS  C:\Users\GUILLE~1\AppData\Local\Temp\ccyyrO17.s 			page 16


 201:Core/Src/i2c.c **** 
 568              		.loc 1 201 5 is_stmt 1 view .LVU151
 569 0012 02F5F232 		add	r2, r2, #123904
 570 0016 136C     		ldr	r3, [r2, #64]
 571 0018 23F40013 		bic	r3, r3, #2097152
 572 001c 1364     		str	r3, [r2, #64]
 207:Core/Src/i2c.c **** 
 573              		.loc 1 207 5 view .LVU152
 574 001e 114C     		ldr	r4, .L41+8
 575 0020 4021     		movs	r1, #64
 576 0022 2046     		mov	r0, r4
 577              	.LVL35:
 207:Core/Src/i2c.c **** 
 578              		.loc 1 207 5 is_stmt 0 view .LVU153
 579 0024 FFF7FEFF 		bl	HAL_GPIO_DeInit
 580              	.LVL36:
 209:Core/Src/i2c.c **** 
 581              		.loc 1 209 5 is_stmt 1 view .LVU154
 582 0028 8021     		movs	r1, #128
 583 002a 2046     		mov	r0, r4
 584 002c FFF7FEFF 		bl	HAL_GPIO_DeInit
 585              	.LVL37:
 586 0030 EEE7     		b	.L35
 587              	.LVL38:
 588              	.L40:
 221:Core/Src/i2c.c **** 
 589              		.loc 1 221 5 view .LVU155
 590 0032 02F5EC32 		add	r2, r2, #120832
 591 0036 136C     		ldr	r3, [r2, #64]
 592 0038 23F08073 		bic	r3, r3, #16777216
 593 003c 1364     		str	r3, [r2, #64]
 227:Core/Src/i2c.c **** 
 594              		.loc 1 227 5 view .LVU156
 595 003e 0A4C     		ldr	r4, .L41+12
 596 0040 4FF48051 		mov	r1, #4096
 597 0044 2046     		mov	r0, r4
 598              	.LVL39:
 227:Core/Src/i2c.c **** 
 599              		.loc 1 227 5 is_stmt 0 view .LVU157
 600 0046 FFF7FEFF 		bl	HAL_GPIO_DeInit
 601              	.LVL40:
 229:Core/Src/i2c.c **** 
 602              		.loc 1 229 5 is_stmt 1 view .LVU158
 603 004a 4FF40051 		mov	r1, #8192
 604 004e 2046     		mov	r0, r4
 605 0050 FFF7FEFF 		bl	HAL_GPIO_DeInit
 606              	.LVL41:
 232:Core/Src/i2c.c ****   /* USER CODE BEGIN I2C4_MspDeInit 1 */
 607              		.loc 1 232 5 view .LVU159
 608 0054 5F20     		movs	r0, #95
 609 0056 FFF7FEFF 		bl	HAL_NVIC_DisableIRQ
 610              	.LVL42:
 611              		.loc 1 237 1 is_stmt 0 view .LVU160
 612 005a D9E7     		b	.L35
 613              	.L42:
 614              		.align	2
 615              	.L41:
ARM GAS  C:\Users\GUILLE~1\AppData\Local\Temp\ccyyrO17.s 			page 17


 616 005c 00540040 		.word	1073763328
 617 0060 00600040 		.word	1073766400
 618 0064 00040240 		.word	1073873920
 619 0068 000C0240 		.word	1073875968
 620              		.cfi_endproc
 621              	.LFE148:
 623              		.global	buffer
 624              		.global	hi2c4
 625              		.global	hi2c1
 626              		.section	.bss.buffer,"aw",%nobits
 627              		.align	2
 628              		.set	.LANCHOR2,. + 0
 631              	buffer:
 632 0000 00000000 		.space	40
 632      00000000 
 632      00000000 
 632      00000000 
 632      00000000 
 633              		.section	.bss.hi2c1,"aw",%nobits
 634              		.align	2
 635              		.set	.LANCHOR0,. + 0
 638              	hi2c1:
 639 0000 00000000 		.space	76
 639      00000000 
 639      00000000 
 639      00000000 
 639      00000000 
 640              		.section	.bss.hi2c4,"aw",%nobits
 641              		.align	2
 642              		.set	.LANCHOR1,. + 0
 645              	hi2c4:
 646 0000 00000000 		.space	76
 646      00000000 
 646      00000000 
 646      00000000 
 646      00000000 
 647              		.text
 648              	.Letext0:
 649              		.file 2 "c:\\program files (x86)\\gnu arm embedded toolchain\\10 2020-q4-major\\arm-none-eabi\\inc
 650              		.file 3 "c:\\program files (x86)\\gnu arm embedded toolchain\\10 2020-q4-major\\arm-none-eabi\\inc
 651              		.file 4 "Drivers/CMSIS/Device/ST/STM32F7xx/Include/stm32f746xx.h"
 652              		.file 5 "Drivers/STM32F7xx_HAL_Driver/Inc/stm32f7xx_hal_def.h"
 653              		.file 6 "Drivers/STM32F7xx_HAL_Driver/Inc/stm32f7xx_hal_gpio.h"
 654              		.file 7 "Drivers/STM32F7xx_HAL_Driver/Inc/stm32f7xx_hal_dma.h"
 655              		.file 8 "Drivers/STM32F7xx_HAL_Driver/Inc/stm32f7xx_hal_i2c.h"
 656              		.file 9 "Drivers/STM32F7xx_HAL_Driver/Inc/stm32f7xx_hal_uart.h"
 657              		.file 10 "Core/Inc/i2c.h"
 658              		.file 11 "Core/Inc/usart.h"
 659              		.file 12 "Drivers/STM32F7xx_HAL_Driver/Inc/stm32f7xx_hal_cortex.h"
 660              		.file 13 "c:\\program files (x86)\\gnu arm embedded toolchain\\10 2020-q4-major\\arm-none-eabi\\in
 661              		.file 14 "c:\\program files (x86)\\gnu arm embedded toolchain\\10 2020-q4-major\\arm-none-eabi\\in
 662              		.file 15 "Drivers/STM32F7xx_HAL_Driver/Inc/stm32f7xx_hal_i2c_ex.h"
 663              		.file 16 "Core/Inc/main.h"
ARM GAS  C:\Users\GUILLE~1\AppData\Local\Temp\ccyyrO17.s 			page 18

