ARM GAS  C:\Users\USUARIO\AppData\Local\Temp\ccmgcwL3.s 			page 1


   1              		.cpu cortex-m7
   2              		.eabi_attribute 27, 1
   3              		.eabi_attribute 28, 1
   4              		.eabi_attribute 20, 1
   5              		.eabi_attribute 21, 1
   6              		.eabi_attribute 23, 3
   7              		.eabi_attribute 24, 1
   8              		.eabi_attribute 25, 1
   9              		.eabi_attribute 26, 1
  10              		.eabi_attribute 30, 1
  11              		.eabi_attribute 34, 1
  12              		.eabi_attribute 18, 4
  13              		.file	"matlib.c"
  14              		.text
  15              	.Ltext0:
  16              		.cfi_sections	.debug_frame
  17              		.section	.text.matInit,"ax",%progbits
  18              		.align	1
  19              		.global	matInit
  20              		.arch armv7e-m
  21              		.syntax unified
  22              		.thumb
  23              		.thumb_func
  24              		.fpu fpv5-sp-d16
  26              	matInit:
  27              	.LVL0:
  28              	.LFB0:
  29              		.file 1 "Core/drogui/src/matlib.c"
   1:Core/drogui/src/matlib.c **** #include "matlib.h"
   2:Core/drogui/src/matlib.c **** #include <stdbool.h>
   3:Core/drogui/src/matlib.c **** void getCofactor(mat* A, mat* temp, int p, int q);
   4:Core/drogui/src/matlib.c **** void matInit(mat* m, int row, int col){
  30              		.loc 1 4 39 view -0
  31              		.cfi_startproc
  32              		@ args = 0, pretend = 0, frame = 0
  33              		@ frame_needed = 0, uses_anonymous_args = 0
  34              		.loc 1 4 39 is_stmt 0 view .LVU1
  35 0000 F8B5     		push	{r3, r4, r5, r6, r7, lr}
  36              	.LCFI0:
  37              		.cfi_def_cfa_offset 24
  38              		.cfi_offset 3, -24
  39              		.cfi_offset 4, -20
  40              		.cfi_offset 5, -16
  41              		.cfi_offset 6, -12
  42              		.cfi_offset 7, -8
  43              		.cfi_offset 14, -4
  44 0002 0546     		mov	r5, r0
  45 0004 0E46     		mov	r6, r1
  46 0006 1746     		mov	r7, r2
   5:Core/drogui/src/matlib.c ****     m->row = row;
  47              		.loc 1 5 5 is_stmt 1 view .LVU2
  48              		.loc 1 5 12 is_stmt 0 view .LVU3
  49 0008 0160     		str	r1, [r0]
   6:Core/drogui/src/matlib.c ****     m->col = col;
  50              		.loc 1 6 5 is_stmt 1 view .LVU4
  51              		.loc 1 6 12 is_stmt 0 view .LVU5
  52 000a 4260     		str	r2, [r0, #4]
ARM GAS  C:\Users\USUARIO\AppData\Local\Temp\ccmgcwL3.s 			page 2


   7:Core/drogui/src/matlib.c ****     
   8:Core/drogui/src/matlib.c ****     m->val = (float**) calloc(row, sizeof(float*));
  53              		.loc 1 8 5 is_stmt 1 view .LVU6
  54              		.loc 1 8 24 is_stmt 0 view .LVU7
  55 000c 0421     		movs	r1, #4
  56              	.LVL1:
  57              		.loc 1 8 24 view .LVU8
  58 000e 3046     		mov	r0, r6
  59              	.LVL2:
  60              		.loc 1 8 24 view .LVU9
  61 0010 FFF7FEFF 		bl	calloc
  62              	.LVL3:
  63              		.loc 1 8 12 view .LVU10
  64 0014 A860     		str	r0, [r5, #8]
   9:Core/drogui/src/matlib.c **** 
  10:Core/drogui/src/matlib.c **** 	m-> aux = (float*) calloc(row*col, sizeof(float));
  65              		.loc 1 10 2 is_stmt 1 view .LVU11
  66              		.loc 1 10 21 is_stmt 0 view .LVU12
  67 0016 0421     		movs	r1, #4
  68 0018 07FB06F0 		mul	r0, r7, r6
  69 001c FFF7FEFF 		bl	calloc
  70              	.LVL4:
  71              		.loc 1 10 10 view .LVU13
  72 0020 E860     		str	r0, [r5, #12]
  11:Core/drogui/src/matlib.c ****     for (int i = 0; i < row; i++) {
  73              		.loc 1 11 5 is_stmt 1 view .LVU14
  74              	.LBB2:
  75              		.loc 1 11 10 view .LVU15
  76              	.LVL5:
  77              		.loc 1 11 14 is_stmt 0 view .LVU16
  78 0022 0023     		movs	r3, #0
  79              		.loc 1 11 5 view .LVU17
  80 0024 08E0     		b	.L2
  81              	.LVL6:
  82              	.L3:
  12:Core/drogui/src/matlib.c ****             m->val[i] = m-> aux + i*col;
  83              		.loc 1 12 13 is_stmt 1 discriminator 3 view .LVU18
  84              		.loc 1 12 36 is_stmt 0 discriminator 3 view .LVU19
  85 0026 07FB03F4 		mul	r4, r7, r3
  86              		.loc 1 12 33 discriminator 3 view .LVU20
  87 002a EA68     		ldr	r2, [r5, #12]
  88 002c 02EB8404 		add	r4, r2, r4, lsl #2
  89              		.loc 1 12 23 discriminator 3 view .LVU21
  90 0030 AA68     		ldr	r2, [r5, #8]
  91 0032 42F82340 		str	r4, [r2, r3, lsl #2]
  11:Core/drogui/src/matlib.c ****     for (int i = 0; i < row; i++) {
  92              		.loc 1 11 30 is_stmt 1 discriminator 3 view .LVU22
  11:Core/drogui/src/matlib.c ****     for (int i = 0; i < row; i++) {
  93              		.loc 1 11 31 is_stmt 0 discriminator 3 view .LVU23
  94 0036 0133     		adds	r3, r3, #1
  95              	.LVL7:
  96              	.L2:
  11:Core/drogui/src/matlib.c ****     for (int i = 0; i < row; i++) {
  97              		.loc 1 11 21 is_stmt 1 discriminator 1 view .LVU24
  11:Core/drogui/src/matlib.c ****     for (int i = 0; i < row; i++) {
  98              		.loc 1 11 5 is_stmt 0 discriminator 1 view .LVU25
  99 0038 B342     		cmp	r3, r6
ARM GAS  C:\Users\USUARIO\AppData\Local\Temp\ccmgcwL3.s 			page 3


 100 003a F4DB     		blt	.L3
 101              	.LBE2:
  13:Core/drogui/src/matlib.c ****     }
  14:Core/drogui/src/matlib.c **** }
 102              		.loc 1 14 1 view .LVU26
 103 003c F8BD     		pop	{r3, r4, r5, r6, r7, pc}
 104              		.loc 1 14 1 view .LVU27
 105              		.cfi_endproc
 106              	.LFE0:
 108              		.section	.text.matMult,"ax",%progbits
 109              		.align	1
 110              		.global	matMult
 111              		.syntax unified
 112              		.thumb
 113              		.thumb_func
 114              		.fpu fpv5-sp-d16
 116              	matMult:
 117              	.LVL8:
 118              	.LFB1:
  15:Core/drogui/src/matlib.c **** 
  16:Core/drogui/src/matlib.c **** void matMult(mat* ans, mat* a, mat* b){
 119              		.loc 1 16 39 is_stmt 1 view -0
 120              		.cfi_startproc
 121              		@ args = 0, pretend = 0, frame = 0
 122              		@ frame_needed = 0, uses_anonymous_args = 0
 123              		.loc 1 16 39 is_stmt 0 view .LVU29
 124 0000 10B5     		push	{r4, lr}
 125              	.LCFI1:
 126              		.cfi_def_cfa_offset 8
 127              		.cfi_offset 4, -8
 128              		.cfi_offset 14, -4
 129 0002 8646     		mov	lr, r0
 130 0004 1446     		mov	r4, r2
  17:Core/drogui/src/matlib.c ****     for(int i = 0 ;i < a->row; i++)
 131              		.loc 1 17 5 is_stmt 1 view .LVU30
 132              	.LBB3:
 133              		.loc 1 17 9 view .LVU31
 134              	.LVL9:
 135              		.loc 1 17 13 is_stmt 0 view .LVU32
 136 0006 4FF0000C 		mov	ip, #0
 137              		.loc 1 17 5 view .LVU33
 138 000a 27E0     		b	.L6
 139              	.LVL10:
 140              	.L7:
 141              	.LBB4:
 142              	.LBB5:
 143              	.LBB6:
  18:Core/drogui/src/matlib.c ****         for(int j = 0 ; j< b->col ; j++){
  19:Core/drogui/src/matlib.c ****             float aux = 0;
  20:Core/drogui/src/matlib.c ****             for(int k = 0 ; k < a-> col; k++)
  21:Core/drogui/src/matlib.c ****                 aux += a->val[i][k]* b->val[k][j];
 144              		.loc 1 21 17 is_stmt 1 discriminator 3 view .LVU34
 145              		.loc 1 21 25 is_stmt 0 discriminator 3 view .LVU35
 146 000c 8A68     		ldr	r2, [r1, #8]
 147              		.loc 1 21 30 discriminator 3 view .LVU36
 148 000e 52F82C20 		ldr	r2, [r2, ip, lsl #2]
 149              		.loc 1 21 33 discriminator 3 view .LVU37
ARM GAS  C:\Users\USUARIO\AppData\Local\Temp\ccmgcwL3.s 			page 4


 150 0012 02EB8302 		add	r2, r2, r3, lsl #2
 151 0016 D2ED007A 		vldr.32	s15, [r2]
 152              		.loc 1 21 39 discriminator 3 view .LVU38
 153 001a A268     		ldr	r2, [r4, #8]
 154              		.loc 1 21 44 discriminator 3 view .LVU39
 155 001c 52F82320 		ldr	r2, [r2, r3, lsl #2]
 156              		.loc 1 21 47 discriminator 3 view .LVU40
 157 0020 02EB8002 		add	r2, r2, r0, lsl #2
 158 0024 D2ED006A 		vldr.32	s13, [r2]
 159              		.loc 1 21 36 discriminator 3 view .LVU41
 160 0028 67EEA67A 		vmul.f32	s15, s15, s13
 161              		.loc 1 21 21 discriminator 3 view .LVU42
 162 002c 37EE277A 		vadd.f32	s14, s14, s15
 163              	.LVL11:
  20:Core/drogui/src/matlib.c ****                 aux += a->val[i][k]* b->val[k][j];
 164              		.loc 1 20 42 is_stmt 1 discriminator 3 view .LVU43
  20:Core/drogui/src/matlib.c ****                 aux += a->val[i][k]* b->val[k][j];
 165              		.loc 1 20 43 is_stmt 0 discriminator 3 view .LVU44
 166 0030 0133     		adds	r3, r3, #1
 167              	.LVL12:
 168              	.L8:
  20:Core/drogui/src/matlib.c ****                 aux += a->val[i][k]* b->val[k][j];
 169              		.loc 1 20 29 is_stmt 1 discriminator 1 view .LVU45
  20:Core/drogui/src/matlib.c ****                 aux += a->val[i][k]* b->val[k][j];
 170              		.loc 1 20 34 is_stmt 0 discriminator 1 view .LVU46
 171 0032 4A68     		ldr	r2, [r1, #4]
  20:Core/drogui/src/matlib.c ****                 aux += a->val[i][k]* b->val[k][j];
 172              		.loc 1 20 13 discriminator 1 view .LVU47
 173 0034 9A42     		cmp	r2, r3
 174 0036 E9DC     		bgt	.L7
 175              	.LBE6:
  22:Core/drogui/src/matlib.c ****             ans->val[i][j] = aux;
 176              		.loc 1 22 13 is_stmt 1 discriminator 2 view .LVU48
 177              		.loc 1 22 16 is_stmt 0 discriminator 2 view .LVU49
 178 0038 DEF80830 		ldr	r3, [lr, #8]
 179              	.LVL13:
 180              		.loc 1 22 21 discriminator 2 view .LVU50
 181 003c 53F82C30 		ldr	r3, [r3, ip, lsl #2]
 182              		.loc 1 22 24 discriminator 2 view .LVU51
 183 0040 03EB8003 		add	r3, r3, r0, lsl #2
 184              		.loc 1 22 28 discriminator 2 view .LVU52
 185 0044 83ED007A 		vstr.32	s14, [r3]
 186              	.LBE5:
  18:Core/drogui/src/matlib.c ****         for(int j = 0 ; j< b->col ; j++){
 187              		.loc 1 18 37 is_stmt 1 discriminator 2 view .LVU53
  18:Core/drogui/src/matlib.c ****         for(int j = 0 ; j< b->col ; j++){
 188              		.loc 1 18 38 is_stmt 0 discriminator 2 view .LVU54
 189 0048 0130     		adds	r0, r0, #1
 190              	.LVL14:
 191              	.L9:
  18:Core/drogui/src/matlib.c ****         for(int j = 0 ; j< b->col ; j++){
 192              		.loc 1 18 25 is_stmt 1 discriminator 1 view .LVU55
  18:Core/drogui/src/matlib.c ****         for(int j = 0 ; j< b->col ; j++){
 193              		.loc 1 18 29 is_stmt 0 discriminator 1 view .LVU56
 194 004a 6368     		ldr	r3, [r4, #4]
  18:Core/drogui/src/matlib.c ****         for(int j = 0 ; j< b->col ; j++){
 195              		.loc 1 18 9 discriminator 1 view .LVU57
ARM GAS  C:\Users\USUARIO\AppData\Local\Temp\ccmgcwL3.s 			page 5


 196 004c 8342     		cmp	r3, r0
 197 004e 03DD     		ble	.L13
 198              	.LBB8:
 199              	.LBB7:
  20:Core/drogui/src/matlib.c ****                 aux += a->val[i][k]* b->val[k][j];
 200              		.loc 1 20 21 view .LVU58
 201 0050 0023     		movs	r3, #0
 202              	.LBE7:
  19:Core/drogui/src/matlib.c ****             for(int k = 0 ; k < a-> col; k++)
 203              		.loc 1 19 19 view .LVU59
 204 0052 9FED057A 		vldr.32	s14, .L15
 205 0056 ECE7     		b	.L8
 206              	.L13:
 207              	.LBE8:
 208              	.LBE4:
  17:Core/drogui/src/matlib.c ****         for(int j = 0 ; j< b->col ; j++){
 209              		.loc 1 17 32 is_stmt 1 discriminator 2 view .LVU60
  17:Core/drogui/src/matlib.c ****         for(int j = 0 ; j< b->col ; j++){
 210              		.loc 1 17 33 is_stmt 0 discriminator 2 view .LVU61
 211 0058 0CF1010C 		add	ip, ip, #1
 212              	.LVL15:
 213              	.L6:
  17:Core/drogui/src/matlib.c ****         for(int j = 0 ; j< b->col ; j++){
 214              		.loc 1 17 20 is_stmt 1 discriminator 1 view .LVU62
  17:Core/drogui/src/matlib.c ****         for(int j = 0 ; j< b->col ; j++){
 215              		.loc 1 17 25 is_stmt 0 discriminator 1 view .LVU63
 216 005c 0B68     		ldr	r3, [r1]
  17:Core/drogui/src/matlib.c ****         for(int j = 0 ; j< b->col ; j++){
 217              		.loc 1 17 5 discriminator 1 view .LVU64
 218 005e 6345     		cmp	r3, ip
 219 0060 01DD     		ble	.L14
 220              	.LBB9:
  18:Core/drogui/src/matlib.c ****             float aux = 0;
 221              		.loc 1 18 17 view .LVU65
 222 0062 0020     		movs	r0, #0
 223 0064 F1E7     		b	.L9
 224              	.L14:
 225              	.LBE9:
 226              	.LBE3:
  23:Core/drogui/src/matlib.c ****         }
  24:Core/drogui/src/matlib.c **** }
 227              		.loc 1 24 1 view .LVU66
 228 0066 10BD     		pop	{r4, pc}
 229              	.LVL16:
 230              	.L16:
 231              		.loc 1 24 1 view .LVU67
 232              		.align	2
 233              	.L15:
 234 0068 00000000 		.word	0
 235              		.cfi_endproc
 236              	.LFE1:
 238              		.section	.text.matScale,"ax",%progbits
 239              		.align	1
 240              		.global	matScale
 241              		.syntax unified
 242              		.thumb
 243              		.thumb_func
ARM GAS  C:\Users\USUARIO\AppData\Local\Temp\ccmgcwL3.s 			page 6


 244              		.fpu fpv5-sp-d16
 246              	matScale:
 247              	.LVL17:
 248              	.LFB2:
  25:Core/drogui/src/matlib.c **** 
  26:Core/drogui/src/matlib.c **** void matScale(mat* ans, mat* a, float alpha){
 249              		.loc 1 26 45 is_stmt 1 view -0
 250              		.cfi_startproc
 251              		@ args = 0, pretend = 0, frame = 0
 252              		@ frame_needed = 0, uses_anonymous_args = 0
 253              		@ link register save eliminated.
  27:Core/drogui/src/matlib.c ****     for(int i = 0 ;i < a->row; i++)
 254              		.loc 1 27 5 view .LVU69
 255              	.LBB10:
 256              		.loc 1 27 9 view .LVU70
 257              		.loc 1 27 13 is_stmt 0 view .LVU71
 258 0000 4FF0000C 		mov	ip, #0
 259              		.loc 1 27 5 view .LVU72
 260 0004 15E0     		b	.L18
 261              	.LVL18:
 262              	.L19:
 263              	.LBB11:
  28:Core/drogui/src/matlib.c ****         for(int j = 0 ; j< a->col ; j++){
  29:Core/drogui/src/matlib.c ****             ans ->val[i][j] = a->val[i][j]*alpha;
 264              		.loc 1 29 13 is_stmt 1 discriminator 3 view .LVU73
 265              		.loc 1 29 32 is_stmt 0 discriminator 3 view .LVU74
 266 0006 8A68     		ldr	r2, [r1, #8]
 267              		.loc 1 29 37 discriminator 3 view .LVU75
 268 0008 52F82C20 		ldr	r2, [r2, ip, lsl #2]
 269              		.loc 1 29 40 discriminator 3 view .LVU76
 270 000c 02EB8302 		add	r2, r2, r3, lsl #2
 271 0010 D2ED007A 		vldr.32	s15, [r2]
 272              		.loc 1 29 17 discriminator 3 view .LVU77
 273 0014 8268     		ldr	r2, [r0, #8]
 274              		.loc 1 29 22 discriminator 3 view .LVU78
 275 0016 52F82C20 		ldr	r2, [r2, ip, lsl #2]
 276              		.loc 1 29 25 discriminator 3 view .LVU79
 277 001a 02EB8302 		add	r2, r2, r3, lsl #2
 278              		.loc 1 29 43 discriminator 3 view .LVU80
 279 001e 67EE807A 		vmul.f32	s15, s15, s0
 280              		.loc 1 29 29 discriminator 3 view .LVU81
 281 0022 C2ED007A 		vstr.32	s15, [r2]
  28:Core/drogui/src/matlib.c ****         for(int j = 0 ; j< a->col ; j++){
 282              		.loc 1 28 37 is_stmt 1 discriminator 3 view .LVU82
  28:Core/drogui/src/matlib.c ****         for(int j = 0 ; j< a->col ; j++){
 283              		.loc 1 28 38 is_stmt 0 discriminator 3 view .LVU83
 284 0026 0133     		adds	r3, r3, #1
 285              	.LVL19:
 286              	.L20:
  28:Core/drogui/src/matlib.c ****         for(int j = 0 ; j< a->col ; j++){
 287              		.loc 1 28 25 is_stmt 1 discriminator 1 view .LVU84
  28:Core/drogui/src/matlib.c ****         for(int j = 0 ; j< a->col ; j++){
 288              		.loc 1 28 29 is_stmt 0 discriminator 1 view .LVU85
 289 0028 4A68     		ldr	r2, [r1, #4]
  28:Core/drogui/src/matlib.c ****         for(int j = 0 ; j< a->col ; j++){
 290              		.loc 1 28 9 discriminator 1 view .LVU86
 291 002a 9A42     		cmp	r2, r3
ARM GAS  C:\Users\USUARIO\AppData\Local\Temp\ccmgcwL3.s 			page 7


 292 002c EBDC     		bgt	.L19
 293              	.LBE11:
  27:Core/drogui/src/matlib.c ****     for(int i = 0 ;i < a->row; i++)
 294              		.loc 1 27 32 is_stmt 1 discriminator 2 view .LVU87
  27:Core/drogui/src/matlib.c ****     for(int i = 0 ;i < a->row; i++)
 295              		.loc 1 27 33 is_stmt 0 discriminator 2 view .LVU88
 296 002e 0CF1010C 		add	ip, ip, #1
 297              	.LVL20:
 298              	.L18:
  27:Core/drogui/src/matlib.c ****     for(int i = 0 ;i < a->row; i++)
 299              		.loc 1 27 20 is_stmt 1 discriminator 1 view .LVU89
  27:Core/drogui/src/matlib.c ****     for(int i = 0 ;i < a->row; i++)
 300              		.loc 1 27 25 is_stmt 0 discriminator 1 view .LVU90
 301 0032 0B68     		ldr	r3, [r1]
  27:Core/drogui/src/matlib.c ****     for(int i = 0 ;i < a->row; i++)
 302              		.loc 1 27 5 discriminator 1 view .LVU91
 303 0034 6345     		cmp	r3, ip
 304 0036 01DD     		ble	.L22
 305              	.LBB12:
  28:Core/drogui/src/matlib.c ****         for(int j = 0 ; j< a->col ; j++){
 306              		.loc 1 28 17 view .LVU92
 307 0038 0023     		movs	r3, #0
 308 003a F5E7     		b	.L20
 309              	.L22:
 310              	.LBE12:
 311              	.LBE10:
  30:Core/drogui/src/matlib.c ****         }
  31:Core/drogui/src/matlib.c **** }
 312              		.loc 1 31 1 view .LVU93
 313 003c 7047     		bx	lr
 314              		.cfi_endproc
 315              	.LFE2:
 317              		.section	.text.matAdd,"ax",%progbits
 318              		.align	1
 319              		.global	matAdd
 320              		.syntax unified
 321              		.thumb
 322              		.thumb_func
 323              		.fpu fpv5-sp-d16
 325              	matAdd:
 326              	.LVL21:
 327              	.LFB3:
  32:Core/drogui/src/matlib.c **** 
  33:Core/drogui/src/matlib.c **** void matAdd(mat* ans, mat* a, mat* b){
 328              		.loc 1 33 38 is_stmt 1 view -0
 329              		.cfi_startproc
 330              		@ args = 0, pretend = 0, frame = 0
 331              		@ frame_needed = 0, uses_anonymous_args = 0
 332              		.loc 1 33 38 is_stmt 0 view .LVU95
 333 0000 10B5     		push	{r4, lr}
 334              	.LCFI2:
 335              		.cfi_def_cfa_offset 8
 336              		.cfi_offset 4, -8
 337              		.cfi_offset 14, -4
 338 0002 1446     		mov	r4, r2
  34:Core/drogui/src/matlib.c ****     for(int i = 0 ;i < ans->row; i++)
 339              		.loc 1 34 5 is_stmt 1 view .LVU96
ARM GAS  C:\Users\USUARIO\AppData\Local\Temp\ccmgcwL3.s 			page 8


 340              	.LBB13:
 341              		.loc 1 34 9 view .LVU97
 342              	.LVL22:
 343              		.loc 1 34 13 is_stmt 0 view .LVU98
 344 0004 4FF0000E 		mov	lr, #0
 345              		.loc 1 34 5 view .LVU99
 346 0008 1CE0     		b	.L24
 347              	.LVL23:
 348              	.L25:
 349              	.LBB14:
  35:Core/drogui/src/matlib.c ****         for(int j = 0 ; j< ans->col ; j++){
  36:Core/drogui/src/matlib.c ****             ans ->val[i][j] = a->val[i][j] + b->val[i][j];
 350              		.loc 1 36 13 is_stmt 1 discriminator 3 view .LVU100
 351              		.loc 1 36 32 is_stmt 0 discriminator 3 view .LVU101
 352 000a 8A68     		ldr	r2, [r1, #8]
 353              		.loc 1 36 37 discriminator 3 view .LVU102
 354 000c 52F82E20 		ldr	r2, [r2, lr, lsl #2]
 355              		.loc 1 36 40 discriminator 3 view .LVU103
 356 0010 02EB830C 		add	ip, r2, r3, lsl #2
 357 0014 DCED007A 		vldr.32	s15, [ip]
 358              		.loc 1 36 52 discriminator 3 view .LVU104
 359 0018 A268     		ldr	r2, [r4, #8]
 360 001a 52F82E20 		ldr	r2, [r2, lr, lsl #2]
 361              		.loc 1 36 55 discriminator 3 view .LVU105
 362 001e 02EB830C 		add	ip, r2, r3, lsl #2
 363 0022 9CED007A 		vldr.32	s14, [ip]
 364              		.loc 1 36 22 discriminator 3 view .LVU106
 365 0026 8268     		ldr	r2, [r0, #8]
 366 0028 52F82E20 		ldr	r2, [r2, lr, lsl #2]
 367              		.loc 1 36 25 discriminator 3 view .LVU107
 368 002c 02EB830C 		add	ip, r2, r3, lsl #2
 369              		.loc 1 36 44 discriminator 3 view .LVU108
 370 0030 77EE877A 		vadd.f32	s15, s15, s14
 371              		.loc 1 36 29 discriminator 3 view .LVU109
 372 0034 CCED007A 		vstr.32	s15, [ip]
  35:Core/drogui/src/matlib.c ****         for(int j = 0 ; j< ans->col ; j++){
 373              		.loc 1 35 39 is_stmt 1 discriminator 3 view .LVU110
  35:Core/drogui/src/matlib.c ****         for(int j = 0 ; j< ans->col ; j++){
 374              		.loc 1 35 40 is_stmt 0 discriminator 3 view .LVU111
 375 0038 0133     		adds	r3, r3, #1
 376              	.LVL24:
 377              	.L26:
  35:Core/drogui/src/matlib.c ****         for(int j = 0 ; j< ans->col ; j++){
 378              		.loc 1 35 25 is_stmt 1 discriminator 1 view .LVU112
  35:Core/drogui/src/matlib.c ****         for(int j = 0 ; j< ans->col ; j++){
 379              		.loc 1 35 9 is_stmt 0 discriminator 1 view .LVU113
 380 003a 4268     		ldr	r2, [r0, #4]
 381 003c 9A42     		cmp	r2, r3
 382 003e E4DC     		bgt	.L25
 383              	.LBE14:
  34:Core/drogui/src/matlib.c ****     for(int i = 0 ;i < ans->row; i++)
 384              		.loc 1 34 34 is_stmt 1 discriminator 2 view .LVU114
  34:Core/drogui/src/matlib.c ****     for(int i = 0 ;i < ans->row; i++)
 385              		.loc 1 34 35 is_stmt 0 discriminator 2 view .LVU115
 386 0040 0EF1010E 		add	lr, lr, #1
 387              	.LVL25:
 388              	.L24:
ARM GAS  C:\Users\USUARIO\AppData\Local\Temp\ccmgcwL3.s 			page 9


  34:Core/drogui/src/matlib.c ****     for(int i = 0 ;i < ans->row; i++)
 389              		.loc 1 34 20 is_stmt 1 discriminator 1 view .LVU116
  34:Core/drogui/src/matlib.c ****     for(int i = 0 ;i < ans->row; i++)
 390              		.loc 1 34 27 is_stmt 0 discriminator 1 view .LVU117
 391 0044 0368     		ldr	r3, [r0]
  34:Core/drogui/src/matlib.c ****     for(int i = 0 ;i < ans->row; i++)
 392              		.loc 1 34 5 discriminator 1 view .LVU118
 393 0046 7345     		cmp	r3, lr
 394 0048 01DD     		ble	.L29
 395              	.LBB15:
  35:Core/drogui/src/matlib.c ****         for(int j = 0 ; j< ans->col ; j++){
 396              		.loc 1 35 17 view .LVU119
 397 004a 0023     		movs	r3, #0
 398 004c F5E7     		b	.L26
 399              	.L29:
 400              	.LBE15:
 401              	.LBE13:
  37:Core/drogui/src/matlib.c ****         }
  38:Core/drogui/src/matlib.c **** }
 402              		.loc 1 38 1 view .LVU120
 403 004e 10BD     		pop	{r4, pc}
 404              		.loc 1 38 1 view .LVU121
 405              		.cfi_endproc
 406              	.LFE3:
 408              		.section	.text.matSubs,"ax",%progbits
 409              		.align	1
 410              		.global	matSubs
 411              		.syntax unified
 412              		.thumb
 413              		.thumb_func
 414              		.fpu fpv5-sp-d16
 416              	matSubs:
 417              	.LVL26:
 418              	.LFB4:
  39:Core/drogui/src/matlib.c **** 
  40:Core/drogui/src/matlib.c **** void matSubs(mat* ans, mat* a, mat* b){
 419              		.loc 1 40 39 is_stmt 1 view -0
 420              		.cfi_startproc
 421              		@ args = 0, pretend = 0, frame = 0
 422              		@ frame_needed = 0, uses_anonymous_args = 0
 423              		.loc 1 40 39 is_stmt 0 view .LVU123
 424 0000 10B5     		push	{r4, lr}
 425              	.LCFI3:
 426              		.cfi_def_cfa_offset 8
 427              		.cfi_offset 4, -8
 428              		.cfi_offset 14, -4
 429 0002 1446     		mov	r4, r2
  41:Core/drogui/src/matlib.c ****     for(int i = 0 ;i < ans->row; i++)
 430              		.loc 1 41 5 is_stmt 1 view .LVU124
 431              	.LBB16:
 432              		.loc 1 41 9 view .LVU125
 433              	.LVL27:
 434              		.loc 1 41 13 is_stmt 0 view .LVU126
 435 0004 4FF0000E 		mov	lr, #0
 436              		.loc 1 41 5 view .LVU127
 437 0008 1CE0     		b	.L31
 438              	.LVL28:
ARM GAS  C:\Users\USUARIO\AppData\Local\Temp\ccmgcwL3.s 			page 10


 439              	.L32:
 440              	.LBB17:
  42:Core/drogui/src/matlib.c ****         for(int j = 0 ; j< ans->col ; j++){
  43:Core/drogui/src/matlib.c ****             ans ->val[i][j] = a->val[i][j] - b->val[i][j];
 441              		.loc 1 43 13 is_stmt 1 discriminator 3 view .LVU128
 442              		.loc 1 43 32 is_stmt 0 discriminator 3 view .LVU129
 443 000a 8A68     		ldr	r2, [r1, #8]
 444              		.loc 1 43 37 discriminator 3 view .LVU130
 445 000c 52F82E20 		ldr	r2, [r2, lr, lsl #2]
 446              		.loc 1 43 40 discriminator 3 view .LVU131
 447 0010 02EB830C 		add	ip, r2, r3, lsl #2
 448 0014 DCED007A 		vldr.32	s15, [ip]
 449              		.loc 1 43 52 discriminator 3 view .LVU132
 450 0018 A268     		ldr	r2, [r4, #8]
 451 001a 52F82E20 		ldr	r2, [r2, lr, lsl #2]
 452              		.loc 1 43 55 discriminator 3 view .LVU133
 453 001e 02EB830C 		add	ip, r2, r3, lsl #2
 454 0022 9CED007A 		vldr.32	s14, [ip]
 455              		.loc 1 43 22 discriminator 3 view .LVU134
 456 0026 8268     		ldr	r2, [r0, #8]
 457 0028 52F82E20 		ldr	r2, [r2, lr, lsl #2]
 458              		.loc 1 43 25 discriminator 3 view .LVU135
 459 002c 02EB830C 		add	ip, r2, r3, lsl #2
 460              		.loc 1 43 44 discriminator 3 view .LVU136
 461 0030 77EEC77A 		vsub.f32	s15, s15, s14
 462              		.loc 1 43 29 discriminator 3 view .LVU137
 463 0034 CCED007A 		vstr.32	s15, [ip]
  42:Core/drogui/src/matlib.c ****         for(int j = 0 ; j< ans->col ; j++){
 464              		.loc 1 42 39 is_stmt 1 discriminator 3 view .LVU138
  42:Core/drogui/src/matlib.c ****         for(int j = 0 ; j< ans->col ; j++){
 465              		.loc 1 42 40 is_stmt 0 discriminator 3 view .LVU139
 466 0038 0133     		adds	r3, r3, #1
 467              	.LVL29:
 468              	.L33:
  42:Core/drogui/src/matlib.c ****         for(int j = 0 ; j< ans->col ; j++){
 469              		.loc 1 42 25 is_stmt 1 discriminator 1 view .LVU140
  42:Core/drogui/src/matlib.c ****         for(int j = 0 ; j< ans->col ; j++){
 470              		.loc 1 42 9 is_stmt 0 discriminator 1 view .LVU141
 471 003a 4268     		ldr	r2, [r0, #4]
 472 003c 9A42     		cmp	r2, r3
 473 003e E4DC     		bgt	.L32
 474              	.LBE17:
  41:Core/drogui/src/matlib.c ****     for(int i = 0 ;i < ans->row; i++)
 475              		.loc 1 41 34 is_stmt 1 discriminator 2 view .LVU142
  41:Core/drogui/src/matlib.c ****     for(int i = 0 ;i < ans->row; i++)
 476              		.loc 1 41 35 is_stmt 0 discriminator 2 view .LVU143
 477 0040 0EF1010E 		add	lr, lr, #1
 478              	.LVL30:
 479              	.L31:
  41:Core/drogui/src/matlib.c ****     for(int i = 0 ;i < ans->row; i++)
 480              		.loc 1 41 20 is_stmt 1 discriminator 1 view .LVU144
  41:Core/drogui/src/matlib.c ****     for(int i = 0 ;i < ans->row; i++)
 481              		.loc 1 41 27 is_stmt 0 discriminator 1 view .LVU145
 482 0044 0368     		ldr	r3, [r0]
  41:Core/drogui/src/matlib.c ****     for(int i = 0 ;i < ans->row; i++)
 483              		.loc 1 41 5 discriminator 1 view .LVU146
 484 0046 7345     		cmp	r3, lr
ARM GAS  C:\Users\USUARIO\AppData\Local\Temp\ccmgcwL3.s 			page 11


 485 0048 01DD     		ble	.L36
 486              	.LBB18:
  42:Core/drogui/src/matlib.c ****         for(int j = 0 ; j< ans->col ; j++){
 487              		.loc 1 42 17 view .LVU147
 488 004a 0023     		movs	r3, #0
 489 004c F5E7     		b	.L33
 490              	.L36:
 491              	.LBE18:
 492              	.LBE16:
  44:Core/drogui/src/matlib.c ****         }
  45:Core/drogui/src/matlib.c **** }
 493              		.loc 1 45 1 view .LVU148
 494 004e 10BD     		pop	{r4, pc}
 495              		.loc 1 45 1 view .LVU149
 496              		.cfi_endproc
 497              	.LFE4:
 499              		.section	.text.matTrans,"ax",%progbits
 500              		.align	1
 501              		.global	matTrans
 502              		.syntax unified
 503              		.thumb
 504              		.thumb_func
 505              		.fpu fpv5-sp-d16
 507              	matTrans:
 508              	.LVL31:
 509              	.LFB5:
  46:Core/drogui/src/matlib.c **** 
  47:Core/drogui/src/matlib.c **** void matTrans(mat* Rt,mat* R){
 510              		.loc 1 47 30 is_stmt 1 view -0
 511              		.cfi_startproc
 512              		@ args = 0, pretend = 0, frame = 0
 513              		@ frame_needed = 0, uses_anonymous_args = 0
 514              		.loc 1 47 30 is_stmt 0 view .LVU151
 515 0000 10B5     		push	{r4, lr}
 516              	.LCFI4:
 517              		.cfi_def_cfa_offset 8
 518              		.cfi_offset 4, -8
 519              		.cfi_offset 14, -4
 520 0002 0446     		mov	r4, r0
 521 0004 0846     		mov	r0, r1
 522              	.LVL32:
  48:Core/drogui/src/matlib.c ****     for( int i = 0; i < R->row; i++ ){
 523              		.loc 1 48 5 is_stmt 1 view .LVU152
 524              	.LBB19:
 525              		.loc 1 48 10 view .LVU153
 526              		.loc 1 48 14 is_stmt 0 view .LVU154
 527 0006 4FF0000E 		mov	lr, #0
 528              		.loc 1 48 5 view .LVU155
 529 000a 12E0     		b	.L38
 530              	.LVL33:
 531              	.L39:
 532              	.LBB20:
  49:Core/drogui/src/matlib.c ****         for( int j = 0; j < R->col; j++ ){
  50:Core/drogui/src/matlib.c ****             Rt->val[j][i] = R->val[i][j];
 533              		.loc 1 50 13 is_stmt 1 discriminator 3 view .LVU156
 534              		.loc 1 50 30 is_stmt 0 discriminator 3 view .LVU157
 535 000c 8268     		ldr	r2, [r0, #8]
ARM GAS  C:\Users\USUARIO\AppData\Local\Temp\ccmgcwL3.s 			page 12


 536              		.loc 1 50 35 discriminator 3 view .LVU158
 537 000e 52F82E10 		ldr	r1, [r2, lr, lsl #2]
 538              		.loc 1 50 15 discriminator 3 view .LVU159
 539 0012 A268     		ldr	r2, [r4, #8]
 540              		.loc 1 50 20 discriminator 3 view .LVU160
 541 0014 52F82320 		ldr	r2, [r2, r3, lsl #2]
 542              		.loc 1 50 23 discriminator 3 view .LVU161
 543 0018 02EB8E02 		add	r2, r2, lr, lsl #2
 544              		.loc 1 50 38 discriminator 3 view .LVU162
 545 001c 01EB830C 		add	ip, r1, r3, lsl #2
 546 0020 DCF80010 		ldr	r1, [ip]	@ float
 547              		.loc 1 50 27 discriminator 3 view .LVU163
 548 0024 1160     		str	r1, [r2]	@ float
  49:Core/drogui/src/matlib.c ****         for( int j = 0; j < R->col; j++ ){
 549              		.loc 1 49 37 is_stmt 1 discriminator 3 view .LVU164
  49:Core/drogui/src/matlib.c ****         for( int j = 0; j < R->col; j++ ){
 550              		.loc 1 49 38 is_stmt 0 discriminator 3 view .LVU165
 551 0026 0133     		adds	r3, r3, #1
 552              	.LVL34:
 553              	.L40:
  49:Core/drogui/src/matlib.c ****         for( int j = 0; j < R->col; j++ ){
 554              		.loc 1 49 25 is_stmt 1 discriminator 1 view .LVU166
  49:Core/drogui/src/matlib.c ****         for( int j = 0; j < R->col; j++ ){
 555              		.loc 1 49 30 is_stmt 0 discriminator 1 view .LVU167
 556 0028 4268     		ldr	r2, [r0, #4]
  49:Core/drogui/src/matlib.c ****         for( int j = 0; j < R->col; j++ ){
 557              		.loc 1 49 9 discriminator 1 view .LVU168
 558 002a 9A42     		cmp	r2, r3
 559 002c EEDC     		bgt	.L39
 560              	.LBE20:
  48:Core/drogui/src/matlib.c ****     for( int i = 0; i < R->row; i++ ){
 561              		.loc 1 48 33 is_stmt 1 discriminator 2 view .LVU169
  48:Core/drogui/src/matlib.c ****     for( int i = 0; i < R->row; i++ ){
 562              		.loc 1 48 34 is_stmt 0 discriminator 2 view .LVU170
 563 002e 0EF1010E 		add	lr, lr, #1
 564              	.LVL35:
 565              	.L38:
  48:Core/drogui/src/matlib.c ****     for( int i = 0; i < R->row; i++ ){
 566              		.loc 1 48 21 is_stmt 1 discriminator 1 view .LVU171
  48:Core/drogui/src/matlib.c ****     for( int i = 0; i < R->row; i++ ){
 567              		.loc 1 48 26 is_stmt 0 discriminator 1 view .LVU172
 568 0032 0368     		ldr	r3, [r0]
  48:Core/drogui/src/matlib.c ****     for( int i = 0; i < R->row; i++ ){
 569              		.loc 1 48 5 discriminator 1 view .LVU173
 570 0034 7345     		cmp	r3, lr
 571 0036 01DD     		ble	.L43
 572              	.LBB21:
  49:Core/drogui/src/matlib.c ****         for( int j = 0; j < R->col; j++ ){
 573              		.loc 1 49 18 view .LVU174
 574 0038 0023     		movs	r3, #0
 575 003a F5E7     		b	.L40
 576              	.L43:
 577              	.LBE21:
 578              	.LBE19:
  51:Core/drogui/src/matlib.c ****         }
  52:Core/drogui/src/matlib.c ****     }
  53:Core/drogui/src/matlib.c **** }
ARM GAS  C:\Users\USUARIO\AppData\Local\Temp\ccmgcwL3.s 			page 13


 579              		.loc 1 53 1 view .LVU175
 580 003c 10BD     		pop	{r4, pc}
 581              		.loc 1 53 1 view .LVU176
 582              		.cfi_endproc
 583              	.LFE5:
 585              		.section	.text.det3,"ax",%progbits
 586              		.align	1
 587              		.global	det3
 588              		.syntax unified
 589              		.thumb
 590              		.thumb_func
 591              		.fpu fpv5-sp-d16
 593              	det3:
 594              	.LVL36:
 595              	.LFB6:
  54:Core/drogui/src/matlib.c **** float det3(mat* R){
 596              		.loc 1 54 19 is_stmt 1 view -0
 597              		.cfi_startproc
 598              		@ args = 0, pretend = 0, frame = 0
 599              		@ frame_needed = 0, uses_anonymous_args = 0
 600              		@ link register save eliminated.
  55:Core/drogui/src/matlib.c ****     float det = ((R->val[0][0])*(R->val[1][1])*(R->val[2][2])) +((R->val[0][1])*(R->val[1][2])*(R->
 601              		.loc 1 55 5 view .LVU178
 602              		.loc 1 55 20 is_stmt 0 view .LVU179
 603 0000 8368     		ldr	r3, [r0, #8]
 604              		.loc 1 55 25 view .LVU180
 605 0002 1968     		ldr	r1, [r3]
 606              		.loc 1 55 28 view .LVU181
 607 0004 91ED007A 		vldr.32	s14, [r1]
 608              		.loc 1 55 40 view .LVU182
 609 0008 5A68     		ldr	r2, [r3, #4]
 610              		.loc 1 55 43 view .LVU183
 611 000a 92ED015A 		vldr.32	s10, [r2, #4]
 612              		.loc 1 55 32 view .LVU184
 613 000e 67EE057A 		vmul.f32	s15, s14, s10
 614              		.loc 1 55 55 view .LVU185
 615 0012 9B68     		ldr	r3, [r3, #8]
 616              		.loc 1 55 58 view .LVU186
 617 0014 D3ED026A 		vldr.32	s13, [r3, #8]
 618              		.loc 1 55 47 view .LVU187
 619 0018 67EEA67A 		vmul.f32	s15, s15, s13
 620              		.loc 1 55 76 view .LVU188
 621 001c 91ED016A 		vldr.32	s12, [r1, #4]
 622              		.loc 1 55 91 view .LVU189
 623 0020 92ED024A 		vldr.32	s8, [r2, #8]
 624              		.loc 1 55 80 view .LVU190
 625 0024 66EE044A 		vmul.f32	s9, s12, s8
 626              		.loc 1 55 106 view .LVU191
 627 0028 D3ED005A 		vldr.32	s11, [r3]
 628              		.loc 1 55 95 view .LVU192
 629 002c 64EEA54A 		vmul.f32	s9, s9, s11
 630              		.loc 1 55 64 view .LVU193
 631 0030 77EEA47A 		vadd.f32	s15, s15, s9
  56:Core/drogui/src/matlib.c ****      + ((R->val[0][2])*(R->val[1][0])*(R->val[2][1])) - ((R->val[0][2])*(R->val[1][1])*(R->val[2][0
 632              		.loc 1 56 19 view .LVU194
 633 0034 91ED023A 		vldr.32	s6, [r1, #8]
 634              		.loc 1 56 34 view .LVU195
ARM GAS  C:\Users\USUARIO\AppData\Local\Temp\ccmgcwL3.s 			page 14


 635 0038 D2ED003A 		vldr.32	s7, [r2]
 636              		.loc 1 56 23 view .LVU196
 637 003c 63EE234A 		vmul.f32	s9, s6, s7
 638              		.loc 1 56 49 view .LVU197
 639 0040 93ED010A 		vldr.32	s0, [r3, #4]
 640              		.loc 1 56 38 view .LVU198
 641 0044 64EE804A 		vmul.f32	s9, s9, s0
 642              		.loc 1 56 6 view .LVU199
 643 0048 77EEA47A 		vadd.f32	s15, s15, s9
 644              		.loc 1 56 72 view .LVU200
 645 004c 25EE035A 		vmul.f32	s10, s10, s6
 646              		.loc 1 56 87 view .LVU201
 647 0050 65EE855A 		vmul.f32	s11, s11, s10
 648              		.loc 1 56 55 view .LVU202
 649 0054 77EEE57A 		vsub.f32	s15, s15, s11
  57:Core/drogui/src/matlib.c ****      - ((R->val[0][1])*(R->val[1][0])*(R->val[2][2])) - ((R->val[0][0])*(R->val[1][2])*(R->val[2][1
 650              		.loc 1 57 23 view .LVU203
 651 0058 26EE236A 		vmul.f32	s12, s12, s7
 652              		.loc 1 57 38 view .LVU204
 653 005c 66EE866A 		vmul.f32	s13, s13, s12
 654              		.loc 1 57 6 view .LVU205
 655 0060 77EEE67A 		vsub.f32	s15, s15, s13
 656              		.loc 1 57 72 view .LVU206
 657 0064 27EE047A 		vmul.f32	s14, s14, s8
 658              		.loc 1 57 87 view .LVU207
 659 0068 20EE070A 		vmul.f32	s0, s0, s14
 660              	.LVL37:
  58:Core/drogui/src/matlib.c ****     
  59:Core/drogui/src/matlib.c ****     return det;
 661              		.loc 1 59 5 is_stmt 1 view .LVU208
  60:Core/drogui/src/matlib.c **** }
 662              		.loc 1 60 1 is_stmt 0 view .LVU209
 663 006c 37EEC00A 		vsub.f32	s0, s15, s0
 664              	.LVL38:
 665              		.loc 1 60 1 view .LVU210
 666 0070 7047     		bx	lr
 667              		.cfi_endproc
 668              	.LFE6:
 670              		.section	.text.quaternionToR,"ax",%progbits
 671              		.align	1
 672              		.global	quaternionToR
 673              		.syntax unified
 674              		.thumb
 675              		.thumb_func
 676              		.fpu fpv5-sp-d16
 678              	quaternionToR:
 679              	.LVL39:
 680              	.LFB8:
  61:Core/drogui/src/matlib.c **** void matInv3(mat* Rinv, mat* R){
  62:Core/drogui/src/matlib.c ****     float val_det = 0;
  63:Core/drogui/src/matlib.c ****     mat aux1;
  64:Core/drogui/src/matlib.c **** 
  65:Core/drogui/src/matlib.c ****     val_det = det3(R); 
  66:Core/drogui/src/matlib.c ****     
  67:Core/drogui/src/matlib.c ****     matInit(&aux1,3,3);
  68:Core/drogui/src/matlib.c ****     
  69:Core/drogui/src/matlib.c ****     matTrans(&aux1,R);
ARM GAS  C:\Users\USUARIO\AppData\Local\Temp\ccmgcwL3.s 			page 15


  70:Core/drogui/src/matlib.c ****     
  71:Core/drogui/src/matlib.c ****     for( int i = 0; i < 3; i++ ){
  72:Core/drogui/src/matlib.c ****         for( int j = 0; j < 3; j++ ){
  73:Core/drogui/src/matlib.c ****             Rinv->val[i][j] = ((aux1.val[(i+1)%3][(j+1)%3])*(aux1.val[(i+2)%3][(j+2)%3]) - (aux1.va
  74:Core/drogui/src/matlib.c ****             Rinv->val[i][j] = 1.0*(1/val_det)*(Rinv->val[i][j]);
  75:Core/drogui/src/matlib.c ****             //Rinv->val[i][j] = aux1.val[i][j];
  76:Core/drogui/src/matlib.c ****         }
  77:Core/drogui/src/matlib.c ****     }
  78:Core/drogui/src/matlib.c ****     matDestruct(&aux1);
  79:Core/drogui/src/matlib.c **** }
  80:Core/drogui/src/matlib.c **** 
  81:Core/drogui/src/matlib.c **** void quaternionToR(mat* R, float n, float ex, float ey, float ez){
 681              		.loc 1 81 66 is_stmt 1 view -0
 682              		.cfi_startproc
 683              		@ args = 0, pretend = 0, frame = 0
 684              		@ frame_needed = 0, uses_anonymous_args = 0
 685              		@ link register save eliminated.
  82:Core/drogui/src/matlib.c ****     R->row = R->col = 3;
 686              		.loc 1 82 5 view .LVU212
 687              		.loc 1 82 21 is_stmt 0 view .LVU213
 688 0000 0323     		movs	r3, #3
 689 0002 4360     		str	r3, [r0, #4]
 690              		.loc 1 82 12 view .LVU214
 691 0004 0360     		str	r3, [r0]
  83:Core/drogui/src/matlib.c ****     
  84:Core/drogui/src/matlib.c ****     R->val[0][0] = 2*(n*n + ex*ex) - 1;
 692              		.loc 1 84 5 is_stmt 1 view .LVU215
 693              		.loc 1 84 24 is_stmt 0 view .LVU216
 694 0006 60EE007A 		vmul.f32	s15, s0, s0
 695              		.loc 1 84 31 view .LVU217
 696 000a 20EEA07A 		vmul.f32	s14, s1, s1
 697              		.loc 1 84 27 view .LVU218
 698 000e 37EE877A 		vadd.f32	s14, s15, s14
 699              		.loc 1 84 21 view .LVU219
 700 0012 37EE077A 		vadd.f32	s14, s14, s14
 701              		.loc 1 84 6 view .LVU220
 702 0016 8368     		ldr	r3, [r0, #8]
 703              		.loc 1 84 11 view .LVU221
 704 0018 1B68     		ldr	r3, [r3]
 705              		.loc 1 84 36 view .LVU222
 706 001a B7EE005A 		vmov.f32	s10, #1.0e+0
 707 001e 37EE457A 		vsub.f32	s14, s14, s10
 708              		.loc 1 84 18 view .LVU223
 709 0022 83ED007A 		vstr.32	s14, [r3]
  85:Core/drogui/src/matlib.c ****     R->val[0][1] = 2*(ex*ey - n*ez);
 710              		.loc 1 85 5 is_stmt 1 view .LVU224
 711              		.loc 1 85 25 is_stmt 0 view .LVU225
 712 0026 20EE816A 		vmul.f32	s12, s1, s2
 713              		.loc 1 85 32 view .LVU226
 714 002a 20EE214A 		vmul.f32	s8, s0, s3
 715              		.loc 1 85 29 view .LVU227
 716 002e 36EE447A 		vsub.f32	s14, s12, s8
 717              		.loc 1 85 6 view .LVU228
 718 0032 8368     		ldr	r3, [r0, #8]
 719              		.loc 1 85 11 view .LVU229
 720 0034 1B68     		ldr	r3, [r3]
 721              		.loc 1 85 21 view .LVU230
ARM GAS  C:\Users\USUARIO\AppData\Local\Temp\ccmgcwL3.s 			page 16


 722 0036 37EE077A 		vadd.f32	s14, s14, s14
 723              		.loc 1 85 18 view .LVU231
 724 003a 83ED017A 		vstr.32	s14, [r3, #4]
  86:Core/drogui/src/matlib.c ****     R->val[0][2] = 2*(ex*ez + n*ey);
 725              		.loc 1 86 5 is_stmt 1 view .LVU232
 726              		.loc 1 86 25 is_stmt 0 view .LVU233
 727 003e 60EEA16A 		vmul.f32	s13, s1, s3
 728              		.loc 1 86 32 view .LVU234
 729 0042 60EE014A 		vmul.f32	s9, s0, s2
 730              		.loc 1 86 29 view .LVU235
 731 0046 76EEA45A 		vadd.f32	s11, s13, s9
 732              		.loc 1 86 6 view .LVU236
 733 004a 8368     		ldr	r3, [r0, #8]
 734              		.loc 1 86 11 view .LVU237
 735 004c 1B68     		ldr	r3, [r3]
 736              		.loc 1 86 21 view .LVU238
 737 004e 75EEA55A 		vadd.f32	s11, s11, s11
 738              		.loc 1 86 18 view .LVU239
 739 0052 C3ED025A 		vstr.32	s11, [r3, #8]
  87:Core/drogui/src/matlib.c **** 
  88:Core/drogui/src/matlib.c ****     R->val[1][0] = 2*(ex*ey + n*ez);
 740              		.loc 1 88 5 is_stmt 1 view .LVU240
 741              		.loc 1 88 29 is_stmt 0 view .LVU241
 742 0056 36EE046A 		vadd.f32	s12, s12, s8
 743              		.loc 1 88 6 view .LVU242
 744 005a 8368     		ldr	r3, [r0, #8]
 745              		.loc 1 88 11 view .LVU243
 746 005c 5B68     		ldr	r3, [r3, #4]
 747              		.loc 1 88 21 view .LVU244
 748 005e 36EE066A 		vadd.f32	s12, s12, s12
 749              		.loc 1 88 18 view .LVU245
 750 0062 83ED006A 		vstr.32	s12, [r3]
  89:Core/drogui/src/matlib.c ****     R->val[1][1] = 2*(n*n + ey*ey) - 1;
 751              		.loc 1 89 5 is_stmt 1 view .LVU246
 752              		.loc 1 89 31 is_stmt 0 view .LVU247
 753 0066 21EE017A 		vmul.f32	s14, s2, s2
 754              		.loc 1 89 27 view .LVU248
 755 006a 37EE877A 		vadd.f32	s14, s15, s14
 756              		.loc 1 89 21 view .LVU249
 757 006e 37EE077A 		vadd.f32	s14, s14, s14
 758              		.loc 1 89 6 view .LVU250
 759 0072 8368     		ldr	r3, [r0, #8]
 760              		.loc 1 89 11 view .LVU251
 761 0074 5B68     		ldr	r3, [r3, #4]
 762              		.loc 1 89 36 view .LVU252
 763 0076 37EE457A 		vsub.f32	s14, s14, s10
 764              		.loc 1 89 18 view .LVU253
 765 007a 83ED017A 		vstr.32	s14, [r3, #4]
  90:Core/drogui/src/matlib.c ****     R->val[1][2] = 2*(ey*ez - n*ex);
 766              		.loc 1 90 5 is_stmt 1 view .LVU254
 767              		.loc 1 90 25 is_stmt 0 view .LVU255
 768 007e 21EE211A 		vmul.f32	s2, s2, s3
 769              	.LVL40:
 770              		.loc 1 90 32 view .LVU256
 771 0082 20EE200A 		vmul.f32	s0, s0, s1
 772              	.LVL41:
 773              		.loc 1 90 29 view .LVU257
ARM GAS  C:\Users\USUARIO\AppData\Local\Temp\ccmgcwL3.s 			page 17


 774 0086 31EE406A 		vsub.f32	s12, s2, s0
 775              		.loc 1 90 6 view .LVU258
 776 008a 8368     		ldr	r3, [r0, #8]
 777              		.loc 1 90 11 view .LVU259
 778 008c 5B68     		ldr	r3, [r3, #4]
 779              		.loc 1 90 21 view .LVU260
 780 008e 36EE066A 		vadd.f32	s12, s12, s12
 781              		.loc 1 90 18 view .LVU261
 782 0092 83ED026A 		vstr.32	s12, [r3, #8]
  91:Core/drogui/src/matlib.c ****     
  92:Core/drogui/src/matlib.c ****     R->val[2][0] = 2*(ex*ez - n*ey);
 783              		.loc 1 92 5 is_stmt 1 view .LVU262
 784              		.loc 1 92 29 is_stmt 0 view .LVU263
 785 0096 36EEE47A 		vsub.f32	s14, s13, s9
 786              		.loc 1 92 6 view .LVU264
 787 009a 8368     		ldr	r3, [r0, #8]
 788              		.loc 1 92 11 view .LVU265
 789 009c 9B68     		ldr	r3, [r3, #8]
 790              		.loc 1 92 21 view .LVU266
 791 009e 37EE077A 		vadd.f32	s14, s14, s14
 792              		.loc 1 92 18 view .LVU267
 793 00a2 83ED007A 		vstr.32	s14, [r3]
  93:Core/drogui/src/matlib.c ****     R->val[2][1] = 2*(ey*ez + n*ex);
 794              		.loc 1 93 5 is_stmt 1 view .LVU268
 795              		.loc 1 93 29 is_stmt 0 view .LVU269
 796 00a6 31EE001A 		vadd.f32	s2, s2, s0
 797              		.loc 1 93 6 view .LVU270
 798 00aa 8368     		ldr	r3, [r0, #8]
 799              		.loc 1 93 11 view .LVU271
 800 00ac 9B68     		ldr	r3, [r3, #8]
 801              		.loc 1 93 21 view .LVU272
 802 00ae 31EE011A 		vadd.f32	s2, s2, s2
 803              		.loc 1 93 18 view .LVU273
 804 00b2 83ED011A 		vstr.32	s2, [r3, #4]
  94:Core/drogui/src/matlib.c ****     R->val[2][2] = 2*(n*n + ez*ez) - 1;
 805              		.loc 1 94 5 is_stmt 1 view .LVU274
 806              		.loc 1 94 31 is_stmt 0 view .LVU275
 807 00b6 61EEA11A 		vmul.f32	s3, s3, s3
 808              	.LVL42:
 809              		.loc 1 94 27 view .LVU276
 810 00ba 77EEA17A 		vadd.f32	s15, s15, s3
 811              		.loc 1 94 21 view .LVU277
 812 00be 77EEA77A 		vadd.f32	s15, s15, s15
 813              		.loc 1 94 6 view .LVU278
 814 00c2 8368     		ldr	r3, [r0, #8]
 815              		.loc 1 94 11 view .LVU279
 816 00c4 9B68     		ldr	r3, [r3, #8]
 817              		.loc 1 94 36 view .LVU280
 818 00c6 77EEC57A 		vsub.f32	s15, s15, s10
 819              		.loc 1 94 18 view .LVU281
 820 00ca C3ED027A 		vstr.32	s15, [r3, #8]
  95:Core/drogui/src/matlib.c **** }
 821              		.loc 1 95 1 view .LVU282
 822 00ce 7047     		bx	lr
 823              		.cfi_endproc
 824              	.LFE8:
 826              		.global	__aeabi_f2d
ARM GAS  C:\Users\USUARIO\AppData\Local\Temp\ccmgcwL3.s 			page 18


 827              		.global	__aeabi_dmul
 828              		.global	__aeabi_d2f
 829              		.global	__aeabi_dsub
 830              		.global	__aeabi_dadd
 831              		.section	.text.rpyToR,"ax",%progbits
 832              		.align	1
 833              		.global	rpyToR
 834              		.syntax unified
 835              		.thumb
 836              		.thumb_func
 837              		.fpu fpv5-sp-d16
 839              	rpyToR:
 840              	.LVL43:
 841              	.LFB9:
  96:Core/drogui/src/matlib.c **** 
  97:Core/drogui/src/matlib.c **** void rpyToR(mat* R, float roll, float pitch, float yaw){
 842              		.loc 1 97 56 is_stmt 1 view -0
 843              		.cfi_startproc
 844              		@ args = 0, pretend = 0, frame = 40
 845              		@ frame_needed = 0, uses_anonymous_args = 0
 846              		.loc 1 97 56 is_stmt 0 view .LVU284
 847 0000 2DE9F04F 		push	{r4, r5, r6, r7, r8, r9, r10, fp, lr}
 848              	.LCFI5:
 849              		.cfi_def_cfa_offset 36
 850              		.cfi_offset 4, -36
 851              		.cfi_offset 5, -32
 852              		.cfi_offset 6, -28
 853              		.cfi_offset 7, -24
 854              		.cfi_offset 8, -20
 855              		.cfi_offset 9, -16
 856              		.cfi_offset 10, -12
 857              		.cfi_offset 11, -8
 858              		.cfi_offset 14, -4
 859 0004 2DED048B 		vpush.64	{d8, d9}
 860              	.LCFI6:
 861              		.cfi_def_cfa_offset 52
 862              		.cfi_offset 80, -52
 863              		.cfi_offset 81, -48
 864              		.cfi_offset 82, -44
 865              		.cfi_offset 83, -40
 866 0008 8BB0     		sub	sp, sp, #44
 867              	.LCFI7:
 868              		.cfi_def_cfa_offset 96
 869 000a 8246     		mov	r10, r0
 870 000c 10EE104A 		vmov	r4, s0
 871 0010 10EE905A 		vmov	r5, s1
 872 0014 11EE100A 		vmov	r0, s2
 873              	.LVL44:
  98:Core/drogui/src/matlib.c ****     R->row = R->col = 3;
 874              		.loc 1 98 5 is_stmt 1 view .LVU285
 875              		.loc 1 98 21 is_stmt 0 view .LVU286
 876 0018 0323     		movs	r3, #3
 877 001a CAF80430 		str	r3, [r10, #4]
 878              		.loc 1 98 12 view .LVU287
 879 001e CAF80030 		str	r3, [r10]
  99:Core/drogui/src/matlib.c ****     
 100:Core/drogui/src/matlib.c ****     R->val[0][0] = cos(yaw)*cos(pitch);
ARM GAS  C:\Users\USUARIO\AppData\Local\Temp\ccmgcwL3.s 			page 19


 880              		.loc 1 100 5 is_stmt 1 view .LVU288
 881              		.loc 1 100 20 is_stmt 0 view .LVU289
 882 0022 FFF7FEFF 		bl	__aeabi_f2d
 883              	.LVL45:
 884              		.loc 1 100 20 view .LVU290
 885 0026 41EC190B 		vmov	d9, r0, r1
 886 002a 41EC100B 		vmov	d0, r0, r1
 887 002e FFF7FEFF 		bl	cos
 888              	.LVL46:
 889 0032 57EC106B 		vmov	r6, r7, d0
 890              		.loc 1 100 29 view .LVU291
 891 0036 2846     		mov	r0, r5	@ float
 892 0038 FFF7FEFF 		bl	__aeabi_f2d
 893              	.LVL47:
 894 003c 41EC180B 		vmov	d8, r0, r1
 895 0040 41EC100B 		vmov	d0, r0, r1
 896 0044 FFF7FEFF 		bl	cos
 897              	.LVL48:
 898 0048 52EC101B 		vmov	r1, r2, d0
 899              		.loc 1 100 6 view .LVU292
 900 004c DAF80830 		ldr	r3, [r10, #8]
 901              		.loc 1 100 11 view .LVU293
 902 0050 1D68     		ldr	r5, [r3]
 903              	.LVL49:
 904              		.loc 1 100 28 view .LVU294
 905 0052 8DED060B 		vstr.64	d0, [sp, #24]
 906 0056 1346     		mov	r3, r2
 907 0058 10EE102A 		vmov	r2, s0	@ int
 908 005c 3046     		mov	r0, r6
 909 005e 3946     		mov	r1, r7
 910 0060 FFF7FEFF 		bl	__aeabi_dmul
 911              	.LVL50:
 912 0064 FFF7FEFF 		bl	__aeabi_d2f
 913              	.LVL51:
 914              		.loc 1 100 18 view .LVU295
 915 0068 2860     		str	r0, [r5]	@ float
 101:Core/drogui/src/matlib.c ****     R->val[0][1] = cos(yaw)*sin(pitch)*sin(roll) - sin(yaw)*cos(roll);
 916              		.loc 1 101 5 is_stmt 1 view .LVU296
 917              		.loc 1 101 29 is_stmt 0 view .LVU297
 918 006a B0EE480A 		vmov.f32	s0, s16
 919 006e F0EE680A 		vmov.f32	s1, s17
 920 0072 FFF7FEFF 		bl	sin
 921              	.LVL52:
 922 0076 53EC102B 		vmov	r2, r3, d0
 923              		.loc 1 101 28 view .LVU298
 924 007a 8DED080B 		vstr.64	d0, [sp, #32]
 925 007e CDE90467 		strd	r6, [sp, #16]
 926 0082 3046     		mov	r0, r6
 927 0084 3946     		mov	r1, r7
 928 0086 FFF7FEFF 		bl	__aeabi_dmul
 929              	.LVL53:
 930 008a 0646     		mov	r6, r0
 931 008c 0F46     		mov	r7, r1
 932              		.loc 1 101 40 view .LVU299
 933 008e 2046     		mov	r0, r4	@ float
 934 0090 FFF7FEFF 		bl	__aeabi_f2d
 935              	.LVL54:
ARM GAS  C:\Users\USUARIO\AppData\Local\Temp\ccmgcwL3.s 			page 20


 936 0094 41EC180B 		vmov	d8, r0, r1
 937 0098 41EC100B 		vmov	d0, r0, r1
 938 009c FFF7FEFF 		bl	sin
 939              	.LVL55:
 940 00a0 54EC103B 		vmov	r3, r4, d0
 941              		.loc 1 101 39 view .LVU300
 942 00a4 8DED020B 		vstr.64	d0, [sp, #8]
 943 00a8 10EE102A 		vmov	r2, s0	@ int
 944 00ac 2346     		mov	r3, r4
 945 00ae 3046     		mov	r0, r6
 946 00b0 3946     		mov	r1, r7
 947 00b2 FFF7FEFF 		bl	__aeabi_dmul
 948              	.LVL56:
 949 00b6 8046     		mov	r8, r0
 950 00b8 8946     		mov	r9, r1
 951              		.loc 1 101 52 view .LVU301
 952 00ba B0EE490A 		vmov.f32	s0, s18
 953 00be F0EE690A 		vmov.f32	s1, s19
 954 00c2 FFF7FEFF 		bl	sin
 955              	.LVL57:
 956 00c6 55EC104B 		vmov	r4, r5, d0
 957              	.LVL58:
 958              		.loc 1 101 61 view .LVU302
 959 00ca B0EE480A 		vmov.f32	s0, s16
 960 00ce F0EE680A 		vmov.f32	s1, s17
 961 00d2 FFF7FEFF 		bl	cos
 962              	.LVL59:
 963 00d6 53EC102B 		vmov	r2, r3, d0
 964              		.loc 1 101 60 view .LVU303
 965 00da 8DED000B 		vstr.64	d0, [sp]
 966 00de 2046     		mov	r0, r4
 967 00e0 2946     		mov	r1, r5
 968 00e2 FFF7FEFF 		bl	__aeabi_dmul
 969              	.LVL60:
 970 00e6 0246     		mov	r2, r0
 971 00e8 0B46     		mov	r3, r1
 972              		.loc 1 101 6 view .LVU304
 973 00ea DAF80810 		ldr	r1, [r10, #8]
 974              		.loc 1 101 11 view .LVU305
 975 00ee D1F800B0 		ldr	fp, [r1]
 976              		.loc 1 101 50 view .LVU306
 977 00f2 4046     		mov	r0, r8
 978 00f4 4946     		mov	r1, r9
 979 00f6 FFF7FEFF 		bl	__aeabi_dsub
 980              	.LVL61:
 981 00fa FFF7FEFF 		bl	__aeabi_d2f
 982              	.LVL62:
 983              		.loc 1 101 18 view .LVU307
 984 00fe CBF80400 		str	r0, [fp, #4]	@ float
 102:Core/drogui/src/matlib.c ****     R->val[0][2] = cos(yaw)*sin(pitch)*cos(roll) + sin(yaw)*sin(roll);
 985              		.loc 1 102 5 is_stmt 1 view .LVU308
 986              		.loc 1 102 39 is_stmt 0 view .LVU309
 987 0102 DDE90023 		ldrd	r2, [sp]
 988 0106 3046     		mov	r0, r6
 989 0108 3946     		mov	r1, r7
 990 010a FFF7FEFF 		bl	__aeabi_dmul
 991              	.LVL63:
ARM GAS  C:\Users\USUARIO\AppData\Local\Temp\ccmgcwL3.s 			page 21


 992 010e 0646     		mov	r6, r0
 993 0110 0F46     		mov	r7, r1
 994              		.loc 1 102 60 view .LVU310
 995 0112 2246     		mov	r2, r4
 996 0114 2B46     		mov	r3, r5
 997 0116 DDE90201 		ldrd	r0, [sp, #8]
 998 011a FFF7FEFF 		bl	__aeabi_dmul
 999              	.LVL64:
 1000 011e 0246     		mov	r2, r0
 1001 0120 0B46     		mov	r3, r1
 1002              		.loc 1 102 6 view .LVU311
 1003 0122 DAF80810 		ldr	r1, [r10, #8]
 1004              		.loc 1 102 11 view .LVU312
 1005 0126 D1F80080 		ldr	r8, [r1]
 1006              		.loc 1 102 50 view .LVU313
 1007 012a 3046     		mov	r0, r6
 1008 012c 3946     		mov	r1, r7
 1009 012e FFF7FEFF 		bl	__aeabi_dadd
 1010              	.LVL65:
 1011 0132 FFF7FEFF 		bl	__aeabi_d2f
 1012              	.LVL66:
 1013              		.loc 1 102 18 view .LVU314
 1014 0136 C8F80800 		str	r0, [r8, #8]	@ float
 103:Core/drogui/src/matlib.c **** 
 104:Core/drogui/src/matlib.c ****     R->val[1][0] = sin(yaw)*cos(pitch);
 1015              		.loc 1 104 5 is_stmt 1 view .LVU315
 1016              		.loc 1 104 6 is_stmt 0 view .LVU316
 1017 013a DAF80830 		ldr	r3, [r10, #8]
 1018              		.loc 1 104 11 view .LVU317
 1019 013e 5E68     		ldr	r6, [r3, #4]
 1020              		.loc 1 104 28 view .LVU318
 1021 0140 2246     		mov	r2, r4
 1022 0142 2B46     		mov	r3, r5
 1023 0144 DDE90601 		ldrd	r0, [sp, #24]
 1024 0148 FFF7FEFF 		bl	__aeabi_dmul
 1025              	.LVL67:
 1026 014c FFF7FEFF 		bl	__aeabi_d2f
 1027              	.LVL68:
 1028              		.loc 1 104 18 view .LVU319
 1029 0150 3060     		str	r0, [r6]	@ float
 105:Core/drogui/src/matlib.c ****     R->val[1][1] = sin(yaw)*sin(pitch)*sin(roll) + cos(yaw)*cos(roll);
 1030              		.loc 1 105 5 is_stmt 1 view .LVU320
 1031              		.loc 1 105 28 is_stmt 0 view .LVU321
 1032 0152 2246     		mov	r2, r4
 1033 0154 2B46     		mov	r3, r5
 1034 0156 DDE90801 		ldrd	r0, [sp, #32]
 1035 015a FFF7FEFF 		bl	__aeabi_dmul
 1036              	.LVL69:
 1037 015e 0446     		mov	r4, r0
 1038 0160 0D46     		mov	r5, r1
 1039              		.loc 1 105 39 view .LVU322
 1040 0162 0246     		mov	r2, r0
 1041 0164 0B46     		mov	r3, r1
 1042 0166 DDE90201 		ldrd	r0, [sp, #8]
 1043 016a FFF7FEFF 		bl	__aeabi_dmul
 1044              	.LVL70:
 1045 016e 0646     		mov	r6, r0
ARM GAS  C:\Users\USUARIO\AppData\Local\Temp\ccmgcwL3.s 			page 22


 1046 0170 0F46     		mov	r7, r1
 1047              		.loc 1 105 60 view .LVU323
 1048 0172 DDE90023 		ldrd	r2, [sp]
 1049 0176 DDE90401 		ldrd	r0, [sp, #16]
 1050 017a FFF7FEFF 		bl	__aeabi_dmul
 1051              	.LVL71:
 1052 017e 0246     		mov	r2, r0
 1053 0180 0B46     		mov	r3, r1
 1054              		.loc 1 105 6 view .LVU324
 1055 0182 DAF80810 		ldr	r1, [r10, #8]
 1056              		.loc 1 105 11 view .LVU325
 1057 0186 D1F80480 		ldr	r8, [r1, #4]
 1058              		.loc 1 105 50 view .LVU326
 1059 018a 3046     		mov	r0, r6
 1060 018c 3946     		mov	r1, r7
 1061 018e FFF7FEFF 		bl	__aeabi_dadd
 1062              	.LVL72:
 1063 0192 FFF7FEFF 		bl	__aeabi_d2f
 1064              	.LVL73:
 1065              		.loc 1 105 18 view .LVU327
 1066 0196 C8F80400 		str	r0, [r8, #4]	@ float
 106:Core/drogui/src/matlib.c ****     R->val[1][2] = sin(yaw)*sin(pitch)*cos(roll) - cos(yaw)*sin(roll);
 1067              		.loc 1 106 5 is_stmt 1 view .LVU328
 1068              		.loc 1 106 39 is_stmt 0 view .LVU329
 1069 019a 2246     		mov	r2, r4
 1070 019c 2B46     		mov	r3, r5
 1071 019e DDE90001 		ldrd	r0, [sp]
 1072 01a2 FFF7FEFF 		bl	__aeabi_dmul
 1073              	.LVL74:
 1074 01a6 0446     		mov	r4, r0
 1075 01a8 0D46     		mov	r5, r1
 1076              		.loc 1 106 60 view .LVU330
 1077 01aa DDE90278 		ldrd	r7, [sp, #8]
 1078 01ae 3A46     		mov	r2, r7
 1079 01b0 4346     		mov	r3, r8
 1080 01b2 DDE90401 		ldrd	r0, [sp, #16]
 1081 01b6 FFF7FEFF 		bl	__aeabi_dmul
 1082              	.LVL75:
 1083 01ba 0246     		mov	r2, r0
 1084 01bc 0B46     		mov	r3, r1
 1085              		.loc 1 106 6 view .LVU331
 1086 01be DAF80810 		ldr	r1, [r10, #8]
 1087              		.loc 1 106 11 view .LVU332
 1088 01c2 4E68     		ldr	r6, [r1, #4]
 1089              		.loc 1 106 50 view .LVU333
 1090 01c4 2046     		mov	r0, r4
 1091 01c6 2946     		mov	r1, r5
 1092 01c8 FFF7FEFF 		bl	__aeabi_dsub
 1093              	.LVL76:
 1094 01cc FFF7FEFF 		bl	__aeabi_d2f
 1095              	.LVL77:
 1096              		.loc 1 106 18 view .LVU334
 1097 01d0 B060     		str	r0, [r6, #8]	@ float
 107:Core/drogui/src/matlib.c ****     
 108:Core/drogui/src/matlib.c ****     R->val[2][0] = -sin(pitch);
 1098              		.loc 1 108 5 is_stmt 1 view .LVU335
 1099              		.loc 1 108 21 is_stmt 0 view .LVU336
ARM GAS  C:\Users\USUARIO\AppData\Local\Temp\ccmgcwL3.s 			page 23


 1100 01d2 DDE90801 		ldrd	r0, [sp, #32]
 1101 01d6 FFF7FEFF 		bl	__aeabi_d2f
 1102              	.LVL78:
 1103              		.loc 1 108 6 view .LVU337
 1104 01da DAF80830 		ldr	r3, [r10, #8]
 1105              		.loc 1 108 11 view .LVU338
 1106 01de 9B68     		ldr	r3, [r3, #8]
 1107              		.loc 1 108 18 view .LVU339
 1108 01e0 07EE900A 		vmov	s15, r0
 1109 01e4 F1EE677A 		vneg.f32	s15, s15
 1110 01e8 C3ED007A 		vstr.32	s15, [r3]
 109:Core/drogui/src/matlib.c ****     R->val[2][1] = cos(pitch)*sin(roll);
 1111              		.loc 1 109 5 is_stmt 1 view .LVU340
 1112              		.loc 1 109 6 is_stmt 0 view .LVU341
 1113 01ec DAF80830 		ldr	r3, [r10, #8]
 1114              		.loc 1 109 11 view .LVU342
 1115 01f0 9C68     		ldr	r4, [r3, #8]
 1116              		.loc 1 109 30 view .LVU343
 1117 01f2 3A46     		mov	r2, r7
 1118 01f4 4346     		mov	r3, r8
 1119 01f6 DDE90656 		ldrd	r5, [sp, #24]
 1120 01fa 2846     		mov	r0, r5
 1121 01fc 3146     		mov	r1, r6
 1122 01fe FFF7FEFF 		bl	__aeabi_dmul
 1123              	.LVL79:
 1124 0202 FFF7FEFF 		bl	__aeabi_d2f
 1125              	.LVL80:
 1126              		.loc 1 109 18 view .LVU344
 1127 0206 6060     		str	r0, [r4, #4]	@ float
 110:Core/drogui/src/matlib.c ****     R->val[2][2] = cos(pitch)*cos(roll);
 1128              		.loc 1 110 5 is_stmt 1 view .LVU345
 1129              		.loc 1 110 6 is_stmt 0 view .LVU346
 1130 0208 DAF80830 		ldr	r3, [r10, #8]
 1131              		.loc 1 110 11 view .LVU347
 1132 020c 9C68     		ldr	r4, [r3, #8]
 1133              		.loc 1 110 30 view .LVU348
 1134 020e DDE90023 		ldrd	r2, [sp]
 1135 0212 2846     		mov	r0, r5
 1136 0214 3146     		mov	r1, r6
 1137 0216 FFF7FEFF 		bl	__aeabi_dmul
 1138              	.LVL81:
 1139 021a FFF7FEFF 		bl	__aeabi_d2f
 1140              	.LVL82:
 1141              		.loc 1 110 18 view .LVU349
 1142 021e A060     		str	r0, [r4, #8]	@ float
 111:Core/drogui/src/matlib.c **** }
 1143              		.loc 1 111 1 view .LVU350
 1144 0220 0BB0     		add	sp, sp, #44
 1145              	.LCFI8:
 1146              		.cfi_def_cfa_offset 52
 1147              		@ sp needed
 1148 0222 BDEC048B 		vldm	sp!, {d8-d9}
 1149              	.LCFI9:
 1150              		.cfi_restore 82
 1151              		.cfi_restore 83
 1152              		.cfi_restore 80
 1153              		.cfi_restore 81
ARM GAS  C:\Users\USUARIO\AppData\Local\Temp\ccmgcwL3.s 			page 24


 1154              		.cfi_def_cfa_offset 36
 1155 0226 BDE8F08F 		pop	{r4, r5, r6, r7, r8, r9, r10, fp, pc}
 1156              		.loc 1 111 1 view .LVU351
 1157              		.cfi_endproc
 1158              	.LFE9:
 1160              		.section	.text.eye,"ax",%progbits
 1161              		.align	1
 1162              		.global	eye
 1163              		.syntax unified
 1164              		.thumb
 1165              		.thumb_func
 1166              		.fpu fpv5-sp-d16
 1168              	eye:
 1169              	.LVL83:
 1170              	.LFB10:
 112:Core/drogui/src/matlib.c **** 
 113:Core/drogui/src/matlib.c **** void eye(mat* m, int n){
 1171              		.loc 1 113 24 is_stmt 1 view -0
 1172              		.cfi_startproc
 1173              		@ args = 0, pretend = 0, frame = 0
 1174              		@ frame_needed = 0, uses_anonymous_args = 0
 1175              		.loc 1 113 24 is_stmt 0 view .LVU353
 1176 0000 38B5     		push	{r3, r4, r5, lr}
 1177              	.LCFI10:
 1178              		.cfi_def_cfa_offset 16
 1179              		.cfi_offset 3, -16
 1180              		.cfi_offset 4, -12
 1181              		.cfi_offset 5, -8
 1182              		.cfi_offset 14, -4
 1183 0002 0546     		mov	r5, r0
 1184 0004 0C46     		mov	r4, r1
 114:Core/drogui/src/matlib.c ****     matInit(m, n, n);
 1185              		.loc 1 114 5 is_stmt 1 view .LVU354
 1186 0006 0A46     		mov	r2, r1
 1187 0008 FFF7FEFF 		bl	matInit
 1188              	.LVL84:
 115:Core/drogui/src/matlib.c ****     for(int i = 0; i < n; i++)  m->val[i][i] = 1;
 1189              		.loc 1 115 5 view .LVU355
 1190              	.LBB22:
 1191              		.loc 1 115 9 view .LVU356
 1192              		.loc 1 115 13 is_stmt 0 view .LVU357
 1193 000c 0023     		movs	r3, #0
 1194              		.loc 1 115 5 view .LVU358
 1195 000e 09E0     		b	.L49
 1196              	.LVL85:
 1197              	.L50:
 1198              		.loc 1 115 33 is_stmt 1 discriminator 3 view .LVU359
 1199              		.loc 1 115 39 is_stmt 0 discriminator 3 view .LVU360
 1200 0010 AA68     		ldr	r2, [r5, #8]
 1201 0012 52F82320 		ldr	r2, [r2, r3, lsl #2]
 1202              		.loc 1 115 42 discriminator 3 view .LVU361
 1203 0016 02EB830C 		add	ip, r2, r3, lsl #2
 1204              		.loc 1 115 46 discriminator 3 view .LVU362
 1205 001a 4FF07E5E 		mov	lr, #1065353216
 1206 001e CCF800E0 		str	lr, [ip]	@ float
 1207              		.loc 1 115 27 is_stmt 1 discriminator 3 view .LVU363
 1208              		.loc 1 115 28 is_stmt 0 discriminator 3 view .LVU364
ARM GAS  C:\Users\USUARIO\AppData\Local\Temp\ccmgcwL3.s 			page 25


 1209 0022 0133     		adds	r3, r3, #1
 1210              	.LVL86:
 1211              	.L49:
 1212              		.loc 1 115 20 is_stmt 1 discriminator 1 view .LVU365
 1213              		.loc 1 115 5 is_stmt 0 discriminator 1 view .LVU366
 1214 0024 A342     		cmp	r3, r4
 1215 0026 F3DB     		blt	.L50
 1216              	.LBE22:
 116:Core/drogui/src/matlib.c **** }
 1217              		.loc 1 116 1 view .LVU367
 1218 0028 38BD     		pop	{r3, r4, r5, pc}
 1219              		.loc 1 116 1 view .LVU368
 1220              		.cfi_endproc
 1221              	.LFE10:
 1223              		.section	.text.setMatVal,"ax",%progbits
 1224              		.align	1
 1225              		.global	setMatVal
 1226              		.syntax unified
 1227              		.thumb
 1228              		.thumb_func
 1229              		.fpu fpv5-sp-d16
 1231              	setMatVal:
 1232              	.LVL87:
 1233              	.LFB11:
 117:Core/drogui/src/matlib.c **** 
 118:Core/drogui/src/matlib.c **** void setMatVal(mat* m, int i, int j, float value){
 1234              		.loc 1 118 50 is_stmt 1 view -0
 1235              		.cfi_startproc
 1236              		@ args = 0, pretend = 0, frame = 0
 1237              		@ frame_needed = 0, uses_anonymous_args = 0
 1238              		@ link register save eliminated.
 119:Core/drogui/src/matlib.c ****     m->val[i][j] = value;
 1239              		.loc 1 119 5 view .LVU370
 1240              		.loc 1 119 6 is_stmt 0 view .LVU371
 1241 0000 8368     		ldr	r3, [r0, #8]
 1242              		.loc 1 119 11 view .LVU372
 1243 0002 53F82130 		ldr	r3, [r3, r1, lsl #2]
 1244              		.loc 1 119 14 view .LVU373
 1245 0006 03EB8203 		add	r3, r3, r2, lsl #2
 1246              		.loc 1 119 18 view .LVU374
 1247 000a 83ED000A 		vstr.32	s0, [r3]
 120:Core/drogui/src/matlib.c **** }
 1248              		.loc 1 120 1 view .LVU375
 1249 000e 7047     		bx	lr
 1250              		.cfi_endproc
 1251              	.LFE11:
 1253              		.section	.text.getMatVal,"ax",%progbits
 1254              		.align	1
 1255              		.global	getMatVal
 1256              		.syntax unified
 1257              		.thumb
 1258              		.thumb_func
 1259              		.fpu fpv5-sp-d16
 1261              	getMatVal:
 1262              	.LVL88:
 1263              	.LFB12:
 121:Core/drogui/src/matlib.c **** 
ARM GAS  C:\Users\USUARIO\AppData\Local\Temp\ccmgcwL3.s 			page 26


 122:Core/drogui/src/matlib.c **** float getMatVal(mat* m, int i, int j){
 1264              		.loc 1 122 38 is_stmt 1 view -0
 1265              		.cfi_startproc
 1266              		@ args = 0, pretend = 0, frame = 0
 1267              		@ frame_needed = 0, uses_anonymous_args = 0
 1268              		@ link register save eliminated.
 123:Core/drogui/src/matlib.c ****     return m->val[i][j];
 1269              		.loc 1 123 5 view .LVU377
 1270              		.loc 1 123 13 is_stmt 0 view .LVU378
 1271 0000 8368     		ldr	r3, [r0, #8]
 1272              		.loc 1 123 18 view .LVU379
 1273 0002 53F82130 		ldr	r3, [r3, r1, lsl #2]
 1274              		.loc 1 123 21 view .LVU380
 1275 0006 03EB8203 		add	r3, r3, r2, lsl #2
 124:Core/drogui/src/matlib.c **** }
 1276              		.loc 1 124 1 view .LVU381
 1277 000a 93ED000A 		vldr.32	s0, [r3]
 1278 000e 7047     		bx	lr
 1279              		.cfi_endproc
 1280              	.LFE12:
 1282              		.section	.text.matCopy,"ax",%progbits
 1283              		.align	1
 1284              		.global	matCopy
 1285              		.syntax unified
 1286              		.thumb
 1287              		.thumb_func
 1288              		.fpu fpv5-sp-d16
 1290              	matCopy:
 1291              	.LVL89:
 1292              	.LFB13:
 125:Core/drogui/src/matlib.c **** void matCopy(mat* des, mat* src){
 1293              		.loc 1 125 33 is_stmt 1 view -0
 1294              		.cfi_startproc
 1295              		@ args = 0, pretend = 0, frame = 0
 1296              		@ frame_needed = 0, uses_anonymous_args = 0
 1297              		.loc 1 125 33 is_stmt 0 view .LVU383
 1298 0000 10B5     		push	{r4, lr}
 1299              	.LCFI11:
 1300              		.cfi_def_cfa_offset 8
 1301              		.cfi_offset 4, -8
 1302              		.cfi_offset 14, -4
 1303 0002 0C46     		mov	r4, r1
 126:Core/drogui/src/matlib.c ****     for(int i = 0 ; i < des->row ; i++)
 1304              		.loc 1 126 5 is_stmt 1 view .LVU384
 1305              	.LBB23:
 1306              		.loc 1 126 9 view .LVU385
 1307              	.LVL90:
 1308              		.loc 1 126 13 is_stmt 0 view .LVU386
 1309 0004 4FF0000E 		mov	lr, #0
 1310              		.loc 1 126 5 view .LVU387
 1311 0008 13E0     		b	.L55
 1312              	.LVL91:
 1313              	.L56:
 1314              	.LBB24:
 127:Core/drogui/src/matlib.c ****         for(int j = 0 ; j < des->col ; j++)
 128:Core/drogui/src/matlib.c ****             des->val[i][j] = src->val[i][j];
 1315              		.loc 1 128 13 is_stmt 1 discriminator 3 view .LVU388
ARM GAS  C:\Users\USUARIO\AppData\Local\Temp\ccmgcwL3.s 			page 27


 1316              		.loc 1 128 33 is_stmt 0 discriminator 3 view .LVU389
 1317 000a A268     		ldr	r2, [r4, #8]
 1318              		.loc 1 128 38 discriminator 3 view .LVU390
 1319 000c 52F82E10 		ldr	r1, [r2, lr, lsl #2]
 1320              		.loc 1 128 16 discriminator 3 view .LVU391
 1321 0010 8268     		ldr	r2, [r0, #8]
 1322              		.loc 1 128 21 discriminator 3 view .LVU392
 1323 0012 52F82E20 		ldr	r2, [r2, lr, lsl #2]
 1324              		.loc 1 128 24 discriminator 3 view .LVU393
 1325 0016 02EB8302 		add	r2, r2, r3, lsl #2
 1326              		.loc 1 128 41 discriminator 3 view .LVU394
 1327 001a 01EB830C 		add	ip, r1, r3, lsl #2
 1328 001e DCF800C0 		ldr	ip, [ip]	@ float
 1329              		.loc 1 128 28 discriminator 3 view .LVU395
 1330 0022 C2F800C0 		str	ip, [r2]	@ float
 127:Core/drogui/src/matlib.c ****         for(int j = 0 ; j < des->col ; j++)
 1331              		.loc 1 127 40 is_stmt 1 discriminator 3 view .LVU396
 127:Core/drogui/src/matlib.c ****         for(int j = 0 ; j < des->col ; j++)
 1332              		.loc 1 127 41 is_stmt 0 discriminator 3 view .LVU397
 1333 0026 0133     		adds	r3, r3, #1
 1334              	.LVL92:
 1335              	.L57:
 127:Core/drogui/src/matlib.c ****         for(int j = 0 ; j < des->col ; j++)
 1336              		.loc 1 127 25 is_stmt 1 discriminator 1 view .LVU398
 127:Core/drogui/src/matlib.c ****         for(int j = 0 ; j < des->col ; j++)
 1337              		.loc 1 127 32 is_stmt 0 discriminator 1 view .LVU399
 1338 0028 4268     		ldr	r2, [r0, #4]
 127:Core/drogui/src/matlib.c ****         for(int j = 0 ; j < des->col ; j++)
 1339              		.loc 1 127 9 discriminator 1 view .LVU400
 1340 002a 9A42     		cmp	r2, r3
 1341 002c EDDC     		bgt	.L56
 1342              	.LBE24:
 126:Core/drogui/src/matlib.c ****     for(int i = 0 ; i < des->row ; i++)
 1343              		.loc 1 126 36 is_stmt 1 discriminator 2 view .LVU401
 126:Core/drogui/src/matlib.c ****     for(int i = 0 ; i < des->row ; i++)
 1344              		.loc 1 126 37 is_stmt 0 discriminator 2 view .LVU402
 1345 002e 0EF1010E 		add	lr, lr, #1
 1346              	.LVL93:
 1347              	.L55:
 126:Core/drogui/src/matlib.c ****     for(int i = 0 ; i < des->row ; i++)
 1348              		.loc 1 126 21 is_stmt 1 discriminator 1 view .LVU403
 126:Core/drogui/src/matlib.c ****     for(int i = 0 ; i < des->row ; i++)
 1349              		.loc 1 126 28 is_stmt 0 discriminator 1 view .LVU404
 1350 0032 0368     		ldr	r3, [r0]
 126:Core/drogui/src/matlib.c ****     for(int i = 0 ; i < des->row ; i++)
 1351              		.loc 1 126 5 discriminator 1 view .LVU405
 1352 0034 7345     		cmp	r3, lr
 1353 0036 01DD     		ble	.L60
 1354              	.LBB25:
 127:Core/drogui/src/matlib.c ****         for(int j = 0 ; j < des->col ; j++)
 1355              		.loc 1 127 17 view .LVU406
 1356 0038 0023     		movs	r3, #0
 1357 003a F5E7     		b	.L57
 1358              	.L60:
 1359              	.LBE25:
 1360              	.LBE23:
 129:Core/drogui/src/matlib.c **** }
ARM GAS  C:\Users\USUARIO\AppData\Local\Temp\ccmgcwL3.s 			page 28


 1361              		.loc 1 129 1 view .LVU407
 1362 003c 10BD     		pop	{r4, pc}
 1363              		.loc 1 129 1 view .LVU408
 1364              		.cfi_endproc
 1365              	.LFE13:
 1367              		.section	.text.matDestruct,"ax",%progbits
 1368              		.align	1
 1369              		.global	matDestruct
 1370              		.syntax unified
 1371              		.thumb
 1372              		.thumb_func
 1373              		.fpu fpv5-sp-d16
 1375              	matDestruct:
 1376              	.LVL94:
 1377              	.LFB14:
 130:Core/drogui/src/matlib.c **** void matDestruct(mat* m){
 1378              		.loc 1 130 25 is_stmt 1 view -0
 1379              		.cfi_startproc
 1380              		@ args = 0, pretend = 0, frame = 0
 1381              		@ frame_needed = 0, uses_anonymous_args = 0
 1382              		.loc 1 130 25 is_stmt 0 view .LVU410
 1383 0000 10B5     		push	{r4, lr}
 1384              	.LCFI12:
 1385              		.cfi_def_cfa_offset 8
 1386              		.cfi_offset 4, -8
 1387              		.cfi_offset 14, -4
 1388 0002 0446     		mov	r4, r0
 131:Core/drogui/src/matlib.c ****     free(m->val);
 1389              		.loc 1 131 5 is_stmt 1 view .LVU411
 1390 0004 8068     		ldr	r0, [r0, #8]
 1391              	.LVL95:
 1392              		.loc 1 131 5 is_stmt 0 view .LVU412
 1393 0006 FFF7FEFF 		bl	free
 1394              	.LVL96:
 132:Core/drogui/src/matlib.c ****     free(m->aux);
 1395              		.loc 1 132 5 is_stmt 1 view .LVU413
 1396 000a E068     		ldr	r0, [r4, #12]
 1397 000c FFF7FEFF 		bl	free
 1398              	.LVL97:
 133:Core/drogui/src/matlib.c **** }
 1399              		.loc 1 133 1 is_stmt 0 view .LVU414
 1400 0010 10BD     		pop	{r4, pc}
 1401              		.loc 1 133 1 view .LVU415
 1402              		.cfi_endproc
 1403              	.LFE14:
 1405              		.section	.text.matInv3,"ax",%progbits
 1406              		.align	1
 1407              		.global	matInv3
 1408              		.syntax unified
 1409              		.thumb
 1410              		.thumb_func
 1411              		.fpu fpv5-sp-d16
 1413              	matInv3:
 1414              	.LVL98:
 1415              	.LFB7:
  61:Core/drogui/src/matlib.c ****     float val_det = 0;
 1416              		.loc 1 61 32 is_stmt 1 view -0
ARM GAS  C:\Users\USUARIO\AppData\Local\Temp\ccmgcwL3.s 			page 29


 1417              		.cfi_startproc
 1418              		@ args = 0, pretend = 0, frame = 16
 1419              		@ frame_needed = 0, uses_anonymous_args = 0
  61:Core/drogui/src/matlib.c ****     float val_det = 0;
 1420              		.loc 1 61 32 is_stmt 0 view .LVU417
 1421 0000 2DE9F041 		push	{r4, r5, r6, r7, r8, lr}
 1422              	.LCFI13:
 1423              		.cfi_def_cfa_offset 24
 1424              		.cfi_offset 4, -24
 1425              		.cfi_offset 5, -20
 1426              		.cfi_offset 6, -16
 1427              		.cfi_offset 7, -12
 1428              		.cfi_offset 8, -8
 1429              		.cfi_offset 14, -4
 1430 0004 2DED028B 		vpush.64	{d8}
 1431              	.LCFI14:
 1432              		.cfi_def_cfa_offset 32
 1433              		.cfi_offset 80, -32
 1434              		.cfi_offset 81, -28
 1435 0008 84B0     		sub	sp, sp, #16
 1436              	.LCFI15:
 1437              		.cfi_def_cfa_offset 48
 1438 000a 0446     		mov	r4, r0
 1439 000c 0D46     		mov	r5, r1
  62:Core/drogui/src/matlib.c ****     mat aux1;
 1440              		.loc 1 62 5 is_stmt 1 view .LVU418
 1441              	.LVL99:
  63:Core/drogui/src/matlib.c **** 
 1442              		.loc 1 63 5 view .LVU419
  65:Core/drogui/src/matlib.c ****     
 1443              		.loc 1 65 5 view .LVU420
  65:Core/drogui/src/matlib.c ****     
 1444              		.loc 1 65 15 is_stmt 0 view .LVU421
 1445 000e 0846     		mov	r0, r1
 1446              	.LVL100:
  65:Core/drogui/src/matlib.c ****     
 1447              		.loc 1 65 15 view .LVU422
 1448 0010 FFF7FEFF 		bl	det3
 1449              	.LVL101:
  65:Core/drogui/src/matlib.c ****     
 1450              		.loc 1 65 15 view .LVU423
 1451 0014 B0EE408A 		vmov.f32	s16, s0
 1452              	.LVL102:
  67:Core/drogui/src/matlib.c ****     
 1453              		.loc 1 67 5 is_stmt 1 view .LVU424
 1454 0018 0322     		movs	r2, #3
 1455 001a 1146     		mov	r1, r2
 1456 001c 6846     		mov	r0, sp
 1457 001e FFF7FEFF 		bl	matInit
 1458              	.LVL103:
  69:Core/drogui/src/matlib.c ****     
 1459              		.loc 1 69 5 view .LVU425
 1460 0022 2946     		mov	r1, r5
 1461 0024 6846     		mov	r0, sp
 1462 0026 FFF7FEFF 		bl	matTrans
 1463              	.LVL104:
  71:Core/drogui/src/matlib.c ****         for( int j = 0; j < 3; j++ ){
ARM GAS  C:\Users\USUARIO\AppData\Local\Temp\ccmgcwL3.s 			page 30


 1464              		.loc 1 71 5 view .LVU426
 1465              	.LBB26:
  71:Core/drogui/src/matlib.c ****         for( int j = 0; j < 3; j++ ){
 1466              		.loc 1 71 10 view .LVU427
  71:Core/drogui/src/matlib.c ****         for( int j = 0; j < 3; j++ ){
 1467              		.loc 1 71 14 is_stmt 0 view .LVU428
 1468 002a 4FF0000C 		mov	ip, #0
  71:Core/drogui/src/matlib.c ****         for( int j = 0; j < 3; j++ ){
 1469              		.loc 1 71 5 view .LVU429
 1470 002e 5AE0     		b	.L64
 1471              	.LVL105:
 1472              	.L65:
 1473              	.LBB27:
  73:Core/drogui/src/matlib.c ****             Rinv->val[i][j] = 1.0*(1/val_det)*(Rinv->val[i][j]);
 1474              		.loc 1 73 13 is_stmt 1 discriminator 3 view .LVU430
  73:Core/drogui/src/matlib.c ****             Rinv->val[i][j] = 1.0*(1/val_det)*(Rinv->val[i][j]);
 1475              		.loc 1 73 37 is_stmt 0 discriminator 3 view .LVU431
 1476 0030 029E     		ldr	r6, [sp, #8]
  73:Core/drogui/src/matlib.c ****             Rinv->val[i][j] = 1.0*(1/val_det)*(Rinv->val[i][j]);
 1477              		.loc 1 73 44 discriminator 3 view .LVU432
 1478 0032 0CF10101 		add	r1, ip, #1
  73:Core/drogui/src/matlib.c ****             Rinv->val[i][j] = 1.0*(1/val_det)*(Rinv->val[i][j]);
 1479              		.loc 1 73 47 discriminator 3 view .LVU433
 1480 0036 324B     		ldr	r3, .L70
 1481 0038 83FB0152 		smull	r5, r2, r3, r1
 1482 003c A2EBE172 		sub	r2, r2, r1, asr #31
 1483 0040 02EB4202 		add	r2, r2, r2, lsl #1
 1484 0044 8A1A     		subs	r2, r1, r2
  73:Core/drogui/src/matlib.c ****             Rinv->val[i][j] = 1.0*(1/val_det)*(Rinv->val[i][j]);
 1485              		.loc 1 73 41 discriminator 3 view .LVU434
 1486 0046 56F82250 		ldr	r5, [r6, r2, lsl #2]
  73:Core/drogui/src/matlib.c ****             Rinv->val[i][j] = 1.0*(1/val_det)*(Rinv->val[i][j]);
 1487              		.loc 1 73 53 discriminator 3 view .LVU435
 1488 004a 00F1010E 		add	lr, r0, #1
  73:Core/drogui/src/matlib.c ****             Rinv->val[i][j] = 1.0*(1/val_det)*(Rinv->val[i][j]);
 1489              		.loc 1 73 56 discriminator 3 view .LVU436
 1490 004e 83FB0E12 		smull	r1, r2, r3, lr
 1491 0052 A2EBEE72 		sub	r2, r2, lr, asr #31
 1492 0056 02EB4202 		add	r2, r2, r2, lsl #1
 1493 005a AEEB0202 		sub	r2, lr, r2
  73:Core/drogui/src/matlib.c ****             Rinv->val[i][j] = 1.0*(1/val_det)*(Rinv->val[i][j]);
 1494              		.loc 1 73 50 discriminator 3 view .LVU437
 1495 005e 05EB8201 		add	r1, r5, r2, lsl #2
 1496 0062 D1ED007A 		vldr.32	s15, [r1]
  73:Core/drogui/src/matlib.c ****             Rinv->val[i][j] = 1.0*(1/val_det)*(Rinv->val[i][j]);
 1497              		.loc 1 73 73 discriminator 3 view .LVU438
 1498 0066 0CF10207 		add	r7, ip, #2
  73:Core/drogui/src/matlib.c ****             Rinv->val[i][j] = 1.0*(1/val_det)*(Rinv->val[i][j]);
 1499              		.loc 1 73 76 discriminator 3 view .LVU439
 1500 006a 83FB0781 		smull	r8, r1, r3, r7
 1501 006e A1EBE771 		sub	r1, r1, r7, asr #31
 1502 0072 01EB4101 		add	r1, r1, r1, lsl #1
 1503 0076 791A     		subs	r1, r7, r1
  73:Core/drogui/src/matlib.c ****             Rinv->val[i][j] = 1.0*(1/val_det)*(Rinv->val[i][j]);
 1504              		.loc 1 73 70 discriminator 3 view .LVU440
 1505 0078 56F82110 		ldr	r1, [r6, r1, lsl #2]
  73:Core/drogui/src/matlib.c ****             Rinv->val[i][j] = 1.0*(1/val_det)*(Rinv->val[i][j]);
ARM GAS  C:\Users\USUARIO\AppData\Local\Temp\ccmgcwL3.s 			page 31


 1506              		.loc 1 73 82 discriminator 3 view .LVU441
 1507 007c 861C     		adds	r6, r0, #2
  73:Core/drogui/src/matlib.c ****             Rinv->val[i][j] = 1.0*(1/val_det)*(Rinv->val[i][j]);
 1508              		.loc 1 73 85 discriminator 3 view .LVU442
 1509 007e 83FB0673 		smull	r7, r3, r3, r6
 1510 0082 A3EBE673 		sub	r3, r3, r6, asr #31
 1511 0086 03EB4303 		add	r3, r3, r3, lsl #1
 1512 008a F31A     		subs	r3, r6, r3
  73:Core/drogui/src/matlib.c ****             Rinv->val[i][j] = 1.0*(1/val_det)*(Rinv->val[i][j]);
 1513              		.loc 1 73 79 discriminator 3 view .LVU443
 1514 008c 01EB8306 		add	r6, r1, r3, lsl #2
 1515 0090 96ED007A 		vldr.32	s14, [r6]
  73:Core/drogui/src/matlib.c ****             Rinv->val[i][j] = 1.0*(1/val_det)*(Rinv->val[i][j]);
 1516              		.loc 1 73 60 discriminator 3 view .LVU444
 1517 0094 67EE877A 		vmul.f32	s15, s15, s14
  73:Core/drogui/src/matlib.c ****             Rinv->val[i][j] = 1.0*(1/val_det)*(Rinv->val[i][j]);
 1518              		.loc 1 73 110 discriminator 3 view .LVU445
 1519 0098 05EB8303 		add	r3, r5, r3, lsl #2
 1520 009c 93ED007A 		vldr.32	s14, [r3]
  73:Core/drogui/src/matlib.c ****             Rinv->val[i][j] = 1.0*(1/val_det)*(Rinv->val[i][j]);
 1521              		.loc 1 73 139 discriminator 3 view .LVU446
 1522 00a0 01EB8202 		add	r2, r1, r2, lsl #2
 1523 00a4 D2ED006A 		vldr.32	s13, [r2]
  73:Core/drogui/src/matlib.c ****             Rinv->val[i][j] = 1.0*(1/val_det)*(Rinv->val[i][j]);
 1524              		.loc 1 73 120 discriminator 3 view .LVU447
 1525 00a8 27EE267A 		vmul.f32	s14, s14, s13
  73:Core/drogui/src/matlib.c ****             Rinv->val[i][j] = 1.0*(1/val_det)*(Rinv->val[i][j]);
 1526              		.loc 1 73 17 discriminator 3 view .LVU448
 1527 00ac A368     		ldr	r3, [r4, #8]
  73:Core/drogui/src/matlib.c ****             Rinv->val[i][j] = 1.0*(1/val_det)*(Rinv->val[i][j]);
 1528              		.loc 1 73 22 discriminator 3 view .LVU449
 1529 00ae 53F82C30 		ldr	r3, [r3, ip, lsl #2]
  73:Core/drogui/src/matlib.c ****             Rinv->val[i][j] = 1.0*(1/val_det)*(Rinv->val[i][j]);
 1530              		.loc 1 73 25 discriminator 3 view .LVU450
 1531 00b2 03EB8003 		add	r3, r3, r0, lsl #2
  73:Core/drogui/src/matlib.c ****             Rinv->val[i][j] = 1.0*(1/val_det)*(Rinv->val[i][j]);
 1532              		.loc 1 73 90 discriminator 3 view .LVU451
 1533 00b6 77EEC77A 		vsub.f32	s15, s15, s14
  73:Core/drogui/src/matlib.c ****             Rinv->val[i][j] = 1.0*(1/val_det)*(Rinv->val[i][j]);
 1534              		.loc 1 73 29 discriminator 3 view .LVU452
 1535 00ba C3ED007A 		vstr.32	s15, [r3]
  74:Core/drogui/src/matlib.c ****             //Rinv->val[i][j] = aux1.val[i][j];
 1536              		.loc 1 74 13 is_stmt 1 discriminator 3 view .LVU453
  74:Core/drogui/src/matlib.c ****             //Rinv->val[i][j] = aux1.val[i][j];
 1537              		.loc 1 74 37 is_stmt 0 discriminator 3 view .LVU454
 1538 00be B7EE007A 		vmov.f32	s14, #1.0e+0
 1539 00c2 C7EE087A 		vdiv.f32	s15, s14, s16
  74:Core/drogui/src/matlib.c ****             //Rinv->val[i][j] = aux1.val[i][j];
 1540              		.loc 1 74 52 discriminator 3 view .LVU455
 1541 00c6 A368     		ldr	r3, [r4, #8]
  74:Core/drogui/src/matlib.c ****             //Rinv->val[i][j] = aux1.val[i][j];
 1542              		.loc 1 74 57 discriminator 3 view .LVU456
 1543 00c8 53F82C30 		ldr	r3, [r3, ip, lsl #2]
  74:Core/drogui/src/matlib.c ****             //Rinv->val[i][j] = aux1.val[i][j];
 1544              		.loc 1 74 60 discriminator 3 view .LVU457
 1545 00cc 03EB8000 		add	r0, r3, r0, lsl #2
 1546              	.LVL106:
ARM GAS  C:\Users\USUARIO\AppData\Local\Temp\ccmgcwL3.s 			page 32


  74:Core/drogui/src/matlib.c ****             //Rinv->val[i][j] = aux1.val[i][j];
 1547              		.loc 1 74 60 discriminator 3 view .LVU458
 1548 00d0 90ED007A 		vldr.32	s14, [r0]
  74:Core/drogui/src/matlib.c ****             //Rinv->val[i][j] = aux1.val[i][j];
 1549              		.loc 1 74 46 discriminator 3 view .LVU459
 1550 00d4 67EE877A 		vmul.f32	s15, s15, s14
  74:Core/drogui/src/matlib.c ****             //Rinv->val[i][j] = aux1.val[i][j];
 1551              		.loc 1 74 29 discriminator 3 view .LVU460
 1552 00d8 C0ED007A 		vstr.32	s15, [r0]
  72:Core/drogui/src/matlib.c ****             Rinv->val[i][j] = ((aux1.val[(i+1)%3][(j+1)%3])*(aux1.val[(i+2)%3][(j+2)%3]) - (aux1.va
 1553              		.loc 1 72 32 is_stmt 1 discriminator 3 view .LVU461
 1554              	.LVL107:
  72:Core/drogui/src/matlib.c ****             Rinv->val[i][j] = ((aux1.val[(i+1)%3][(j+1)%3])*(aux1.val[(i+2)%3][(j+2)%3]) - (aux1.va
 1555              		.loc 1 72 33 is_stmt 0 discriminator 3 view .LVU462
 1556 00dc 7046     		mov	r0, lr
 1557              	.LVL108:
 1558              	.L66:
  72:Core/drogui/src/matlib.c ****             Rinv->val[i][j] = ((aux1.val[(i+1)%3][(j+1)%3])*(aux1.val[(i+2)%3][(j+2)%3]) - (aux1.va
 1559              		.loc 1 72 25 is_stmt 1 discriminator 1 view .LVU463
  72:Core/drogui/src/matlib.c ****             Rinv->val[i][j] = ((aux1.val[(i+1)%3][(j+1)%3])*(aux1.val[(i+2)%3][(j+2)%3]) - (aux1.va
 1560              		.loc 1 72 9 is_stmt 0 discriminator 1 view .LVU464
 1561 00de 0228     		cmp	r0, #2
 1562 00e0 A6DD     		ble	.L65
 1563              	.LBE27:
  71:Core/drogui/src/matlib.c ****         for( int j = 0; j < 3; j++ ){
 1564              		.loc 1 71 28 is_stmt 1 discriminator 2 view .LVU465
  71:Core/drogui/src/matlib.c ****         for( int j = 0; j < 3; j++ ){
 1565              		.loc 1 71 29 is_stmt 0 discriminator 2 view .LVU466
 1566 00e2 0CF1010C 		add	ip, ip, #1
 1567              	.LVL109:
 1568              	.L64:
  71:Core/drogui/src/matlib.c ****         for( int j = 0; j < 3; j++ ){
 1569              		.loc 1 71 21 is_stmt 1 discriminator 1 view .LVU467
  71:Core/drogui/src/matlib.c ****         for( int j = 0; j < 3; j++ ){
 1570              		.loc 1 71 5 is_stmt 0 discriminator 1 view .LVU468
 1571 00e6 BCF1020F 		cmp	ip, #2
 1572 00ea 01DC     		bgt	.L69
 1573              	.LBB28:
  72:Core/drogui/src/matlib.c ****             Rinv->val[i][j] = ((aux1.val[(i+1)%3][(j+1)%3])*(aux1.val[(i+2)%3][(j+2)%3]) - (aux1.va
 1574              		.loc 1 72 18 view .LVU469
 1575 00ec 0020     		movs	r0, #0
 1576 00ee F6E7     		b	.L66
 1577              	.L69:
 1578              	.LBE28:
 1579              	.LBE26:
  78:Core/drogui/src/matlib.c **** }
 1580              		.loc 1 78 5 is_stmt 1 view .LVU470
 1581 00f0 6846     		mov	r0, sp
 1582 00f2 FFF7FEFF 		bl	matDestruct
 1583              	.LVL110:
  79:Core/drogui/src/matlib.c **** 
 1584              		.loc 1 79 1 is_stmt 0 view .LVU471
 1585 00f6 04B0     		add	sp, sp, #16
 1586              	.LCFI16:
 1587              		.cfi_def_cfa_offset 32
 1588              		@ sp needed
 1589 00f8 BDEC028B 		vldm	sp!, {d8}
ARM GAS  C:\Users\USUARIO\AppData\Local\Temp\ccmgcwL3.s 			page 33


 1590              	.LCFI17:
 1591              		.cfi_restore 80
 1592              		.cfi_restore 81
 1593              		.cfi_def_cfa_offset 24
 1594              	.LVL111:
  79:Core/drogui/src/matlib.c **** 
 1595              		.loc 1 79 1 view .LVU472
 1596 00fc BDE8F081 		pop	{r4, r5, r6, r7, r8, pc}
 1597              	.LVL112:
 1598              	.L71:
  79:Core/drogui/src/matlib.c **** 
 1599              		.loc 1 79 1 view .LVU473
 1600              		.align	2
 1601              	.L70:
 1602 0100 56555555 		.word	1431655766
 1603              		.cfi_endproc
 1604              	.LFE7:
 1606              		.section	.text.gaussElimination3x3,"ax",%progbits
 1607              		.align	1
 1608              		.global	gaussElimination3x3
 1609              		.syntax unified
 1610              		.thumb
 1611              		.thumb_func
 1612              		.fpu fpv5-sp-d16
 1614              	gaussElimination3x3:
 1615              	.LVL113:
 1616              	.LFB15:
 134:Core/drogui/src/matlib.c **** 
 135:Core/drogui/src/matlib.c **** void gaussElimination3x3(mat* a, mat* b, mat* ans){
 1617              		.loc 1 135 51 is_stmt 1 view -0
 1618              		.cfi_startproc
 1619              		@ args = 0, pretend = 0, frame = 0
 1620              		@ frame_needed = 0, uses_anonymous_args = 0
 1621              		.loc 1 135 51 is_stmt 0 view .LVU475
 1622 0000 2DE9F041 		push	{r4, r5, r6, r7, r8, lr}
 1623              	.LCFI18:
 1624              		.cfi_def_cfa_offset 24
 1625              		.cfi_offset 4, -24
 1626              		.cfi_offset 5, -20
 1627              		.cfi_offset 6, -16
 1628              		.cfi_offset 7, -12
 1629              		.cfi_offset 8, -8
 1630              		.cfi_offset 14, -4
 1631 0004 2DED028B 		vpush.64	{d8}
 1632              	.LCFI19:
 1633              		.cfi_def_cfa_offset 32
 1634              		.cfi_offset 80, -32
 1635              		.cfi_offset 81, -28
 1636 0008 0646     		mov	r6, r0
 1637 000a 0F46     		mov	r7, r1
 1638 000c 9046     		mov	r8, r2
 136:Core/drogui/src/matlib.c ****     float c;
 1639              		.loc 1 136 5 is_stmt 1 view .LVU476
 137:Core/drogui/src/matlib.c ****     for(int j = 0; j < 3; j++)
 1640              		.loc 1 137 5 view .LVU477
 1641              	.LBB29:
 1642              		.loc 1 137 9 view .LVU478
ARM GAS  C:\Users\USUARIO\AppData\Local\Temp\ccmgcwL3.s 			page 34


 1643              	.LVL114:
 1644              		.loc 1 137 13 is_stmt 0 view .LVU479
 1645 000e 0025     		movs	r5, #0
 1646              		.loc 1 137 5 view .LVU480
 1647 0010 3AE0     		b	.L73
 1648              	.LVL115:
 1649              	.L76:
 1650              	.LBB30:
 1651              	.LBB31:
 138:Core/drogui/src/matlib.c ****         for(int i = 0; i < 3; i++){
 139:Core/drogui/src/matlib.c ****             if(i!=j){
 140:Core/drogui/src/matlib.c ****                 c = getMatVal(a, i, j)/getMatVal(a, j, j);
 141:Core/drogui/src/matlib.c ****                 for(int k = 0; k < 3; k++) a->val[i][k] = a->val[i][k] - c*a->val[j][k];
 1652              		.loc 1 141 44 is_stmt 1 discriminator 3 view .LVU481
 1653              		.loc 1 141 60 is_stmt 0 discriminator 3 view .LVU482
 1654 0012 B268     		ldr	r2, [r6, #8]
 1655              		.loc 1 141 68 discriminator 3 view .LVU483
 1656 0014 52F82410 		ldr	r1, [r2, r4, lsl #2]
 1657 0018 01EB830C 		add	ip, r1, r3, lsl #2
 1658 001c DCED007A 		vldr.32	s15, [ip]
 1659              		.loc 1 141 82 discriminator 3 view .LVU484
 1660 0020 52F82520 		ldr	r2, [r2, r5, lsl #2]
 1661              		.loc 1 141 85 discriminator 3 view .LVU485
 1662 0024 02EB8302 		add	r2, r2, r3, lsl #2
 1663 0028 92ED007A 		vldr.32	s14, [r2]
 1664              		.loc 1 141 75 discriminator 3 view .LVU486
 1665 002c 27EE267A 		vmul.f32	s14, s14, s13
 1666              		.loc 1 141 72 discriminator 3 view .LVU487
 1667 0030 77EEC77A 		vsub.f32	s15, s15, s14
 1668              		.loc 1 141 57 discriminator 3 view .LVU488
 1669 0034 CCED007A 		vstr.32	s15, [ip]
 1670              		.loc 1 141 39 is_stmt 1 discriminator 3 view .LVU489
 1671              		.loc 1 141 40 is_stmt 0 discriminator 3 view .LVU490
 1672 0038 0133     		adds	r3, r3, #1
 1673              	.LVL116:
 1674              	.L75:
 1675              		.loc 1 141 32 is_stmt 1 discriminator 1 view .LVU491
 1676              		.loc 1 141 17 is_stmt 0 discriminator 1 view .LVU492
 1677 003a 022B     		cmp	r3, #2
 1678 003c E9DD     		ble	.L76
 1679              	.LBE31:
 142:Core/drogui/src/matlib.c ****                 b->val[i][0] = b->val[i][0] - c*b->val[j][0];
 1680              		.loc 1 142 17 is_stmt 1 view .LVU493
 1681              		.loc 1 142 33 is_stmt 0 view .LVU494
 1682 003e BA68     		ldr	r2, [r7, #8]
 1683              		.loc 1 142 38 view .LVU495
 1684 0040 52F82430 		ldr	r3, [r2, r4, lsl #2]
 1685              	.LVL117:
 1686              		.loc 1 142 41 view .LVU496
 1687 0044 D3ED007A 		vldr.32	s15, [r3]
 1688              		.loc 1 142 55 view .LVU497
 1689 0048 52F82520 		ldr	r2, [r2, r5, lsl #2]
 1690              		.loc 1 142 58 view .LVU498
 1691 004c 92ED007A 		vldr.32	s14, [r2]
 1692              		.loc 1 142 48 view .LVU499
 1693 0050 67EE266A 		vmul.f32	s13, s14, s13
 1694              	.LVL118:
ARM GAS  C:\Users\USUARIO\AppData\Local\Temp\ccmgcwL3.s 			page 35


 1695              		.loc 1 142 45 view .LVU500
 1696 0054 77EEE66A 		vsub.f32	s13, s15, s13
 1697              		.loc 1 142 30 view .LVU501
 1698 0058 C3ED006A 		vstr.32	s13, [r3]
 1699              	.LVL119:
 1700              	.L74:
 138:Core/drogui/src/matlib.c ****         for(int i = 0; i < 3; i++){
 1701              		.loc 1 138 31 is_stmt 1 discriminator 2 view .LVU502
 138:Core/drogui/src/matlib.c ****         for(int i = 0; i < 3; i++){
 1702              		.loc 1 138 32 is_stmt 0 discriminator 2 view .LVU503
 1703 005c 0134     		adds	r4, r4, #1
 1704              	.LVL120:
 1705              	.L78:
 138:Core/drogui/src/matlib.c ****         for(int i = 0; i < 3; i++){
 1706              		.loc 1 138 24 is_stmt 1 discriminator 1 view .LVU504
 138:Core/drogui/src/matlib.c ****         for(int i = 0; i < 3; i++){
 1707              		.loc 1 138 9 is_stmt 0 discriminator 1 view .LVU505
 1708 005e 022C     		cmp	r4, #2
 1709 0060 11DC     		bgt	.L83
 139:Core/drogui/src/matlib.c ****                 c = getMatVal(a, i, j)/getMatVal(a, j, j);
 1710              		.loc 1 139 13 is_stmt 1 view .LVU506
 139:Core/drogui/src/matlib.c ****                 c = getMatVal(a, i, j)/getMatVal(a, j, j);
 1711              		.loc 1 139 15 is_stmt 0 view .LVU507
 1712 0062 A542     		cmp	r5, r4
 1713 0064 FAD0     		beq	.L74
 140:Core/drogui/src/matlib.c ****                 for(int k = 0; k < 3; k++) a->val[i][k] = a->val[i][k] - c*a->val[j][k];
 1714              		.loc 1 140 17 is_stmt 1 view .LVU508
 140:Core/drogui/src/matlib.c ****                 for(int k = 0; k < 3; k++) a->val[i][k] = a->val[i][k] - c*a->val[j][k];
 1715              		.loc 1 140 21 is_stmt 0 view .LVU509
 1716 0066 2A46     		mov	r2, r5
 1717 0068 2146     		mov	r1, r4
 1718 006a 3046     		mov	r0, r6
 1719 006c FFF7FEFF 		bl	getMatVal
 1720              	.LVL121:
 1721 0070 B0EE408A 		vmov.f32	s16, s0
 140:Core/drogui/src/matlib.c ****                 for(int k = 0; k < 3; k++) a->val[i][k] = a->val[i][k] - c*a->val[j][k];
 1722              		.loc 1 140 40 view .LVU510
 1723 0074 2A46     		mov	r2, r5
 1724 0076 2946     		mov	r1, r5
 1725 0078 3046     		mov	r0, r6
 1726 007a FFF7FEFF 		bl	getMatVal
 1727              	.LVL122:
 140:Core/drogui/src/matlib.c ****                 for(int k = 0; k < 3; k++) a->val[i][k] = a->val[i][k] - c*a->val[j][k];
 1728              		.loc 1 140 19 view .LVU511
 1729 007e C8EE006A 		vdiv.f32	s13, s16, s0
 1730              	.LVL123:
 141:Core/drogui/src/matlib.c ****                 b->val[i][0] = b->val[i][0] - c*b->val[j][0];
 1731              		.loc 1 141 17 is_stmt 1 view .LVU512
 1732              	.LBB32:
 141:Core/drogui/src/matlib.c ****                 b->val[i][0] = b->val[i][0] - c*b->val[j][0];
 1733              		.loc 1 141 21 view .LVU513
 141:Core/drogui/src/matlib.c ****                 b->val[i][0] = b->val[i][0] - c*b->val[j][0];
 1734              		.loc 1 141 25 is_stmt 0 view .LVU514
 1735 0082 0023     		movs	r3, #0
 141:Core/drogui/src/matlib.c ****                 b->val[i][0] = b->val[i][0] - c*b->val[j][0];
 1736              		.loc 1 141 17 view .LVU515
 1737 0084 D9E7     		b	.L75
ARM GAS  C:\Users\USUARIO\AppData\Local\Temp\ccmgcwL3.s 			page 36


 1738              	.LVL124:
 1739              	.L83:
 141:Core/drogui/src/matlib.c ****                 b->val[i][0] = b->val[i][0] - c*b->val[j][0];
 1740              		.loc 1 141 17 view .LVU516
 1741              	.LBE32:
 1742              	.LBE30:
 137:Core/drogui/src/matlib.c ****         for(int i = 0; i < 3; i++){
 1743              		.loc 1 137 27 is_stmt 1 discriminator 2 view .LVU517
 137:Core/drogui/src/matlib.c ****         for(int i = 0; i < 3; i++){
 1744              		.loc 1 137 28 is_stmt 0 discriminator 2 view .LVU518
 1745 0086 0135     		adds	r5, r5, #1
 1746              	.LVL125:
 1747              	.L73:
 137:Core/drogui/src/matlib.c ****         for(int i = 0; i < 3; i++){
 1748              		.loc 1 137 20 is_stmt 1 discriminator 1 view .LVU519
 137:Core/drogui/src/matlib.c ****         for(int i = 0; i < 3; i++){
 1749              		.loc 1 137 5 is_stmt 0 discriminator 1 view .LVU520
 1750 0088 022D     		cmp	r5, #2
 1751 008a 01DC     		bgt	.L84
 1752              	.LBB33:
 138:Core/drogui/src/matlib.c ****             if(i!=j){
 1753              		.loc 1 138 17 view .LVU521
 1754 008c 0024     		movs	r4, #0
 1755 008e E6E7     		b	.L78
 1756              	.L84:
 1757              	.LBE33:
 1758              	.LBE29:
 1759              	.LBB34:
 143:Core/drogui/src/matlib.c ****             }
 144:Core/drogui/src/matlib.c ****         }
 145:Core/drogui/src/matlib.c ****     for(int i = 0; i < 3; i++) ans->val[i][0] = b->val[i][0]/a->val[i][i];
 1760              		.loc 1 145 13 view .LVU522
 1761 0090 0023     		movs	r3, #0
 1762 0092 14E0     		b	.L79
 1763              	.LVL126:
 1764              	.L80:
 1765              		.loc 1 145 32 is_stmt 1 discriminator 3 view .LVU523
 1766              		.loc 1 145 50 is_stmt 0 discriminator 3 view .LVU524
 1767 0094 BA68     		ldr	r2, [r7, #8]
 1768              		.loc 1 145 55 discriminator 3 view .LVU525
 1769 0096 52F82320 		ldr	r2, [r2, r3, lsl #2]
 1770              		.loc 1 145 58 discriminator 3 view .LVU526
 1771 009a D2ED006A 		vldr.32	s13, [r2]
 1772              		.loc 1 145 63 discriminator 3 view .LVU527
 1773 009e B268     		ldr	r2, [r6, #8]
 1774              		.loc 1 145 68 discriminator 3 view .LVU528
 1775 00a0 52F82320 		ldr	r2, [r2, r3, lsl #2]
 1776              		.loc 1 145 71 discriminator 3 view .LVU529
 1777 00a4 02EB8302 		add	r2, r2, r3, lsl #2
 1778 00a8 92ED007A 		vldr.32	s14, [r2]
 1779              		.loc 1 145 35 discriminator 3 view .LVU530
 1780 00ac D8F80820 		ldr	r2, [r8, #8]
 1781              		.loc 1 145 40 discriminator 3 view .LVU531
 1782 00b0 52F82320 		ldr	r2, [r2, r3, lsl #2]
 1783              		.loc 1 145 61 discriminator 3 view .LVU532
 1784 00b4 C6EE877A 		vdiv.f32	s15, s13, s14
 1785              		.loc 1 145 47 discriminator 3 view .LVU533
ARM GAS  C:\Users\USUARIO\AppData\Local\Temp\ccmgcwL3.s 			page 37


 1786 00b8 C2ED007A 		vstr.32	s15, [r2]
 1787              		.loc 1 145 27 is_stmt 1 discriminator 3 view .LVU534
 1788              		.loc 1 145 28 is_stmt 0 discriminator 3 view .LVU535
 1789 00bc 0133     		adds	r3, r3, #1
 1790              	.LVL127:
 1791              	.L79:
 1792              		.loc 1 145 20 is_stmt 1 discriminator 1 view .LVU536
 1793              		.loc 1 145 5 is_stmt 0 discriminator 1 view .LVU537
 1794 00be 022B     		cmp	r3, #2
 1795 00c0 E8DD     		ble	.L80
 1796              	.LBE34:
 146:Core/drogui/src/matlib.c **** }
 1797              		.loc 1 146 1 view .LVU538
 1798 00c2 BDEC028B 		vldm	sp!, {d8}
 1799              	.LCFI20:
 1800              		.cfi_restore 80
 1801              		.cfi_restore 81
 1802              		.cfi_def_cfa_offset 24
 1803 00c6 BDE8F081 		pop	{r4, r5, r6, r7, r8, pc}
 1804              		.loc 1 146 1 view .LVU539
 1805              		.cfi_endproc
 1806              	.LFE15:
 1808              		.section	.text.getCofactor,"ax",%progbits
 1809              		.align	1
 1810              		.global	getCofactor
 1811              		.syntax unified
 1812              		.thumb
 1813              		.thumb_func
 1814              		.fpu fpv5-sp-d16
 1816              	getCofactor:
 1817              	.LVL128:
 1818              	.LFB17:
 147:Core/drogui/src/matlib.c **** 
 148:Core/drogui/src/matlib.c **** float matDet(mat* A){
 149:Core/drogui/src/matlib.c **** 
 150:Core/drogui/src/matlib.c ****     float D = 0; 
 151:Core/drogui/src/matlib.c ****     int n = 0;
 152:Core/drogui/src/matlib.c ****     if(A->row == A->col) n = A->row;
 153:Core/drogui/src/matlib.c ****     if (A->row == 1) 
 154:Core/drogui/src/matlib.c ****         return getMatVal(A, 0, 0); 
 155:Core/drogui/src/matlib.c ****   
 156:Core/drogui/src/matlib.c ****     mat temp; // To store cofactors 
 157:Core/drogui/src/matlib.c ****     matInit(&temp, A->row-1, A->row -1 );
 158:Core/drogui/src/matlib.c ****     int sign = 1;  // To store sign multiplier 
 159:Core/drogui/src/matlib.c ****   
 160:Core/drogui/src/matlib.c ****      // Iterate for each element of first row 
 161:Core/drogui/src/matlib.c ****     for (int f = 0; f < n; f++) 
 162:Core/drogui/src/matlib.c ****     { 
 163:Core/drogui/src/matlib.c ****         // Getting Cofactor of A[0][f] 
 164:Core/drogui/src/matlib.c ****         getCofactor(A, &temp, 0, f); 
 165:Core/drogui/src/matlib.c ****         D += sign * getMatVal(A, 0, f)*matDet(&temp); 
 166:Core/drogui/src/matlib.c ****   
 167:Core/drogui/src/matlib.c ****         // terms are to be added with alternate sign 
 168:Core/drogui/src/matlib.c ****         sign = -sign; 
 169:Core/drogui/src/matlib.c ****     } 
 170:Core/drogui/src/matlib.c ****     matDestruct(&temp);
 171:Core/drogui/src/matlib.c ****     return D; 
ARM GAS  C:\Users\USUARIO\AppData\Local\Temp\ccmgcwL3.s 			page 38


 172:Core/drogui/src/matlib.c **** } 
 173:Core/drogui/src/matlib.c **** 
 174:Core/drogui/src/matlib.c **** void getCofactor(mat* A, mat* temp, int p, int q) 
 175:Core/drogui/src/matlib.c **** { 
 1819              		.loc 1 175 1 is_stmt 1 view -0
 1820              		.cfi_startproc
 1821              		@ args = 0, pretend = 0, frame = 8
 1822              		@ frame_needed = 0, uses_anonymous_args = 0
 1823              		.loc 1 175 1 is_stmt 0 view .LVU541
 1824 0000 2DE9F04F 		push	{r4, r5, r6, r7, r8, r9, r10, fp, lr}
 1825              	.LCFI21:
 1826              		.cfi_def_cfa_offset 36
 1827              		.cfi_offset 4, -36
 1828              		.cfi_offset 5, -32
 1829              		.cfi_offset 6, -28
 1830              		.cfi_offset 7, -24
 1831              		.cfi_offset 8, -20
 1832              		.cfi_offset 9, -16
 1833              		.cfi_offset 10, -12
 1834              		.cfi_offset 11, -8
 1835              		.cfi_offset 14, -4
 1836 0004 83B0     		sub	sp, sp, #12
 1837              	.LCFI22:
 1838              		.cfi_def_cfa_offset 48
 1839 0006 0546     		mov	r5, r0
 1840 0008 0191     		str	r1, [sp, #4]
 1841 000a 9046     		mov	r8, r2
 1842 000c 1F46     		mov	r7, r3
 176:Core/drogui/src/matlib.c ****     int i = 0, j = 0; 
 1843              		.loc 1 176 5 is_stmt 1 view .LVU542
 1844              	.LVL129:
 177:Core/drogui/src/matlib.c ****   
 178:Core/drogui/src/matlib.c ****     for (int row = 0; row < A->row; row++) { 
 1845              		.loc 1 178 5 view .LVU543
 1846              	.LBB35:
 1847              		.loc 1 178 10 view .LVU544
 1848              		.loc 1 178 14 is_stmt 0 view .LVU545
 1849 000e 0026     		movs	r6, #0
 1850              	.LBE35:
 176:Core/drogui/src/matlib.c ****     int i = 0, j = 0; 
 1851              		.loc 1 176 16 view .LVU546
 1852 0010 B146     		mov	r9, r6
 176:Core/drogui/src/matlib.c ****     int i = 0, j = 0; 
 1853              		.loc 1 176 9 view .LVU547
 1854 0012 B346     		mov	fp, r6
 1855              	.LBB38:
 1856              		.loc 1 178 5 view .LVU548
 1857 0014 1EE0     		b	.L86
 1858              	.LVL130:
 1859              	.L94:
 1860              	.LBB36:
 179:Core/drogui/src/matlib.c ****         for (int col = 0; col < A->col; col++) { 
 180:Core/drogui/src/matlib.c ****             if (row != p && col != q) { 
 181:Core/drogui/src/matlib.c ****                 setMatVal(temp, i, j++, getMatVal(A, row, col));
 182:Core/drogui/src/matlib.c ****                 if (j == A->row - 1) { 
 183:Core/drogui/src/matlib.c ****                     j = 0; 
 1861              		.loc 1 183 21 is_stmt 1 view .LVU549
ARM GAS  C:\Users\USUARIO\AppData\Local\Temp\ccmgcwL3.s 			page 39


 184:Core/drogui/src/matlib.c ****                     i++; 
 1862              		.loc 1 184 21 view .LVU550
 1863              		.loc 1 184 22 is_stmt 0 view .LVU551
 1864 0016 0BF1010B 		add	fp, fp, #1
 1865              	.LVL131:
 183:Core/drogui/src/matlib.c ****                     i++; 
 1866              		.loc 1 183 23 view .LVU552
 1867 001a 4FF00009 		mov	r9, #0
 1868              	.LVL132:
 1869              	.L87:
 179:Core/drogui/src/matlib.c ****         for (int col = 0; col < A->col; col++) { 
 1870              		.loc 1 179 41 is_stmt 1 discriminator 2 view .LVU553
 179:Core/drogui/src/matlib.c ****         for (int col = 0; col < A->col; col++) { 
 1871              		.loc 1 179 44 is_stmt 0 discriminator 2 view .LVU554
 1872 001e 0134     		adds	r4, r4, #1
 1873              	.LVL133:
 1874              	.L89:
 179:Core/drogui/src/matlib.c ****         for (int col = 0; col < A->col; col++) { 
 1875              		.loc 1 179 27 is_stmt 1 discriminator 1 view .LVU555
 179:Core/drogui/src/matlib.c ****         for (int col = 0; col < A->col; col++) { 
 1876              		.loc 1 179 34 is_stmt 0 discriminator 1 view .LVU556
 1877 0020 6B68     		ldr	r3, [r5, #4]
 179:Core/drogui/src/matlib.c ****         for (int col = 0; col < A->col; col++) { 
 1878              		.loc 1 179 9 discriminator 1 view .LVU557
 1879 0022 A342     		cmp	r3, r4
 1880 0024 15DD     		ble	.L93
 180:Core/drogui/src/matlib.c ****                 setMatVal(temp, i, j++, getMatVal(A, row, col));
 1881              		.loc 1 180 13 is_stmt 1 view .LVU558
 180:Core/drogui/src/matlib.c ****                 setMatVal(temp, i, j++, getMatVal(A, row, col));
 1882              		.loc 1 180 16 is_stmt 0 view .LVU559
 1883 0026 4645     		cmp	r6, r8
 1884 0028 18BF     		it	ne
 1885 002a BC42     		cmpne	r4, r7
 1886 002c F7D0     		beq	.L87
 181:Core/drogui/src/matlib.c ****                 if (j == A->row - 1) { 
 1887              		.loc 1 181 17 is_stmt 1 view .LVU560
 1888 002e 09F1010A 		add	r10, r9, #1
 1889              	.LVL134:
 181:Core/drogui/src/matlib.c ****                 if (j == A->row - 1) { 
 1890              		.loc 1 181 17 is_stmt 0 view .LVU561
 1891 0032 2246     		mov	r2, r4
 1892 0034 3146     		mov	r1, r6
 1893 0036 2846     		mov	r0, r5
 1894 0038 FFF7FEFF 		bl	getMatVal
 1895              	.LVL135:
 1896 003c 4A46     		mov	r2, r9
 1897 003e 5946     		mov	r1, fp
 1898 0040 0198     		ldr	r0, [sp, #4]
 1899 0042 FFF7FEFF 		bl	setMatVal
 1900              	.LVL136:
 182:Core/drogui/src/matlib.c ****                     j = 0; 
 1901              		.loc 1 182 17 is_stmt 1 view .LVU562
 182:Core/drogui/src/matlib.c ****                     j = 0; 
 1902              		.loc 1 182 27 is_stmt 0 view .LVU563
 1903 0046 2B68     		ldr	r3, [r5]
 182:Core/drogui/src/matlib.c ****                     j = 0; 
 1904              		.loc 1 182 33 view .LVU564
ARM GAS  C:\Users\USUARIO\AppData\Local\Temp\ccmgcwL3.s 			page 40


 1905 0048 013B     		subs	r3, r3, #1
 182:Core/drogui/src/matlib.c ****                     j = 0; 
 1906              		.loc 1 182 20 view .LVU565
 1907 004a 5345     		cmp	r3, r10
 1908 004c E3D0     		beq	.L94
 181:Core/drogui/src/matlib.c ****                 if (j == A->row - 1) { 
 1909              		.loc 1 181 17 view .LVU566
 1910 004e D146     		mov	r9, r10
 1911 0050 E5E7     		b	.L87
 1912              	.LVL137:
 1913              	.L93:
 181:Core/drogui/src/matlib.c ****                 if (j == A->row - 1) { 
 1914              		.loc 1 181 17 view .LVU567
 1915              	.LBE36:
 178:Core/drogui/src/matlib.c ****         for (int col = 0; col < A->col; col++) { 
 1916              		.loc 1 178 37 is_stmt 1 discriminator 2 view .LVU568
 178:Core/drogui/src/matlib.c ****         for (int col = 0; col < A->col; col++) { 
 1917              		.loc 1 178 40 is_stmt 0 discriminator 2 view .LVU569
 1918 0052 0136     		adds	r6, r6, #1
 1919              	.LVL138:
 1920              	.L86:
 178:Core/drogui/src/matlib.c ****         for (int col = 0; col < A->col; col++) { 
 1921              		.loc 1 178 23 is_stmt 1 discriminator 1 view .LVU570
 178:Core/drogui/src/matlib.c ****         for (int col = 0; col < A->col; col++) { 
 1922              		.loc 1 178 30 is_stmt 0 discriminator 1 view .LVU571
 1923 0054 2B68     		ldr	r3, [r5]
 178:Core/drogui/src/matlib.c ****         for (int col = 0; col < A->col; col++) { 
 1924              		.loc 1 178 5 discriminator 1 view .LVU572
 1925 0056 B342     		cmp	r3, r6
 1926 0058 01DD     		ble	.L95
 1927              	.LBB37:
 179:Core/drogui/src/matlib.c ****             if (row != p && col != q) { 
 1928              		.loc 1 179 18 view .LVU573
 1929 005a 0024     		movs	r4, #0
 1930 005c E0E7     		b	.L89
 1931              	.L95:
 1932              	.LBE37:
 1933              	.LBE38:
 185:Core/drogui/src/matlib.c ****                 } 
 186:Core/drogui/src/matlib.c ****             } 
 187:Core/drogui/src/matlib.c ****         } 
 188:Core/drogui/src/matlib.c ****     } 
 189:Core/drogui/src/matlib.c **** }
 1934              		.loc 1 189 1 view .LVU574
 1935 005e 03B0     		add	sp, sp, #12
 1936              	.LCFI23:
 1937              		.cfi_def_cfa_offset 36
 1938              		@ sp needed
 1939 0060 BDE8F08F 		pop	{r4, r5, r6, r7, r8, r9, r10, fp, pc}
 1940              		.loc 1 189 1 view .LVU575
 1941              		.cfi_endproc
 1942              	.LFE17:
 1944              		.section	.text.matDet,"ax",%progbits
 1945              		.align	1
 1946              		.global	matDet
 1947              		.syntax unified
 1948              		.thumb
ARM GAS  C:\Users\USUARIO\AppData\Local\Temp\ccmgcwL3.s 			page 41


 1949              		.thumb_func
 1950              		.fpu fpv5-sp-d16
 1952              	matDet:
 1953              	.LVL139:
 1954              	.LFB16:
 148:Core/drogui/src/matlib.c **** 
 1955              		.loc 1 148 21 is_stmt 1 view -0
 1956              		.cfi_startproc
 1957              		@ args = 0, pretend = 0, frame = 16
 1958              		@ frame_needed = 0, uses_anonymous_args = 0
 148:Core/drogui/src/matlib.c **** 
 1959              		.loc 1 148 21 is_stmt 0 view .LVU577
 1960 0000 F0B5     		push	{r4, r5, r6, r7, lr}
 1961              	.LCFI24:
 1962              		.cfi_def_cfa_offset 20
 1963              		.cfi_offset 4, -20
 1964              		.cfi_offset 5, -16
 1965              		.cfi_offset 6, -12
 1966              		.cfi_offset 7, -8
 1967              		.cfi_offset 14, -4
 1968 0002 2DED028B 		vpush.64	{d8}
 1969              	.LCFI25:
 1970              		.cfi_def_cfa_offset 28
 1971              		.cfi_offset 80, -28
 1972              		.cfi_offset 81, -24
 1973 0006 85B0     		sub	sp, sp, #20
 1974              	.LCFI26:
 1975              		.cfi_def_cfa_offset 48
 1976 0008 0546     		mov	r5, r0
 150:Core/drogui/src/matlib.c ****     int n = 0;
 1977              		.loc 1 150 5 is_stmt 1 view .LVU578
 1978              	.LVL140:
 151:Core/drogui/src/matlib.c ****     if(A->row == A->col) n = A->row;
 1979              		.loc 1 151 5 view .LVU579
 152:Core/drogui/src/matlib.c ****     if (A->row == 1) 
 1980              		.loc 1 152 5 view .LVU580
 152:Core/drogui/src/matlib.c ****     if (A->row == 1) 
 1981              		.loc 1 152 9 is_stmt 0 view .LVU581
 1982 000a 0168     		ldr	r1, [r0]
 152:Core/drogui/src/matlib.c ****     if (A->row == 1) 
 1983              		.loc 1 152 19 view .LVU582
 1984 000c 4368     		ldr	r3, [r0, #4]
 152:Core/drogui/src/matlib.c ****     if (A->row == 1) 
 1985              		.loc 1 152 7 view .LVU583
 1986 000e 9942     		cmp	r1, r3
 1987 0010 0CD0     		beq	.L102
 151:Core/drogui/src/matlib.c ****     if(A->row == A->col) n = A->row;
 1988              		.loc 1 151 9 view .LVU584
 1989 0012 0027     		movs	r7, #0
 1990              	.L97:
 1991              	.LVL141:
 153:Core/drogui/src/matlib.c ****         return getMatVal(A, 0, 0); 
 1992              		.loc 1 153 5 is_stmt 1 view .LVU585
 153:Core/drogui/src/matlib.c ****         return getMatVal(A, 0, 0); 
 1993              		.loc 1 153 8 is_stmt 0 view .LVU586
 1994 0014 0129     		cmp	r1, #1
 1995 0016 0BD0     		beq	.L104
ARM GAS  C:\Users\USUARIO\AppData\Local\Temp\ccmgcwL3.s 			page 42


 156:Core/drogui/src/matlib.c ****     matInit(&temp, A->row-1, A->row -1 );
 1996              		.loc 1 156 5 is_stmt 1 view .LVU587
 157:Core/drogui/src/matlib.c ****     int sign = 1;  // To store sign multiplier 
 1997              		.loc 1 157 5 view .LVU588
 1998 0018 0139     		subs	r1, r1, #1
 1999 001a 0A46     		mov	r2, r1
 2000 001c 6846     		mov	r0, sp
 2001              	.LVL142:
 157:Core/drogui/src/matlib.c ****     int sign = 1;  // To store sign multiplier 
 2002              		.loc 1 157 5 is_stmt 0 view .LVU589
 2003 001e FFF7FEFF 		bl	matInit
 2004              	.LVL143:
 158:Core/drogui/src/matlib.c ****   
 2005              		.loc 1 158 5 is_stmt 1 view .LVU590
 161:Core/drogui/src/matlib.c ****     { 
 2006              		.loc 1 161 5 view .LVU591
 2007              	.LBB39:
 161:Core/drogui/src/matlib.c ****     { 
 2008              		.loc 1 161 10 view .LVU592
 161:Core/drogui/src/matlib.c ****     { 
 2009              		.loc 1 161 14 is_stmt 0 view .LVU593
 2010 0022 0024     		movs	r4, #0
 2011              	.LBE39:
 158:Core/drogui/src/matlib.c ****   
 2012              		.loc 1 158 9 view .LVU594
 2013 0024 0126     		movs	r6, #1
 150:Core/drogui/src/matlib.c ****     int n = 0;
 2014              		.loc 1 150 11 view .LVU595
 2015 0026 DFED198A 		vldr.32	s17, .L105
 2016              	.LBB40:
 161:Core/drogui/src/matlib.c ****     { 
 2017              		.loc 1 161 5 view .LVU596
 2018 002a 23E0     		b	.L100
 2019              	.LVL144:
 2020              	.L102:
 161:Core/drogui/src/matlib.c ****     { 
 2021              		.loc 1 161 5 view .LVU597
 2022              	.LBE40:
 152:Core/drogui/src/matlib.c ****     if (A->row == 1) 
 2023              		.loc 1 152 28 view .LVU598
 2024 002c 0F46     		mov	r7, r1
 2025 002e F1E7     		b	.L97
 2026              	.LVL145:
 2027              	.L104:
 154:Core/drogui/src/matlib.c ****   
 2028              		.loc 1 154 9 is_stmt 1 view .LVU599
 154:Core/drogui/src/matlib.c ****   
 2029              		.loc 1 154 16 is_stmt 0 view .LVU600
 2030 0030 0022     		movs	r2, #0
 2031 0032 1146     		mov	r1, r2
 2032 0034 2846     		mov	r0, r5
 2033              	.LVL146:
 154:Core/drogui/src/matlib.c ****   
 2034              		.loc 1 154 16 view .LVU601
 2035 0036 FFF7FEFF 		bl	getMatVal
 2036              	.LVL147:
 2037 003a F0EE408A 		vmov.f32	s17, s0
ARM GAS  C:\Users\USUARIO\AppData\Local\Temp\ccmgcwL3.s 			page 43


 2038 003e 1EE0     		b	.L96
 2039              	.LVL148:
 2040              	.L101:
 2041              	.LBB41:
 164:Core/drogui/src/matlib.c ****         D += sign * getMatVal(A, 0, f)*matDet(&temp); 
 2042              		.loc 1 164 9 is_stmt 1 discriminator 3 view .LVU602
 2043 0040 2346     		mov	r3, r4
 2044 0042 0022     		movs	r2, #0
 2045 0044 6946     		mov	r1, sp
 2046 0046 2846     		mov	r0, r5
 2047 0048 FFF7FEFF 		bl	getCofactor
 2048              	.LVL149:
 165:Core/drogui/src/matlib.c ****   
 2049              		.loc 1 165 9 discriminator 3 view .LVU603
 165:Core/drogui/src/matlib.c ****   
 2050              		.loc 1 165 21 is_stmt 0 discriminator 3 view .LVU604
 2051 004c 2246     		mov	r2, r4
 2052 004e 0021     		movs	r1, #0
 2053 0050 2846     		mov	r0, r5
 2054 0052 FFF7FEFF 		bl	getMatVal
 2055              	.LVL150:
 165:Core/drogui/src/matlib.c ****   
 2056              		.loc 1 165 19 discriminator 3 view .LVU605
 2057 0056 07EE906A 		vmov	s15, r6	@ int
 2058 005a B8EEE78A 		vcvt.f32.s32	s16, s15
 2059 005e 28EE008A 		vmul.f32	s16, s16, s0
 165:Core/drogui/src/matlib.c ****   
 2060              		.loc 1 165 40 discriminator 3 view .LVU606
 2061 0062 6846     		mov	r0, sp
 2062 0064 FFF7FEFF 		bl	matDet
 2063              	.LVL151:
 165:Core/drogui/src/matlib.c ****   
 2064              		.loc 1 165 39 discriminator 3 view .LVU607
 2065 0068 28EE008A 		vmul.f32	s16, s16, s0
 165:Core/drogui/src/matlib.c ****   
 2066              		.loc 1 165 11 discriminator 3 view .LVU608
 2067 006c 78EE888A 		vadd.f32	s17, s17, s16
 2068              	.LVL152:
 168:Core/drogui/src/matlib.c ****     } 
 2069              		.loc 1 168 9 is_stmt 1 discriminator 3 view .LVU609
 168:Core/drogui/src/matlib.c ****     } 
 2070              		.loc 1 168 14 is_stmt 0 discriminator 3 view .LVU610
 2071 0070 7642     		rsbs	r6, r6, #0
 2072              	.LVL153:
 161:Core/drogui/src/matlib.c ****     { 
 2073              		.loc 1 161 28 is_stmt 1 discriminator 3 view .LVU611
 161:Core/drogui/src/matlib.c ****     { 
 2074              		.loc 1 161 29 is_stmt 0 discriminator 3 view .LVU612
 2075 0072 0134     		adds	r4, r4, #1
 2076              	.LVL154:
 2077              	.L100:
 161:Core/drogui/src/matlib.c ****     { 
 2078              		.loc 1 161 21 is_stmt 1 discriminator 1 view .LVU613
 161:Core/drogui/src/matlib.c ****     { 
 2079              		.loc 1 161 5 is_stmt 0 discriminator 1 view .LVU614
 2080 0074 A742     		cmp	r7, r4
 2081 0076 E3DC     		bgt	.L101
ARM GAS  C:\Users\USUARIO\AppData\Local\Temp\ccmgcwL3.s 			page 44


 2082              	.LBE41:
 170:Core/drogui/src/matlib.c ****     return D; 
 2083              		.loc 1 170 5 is_stmt 1 view .LVU615
 2084 0078 6846     		mov	r0, sp
 2085 007a FFF7FEFF 		bl	matDestruct
 2086              	.LVL155:
 171:Core/drogui/src/matlib.c **** } 
 2087              		.loc 1 171 5 view .LVU616
 2088              	.L96:
 172:Core/drogui/src/matlib.c **** 
 2089              		.loc 1 172 1 is_stmt 0 view .LVU617
 2090 007e B0EE680A 		vmov.f32	s0, s17
 2091 0082 05B0     		add	sp, sp, #20
 2092              	.LCFI27:
 2093              		.cfi_def_cfa_offset 28
 2094              		@ sp needed
 2095 0084 BDEC028B 		vldm	sp!, {d8}
 2096              	.LCFI28:
 2097              		.cfi_restore 80
 2098              		.cfi_restore 81
 2099              		.cfi_def_cfa_offset 20
 2100 0088 F0BD     		pop	{r4, r5, r6, r7, pc}
 2101              	.LVL156:
 2102              	.L106:
 172:Core/drogui/src/matlib.c **** 
 2103              		.loc 1 172 1 view .LVU618
 2104 008a 00BF     		.align	2
 2105              	.L105:
 2106 008c 00000000 		.word	0
 2107              		.cfi_endproc
 2108              	.LFE16:
 2110              		.section	.text.adjoint,"ax",%progbits
 2111              		.align	1
 2112              		.global	adjoint
 2113              		.syntax unified
 2114              		.thumb
 2115              		.thumb_func
 2116              		.fpu fpv5-sp-d16
 2118              	adjoint:
 2119              	.LVL157:
 2120              	.LFB18:
 190:Core/drogui/src/matlib.c **** 
 191:Core/drogui/src/matlib.c **** void adjoint(mat* A, mat* adj) {   
 2121              		.loc 1 191 32 is_stmt 1 view -0
 2122              		.cfi_startproc
 2123              		@ args = 0, pretend = 0, frame = 16
 2124              		@ frame_needed = 0, uses_anonymous_args = 0
 2125              		.loc 1 191 32 is_stmt 0 view .LVU620
 2126 0000 2DE9F041 		push	{r4, r5, r6, r7, r8, lr}
 2127              	.LCFI29:
 2128              		.cfi_def_cfa_offset 24
 2129              		.cfi_offset 4, -24
 2130              		.cfi_offset 5, -20
 2131              		.cfi_offset 6, -16
 2132              		.cfi_offset 7, -12
 2133              		.cfi_offset 8, -8
 2134              		.cfi_offset 14, -4
ARM GAS  C:\Users\USUARIO\AppData\Local\Temp\ccmgcwL3.s 			page 45


 2135 0004 2DED028B 		vpush.64	{d8}
 2136              	.LCFI30:
 2137              		.cfi_def_cfa_offset 32
 2138              		.cfi_offset 80, -32
 2139              		.cfi_offset 81, -28
 2140 0008 84B0     		sub	sp, sp, #16
 2141              	.LCFI31:
 2142              		.cfi_def_cfa_offset 48
 2143 000a 0746     		mov	r7, r0
 2144 000c 8846     		mov	r8, r1
 192:Core/drogui/src/matlib.c ****     int N = 0;
 2145              		.loc 1 192 5 is_stmt 1 view .LVU621
 2146              	.LVL158:
 193:Core/drogui/src/matlib.c ****     if(A->row == A->col){N = A->row;}
 2147              		.loc 1 193 5 view .LVU622
 2148              		.loc 1 193 9 is_stmt 0 view .LVU623
 2149 000e 0668     		ldr	r6, [r0]
 2150              		.loc 1 193 19 view .LVU624
 2151 0010 4368     		ldr	r3, [r0, #4]
 2152              		.loc 1 193 7 view .LVU625
 2153 0012 9E42     		cmp	r6, r3
 2154 0014 09D1     		bne	.L114
 2155              		.loc 1 193 26 is_stmt 1 discriminator 1 view .LVU626
 2156              	.LVL159:
 194:Core/drogui/src/matlib.c ****     if (N == 1) { 
 2157              		.loc 1 194 5 discriminator 1 view .LVU627
 2158              		.loc 1 194 8 is_stmt 0 discriminator 1 view .LVU628
 2159 0016 012E     		cmp	r6, #1
 2160 0018 08D1     		bne	.L108
 195:Core/drogui/src/matlib.c ****         setMatVal(adj, 0, 0, 1); 
 2161              		.loc 1 195 9 is_stmt 1 view .LVU629
 2162 001a B7EE000A 		vmov.f32	s0, #1.0e+0
 2163 001e 0022     		movs	r2, #0
 2164 0020 1146     		mov	r1, r2
 2165              	.LVL160:
 2166              		.loc 1 195 9 is_stmt 0 view .LVU630
 2167 0022 4046     		mov	r0, r8
 2168              	.LVL161:
 2169              		.loc 1 195 9 view .LVU631
 2170 0024 FFF7FEFF 		bl	setMatVal
 2171              	.LVL162:
 196:Core/drogui/src/matlib.c ****         return; 
 2172              		.loc 1 196 9 is_stmt 1 view .LVU632
 2173 0028 2DE0     		b	.L107
 2174              	.LVL163:
 2175              	.L114:
 192:Core/drogui/src/matlib.c ****     if(A->row == A->col){N = A->row;}
 2176              		.loc 1 192 9 is_stmt 0 view .LVU633
 2177 002a 0026     		movs	r6, #0
 2178              	.LVL164:
 2179              	.L108:
 197:Core/drogui/src/matlib.c ****     } 
 198:Core/drogui/src/matlib.c ****   
 199:Core/drogui/src/matlib.c ****     int sign = 1;
 2180              		.loc 1 199 5 is_stmt 1 view .LVU634
 200:Core/drogui/src/matlib.c ****     mat temp;
 2181              		.loc 1 200 5 view .LVU635
ARM GAS  C:\Users\USUARIO\AppData\Local\Temp\ccmgcwL3.s 			page 46


 201:Core/drogui/src/matlib.c ****     matInit(&temp, N-1 , N-1); 
 2182              		.loc 1 201 5 view .LVU636
 2183 002c 711E     		subs	r1, r6, #1
 2184              	.LVL165:
 2185              		.loc 1 201 5 is_stmt 0 view .LVU637
 2186 002e 0A46     		mov	r2, r1
 2187 0030 6846     		mov	r0, sp
 2188              	.LVL166:
 2189              		.loc 1 201 5 view .LVU638
 2190 0032 FFF7FEFF 		bl	matInit
 2191              	.LVL167:
 202:Core/drogui/src/matlib.c ****   
 203:Core/drogui/src/matlib.c ****     for (int i = 0; i < N; i++) { 
 2192              		.loc 1 203 5 is_stmt 1 view .LVU639
 2193              	.LBB42:
 2194              		.loc 1 203 10 view .LVU640
 2195              		.loc 1 203 14 is_stmt 0 view .LVU641
 2196 0036 0025     		movs	r5, #0
 2197              		.loc 1 203 5 view .LVU642
 2198 0038 1EE0     		b	.L110
 2199              	.LVL168:
 2200              	.L115:
 2201              	.LBB43:
 204:Core/drogui/src/matlib.c ****         for (int j = 0; j < N; j++) { 
 205:Core/drogui/src/matlib.c ****             
 206:Core/drogui/src/matlib.c ****             getCofactor(A, &temp, i, j); 
 207:Core/drogui/src/matlib.c ****             sign = ((i+j)%2 == 0) ? 1 : -1; 
 2202              		.loc 1 207 39 view .LVU643
 2203 003a 9FED158A 		vldr.32	s16, .L120	@ int
 2204              	.L111:
 2205              	.LVL169:
 208:Core/drogui/src/matlib.c ****             setMatVal(adj, j, i, (sign)*(matDet(&temp)));
 2206              		.loc 1 208 13 is_stmt 1 discriminator 4 view .LVU644
 2207              		.loc 1 208 42 is_stmt 0 discriminator 4 view .LVU645
 2208 003e 6846     		mov	r0, sp
 2209 0040 FFF7FEFF 		bl	matDet
 2210              	.LVL170:
 2211              		.loc 1 208 13 discriminator 4 view .LVU646
 2212 0044 B8EEC88A 		vcvt.f32.s32	s16, s16
 2213              	.LVL171:
 2214              		.loc 1 208 13 discriminator 4 view .LVU647
 2215 0048 28EE000A 		vmul.f32	s0, s16, s0
 2216 004c 2A46     		mov	r2, r5
 2217 004e 2146     		mov	r1, r4
 2218 0050 4046     		mov	r0, r8
 2219 0052 FFF7FEFF 		bl	setMatVal
 2220              	.LVL172:
 204:Core/drogui/src/matlib.c ****         for (int j = 0; j < N; j++) { 
 2221              		.loc 1 204 32 is_stmt 1 discriminator 4 view .LVU648
 204:Core/drogui/src/matlib.c ****         for (int j = 0; j < N; j++) { 
 2222              		.loc 1 204 33 is_stmt 0 discriminator 4 view .LVU649
 2223 0056 0134     		adds	r4, r4, #1
 2224              	.LVL173:
 2225              	.L113:
 204:Core/drogui/src/matlib.c ****         for (int j = 0; j < N; j++) { 
 2226              		.loc 1 204 25 is_stmt 1 discriminator 2 view .LVU650
 204:Core/drogui/src/matlib.c ****         for (int j = 0; j < N; j++) { 
ARM GAS  C:\Users\USUARIO\AppData\Local\Temp\ccmgcwL3.s 			page 47


 2227              		.loc 1 204 9 is_stmt 0 discriminator 2 view .LVU651
 2228 0058 A642     		cmp	r6, r4
 2229 005a 0CDD     		ble	.L118
 206:Core/drogui/src/matlib.c ****             sign = ((i+j)%2 == 0) ? 1 : -1; 
 2230              		.loc 1 206 13 is_stmt 1 view .LVU652
 2231 005c 2346     		mov	r3, r4
 2232 005e 2A46     		mov	r2, r5
 2233 0060 6946     		mov	r1, sp
 2234 0062 3846     		mov	r0, r7
 2235 0064 FFF7FEFF 		bl	getCofactor
 2236              	.LVL174:
 207:Core/drogui/src/matlib.c ****             setMatVal(adj, j, i, (sign)*(matDet(&temp)));
 2237              		.loc 1 207 13 view .LVU653
 207:Core/drogui/src/matlib.c ****             setMatVal(adj, j, i, (sign)*(matDet(&temp)));
 2238              		.loc 1 207 23 is_stmt 0 view .LVU654
 2239 0068 2B19     		adds	r3, r5, r4
 207:Core/drogui/src/matlib.c ****             setMatVal(adj, j, i, (sign)*(matDet(&temp)));
 2240              		.loc 1 207 39 view .LVU655
 2241 006a 13F0010F 		tst	r3, #1
 2242 006e E4D1     		bne	.L115
 207:Core/drogui/src/matlib.c ****             setMatVal(adj, j, i, (sign)*(matDet(&temp)));
 2243              		.loc 1 207 39 view .LVU656
 2244 0070 9FED088A 		vldr.32	s16, .L120+4	@ int
 2245 0074 E3E7     		b	.L111
 2246              	.L118:
 207:Core/drogui/src/matlib.c ****             setMatVal(adj, j, i, (sign)*(matDet(&temp)));
 2247              		.loc 1 207 39 view .LVU657
 2248              	.LBE43:
 203:Core/drogui/src/matlib.c ****         for (int j = 0; j < N; j++) { 
 2249              		.loc 1 203 28 is_stmt 1 discriminator 2 view .LVU658
 203:Core/drogui/src/matlib.c ****         for (int j = 0; j < N; j++) { 
 2250              		.loc 1 203 29 is_stmt 0 discriminator 2 view .LVU659
 2251 0076 0135     		adds	r5, r5, #1
 2252              	.LVL175:
 2253              	.L110:
 203:Core/drogui/src/matlib.c ****         for (int j = 0; j < N; j++) { 
 2254              		.loc 1 203 21 is_stmt 1 discriminator 1 view .LVU660
 203:Core/drogui/src/matlib.c ****         for (int j = 0; j < N; j++) { 
 2255              		.loc 1 203 5 is_stmt 0 discriminator 1 view .LVU661
 2256 0078 AE42     		cmp	r6, r5
 2257 007a 01DD     		ble	.L119
 2258              	.LBB44:
 204:Core/drogui/src/matlib.c ****             
 2259              		.loc 1 204 18 view .LVU662
 2260 007c 0024     		movs	r4, #0
 2261 007e EBE7     		b	.L113
 2262              	.L119:
 2263              	.LBE44:
 2264              	.LBE42:
 209:Core/drogui/src/matlib.c ****         } 
 210:Core/drogui/src/matlib.c ****     } 
 211:Core/drogui/src/matlib.c ****     matDestruct(&temp);
 2265              		.loc 1 211 5 is_stmt 1 view .LVU663
 2266 0080 6846     		mov	r0, sp
 2267 0082 FFF7FEFF 		bl	matDestruct
 2268              	.LVL176:
 2269              	.L107:
ARM GAS  C:\Users\USUARIO\AppData\Local\Temp\ccmgcwL3.s 			page 48


 212:Core/drogui/src/matlib.c **** } 
 2270              		.loc 1 212 1 is_stmt 0 view .LVU664
 2271 0086 04B0     		add	sp, sp, #16
 2272              	.LCFI32:
 2273              		.cfi_def_cfa_offset 32
 2274              		@ sp needed
 2275 0088 BDEC028B 		vldm	sp!, {d8}
 2276              	.LCFI33:
 2277              		.cfi_restore 80
 2278              		.cfi_restore 81
 2279              		.cfi_def_cfa_offset 24
 2280 008c BDE8F081 		pop	{r4, r5, r6, r7, r8, pc}
 2281              	.LVL177:
 2282              	.L121:
 2283              		.loc 1 212 1 view .LVU665
 2284              		.align	2
 2285              	.L120:
 2286 0090 FFFFFFFF 		.word	-1
 2287 0094 01000000 		.word	1
 2288              		.cfi_endproc
 2289              	.LFE18:
 2291              		.section	.text.matInverse,"ax",%progbits
 2292              		.align	1
 2293              		.global	matInverse
 2294              		.syntax unified
 2295              		.thumb
 2296              		.thumb_func
 2297              		.fpu fpv5-sp-d16
 2299              	matInverse:
 2300              	.LVL178:
 2301              	.LFB19:
 213:Core/drogui/src/matlib.c ****   
 214:Core/drogui/src/matlib.c **** bool matInverse(mat* inverse, mat* A) { 
 2302              		.loc 1 214 39 is_stmt 1 view -0
 2303              		.cfi_startproc
 2304              		@ args = 0, pretend = 0, frame = 16
 2305              		@ frame_needed = 0, uses_anonymous_args = 0
 2306              		.loc 1 214 39 is_stmt 0 view .LVU667
 2307 0000 F0B5     		push	{r4, r5, r6, r7, lr}
 2308              	.LCFI34:
 2309              		.cfi_def_cfa_offset 20
 2310              		.cfi_offset 4, -20
 2311              		.cfi_offset 5, -16
 2312              		.cfi_offset 6, -12
 2313              		.cfi_offset 7, -8
 2314              		.cfi_offset 14, -4
 2315 0002 2DED028B 		vpush.64	{d8}
 2316              	.LCFI35:
 2317              		.cfi_def_cfa_offset 28
 2318              		.cfi_offset 80, -28
 2319              		.cfi_offset 81, -24
 2320 0006 85B0     		sub	sp, sp, #20
 2321              	.LCFI36:
 2322              		.cfi_def_cfa_offset 48
 2323 0008 0746     		mov	r7, r0
 2324 000a 0E46     		mov	r6, r1
 215:Core/drogui/src/matlib.c ****     float det = matDet(A); 
ARM GAS  C:\Users\USUARIO\AppData\Local\Temp\ccmgcwL3.s 			page 49


 2325              		.loc 1 215 5 is_stmt 1 view .LVU668
 2326              		.loc 1 215 17 is_stmt 0 view .LVU669
 2327 000c 0846     		mov	r0, r1
 2328              	.LVL179:
 2329              		.loc 1 215 17 view .LVU670
 2330 000e FFF7FEFF 		bl	matDet
 2331              	.LVL180:
 216:Core/drogui/src/matlib.c ****     if (det == 0) return false; 
 2332              		.loc 1 216 5 is_stmt 1 view .LVU671
 2333              		.loc 1 216 8 is_stmt 0 view .LVU672
 2334 0012 B5EE400A 		vcmp.f32	s0, #0
 2335 0016 F1EE10FA 		vmrs	APSR_nzcv, FPSCR
 2336 001a 04D1     		bne	.L130
 2337              		.loc 1 216 26 view .LVU673
 2338 001c 0020     		movs	r0, #0
 2339              	.LVL181:
 2340              	.L123:
 217:Core/drogui/src/matlib.c ****      
 218:Core/drogui/src/matlib.c ****   
 219:Core/drogui/src/matlib.c ****     mat adj; 
 220:Core/drogui/src/matlib.c ****     matInit(&adj, A->row, A->col);
 221:Core/drogui/src/matlib.c ****     adjoint(A, &adj); 
 222:Core/drogui/src/matlib.c ****   
 223:Core/drogui/src/matlib.c ****     for (int i=0; i < A->row; i++) 
 224:Core/drogui/src/matlib.c ****         for (int j=0; j< A->col; j++) 
 225:Core/drogui/src/matlib.c ****             setMatVal(inverse, i, j, getMatVal(&adj, i, j)/(det));
 226:Core/drogui/src/matlib.c ****     matDestruct(&adj);
 227:Core/drogui/src/matlib.c ****     return true; 
 228:Core/drogui/src/matlib.c **** } ...
 2341              		.loc 1 228 1 view .LVU674
 2342 001e 05B0     		add	sp, sp, #20
 2343              	.LCFI37:
 2344              		.cfi_remember_state
 2345              		.cfi_def_cfa_offset 28
 2346              		@ sp needed
 2347 0020 BDEC028B 		vldm	sp!, {d8}
 2348              	.LCFI38:
 2349              		.cfi_restore 80
 2350              		.cfi_restore 81
 2351              		.cfi_def_cfa_offset 20
 2352 0024 F0BD     		pop	{r4, r5, r6, r7, pc}
 2353              	.LVL182:
 2354              	.L130:
 2355              	.LCFI39:
 2356              		.cfi_restore_state
 2357              		.loc 1 228 1 view .LVU675
 2358 0026 B0EE408A 		vmov.f32	s16, s0
 219:Core/drogui/src/matlib.c ****     mat adj; 
 2359              		.loc 1 219 5 is_stmt 1 view .LVU676
 220:Core/drogui/src/matlib.c ****     matInit(&adj, A->row, A->col);
 2360              		.loc 1 220 5 view .LVU677
 2361 002a 7268     		ldr	r2, [r6, #4]
 2362 002c 3168     		ldr	r1, [r6]
 2363 002e 6846     		mov	r0, sp
 2364 0030 FFF7FEFF 		bl	matInit
 2365              	.LVL183:
 221:Core/drogui/src/matlib.c ****     adjoint(A, &adj); 
ARM GAS  C:\Users\USUARIO\AppData\Local\Temp\ccmgcwL3.s 			page 50


 2366              		.loc 1 221 5 view .LVU678
 2367 0034 6946     		mov	r1, sp
 2368 0036 3046     		mov	r0, r6
 2369 0038 FFF7FEFF 		bl	adjoint
 2370              	.LVL184:
 223:Core/drogui/src/matlib.c ****     for (int i=0; i < A->row; i++) 
 2371              		.loc 1 223 5 view .LVU679
 2372              	.LBB45:
 223:Core/drogui/src/matlib.c ****     for (int i=0; i < A->row; i++) 
 2373              		.loc 1 223 10 view .LVU680
 223:Core/drogui/src/matlib.c ****     for (int i=0; i < A->row; i++) 
 2374              		.loc 1 223 14 is_stmt 0 view .LVU681
 2375 003c 0025     		movs	r5, #0
 223:Core/drogui/src/matlib.c ****     for (int i=0; i < A->row; i++) 
 2376              		.loc 1 223 5 view .LVU682
 2377 003e 10E0     		b	.L124
 2378              	.LVL185:
 2379              	.L125:
 2380              	.LBB46:
 225:Core/drogui/src/matlib.c ****             setMatVal(inverse, i, j, getMatVal(&adj, i, j)/(det));
 2381              		.loc 1 225 13 is_stmt 1 discriminator 3 view .LVU683
 225:Core/drogui/src/matlib.c ****             setMatVal(inverse, i, j, getMatVal(&adj, i, j)/(det));
 2382              		.loc 1 225 38 is_stmt 0 discriminator 3 view .LVU684
 2383 0040 2246     		mov	r2, r4
 2384 0042 2946     		mov	r1, r5
 2385 0044 6846     		mov	r0, sp
 2386 0046 FFF7FEFF 		bl	getMatVal
 2387              	.LVL186:
 225:Core/drogui/src/matlib.c ****             setMatVal(inverse, i, j, getMatVal(&adj, i, j)/(det));
 2388              		.loc 1 225 13 discriminator 3 view .LVU685
 2389 004a 80EE080A 		vdiv.f32	s0, s0, s16
 2390 004e 2246     		mov	r2, r4
 2391 0050 2946     		mov	r1, r5
 2392 0052 3846     		mov	r0, r7
 2393 0054 FFF7FEFF 		bl	setMatVal
 2394              	.LVL187:
 224:Core/drogui/src/matlib.c ****         for (int j=0; j< A->col; j++) 
 2395              		.loc 1 224 34 is_stmt 1 discriminator 3 view .LVU686
 224:Core/drogui/src/matlib.c ****         for (int j=0; j< A->col; j++) 
 2396              		.loc 1 224 35 is_stmt 0 discriminator 3 view .LVU687
 2397 0058 0134     		adds	r4, r4, #1
 2398              	.LVL188:
 2399              	.L126:
 224:Core/drogui/src/matlib.c ****         for (int j=0; j< A->col; j++) 
 2400              		.loc 1 224 23 is_stmt 1 discriminator 1 view .LVU688
 224:Core/drogui/src/matlib.c ****         for (int j=0; j< A->col; j++) 
 2401              		.loc 1 224 27 is_stmt 0 discriminator 1 view .LVU689
 2402 005a 7368     		ldr	r3, [r6, #4]
 224:Core/drogui/src/matlib.c ****         for (int j=0; j< A->col; j++) 
 2403              		.loc 1 224 9 discriminator 1 view .LVU690
 2404 005c A342     		cmp	r3, r4
 2405 005e EFDC     		bgt	.L125
 2406              	.LBE46:
 223:Core/drogui/src/matlib.c ****     for (int i=0; i < A->row; i++) 
 2407              		.loc 1 223 31 is_stmt 1 discriminator 2 view .LVU691
 223:Core/drogui/src/matlib.c ****     for (int i=0; i < A->row; i++) 
 2408              		.loc 1 223 32 is_stmt 0 discriminator 2 view .LVU692
ARM GAS  C:\Users\USUARIO\AppData\Local\Temp\ccmgcwL3.s 			page 51


 2409 0060 0135     		adds	r5, r5, #1
 2410              	.LVL189:
 2411              	.L124:
 223:Core/drogui/src/matlib.c ****     for (int i=0; i < A->row; i++) 
 2412              		.loc 1 223 19 is_stmt 1 discriminator 1 view .LVU693
 223:Core/drogui/src/matlib.c ****     for (int i=0; i < A->row; i++) 
 2413              		.loc 1 223 24 is_stmt 0 discriminator 1 view .LVU694
 2414 0062 3368     		ldr	r3, [r6]
 223:Core/drogui/src/matlib.c ****     for (int i=0; i < A->row; i++) 
 2415              		.loc 1 223 5 discriminator 1 view .LVU695
 2416 0064 AB42     		cmp	r3, r5
 2417 0066 01DD     		ble	.L131
 2418              	.LBB47:
 224:Core/drogui/src/matlib.c ****         for (int j=0; j< A->col; j++) 
 2419              		.loc 1 224 18 view .LVU696
 2420 0068 0024     		movs	r4, #0
 2421 006a F6E7     		b	.L126
 2422              	.L131:
 2423              	.LBE47:
 2424              	.LBE45:
 226:Core/drogui/src/matlib.c ****     matDestruct(&adj);
 2425              		.loc 1 226 5 is_stmt 1 view .LVU697
 2426 006c 6846     		mov	r0, sp
 2427 006e FFF7FEFF 		bl	matDestruct
 2428              	.LVL190:
 227:Core/drogui/src/matlib.c ****     return true; 
 2429              		.loc 1 227 5 view .LVU698
 227:Core/drogui/src/matlib.c ****     return true; 
 2430              		.loc 1 227 12 is_stmt 0 view .LVU699
 2431 0072 0120     		movs	r0, #1
 2432 0074 D3E7     		b	.L123
 2433              		.cfi_endproc
 2434              	.LFE19:
 2436              		.text
 2437              	.Letext0:
 2438              		.file 2 "Core/drogui/include/matlib.h"
 2439              		.file 3 "c:\\program files (x86)\\gnu arm embedded toolchain\\10 2020-q4-major\\arm-none-eabi\\inc
 2440              		.file 4 "c:\\program files (x86)\\gnu arm embedded toolchain\\10 2020-q4-major\\arm-none-eabi\\inc
ARM GAS  C:\Users\USUARIO\AppData\Local\Temp\ccmgcwL3.s 			page 52

