ARM GAS  C:\Users\julit\AppData\Local\Temp\cc83qeHj.s 			page 1


   1              		.cpu cortex-m7
   2              		.eabi_attribute 27, 1
   3              		.eabi_attribute 28, 1
   4              		.eabi_attribute 20, 1
   5              		.eabi_attribute 21, 1
   6              		.eabi_attribute 23, 3
   7              		.eabi_attribute 24, 1
   8              		.eabi_attribute 25, 1
   9              		.eabi_attribute 26, 1
  10              		.eabi_attribute 30, 1
  11              		.eabi_attribute 34, 1
  12              		.eabi_attribute 18, 4
  13              		.file	"mpu9250_test.c"
  14              		.text
  15              	.Ltext0:
  16              		.cfi_sections	.debug_frame
  17              		.global	__aeabi_f2d
  18              		.section	.rodata._main.str1.4,"aMS",%progbits,1
  19              		.align	2
  20              	.LC0:
  21 0000 486F6C61 		.ascii	"Hola %f \011 %f \011 %f;\012\000"
  21      20256620 
  21      09202566 
  21      20092025 
  21      663B0A00 
  22              		.section	.text._main,"ax",%progbits
  23              		.align	1
  24              		.global	_main
  25              		.arch armv7e-m
  26              		.syntax unified
  27              		.thumb
  28              		.thumb_func
  29              		.fpu fpv5-sp-d16
  31              	_main:
  32              	.LFB177:
  33              		.file 1 "Core/drogui/test/mpu9250_test.c"
   1:Core/drogui/test/mpu9250_test.c **** #define MPU9250_TEST
   2:Core/drogui/test/mpu9250_test.c **** #ifdef MPU9250_TEST
   3:Core/drogui/test/mpu9250_test.c **** 
   4:Core/drogui/test/mpu9250_test.c **** #include "_main.h"
   5:Core/drogui/test/mpu9250_test.c **** #include "MPU9250.h"
   6:Core/drogui/test/mpu9250_test.c **** #include <string.h>
   7:Core/drogui/test/mpu9250_test.c **** #include <stdio.h>
   8:Core/drogui/test/mpu9250_test.c **** #include "usart.h"
   9:Core/drogui/test/mpu9250_test.c **** #include "filter.h"
  10:Core/drogui/test/mpu9250_test.c **** #include "utils.h"
  11:Core/drogui/test/mpu9250_test.c **** 
  12:Core/drogui/test/mpu9250_test.c **** filter my_filter;
  13:Core/drogui/test/mpu9250_test.c **** mpu9250 myImu;
  14:Core/drogui/test/mpu9250_test.c **** char buff_mt[50];
  15:Core/drogui/test/mpu9250_test.c **** 
  16:Core/drogui/test/mpu9250_test.c **** float ax_filt;
  17:Core/drogui/test/mpu9250_test.c **** 
  18:Core/drogui/test/mpu9250_test.c **** void _main(){
  34              		.loc 1 18 13 view -0
  35              		.cfi_startproc
  36              		@ Volatile: function does not return.
ARM GAS  C:\Users\julit\AppData\Local\Temp\cc83qeHj.s 			page 2


  37              		@ args = 0, pretend = 0, frame = 0
  38              		@ frame_needed = 0, uses_anonymous_args = 0
  39 0000 80B5     		push	{r7, lr}
  40              	.LCFI0:
  41              		.cfi_def_cfa_offset 8
  42              		.cfi_offset 7, -8
  43              		.cfi_offset 14, -4
  44 0002 84B0     		sub	sp, sp, #16
  45              	.LCFI1:
  46              		.cfi_def_cfa_offset 24
  19:Core/drogui/test/mpu9250_test.c ****     initMpu(&myImu);
  47              		.loc 1 19 5 view .LVU1
  48 0004 1D4C     		ldr	r4, .L4
  49 0006 2046     		mov	r0, r4
  50 0008 FFF7FEFF 		bl	initMpu
  51              	.LVL0:
  20:Core/drogui/test/mpu9250_test.c ****     //calibrateGyro(&myImu); 
  21:Core/drogui/test/mpu9250_test.c ****     //calibrateAccel(&myImu);
  22:Core/drogui/test/mpu9250_test.c ****     calibrateMag(&myImu);
  52              		.loc 1 22 5 view .LVU2
  53 000c 2046     		mov	r0, r4
  54 000e FFF7FEFF 		bl	calibrateMag
  55              	.LVL1:
  23:Core/drogui/test/mpu9250_test.c ****     initFilter(&my_filter, 5, k_1_10, v_1_10);
  56              		.loc 1 23 5 view .LVU3
  57 0012 1B4B     		ldr	r3, .L4+4
  58 0014 1B4A     		ldr	r2, .L4+8
  59 0016 0521     		movs	r1, #5
  60 0018 1B48     		ldr	r0, .L4+12
  61 001a FFF7FEFF 		bl	initFilter
  62              	.LVL2:
  63              	.L2:
  24:Core/drogui/test/mpu9250_test.c **** 
  25:Core/drogui/test/mpu9250_test.c ****     while(1){
  64              		.loc 1 25 5 discriminator 1 view .LVU4
  26:Core/drogui/test/mpu9250_test.c ****         HAL_GPIO_TogglePin(LED_GPIO_Port, LED_Pin);
  65              		.loc 1 26 9 discriminator 1 view .LVU5
  66 001e 0221     		movs	r1, #2
  67 0020 1A48     		ldr	r0, .L4+16
  68 0022 FFF7FEFF 		bl	HAL_GPIO_TogglePin
  69              	.LVL3:
  27:Core/drogui/test/mpu9250_test.c ****         readMag(&myImu);
  70              		.loc 1 27 9 discriminator 1 view .LVU6
  71 0026 154C     		ldr	r4, .L4
  72 0028 2046     		mov	r0, r4
  73 002a FFF7FEFF 		bl	readMag
  74              	.LVL4:
  28:Core/drogui/test/mpu9250_test.c ****         //ax_filt = computeFilter(&my_filter, myImu.gx);
  29:Core/drogui/test/mpu9250_test.c ****         sprintf(buff_mt, "Hola %f \t %f \t %f;\n", myImu.mx, myImu.my, myImu.mz);
  75              		.loc 1 29 9 discriminator 1 view .LVU7
  76              		.loc 1 29 67 is_stmt 0 discriminator 1 view .LVU8
  77 002e A56B     		ldr	r5, [r4, #56]	@ float
  78              		.loc 1 29 77 discriminator 1 view .LVU9
  79 0030 D4F83C80 		ldr	r8, [r4, #60]	@ float
  80              		.loc 1 29 9 discriminator 1 view .LVU10
  81 0034 606B     		ldr	r0, [r4, #52]	@ float
  82 0036 FFF7FEFF 		bl	__aeabi_f2d
ARM GAS  C:\Users\julit\AppData\Local\Temp\cc83qeHj.s 			page 3


  83              	.LVL5:
  84 003a 0646     		mov	r6, r0
  85 003c 0F46     		mov	r7, r1
  86 003e 144C     		ldr	r4, .L4+20
  87 0040 4046     		mov	r0, r8	@ float
  88 0042 FFF7FEFF 		bl	__aeabi_f2d
  89              	.LVL6:
  90 0046 CDE90201 		strd	r0, [sp, #8]
  91 004a 2846     		mov	r0, r5	@ float
  92 004c FFF7FEFF 		bl	__aeabi_f2d
  93              	.LVL7:
  94 0050 CDE90001 		strd	r0, [sp]
  95 0054 3246     		mov	r2, r6
  96 0056 3B46     		mov	r3, r7
  97 0058 0E49     		ldr	r1, .L4+24
  98 005a 2046     		mov	r0, r4
  99 005c FFF7FEFF 		bl	sprintf
 100              	.LVL8:
  30:Core/drogui/test/mpu9250_test.c ****         HAL_UART_Transmit(&huart2, (uint8_t *)buff_mt, strlen(buff_mt), 100); 
 101              		.loc 1 30 9 is_stmt 1 discriminator 1 view .LVU11
 102              		.loc 1 30 56 is_stmt 0 discriminator 1 view .LVU12
 103 0060 2046     		mov	r0, r4
 104 0062 FFF7FEFF 		bl	strlen
 105              	.LVL9:
 106              		.loc 1 30 9 discriminator 1 view .LVU13
 107 0066 6423     		movs	r3, #100
 108 0068 82B2     		uxth	r2, r0
 109 006a 2146     		mov	r1, r4
 110 006c 0A48     		ldr	r0, .L4+28
 111 006e FFF7FEFF 		bl	HAL_UART_Transmit
 112              	.LVL10:
  31:Core/drogui/test/mpu9250_test.c ****         HAL_Delay(100);
 113              		.loc 1 31 9 is_stmt 1 discriminator 1 view .LVU14
 114 0072 6420     		movs	r0, #100
 115 0074 FFF7FEFF 		bl	HAL_Delay
 116              	.LVL11:
  25:Core/drogui/test/mpu9250_test.c ****         HAL_GPIO_TogglePin(LED_GPIO_Port, LED_Pin);
 117              		.loc 1 25 10 discriminator 1 view .LVU15
 118 0078 D1E7     		b	.L2
 119              	.L5:
 120 007a 00BF     		.align	2
 121              	.L4:
 122 007c 00000000 		.word	.LANCHOR0
 123 0080 00000000 		.word	v_1_10
 124 0084 00000000 		.word	k_1_10
 125 0088 00000000 		.word	.LANCHOR1
 126 008c 00100240 		.word	1073876992
 127 0090 00000000 		.word	.LANCHOR2
 128 0094 00000000 		.word	.LC0
 129 0098 00000000 		.word	huart2
 130              		.cfi_endproc
 131              	.LFE177:
 133              		.global	ax_filt
 134              		.global	buff_mt
 135              		.global	myImu
 136              		.global	my_filter
 137              		.section	.bss.ax_filt,"aw",%nobits
ARM GAS  C:\Users\julit\AppData\Local\Temp\cc83qeHj.s 			page 4


 138              		.align	2
 141              	ax_filt:
 142 0000 00000000 		.space	4
 143              		.section	.bss.buff_mt,"aw",%nobits
 144              		.align	2
 145              		.set	.LANCHOR2,. + 0
 148              	buff_mt:
 149 0000 00000000 		.space	50
 149      00000000 
 149      00000000 
 149      00000000 
 149      00000000 
 150              		.section	.bss.myImu,"aw",%nobits
 151              		.align	2
 152              		.set	.LANCHOR0,. + 0
 155              	myImu:
 156 0000 00000000 		.space	140
 156      00000000 
 156      00000000 
 156      00000000 
 156      00000000 
 157              		.section	.bss.my_filter,"aw",%nobits
 158              		.align	2
 159              		.set	.LANCHOR1,. + 0
 162              	my_filter:
 163 0000 00000000 		.space	20
 163      00000000 
 163      00000000 
 163      00000000 
 163      00000000 
 164              		.text
 165              	.Letext0:
 166              		.file 2 "c:\\program files (x86)\\gnu arm embedded toolchain\\10 2020-q4-major\\arm-none-eabi\\inc
 167              		.file 3 "c:\\program files (x86)\\gnu arm embedded toolchain\\10 2020-q4-major\\arm-none-eabi\\inc
 168              		.file 4 "Drivers/CMSIS/Device/ST/STM32F7xx/Include/stm32f746xx.h"
 169              		.file 5 "Drivers/STM32F7xx_HAL_Driver/Inc/stm32f7xx_hal_def.h"
 170              		.file 6 "Drivers/STM32F7xx_HAL_Driver/Inc/stm32f7xx_hal_dma.h"
 171              		.file 7 "Drivers/STM32F7xx_HAL_Driver/Inc/stm32f7xx_hal_uart.h"
 172              		.file 8 "Core/drogui/include/MPU9250.h"
 173              		.file 9 "Drivers/CMSIS/DSP/Include/arm_math.h"
 174              		.file 10 "Core/drogui/include/filter.h"
 175              		.file 11 "Core/Inc/usart.h"
 176              		.file 12 "Core/drogui/include/utils.h"
 177              		.file 13 "Drivers/STM32F7xx_HAL_Driver/Inc/stm32f7xx_hal_gpio.h"
 178              		.file 14 "c:\\program files (x86)\\gnu arm embedded toolchain\\10 2020-q4-major\\arm-none-eabi\\in
 179              		.file 15 "c:\\program files (x86)\\gnu arm embedded toolchain\\10 2020-q4-major\\arm-none-eabi\\in
 180              		.file 16 "Drivers/STM32F7xx_HAL_Driver/Inc/stm32f7xx_hal.h"
ARM GAS  C:\Users\julit\AppData\Local\Temp\cc83qeHj.s 			page 5


DEFINED SYMBOLS
                            *ABS*:00000000 mpu9250_test.c
C:\Users\julit\AppData\Local\Temp\cc83qeHj.s:19     .rodata._main.str1.4:00000000 $d
C:\Users\julit\AppData\Local\Temp\cc83qeHj.s:23     .text._main:00000000 $t
C:\Users\julit\AppData\Local\Temp\cc83qeHj.s:31     .text._main:00000000 _main
C:\Users\julit\AppData\Local\Temp\cc83qeHj.s:122    .text._main:0000007c $d
C:\Users\julit\AppData\Local\Temp\cc83qeHj.s:141    .bss.ax_filt:00000000 ax_filt
C:\Users\julit\AppData\Local\Temp\cc83qeHj.s:148    .bss.buff_mt:00000000 buff_mt
C:\Users\julit\AppData\Local\Temp\cc83qeHj.s:155    .bss.myImu:00000000 myImu
C:\Users\julit\AppData\Local\Temp\cc83qeHj.s:162    .bss.my_filter:00000000 my_filter
C:\Users\julit\AppData\Local\Temp\cc83qeHj.s:138    .bss.ax_filt:00000000 $d
C:\Users\julit\AppData\Local\Temp\cc83qeHj.s:144    .bss.buff_mt:00000000 $d
C:\Users\julit\AppData\Local\Temp\cc83qeHj.s:151    .bss.myImu:00000000 $d
C:\Users\julit\AppData\Local\Temp\cc83qeHj.s:158    .bss.my_filter:00000000 $d

UNDEFINED SYMBOLS
__aeabi_f2d
initMpu
calibrateMag
initFilter
HAL_GPIO_TogglePin
readMag
sprintf
strlen
HAL_UART_Transmit
HAL_Delay
v_1_10
k_1_10
huart2
