ARM GAS  C:\Users\julit\AppData\Local\Temp\ccqfzuNA.s 			page 1


   1              		.cpu cortex-m7
   2              		.eabi_attribute 27, 1
   3              		.eabi_attribute 28, 1
   4              		.eabi_attribute 20, 1
   5              		.eabi_attribute 21, 1
   6              		.eabi_attribute 23, 3
   7              		.eabi_attribute 24, 1
   8              		.eabi_attribute 25, 1
   9              		.eabi_attribute 26, 1
  10              		.eabi_attribute 30, 1
  11              		.eabi_attribute 34, 1
  12              		.eabi_attribute 18, 4
  13              		.file	"MPU9250.c"
  14              		.text
  15              	.Ltext0:
  16              		.cfi_sections	.debug_frame
  17              		.section	.text.initMpu,"ax",%progbits
  18              		.align	1
  19              		.global	initMpu
  20              		.arch armv7e-m
  21              		.syntax unified
  22              		.thumb
  23              		.thumb_func
  24              		.fpu fpv5-sp-d16
  26              	initMpu:
  27              	.LVL0:
  28              	.LFB144:
  29              		.file 1 "Core/drogui/src/MPU9250.c"
   1:Core/drogui/src/MPU9250.c **** #include "MPU9250.h"
   2:Core/drogui/src/MPU9250.c **** #include "i2c.h"
   3:Core/drogui/src/MPU9250.c **** #include "matlib.h"
   4:Core/drogui/src/MPU9250.c **** #include "registerMap.h"
   5:Core/drogui/src/MPU9250.c **** #include "utils.h"
   6:Core/drogui/src/MPU9250.c **** #include <stdio.h>
   7:Core/drogui/src/MPU9250.c **** #include <string.h>
   8:Core/drogui/src/MPU9250.c **** #include "usart.h"
   9:Core/drogui/src/MPU9250.c **** 
  10:Core/drogui/src/MPU9250.c **** #define G 9.81
  11:Core/drogui/src/MPU9250.c **** int16_t _ax, _ay, _az, _gx, _gy, _gz, _mx, _my, _mz;
  12:Core/drogui/src/MPU9250.c **** 
  13:Core/drogui/src/MPU9250.c **** 
  14:Core/drogui/src/MPU9250.c **** void initMpu(mpu9250* m){
  30              		.loc 1 14 25 view -0
  31              		.cfi_startproc
  32              		@ args = 0, pretend = 0, frame = 0
  33              		@ frame_needed = 0, uses_anonymous_args = 0
  34              		.loc 1 14 25 is_stmt 0 view .LVU1
  35 0000 10B5     		push	{r4, lr}
  36              	.LCFI0:
  37              		.cfi_def_cfa_offset 8
  38              		.cfi_offset 4, -8
  39              		.cfi_offset 14, -4
  40 0002 0446     		mov	r4, r0
  15:Core/drogui/src/MPU9250.c **** 
  16:Core/drogui/src/MPU9250.c ****     I2CwriteByte(MPU9250_ADDRESS, MASTER_CONFIG, 0x06);
  41              		.loc 1 16 5 is_stmt 1 view .LVU2
  42 0004 0622     		movs	r2, #6
ARM GAS  C:\Users\julit\AppData\Local\Temp\ccqfzuNA.s 			page 2


  43 0006 1A21     		movs	r1, #26
  44 0008 6820     		movs	r0, #104
  45              	.LVL1:
  46              		.loc 1 16 5 is_stmt 0 view .LVU3
  47 000a FFF7FEFF 		bl	I2CwriteByte
  48              	.LVL2:
  17:Core/drogui/src/MPU9250.c ****     I2CwriteByte(MPU9250_ADDRESS, GYRO_CONFIG, GYRO_FULL_SCALE_2000_DPS | 3);
  49              		.loc 1 17 5 is_stmt 1 view .LVU4
  50 000e 1B22     		movs	r2, #27
  51 0010 1146     		mov	r1, r2
  52 0012 6820     		movs	r0, #104
  53 0014 FFF7FEFF 		bl	I2CwriteByte
  54              	.LVL3:
  18:Core/drogui/src/MPU9250.c ****     I2CwriteByte(MPU9250_ADDRESS, ACCEL_CONFIG1, ACC_FULL_SCALE_16_G);
  55              		.loc 1 18 5 view .LVU5
  56 0018 1822     		movs	r2, #24
  57 001a 1C21     		movs	r1, #28
  58 001c 6820     		movs	r0, #104
  59 001e FFF7FEFF 		bl	I2CwriteByte
  60              	.LVL4:
  19:Core/drogui/src/MPU9250.c ****     I2CwriteByte(MPU9250_ADDRESS, ACCEL_CONFIG2, 4);
  61              		.loc 1 19 5 view .LVU6
  62 0022 0422     		movs	r2, #4
  63 0024 1D21     		movs	r1, #29
  64 0026 6820     		movs	r0, #104
  65 0028 FFF7FEFF 		bl	I2CwriteByte
  66              	.LVL5:
  20:Core/drogui/src/MPU9250.c ****     I2CwriteByte(MPU9250_ADDRESS, 0x37, 0x02);
  67              		.loc 1 20 5 view .LVU7
  68 002c 0222     		movs	r2, #2
  69 002e 3721     		movs	r1, #55
  70 0030 6820     		movs	r0, #104
  71 0032 FFF7FEFF 		bl	I2CwriteByte
  72              	.LVL6:
  21:Core/drogui/src/MPU9250.c ****     HAL_Delay(1000);
  73              		.loc 1 21 5 view .LVU8
  74 0036 4FF47A70 		mov	r0, #1000
  75 003a FFF7FEFF 		bl	HAL_Delay
  76              	.LVL7:
  22:Core/drogui/src/MPU9250.c ****     I2CwriteByte(MAG_ADDRESS, 0x0A, 0x16);
  77              		.loc 1 22 5 view .LVU9
  78 003e 1622     		movs	r2, #22
  79 0040 0A21     		movs	r1, #10
  80 0042 0C20     		movs	r0, #12
  81 0044 FFF7FEFF 		bl	I2CwriteByte
  82              	.LVL8:
  23:Core/drogui/src/MPU9250.c ****     m->scl_acc = m->scl_magx = m-> scl_magy = m-> scl_magz = 1;
  83              		.loc 1 23 5 view .LVU10
  84              		.loc 1 23 60 is_stmt 0 view .LVU11
  85 0048 4FF07E53 		mov	r3, #1065353216
  86 004c 6365     		str	r3, [r4, #84]	@ float
  87              		.loc 1 23 45 view .LVU12
  88 004e 2365     		str	r3, [r4, #80]	@ float
  89              		.loc 1 23 30 view .LVU13
  90 0050 E364     		str	r3, [r4, #76]	@ float
  91              		.loc 1 23 16 view .LVU14
  92 0052 A361     		str	r3, [r4, #24]	@ float
ARM GAS  C:\Users\julit\AppData\Local\Temp\ccqfzuNA.s 			page 3


  24:Core/drogui/src/MPU9250.c ****     
  25:Core/drogui/src/MPU9250.c **** }
  93              		.loc 1 25 1 view .LVU15
  94 0054 10BD     		pop	{r4, pc}
  95              		.loc 1 25 1 view .LVU16
  96              		.cfi_endproc
  97              	.LFE144:
  99              		.section	.text.readRawAcc,"ax",%progbits
 100              		.align	1
 101              		.global	readRawAcc
 102              		.syntax unified
 103              		.thumb
 104              		.thumb_func
 105              		.fpu fpv5-sp-d16
 107              	readRawAcc:
 108              	.LVL9:
 109              	.LFB145:
  26:Core/drogui/src/MPU9250.c **** 
  27:Core/drogui/src/MPU9250.c **** void readRawAcc(mpu9250* m){ // m/s^2
 110              		.loc 1 27 28 is_stmt 1 view -0
 111              		.cfi_startproc
 112              		@ args = 0, pretend = 0, frame = 8
 113              		@ frame_needed = 0, uses_anonymous_args = 0
 114              		.loc 1 27 28 is_stmt 0 view .LVU18
 115 0000 10B5     		push	{r4, lr}
 116              	.LCFI1:
 117              		.cfi_def_cfa_offset 8
 118              		.cfi_offset 4, -8
 119              		.cfi_offset 14, -4
 120 0002 82B0     		sub	sp, sp, #8
 121              	.LCFI2:
 122              		.cfi_def_cfa_offset 16
 123 0004 0446     		mov	r4, r0
  28:Core/drogui/src/MPU9250.c ****     uint8_t Buf[6];
 124              		.loc 1 28 5 is_stmt 1 view .LVU19
  29:Core/drogui/src/MPU9250.c ****     I2Cread(MPU9250_ADDRESS, 0x3B, 6, Buf);
 125              		.loc 1 29 5 view .LVU20
 126 0006 6B46     		mov	r3, sp
 127 0008 0622     		movs	r2, #6
 128 000a 3B21     		movs	r1, #59
 129 000c 6820     		movs	r0, #104
 130              	.LVL10:
 131              		.loc 1 29 5 is_stmt 0 view .LVU21
 132 000e FFF7FEFF 		bl	I2Cread
 133              	.LVL11:
  30:Core/drogui/src/MPU9250.c ****     _ax = -((Buf[0]<<8) | Buf[1]);
 134              		.loc 1 30 5 is_stmt 1 view .LVU22
 135              		.loc 1 30 17 is_stmt 0 view .LVU23
 136 0012 9DF80030 		ldrb	r3, [sp]	@ zero_extendqisi2
 137              		.loc 1 30 30 view .LVU24
 138 0016 9DF80120 		ldrb	r2, [sp, #1]	@ zero_extendqisi2
 139              		.loc 1 30 25 view .LVU25
 140 001a 42EA0322 		orr	r2, r2, r3, lsl #8
 141              		.loc 1 30 9 view .LVU26
 142 001e 5242     		rsbs	r2, r2, #0
 143 0020 12B2     		sxth	r2, r2
 144 0022 144B     		ldr	r3, .L5
ARM GAS  C:\Users\julit\AppData\Local\Temp\ccqfzuNA.s 			page 4


 145 0024 1A80     		strh	r2, [r3]	@ movhi
  31:Core/drogui/src/MPU9250.c ****     _ay = -((Buf[2]<<8) | Buf[3]);
 146              		.loc 1 31 5 is_stmt 1 view .LVU27
 147              		.loc 1 31 17 is_stmt 0 view .LVU28
 148 0026 9DF80210 		ldrb	r1, [sp, #2]	@ zero_extendqisi2
 149              		.loc 1 31 30 view .LVU29
 150 002a 9DF80330 		ldrb	r3, [sp, #3]	@ zero_extendqisi2
 151              		.loc 1 31 25 view .LVU30
 152 002e 43EA0123 		orr	r3, r3, r1, lsl #8
 153              		.loc 1 31 9 view .LVU31
 154 0032 5B42     		rsbs	r3, r3, #0
 155 0034 1BB2     		sxth	r3, r3
 156 0036 1049     		ldr	r1, .L5+4
 157 0038 0B80     		strh	r3, [r1]	@ movhi
  32:Core/drogui/src/MPU9250.c ****     _az =   (Buf[4]<<8) | Buf[5];
 158              		.loc 1 32 5 is_stmt 1 view .LVU32
 159              		.loc 1 32 17 is_stmt 0 view .LVU33
 160 003a 9DF80400 		ldrb	r0, [sp, #4]	@ zero_extendqisi2
 161              		.loc 1 32 30 view .LVU34
 162 003e 9DF80510 		ldrb	r1, [sp, #5]	@ zero_extendqisi2
 163              		.loc 1 32 25 view .LVU35
 164 0042 41EA0021 		orr	r1, r1, r0, lsl #8
 165 0046 09B2     		sxth	r1, r1
 166              		.loc 1 32 9 view .LVU36
 167 0048 0C48     		ldr	r0, .L5+8
 168 004a 0180     		strh	r1, [r0]	@ movhi
  33:Core/drogui/src/MPU9250.c ****     
  34:Core/drogui/src/MPU9250.c ****     m -> raw_ax = _ax;
 169              		.loc 1 34 5 is_stmt 1 view .LVU37
 170              		.loc 1 34 17 is_stmt 0 view .LVU38
 171 004c 07EE902A 		vmov	s15, r2	@ int
 172 0050 F8EEE77A 		vcvt.f32.s32	s15, s15
 173 0054 C4ED167A 		vstr.32	s15, [r4, #88]
  35:Core/drogui/src/MPU9250.c ****     m -> raw_ay = _ay;
 174              		.loc 1 35 5 is_stmt 1 view .LVU39
 175              		.loc 1 35 17 is_stmt 0 view .LVU40
 176 0058 07EE903A 		vmov	s15, r3	@ int
 177 005c F8EEE77A 		vcvt.f32.s32	s15, s15
 178 0060 C4ED177A 		vstr.32	s15, [r4, #92]
  36:Core/drogui/src/MPU9250.c ****     m -> raw_az = _az; 
 179              		.loc 1 36 5 is_stmt 1 view .LVU41
 180              		.loc 1 36 17 is_stmt 0 view .LVU42
 181 0064 07EE901A 		vmov	s15, r1	@ int
 182 0068 F8EEE77A 		vcvt.f32.s32	s15, s15
 183 006c C4ED187A 		vstr.32	s15, [r4, #96]
  37:Core/drogui/src/MPU9250.c **** }
 184              		.loc 1 37 1 view .LVU43
 185 0070 02B0     		add	sp, sp, #8
 186              	.LCFI3:
 187              		.cfi_def_cfa_offset 8
 188              		@ sp needed
 189 0072 10BD     		pop	{r4, pc}
 190              	.LVL12:
 191              	.L6:
 192              		.loc 1 37 1 view .LVU44
 193              		.align	2
 194              	.L5:
ARM GAS  C:\Users\julit\AppData\Local\Temp\ccqfzuNA.s 			page 5


 195 0074 00000000 		.word	.LANCHOR0
 196 0078 00000000 		.word	.LANCHOR1
 197 007c 00000000 		.word	.LANCHOR2
 198              		.cfi_endproc
 199              	.LFE145:
 201              		.section	.text.readRawGyro,"ax",%progbits
 202              		.align	1
 203              		.global	readRawGyro
 204              		.syntax unified
 205              		.thumb
 206              		.thumb_func
 207              		.fpu fpv5-sp-d16
 209              	readRawGyro:
 210              	.LVL13:
 211              	.LFB146:
  38:Core/drogui/src/MPU9250.c **** 
  39:Core/drogui/src/MPU9250.c **** void readRawGyro(mpu9250* m){ // degrees/sec
 212              		.loc 1 39 29 is_stmt 1 view -0
 213              		.cfi_startproc
 214              		@ args = 0, pretend = 0, frame = 8
 215              		@ frame_needed = 0, uses_anonymous_args = 0
 216              		.loc 1 39 29 is_stmt 0 view .LVU46
 217 0000 10B5     		push	{r4, lr}
 218              	.LCFI4:
 219              		.cfi_def_cfa_offset 8
 220              		.cfi_offset 4, -8
 221              		.cfi_offset 14, -4
 222 0002 82B0     		sub	sp, sp, #8
 223              	.LCFI5:
 224              		.cfi_def_cfa_offset 16
 225 0004 0446     		mov	r4, r0
  40:Core/drogui/src/MPU9250.c ****     
  41:Core/drogui/src/MPU9250.c ****     uint8_t Buf[6];
 226              		.loc 1 41 5 is_stmt 1 view .LVU47
  42:Core/drogui/src/MPU9250.c ****     I2Cread(MPU9250_ADDRESS, 0x43, 6, Buf);
 227              		.loc 1 42 5 view .LVU48
 228 0006 6B46     		mov	r3, sp
 229 0008 0622     		movs	r2, #6
 230 000a 4321     		movs	r1, #67
 231 000c 6820     		movs	r0, #104
 232              	.LVL14:
 233              		.loc 1 42 5 is_stmt 0 view .LVU49
 234 000e FFF7FEFF 		bl	I2Cread
 235              	.LVL15:
  43:Core/drogui/src/MPU9250.c ****     _gx = -((Buf[0] << 8) | Buf[1]);
 236              		.loc 1 43 5 is_stmt 1 view .LVU50
 237              		.loc 1 43 17 is_stmt 0 view .LVU51
 238 0012 9DF80030 		ldrb	r3, [sp]	@ zero_extendqisi2
 239              		.loc 1 43 32 view .LVU52
 240 0016 9DF80120 		ldrb	r2, [sp, #1]	@ zero_extendqisi2
 241              		.loc 1 43 27 view .LVU53
 242 001a 42EA0322 		orr	r2, r2, r3, lsl #8
 243              		.loc 1 43 9 view .LVU54
 244 001e 5242     		rsbs	r2, r2, #0
 245 0020 12B2     		sxth	r2, r2
 246 0022 144B     		ldr	r3, .L9
 247 0024 1A80     		strh	r2, [r3]	@ movhi
ARM GAS  C:\Users\julit\AppData\Local\Temp\ccqfzuNA.s 			page 6


  44:Core/drogui/src/MPU9250.c ****     _gy = -((Buf[2] << 8) | Buf[3]);
 248              		.loc 1 44 5 is_stmt 1 view .LVU55
 249              		.loc 1 44 17 is_stmt 0 view .LVU56
 250 0026 9DF80210 		ldrb	r1, [sp, #2]	@ zero_extendqisi2
 251              		.loc 1 44 32 view .LVU57
 252 002a 9DF80330 		ldrb	r3, [sp, #3]	@ zero_extendqisi2
 253              		.loc 1 44 27 view .LVU58
 254 002e 43EA0123 		orr	r3, r3, r1, lsl #8
 255              		.loc 1 44 9 view .LVU59
 256 0032 5B42     		rsbs	r3, r3, #0
 257 0034 1BB2     		sxth	r3, r3
 258 0036 1049     		ldr	r1, .L9+4
 259 0038 0B80     		strh	r3, [r1]	@ movhi
  45:Core/drogui/src/MPU9250.c ****     _gz =   (Buf[4] << 8) | Buf[5];
 260              		.loc 1 45 5 is_stmt 1 view .LVU60
 261              		.loc 1 45 17 is_stmt 0 view .LVU61
 262 003a 9DF80400 		ldrb	r0, [sp, #4]	@ zero_extendqisi2
 263              		.loc 1 45 32 view .LVU62
 264 003e 9DF80510 		ldrb	r1, [sp, #5]	@ zero_extendqisi2
 265              		.loc 1 45 27 view .LVU63
 266 0042 41EA0021 		orr	r1, r1, r0, lsl #8
 267 0046 09B2     		sxth	r1, r1
 268              		.loc 1 45 9 view .LVU64
 269 0048 0C48     		ldr	r0, .L9+8
 270 004a 0180     		strh	r1, [r0]	@ movhi
  46:Core/drogui/src/MPU9250.c ****     m -> raw_gx = _gx;
 271              		.loc 1 46 5 is_stmt 1 view .LVU65
 272              		.loc 1 46 17 is_stmt 0 view .LVU66
 273 004c 07EE902A 		vmov	s15, r2	@ int
 274 0050 F8EEE77A 		vcvt.f32.s32	s15, s15
 275 0054 C4ED197A 		vstr.32	s15, [r4, #100]
  47:Core/drogui/src/MPU9250.c ****     m -> raw_gy = _gy;
 276              		.loc 1 47 5 is_stmt 1 view .LVU67
 277              		.loc 1 47 17 is_stmt 0 view .LVU68
 278 0058 07EE903A 		vmov	s15, r3	@ int
 279 005c F8EEE77A 		vcvt.f32.s32	s15, s15
 280 0060 C4ED1A7A 		vstr.32	s15, [r4, #104]
  48:Core/drogui/src/MPU9250.c ****     m -> raw_gz = _gz; 
 281              		.loc 1 48 5 is_stmt 1 view .LVU69
 282              		.loc 1 48 17 is_stmt 0 view .LVU70
 283 0064 07EE901A 		vmov	s15, r1	@ int
 284 0068 F8EEE77A 		vcvt.f32.s32	s15, s15
 285 006c C4ED1B7A 		vstr.32	s15, [r4, #108]
  49:Core/drogui/src/MPU9250.c **** }
 286              		.loc 1 49 1 view .LVU71
 287 0070 02B0     		add	sp, sp, #8
 288              	.LCFI6:
 289              		.cfi_def_cfa_offset 8
 290              		@ sp needed
 291 0072 10BD     		pop	{r4, pc}
 292              	.LVL16:
 293              	.L10:
 294              		.loc 1 49 1 view .LVU72
 295              		.align	2
 296              	.L9:
 297 0074 00000000 		.word	.LANCHOR3
 298 0078 00000000 		.word	.LANCHOR4
ARM GAS  C:\Users\julit\AppData\Local\Temp\ccqfzuNA.s 			page 7


 299 007c 00000000 		.word	.LANCHOR5
 300              		.cfi_endproc
 301              	.LFE146:
 303              		.section	.text.readRawMag,"ax",%progbits
 304              		.align	1
 305              		.global	readRawMag
 306              		.syntax unified
 307              		.thumb
 308              		.thumb_func
 309              		.fpu fpv5-sp-d16
 311              	readRawMag:
 312              	.LVL17:
 313              	.LFB147:
  50:Core/drogui/src/MPU9250.c **** 
  51:Core/drogui/src/MPU9250.c **** void readRawMag(mpu9250* m){ // m/s^2
 314              		.loc 1 51 28 is_stmt 1 view -0
 315              		.cfi_startproc
 316              		@ args = 0, pretend = 0, frame = 8
 317              		@ frame_needed = 0, uses_anonymous_args = 0
 318              		.loc 1 51 28 is_stmt 0 view .LVU74
 319 0000 10B5     		push	{r4, lr}
 320              	.LCFI7:
 321              		.cfi_def_cfa_offset 8
 322              		.cfi_offset 4, -8
 323              		.cfi_offset 14, -4
 324 0002 82B0     		sub	sp, sp, #8
 325              	.LCFI8:
 326              		.cfi_def_cfa_offset 16
 327 0004 0446     		mov	r4, r0
  52:Core/drogui/src/MPU9250.c ****     uint8_t Buf[7];
 328              		.loc 1 52 5 is_stmt 1 view .LVU75
  53:Core/drogui/src/MPU9250.c ****     I2Cread(MAG_ADDRESS, 0x03, 7, Buf);
 329              		.loc 1 53 5 view .LVU76
 330 0006 6B46     		mov	r3, sp
 331 0008 0722     		movs	r2, #7
 332 000a 0321     		movs	r1, #3
 333 000c 0C20     		movs	r0, #12
 334              	.LVL18:
 335              		.loc 1 53 5 is_stmt 0 view .LVU77
 336 000e FFF7FEFF 		bl	I2Cread
 337              	.LVL19:
  54:Core/drogui/src/MPU9250.c ****     
  55:Core/drogui/src/MPU9250.c ****     char buff[50];
 338              		.loc 1 55 5 is_stmt 1 view .LVU78
  56:Core/drogui/src/MPU9250.c **** 
  57:Core/drogui/src/MPU9250.c ****     /*for(int i = 0; i < 6 ; i++){
  58:Core/drogui/src/MPU9250.c **** 
  59:Core/drogui/src/MPU9250.c ****         sprintf(buff, "%x\t", Buf[i]);
  60:Core/drogui/src/MPU9250.c ****         HAL_UART_Transmit(&huart2, (uint8_t *)buff, strlen(buff), 100);
  61:Core/drogui/src/MPU9250.c ****     }*/
  62:Core/drogui/src/MPU9250.c **** 
  63:Core/drogui/src/MPU9250.c ****     //sprintf(buff, "\n");
  64:Core/drogui/src/MPU9250.c ****     //HAL_UART_Transmit(&huart2, (uint8_t *)buff, strlen(buff), 100);
  65:Core/drogui/src/MPU9250.c ****     _mx = -((Buf[3]<<8) | Buf[2]);
 339              		.loc 1 65 5 view .LVU79
 340              		.loc 1 65 17 is_stmt 0 view .LVU80
 341 0012 9DF80330 		ldrb	r3, [sp, #3]	@ zero_extendqisi2
ARM GAS  C:\Users\julit\AppData\Local\Temp\ccqfzuNA.s 			page 8


 342              		.loc 1 65 30 view .LVU81
 343 0016 9DF80210 		ldrb	r1, [sp, #2]	@ zero_extendqisi2
 344              		.loc 1 65 25 view .LVU82
 345 001a 41EA0321 		orr	r1, r1, r3, lsl #8
 346              		.loc 1 65 9 view .LVU83
 347 001e 4942     		rsbs	r1, r1, #0
 348 0020 09B2     		sxth	r1, r1
 349 0022 154B     		ldr	r3, .L13
 350 0024 1980     		strh	r1, [r3]	@ movhi
  66:Core/drogui/src/MPU9250.c ****     _my = -((Buf[1]<<8) | Buf[0]);
 351              		.loc 1 66 5 is_stmt 1 view .LVU84
 352              		.loc 1 66 17 is_stmt 0 view .LVU85
 353 0026 9DF80130 		ldrb	r3, [sp, #1]	@ zero_extendqisi2
 354              		.loc 1 66 30 view .LVU86
 355 002a 9DF80020 		ldrb	r2, [sp]	@ zero_extendqisi2
 356              		.loc 1 66 25 view .LVU87
 357 002e 42EA0322 		orr	r2, r2, r3, lsl #8
 358              		.loc 1 66 9 view .LVU88
 359 0032 5242     		rsbs	r2, r2, #0
 360 0034 12B2     		sxth	r2, r2
 361 0036 114B     		ldr	r3, .L13+4
 362 0038 1A80     		strh	r2, [r3]	@ movhi
  67:Core/drogui/src/MPU9250.c ****     _mz = -((Buf[5]<<8) | Buf[4]);
 363              		.loc 1 67 5 is_stmt 1 view .LVU89
 364              		.loc 1 67 17 is_stmt 0 view .LVU90
 365 003a 9DF80500 		ldrb	r0, [sp, #5]	@ zero_extendqisi2
 366              		.loc 1 67 30 view .LVU91
 367 003e 9DF80430 		ldrb	r3, [sp, #4]	@ zero_extendqisi2
 368              		.loc 1 67 25 view .LVU92
 369 0042 43EA0023 		orr	r3, r3, r0, lsl #8
 370              		.loc 1 67 9 view .LVU93
 371 0046 5B42     		rsbs	r3, r3, #0
 372 0048 1BB2     		sxth	r3, r3
 373 004a 0D48     		ldr	r0, .L13+8
 374 004c 0380     		strh	r3, [r0]	@ movhi
  68:Core/drogui/src/MPU9250.c ****     m -> raw_mx = _mx;
 375              		.loc 1 68 5 is_stmt 1 view .LVU94
 376              		.loc 1 68 17 is_stmt 0 view .LVU95
 377 004e 07EE901A 		vmov	s15, r1	@ int
 378 0052 F8EEE77A 		vcvt.f32.s32	s15, s15
 379 0056 C4ED1C7A 		vstr.32	s15, [r4, #112]
  69:Core/drogui/src/MPU9250.c ****     m -> raw_my = _my;
 380              		.loc 1 69 5 is_stmt 1 view .LVU96
 381              		.loc 1 69 17 is_stmt 0 view .LVU97
 382 005a 07EE902A 		vmov	s15, r2	@ int
 383 005e F8EEE77A 		vcvt.f32.s32	s15, s15
 384 0062 C4ED1D7A 		vstr.32	s15, [r4, #116]
  70:Core/drogui/src/MPU9250.c ****     m -> raw_mz = _mz; 
 385              		.loc 1 70 5 is_stmt 1 view .LVU98
 386              		.loc 1 70 17 is_stmt 0 view .LVU99
 387 0066 07EE903A 		vmov	s15, r3	@ int
 388 006a F8EEE77A 		vcvt.f32.s32	s15, s15
 389 006e C4ED1E7A 		vstr.32	s15, [r4, #120]
  71:Core/drogui/src/MPU9250.c **** }
 390              		.loc 1 71 1 view .LVU100
 391 0072 02B0     		add	sp, sp, #8
 392              	.LCFI9:
ARM GAS  C:\Users\julit\AppData\Local\Temp\ccqfzuNA.s 			page 9


 393              		.cfi_def_cfa_offset 8
 394              		@ sp needed
 395 0074 10BD     		pop	{r4, pc}
 396              	.LVL20:
 397              	.L14:
 398              		.loc 1 71 1 view .LVU101
 399 0076 00BF     		.align	2
 400              	.L13:
 401 0078 00000000 		.word	.LANCHOR6
 402 007c 00000000 		.word	.LANCHOR7
 403 0080 00000000 		.word	.LANCHOR8
 404              		.cfi_endproc
 405              	.LFE147:
 407              		.section	.text.readAcc,"ax",%progbits
 408              		.align	1
 409              		.global	readAcc
 410              		.syntax unified
 411              		.thumb
 412              		.thumb_func
 413              		.fpu fpv5-sp-d16
 415              	readAcc:
 416              	.LVL21:
 417              	.LFB148:
  72:Core/drogui/src/MPU9250.c **** 
  73:Core/drogui/src/MPU9250.c **** void readAcc(mpu9250* m){ // m/s^2
 418              		.loc 1 73 25 is_stmt 1 view -0
 419              		.cfi_startproc
 420              		@ args = 0, pretend = 0, frame = 8
 421              		@ frame_needed = 0, uses_anonymous_args = 0
 422              		.loc 1 73 25 is_stmt 0 view .LVU103
 423 0000 10B5     		push	{r4, lr}
 424              	.LCFI10:
 425              		.cfi_def_cfa_offset 8
 426              		.cfi_offset 4, -8
 427              		.cfi_offset 14, -4
 428 0002 82B0     		sub	sp, sp, #8
 429              	.LCFI11:
 430              		.cfi_def_cfa_offset 16
 431 0004 0446     		mov	r4, r0
  74:Core/drogui/src/MPU9250.c ****     uint8_t Buf[6];
 432              		.loc 1 74 5 is_stmt 1 view .LVU104
  75:Core/drogui/src/MPU9250.c ****     I2Cread(MPU9250_ADDRESS, 0x3B, 6, Buf);
 433              		.loc 1 75 5 view .LVU105
 434 0006 6B46     		mov	r3, sp
 435 0008 0622     		movs	r2, #6
 436 000a 3B21     		movs	r1, #59
 437 000c 6820     		movs	r0, #104
 438              	.LVL22:
 439              		.loc 1 75 5 is_stmt 0 view .LVU106
 440 000e FFF7FEFF 		bl	I2Cread
 441              	.LVL23:
  76:Core/drogui/src/MPU9250.c ****     _ax = -((Buf[0]<<8) | Buf[1]);
 442              		.loc 1 76 5 is_stmt 1 view .LVU107
 443              		.loc 1 76 17 is_stmt 0 view .LVU108
 444 0012 9DF80020 		ldrb	r2, [sp]	@ zero_extendqisi2
 445              		.loc 1 76 30 view .LVU109
 446 0016 9DF80130 		ldrb	r3, [sp, #1]	@ zero_extendqisi2
ARM GAS  C:\Users\julit\AppData\Local\Temp\ccqfzuNA.s 			page 10


 447              		.loc 1 76 25 view .LVU110
 448 001a 43EA0223 		orr	r3, r3, r2, lsl #8
 449              		.loc 1 76 9 view .LVU111
 450 001e 5B42     		rsbs	r3, r3, #0
 451 0020 1BB2     		sxth	r3, r3
 452 0022 1F4A     		ldr	r2, .L17
 453 0024 1380     		strh	r3, [r2]	@ movhi
  77:Core/drogui/src/MPU9250.c ****     _ay = -((Buf[2]<<8) | Buf[3]);
 454              		.loc 1 77 5 is_stmt 1 view .LVU112
 455              		.loc 1 77 17 is_stmt 0 view .LVU113
 456 0026 9DF80210 		ldrb	r1, [sp, #2]	@ zero_extendqisi2
 457              		.loc 1 77 30 view .LVU114
 458 002a 9DF80320 		ldrb	r2, [sp, #3]	@ zero_extendqisi2
 459              		.loc 1 77 25 view .LVU115
 460 002e 42EA0122 		orr	r2, r2, r1, lsl #8
 461              		.loc 1 77 9 view .LVU116
 462 0032 1C48     		ldr	r0, .L17+4
 463 0034 5242     		rsbs	r2, r2, #0
 464 0036 0280     		strh	r2, [r0]	@ movhi
  78:Core/drogui/src/MPU9250.c ****     _az =   (Buf[4]<<8) | Buf[5];
 465              		.loc 1 78 5 is_stmt 1 view .LVU117
 466              		.loc 1 78 17 is_stmt 0 view .LVU118
 467 0038 9DF80410 		ldrb	r1, [sp, #4]	@ zero_extendqisi2
 468              		.loc 1 78 30 view .LVU119
 469 003c 9DF80520 		ldrb	r2, [sp, #5]	@ zero_extendqisi2
 470              		.loc 1 78 25 view .LVU120
 471 0040 42EA0122 		orr	r2, r2, r1, lsl #8
 472              		.loc 1 78 9 view .LVU121
 473 0044 1849     		ldr	r1, .L17+8
 474 0046 0A80     		strh	r2, [r1]	@ movhi
  79:Core/drogui/src/MPU9250.c ****     m -> ax = (_ax + m->off_ax)/m->scl_acc;
 475              		.loc 1 79 5 is_stmt 1 view .LVU122
 476              		.loc 1 79 23 is_stmt 0 view .LVU123
 477 0048 94ED037A 		vldr.32	s14, [r4, #12]
 478              		.loc 1 79 20 view .LVU124
 479 004c 07EE903A 		vmov	s15, r3	@ int
 480 0050 F8EEE77A 		vcvt.f32.s32	s15, s15
 481 0054 77EE877A 		vadd.f32	s15, s15, s14
 482              		.loc 1 79 34 view .LVU125
 483 0058 94ED067A 		vldr.32	s14, [r4, #24]
 484              		.loc 1 79 32 view .LVU126
 485 005c C7EE876A 		vdiv.f32	s13, s15, s14
 486              		.loc 1 79 13 view .LVU127
 487 0060 C4ED006A 		vstr.32	s13, [r4]
  80:Core/drogui/src/MPU9250.c ****     m -> ay = (_ay + m->off_ay)/m->scl_acc;
 488              		.loc 1 80 5 is_stmt 1 view .LVU128
 489              		.loc 1 80 23 is_stmt 0 view .LVU129
 490 0064 D4ED046A 		vldr.32	s13, [r4, #16]
 491              		.loc 1 80 20 view .LVU130
 492 0068 B0F90030 		ldrsh	r3, [r0]
 493 006c 07EE903A 		vmov	s15, r3	@ int
 494 0070 F8EEE77A 		vcvt.f32.s32	s15, s15
 495 0074 77EEA67A 		vadd.f32	s15, s15, s13
 496              		.loc 1 80 32 view .LVU131
 497 0078 C7EE876A 		vdiv.f32	s13, s15, s14
 498              		.loc 1 80 13 view .LVU132
 499 007c C4ED016A 		vstr.32	s13, [r4, #4]
ARM GAS  C:\Users\julit\AppData\Local\Temp\ccqfzuNA.s 			page 11


  81:Core/drogui/src/MPU9250.c ****     m -> az = (_az + m->off_az)/m->scl_acc; 
 500              		.loc 1 81 5 is_stmt 1 view .LVU133
 501              		.loc 1 81 23 is_stmt 0 view .LVU134
 502 0080 D4ED056A 		vldr.32	s13, [r4, #20]
 503              		.loc 1 81 20 view .LVU135
 504 0084 B1F90030 		ldrsh	r3, [r1]
 505 0088 07EE903A 		vmov	s15, r3	@ int
 506 008c F8EEE77A 		vcvt.f32.s32	s15, s15
 507 0090 77EEA67A 		vadd.f32	s15, s15, s13
 508              		.loc 1 81 32 view .LVU136
 509 0094 C7EE876A 		vdiv.f32	s13, s15, s14
 510              		.loc 1 81 13 view .LVU137
 511 0098 C4ED026A 		vstr.32	s13, [r4, #8]
  82:Core/drogui/src/MPU9250.c **** }
 512              		.loc 1 82 1 view .LVU138
 513 009c 02B0     		add	sp, sp, #8
 514              	.LCFI12:
 515              		.cfi_def_cfa_offset 8
 516              		@ sp needed
 517 009e 10BD     		pop	{r4, pc}
 518              	.LVL24:
 519              	.L18:
 520              		.loc 1 82 1 view .LVU139
 521              		.align	2
 522              	.L17:
 523 00a0 00000000 		.word	.LANCHOR0
 524 00a4 00000000 		.word	.LANCHOR1
 525 00a8 00000000 		.word	.LANCHOR2
 526              		.cfi_endproc
 527              	.LFE148:
 529              		.section	.text.readGyro,"ax",%progbits
 530              		.align	1
 531              		.global	readGyro
 532              		.syntax unified
 533              		.thumb
 534              		.thumb_func
 535              		.fpu fpv5-sp-d16
 537              	readGyro:
 538              	.LVL25:
 539              	.LFB149:
  83:Core/drogui/src/MPU9250.c **** 
  84:Core/drogui/src/MPU9250.c **** 
  85:Core/drogui/src/MPU9250.c **** void readGyro(mpu9250* m){ // degrees/sec
 540              		.loc 1 85 26 is_stmt 1 view -0
 541              		.cfi_startproc
 542              		@ args = 0, pretend = 0, frame = 8
 543              		@ frame_needed = 0, uses_anonymous_args = 0
 544              		.loc 1 85 26 is_stmt 0 view .LVU141
 545 0000 10B5     		push	{r4, lr}
 546              	.LCFI13:
 547              		.cfi_def_cfa_offset 8
 548              		.cfi_offset 4, -8
 549              		.cfi_offset 14, -4
 550 0002 82B0     		sub	sp, sp, #8
 551              	.LCFI14:
 552              		.cfi_def_cfa_offset 16
 553 0004 0446     		mov	r4, r0
ARM GAS  C:\Users\julit\AppData\Local\Temp\ccqfzuNA.s 			page 12


  86:Core/drogui/src/MPU9250.c ****     
  87:Core/drogui/src/MPU9250.c ****     uint8_t Buf[6];
 554              		.loc 1 87 5 is_stmt 1 view .LVU142
  88:Core/drogui/src/MPU9250.c ****     I2Cread(MPU9250_ADDRESS, 0x43, 6, Buf);
 555              		.loc 1 88 5 view .LVU143
 556 0006 6B46     		mov	r3, sp
 557 0008 0622     		movs	r2, #6
 558 000a 4321     		movs	r1, #67
 559 000c 6820     		movs	r0, #104
 560              	.LVL26:
 561              		.loc 1 88 5 is_stmt 0 view .LVU144
 562 000e FFF7FEFF 		bl	I2Cread
 563              	.LVL27:
  89:Core/drogui/src/MPU9250.c ****     _gx = -((Buf[0] << 8) | Buf[1]);
 564              		.loc 1 89 5 is_stmt 1 view .LVU145
 565              		.loc 1 89 17 is_stmt 0 view .LVU146
 566 0012 9DF80030 		ldrb	r3, [sp]	@ zero_extendqisi2
 567              		.loc 1 89 32 view .LVU147
 568 0016 9DF80120 		ldrb	r2, [sp, #1]	@ zero_extendqisi2
 569              		.loc 1 89 27 view .LVU148
 570 001a 42EA0322 		orr	r2, r2, r3, lsl #8
 571              		.loc 1 89 9 view .LVU149
 572 001e 5242     		rsbs	r2, r2, #0
 573 0020 12B2     		sxth	r2, r2
 574 0022 1A4B     		ldr	r3, .L21
 575 0024 1A80     		strh	r2, [r3]	@ movhi
  90:Core/drogui/src/MPU9250.c ****     _gy = -((Buf[2] << 8) | Buf[3]);
 576              		.loc 1 90 5 is_stmt 1 view .LVU150
 577              		.loc 1 90 17 is_stmt 0 view .LVU151
 578 0026 9DF80210 		ldrb	r1, [sp, #2]	@ zero_extendqisi2
 579              		.loc 1 90 32 view .LVU152
 580 002a 9DF80330 		ldrb	r3, [sp, #3]	@ zero_extendqisi2
 581              		.loc 1 90 27 view .LVU153
 582 002e 43EA0123 		orr	r3, r3, r1, lsl #8
 583              		.loc 1 90 9 view .LVU154
 584 0032 5B42     		rsbs	r3, r3, #0
 585 0034 1BB2     		sxth	r3, r3
 586 0036 1649     		ldr	r1, .L21+4
 587 0038 0B80     		strh	r3, [r1]	@ movhi
  91:Core/drogui/src/MPU9250.c ****     _gz =   (Buf[4] << 8) | Buf[5];
 588              		.loc 1 91 5 is_stmt 1 view .LVU155
 589              		.loc 1 91 17 is_stmt 0 view .LVU156
 590 003a 9DF80400 		ldrb	r0, [sp, #4]	@ zero_extendqisi2
 591              		.loc 1 91 32 view .LVU157
 592 003e 9DF80510 		ldrb	r1, [sp, #5]	@ zero_extendqisi2
 593              		.loc 1 91 27 view .LVU158
 594 0042 41EA0021 		orr	r1, r1, r0, lsl #8
 595 0046 09B2     		sxth	r1, r1
 596              		.loc 1 91 9 view .LVU159
 597 0048 1248     		ldr	r0, .L21+8
 598 004a 0180     		strh	r1, [r0]	@ movhi
  92:Core/drogui/src/MPU9250.c ****     
  93:Core/drogui/src/MPU9250.c ****     m -> gx = _gx + m->off_gx;
 599              		.loc 1 93 5 is_stmt 1 view .LVU160
 600              		.loc 1 93 22 is_stmt 0 view .LVU161
 601 004c 94ED0A7A 		vldr.32	s14, [r4, #40]
 602              		.loc 1 93 19 view .LVU162
ARM GAS  C:\Users\julit\AppData\Local\Temp\ccqfzuNA.s 			page 13


 603 0050 07EE902A 		vmov	s15, r2	@ int
 604 0054 F8EEE77A 		vcvt.f32.s32	s15, s15
 605 0058 77EE877A 		vadd.f32	s15, s15, s14
 606              		.loc 1 93 13 view .LVU163
 607 005c C4ED077A 		vstr.32	s15, [r4, #28]
  94:Core/drogui/src/MPU9250.c ****     m -> gy = _gy + m->off_gy;
 608              		.loc 1 94 5 is_stmt 1 view .LVU164
 609              		.loc 1 94 22 is_stmt 0 view .LVU165
 610 0060 94ED0B7A 		vldr.32	s14, [r4, #44]
 611              		.loc 1 94 19 view .LVU166
 612 0064 07EE903A 		vmov	s15, r3	@ int
 613 0068 F8EEE77A 		vcvt.f32.s32	s15, s15
 614 006c 77EE877A 		vadd.f32	s15, s15, s14
 615              		.loc 1 94 13 view .LVU167
 616 0070 C4ED087A 		vstr.32	s15, [r4, #32]
  95:Core/drogui/src/MPU9250.c ****     m -> gz = _gz + m->off_gz; 
 617              		.loc 1 95 5 is_stmt 1 view .LVU168
 618              		.loc 1 95 22 is_stmt 0 view .LVU169
 619 0074 94ED0C7A 		vldr.32	s14, [r4, #48]
 620              		.loc 1 95 19 view .LVU170
 621 0078 07EE901A 		vmov	s15, r1	@ int
 622 007c F8EEE77A 		vcvt.f32.s32	s15, s15
 623 0080 77EE877A 		vadd.f32	s15, s15, s14
 624              		.loc 1 95 13 view .LVU171
 625 0084 C4ED097A 		vstr.32	s15, [r4, #36]
  96:Core/drogui/src/MPU9250.c **** }
 626              		.loc 1 96 1 view .LVU172
 627 0088 02B0     		add	sp, sp, #8
 628              	.LCFI15:
 629              		.cfi_def_cfa_offset 8
 630              		@ sp needed
 631 008a 10BD     		pop	{r4, pc}
 632              	.LVL28:
 633              	.L22:
 634              		.loc 1 96 1 view .LVU173
 635              		.align	2
 636              	.L21:
 637 008c 00000000 		.word	.LANCHOR3
 638 0090 00000000 		.word	.LANCHOR4
 639 0094 00000000 		.word	.LANCHOR5
 640              		.cfi_endproc
 641              	.LFE149:
 643              		.section	.text.readMag,"ax",%progbits
 644              		.align	1
 645              		.global	readMag
 646              		.syntax unified
 647              		.thumb
 648              		.thumb_func
 649              		.fpu fpv5-sp-d16
 651              	readMag:
 652              	.LVL29:
 653              	.LFB150:
  97:Core/drogui/src/MPU9250.c **** 
  98:Core/drogui/src/MPU9250.c **** void readMag(mpu9250* m){ // m/s^2
 654              		.loc 1 98 25 is_stmt 1 view -0
 655              		.cfi_startproc
 656              		@ args = 0, pretend = 0, frame = 8
ARM GAS  C:\Users\julit\AppData\Local\Temp\ccqfzuNA.s 			page 14


 657              		@ frame_needed = 0, uses_anonymous_args = 0
 658              		.loc 1 98 25 is_stmt 0 view .LVU175
 659 0000 10B5     		push	{r4, lr}
 660              	.LCFI16:
 661              		.cfi_def_cfa_offset 8
 662              		.cfi_offset 4, -8
 663              		.cfi_offset 14, -4
 664 0002 82B0     		sub	sp, sp, #8
 665              	.LCFI17:
 666              		.cfi_def_cfa_offset 16
 667 0004 0446     		mov	r4, r0
  99:Core/drogui/src/MPU9250.c ****     uint8_t Buf[7];
 668              		.loc 1 99 5 is_stmt 1 view .LVU176
 100:Core/drogui/src/MPU9250.c ****     I2Cread(MAG_ADDRESS, 0x03, 7, Buf);
 669              		.loc 1 100 5 view .LVU177
 670 0006 6B46     		mov	r3, sp
 671 0008 0722     		movs	r2, #7
 672 000a 0321     		movs	r1, #3
 673 000c 0C20     		movs	r0, #12
 674              	.LVL30:
 675              		.loc 1 100 5 is_stmt 0 view .LVU178
 676 000e FFF7FEFF 		bl	I2Cread
 677              	.LVL31:
 101:Core/drogui/src/MPU9250.c ****     
 102:Core/drogui/src/MPU9250.c ****     _mx = -((Buf[3]<<8) | Buf[2]);
 678              		.loc 1 102 5 is_stmt 1 view .LVU179
 679              		.loc 1 102 17 is_stmt 0 view .LVU180
 680 0012 9DF80330 		ldrb	r3, [sp, #3]	@ zero_extendqisi2
 681              		.loc 1 102 30 view .LVU181
 682 0016 9DF80210 		ldrb	r1, [sp, #2]	@ zero_extendqisi2
 683              		.loc 1 102 25 view .LVU182
 684 001a 41EA0321 		orr	r1, r1, r3, lsl #8
 685              		.loc 1 102 9 view .LVU183
 686 001e 4942     		rsbs	r1, r1, #0
 687 0020 09B2     		sxth	r1, r1
 688 0022 214B     		ldr	r3, .L25
 689 0024 1980     		strh	r1, [r3]	@ movhi
 103:Core/drogui/src/MPU9250.c ****     _my = -((Buf[1]<<8) | Buf[0]);
 690              		.loc 1 103 5 is_stmt 1 view .LVU184
 691              		.loc 1 103 17 is_stmt 0 view .LVU185
 692 0026 9DF80130 		ldrb	r3, [sp, #1]	@ zero_extendqisi2
 693              		.loc 1 103 30 view .LVU186
 694 002a 9DF80020 		ldrb	r2, [sp]	@ zero_extendqisi2
 695              		.loc 1 103 25 view .LVU187
 696 002e 42EA0322 		orr	r2, r2, r3, lsl #8
 697              		.loc 1 103 9 view .LVU188
 698 0032 5242     		rsbs	r2, r2, #0
 699 0034 12B2     		sxth	r2, r2
 700 0036 1D4B     		ldr	r3, .L25+4
 701 0038 1A80     		strh	r2, [r3]	@ movhi
 104:Core/drogui/src/MPU9250.c ****     _mz = -((Buf[5]<<8) | Buf[4]);
 702              		.loc 1 104 5 is_stmt 1 view .LVU189
 703              		.loc 1 104 17 is_stmt 0 view .LVU190
 704 003a 9DF80500 		ldrb	r0, [sp, #5]	@ zero_extendqisi2
 705              		.loc 1 104 30 view .LVU191
 706 003e 9DF80430 		ldrb	r3, [sp, #4]	@ zero_extendqisi2
 707              		.loc 1 104 25 view .LVU192
ARM GAS  C:\Users\julit\AppData\Local\Temp\ccqfzuNA.s 			page 15


 708 0042 43EA0023 		orr	r3, r3, r0, lsl #8
 709              		.loc 1 104 9 view .LVU193
 710 0046 5B42     		rsbs	r3, r3, #0
 711 0048 1BB2     		sxth	r3, r3
 712 004a 1948     		ldr	r0, .L25+8
 713 004c 0380     		strh	r3, [r0]	@ movhi
 105:Core/drogui/src/MPU9250.c ****     //-226.43	-112.81	131.13	119.36	127.29  129.95
 106:Core/drogui/src/MPU9250.c **** 
 107:Core/drogui/src/MPU9250.c **** 
 108:Core/drogui/src/MPU9250.c ****     m -> mx = (_mx - m->off_mx)/m->scl_magx;
 714              		.loc 1 108 5 is_stmt 1 view .LVU194
 715              		.loc 1 108 23 is_stmt 0 view .LVU195
 716 004e 94ED107A 		vldr.32	s14, [r4, #64]
 717              		.loc 1 108 20 view .LVU196
 718 0052 07EE901A 		vmov	s15, r1	@ int
 719 0056 F8EEE77A 		vcvt.f32.s32	s15, s15
 720 005a 77EEC77A 		vsub.f32	s15, s15, s14
 721              		.loc 1 108 34 view .LVU197
 722 005e D4ED136A 		vldr.32	s13, [r4, #76]
 723              		.loc 1 108 32 view .LVU198
 724 0062 87EEA67A 		vdiv.f32	s14, s15, s13
 725              		.loc 1 108 13 view .LVU199
 726 0066 84ED0D7A 		vstr.32	s14, [r4, #52]
 109:Core/drogui/src/MPU9250.c ****     m -> my = (_my - m->off_my)/m->scl_magy;
 727              		.loc 1 109 5 is_stmt 1 view .LVU200
 728              		.loc 1 109 23 is_stmt 0 view .LVU201
 729 006a 94ED117A 		vldr.32	s14, [r4, #68]
 730              		.loc 1 109 20 view .LVU202
 731 006e 07EE902A 		vmov	s15, r2	@ int
 732 0072 F8EEE77A 		vcvt.f32.s32	s15, s15
 733 0076 77EEC77A 		vsub.f32	s15, s15, s14
 734              		.loc 1 109 34 view .LVU203
 735 007a D4ED146A 		vldr.32	s13, [r4, #80]
 736              		.loc 1 109 32 view .LVU204
 737 007e 87EEA67A 		vdiv.f32	s14, s15, s13
 738              		.loc 1 109 13 view .LVU205
 739 0082 84ED0E7A 		vstr.32	s14, [r4, #56]
 110:Core/drogui/src/MPU9250.c ****     m -> mz = (_mz - m->off_mz)/m->scl_magz; 
 740              		.loc 1 110 5 is_stmt 1 view .LVU206
 741              		.loc 1 110 23 is_stmt 0 view .LVU207
 742 0086 94ED127A 		vldr.32	s14, [r4, #72]
 743              		.loc 1 110 20 view .LVU208
 744 008a 07EE903A 		vmov	s15, r3	@ int
 745 008e F8EEE77A 		vcvt.f32.s32	s15, s15
 746 0092 77EEC77A 		vsub.f32	s15, s15, s14
 747              		.loc 1 110 34 view .LVU209
 748 0096 D4ED156A 		vldr.32	s13, [r4, #84]
 749              		.loc 1 110 32 view .LVU210
 750 009a 87EEA67A 		vdiv.f32	s14, s15, s13
 751              		.loc 1 110 13 view .LVU211
 752 009e 84ED0F7A 		vstr.32	s14, [r4, #60]
 111:Core/drogui/src/MPU9250.c **** }
 753              		.loc 1 111 1 view .LVU212
 754 00a2 02B0     		add	sp, sp, #8
 755              	.LCFI18:
 756              		.cfi_def_cfa_offset 8
 757              		@ sp needed
ARM GAS  C:\Users\julit\AppData\Local\Temp\ccqfzuNA.s 			page 16


 758 00a4 10BD     		pop	{r4, pc}
 759              	.LVL32:
 760              	.L26:
 761              		.loc 1 111 1 view .LVU213
 762 00a6 00BF     		.align	2
 763              	.L25:
 764 00a8 00000000 		.word	.LANCHOR6
 765 00ac 00000000 		.word	.LANCHOR7
 766 00b0 00000000 		.word	.LANCHOR8
 767              		.cfi_endproc
 768              	.LFE150:
 770              		.global	__aeabi_f2d
 771              		.global	__aeabi_d2f
 772              		.section	.text.quiet,"ax",%progbits
 773              		.align	1
 774              		.global	quiet
 775              		.syntax unified
 776              		.thumb
 777              		.thumb_func
 778              		.fpu fpv5-sp-d16
 780              	quiet:
 781              	.LVL33:
 782              	.LFB151:
 112:Core/drogui/src/MPU9250.c **** 
 113:Core/drogui/src/MPU9250.c **** // 120 260 380
 114:Core/drogui/src/MPU9250.c **** 
 115:Core/drogui/src/MPU9250.c **** bool quiet(mpu9250* m, int n, float treshold, bool cal){
 783              		.loc 1 115 56 is_stmt 1 view -0
 784              		.cfi_startproc
 785              		@ args = 0, pretend = 0, frame = 24
 786              		@ frame_needed = 0, uses_anonymous_args = 0
 787              		.loc 1 115 56 is_stmt 0 view .LVU215
 788 0000 F0B5     		push	{r4, r5, r6, r7, lr}
 789              	.LCFI19:
 790              		.cfi_def_cfa_offset 20
 791              		.cfi_offset 4, -20
 792              		.cfi_offset 5, -16
 793              		.cfi_offset 6, -12
 794              		.cfi_offset 7, -8
 795              		.cfi_offset 14, -4
 796 0002 2DED088B 		vpush.64	{d8, d9, d10, d11}
 797              	.LCFI20:
 798              		.cfi_def_cfa_offset 52
 799              		.cfi_offset 80, -52
 800              		.cfi_offset 81, -48
 801              		.cfi_offset 82, -44
 802              		.cfi_offset 83, -40
 803              		.cfi_offset 84, -36
 804              		.cfi_offset 85, -32
 805              		.cfi_offset 86, -28
 806              		.cfi_offset 87, -24
 807 0006 87B0     		sub	sp, sp, #28
 808              	.LCFI21:
 809              		.cfi_def_cfa_offset 80
 810 0008 0446     		mov	r4, r0
 811 000a 0E46     		mov	r6, r1
 812 000c B0EE40BA 		vmov.f32	s22, s0
ARM GAS  C:\Users\julit\AppData\Local\Temp\ccqfzuNA.s 			page 17


 813 0010 1746     		mov	r7, r2
 116:Core/drogui/src/MPU9250.c ****     float max_gyro[3] = {0,0,0};
 814              		.loc 1 116 5 is_stmt 1 view .LVU216
 815              		.loc 1 116 11 is_stmt 0 view .LVU217
 816 0012 0023     		movs	r3, #0
 817 0014 0393     		str	r3, [sp, #12]	@ float
 818 0016 0493     		str	r3, [sp, #16]	@ float
 819 0018 0593     		str	r3, [sp, #20]	@ float
 117:Core/drogui/src/MPU9250.c ****     float min_gyro[3] = {0,0,0};
 820              		.loc 1 117 5 is_stmt 1 view .LVU218
 821              		.loc 1 117 11 is_stmt 0 view .LVU219
 822 001a 0093     		str	r3, [sp]	@ float
 823 001c 0193     		str	r3, [sp, #4]	@ float
 824 001e 0293     		str	r3, [sp, #8]	@ float
 118:Core/drogui/src/MPU9250.c ****     
 119:Core/drogui/src/MPU9250.c ****     for(int i = 0; i < n; i++){
 825              		.loc 1 119 5 is_stmt 1 view .LVU220
 826              	.LBB2:
 827              		.loc 1 119 9 view .LVU221
 828              	.LVL34:
 829              		.loc 1 119 13 is_stmt 0 view .LVU222
 830 0020 0025     		movs	r5, #0
 831              		.loc 1 119 5 view .LVU223
 832 0022 0CE0     		b	.L28
 833              	.LVL35:
 834              	.L48:
 120:Core/drogui/src/MPU9250.c ****         
 121:Core/drogui/src/MPU9250.c ****         readRawGyro(m);   /*
 122:Core/drogui/src/MPU9250.c ****         Serial.print(m->gx);
 123:Core/drogui/src/MPU9250.c ****         Serial.print("\t");
 124:Core/drogui/src/MPU9250.c ****         Serial.print(m->gy);
 125:Core/drogui/src/MPU9250.c ****         Serial.print("\t");
 126:Core/drogui/src/MPU9250.c ****         Serial.print(m->gz);
 127:Core/drogui/src/MPU9250.c ****         Serial.print("\n");*/
 128:Core/drogui/src/MPU9250.c **** 
 129:Core/drogui/src/MPU9250.c ****         if(i == 0){
 130:Core/drogui/src/MPU9250.c ****             max_gyro[0] = m->raw_gx, max_gyro[1] = m->raw_gy, max_gyro[2] = m->raw_gz;
 835              		.loc 1 130 13 is_stmt 1 view .LVU224
 836              		.loc 1 130 28 is_stmt 0 view .LVU225
 837 0024 616E     		ldr	r1, [r4, #100]	@ float
 838              		.loc 1 130 25 view .LVU226
 839 0026 0391     		str	r1, [sp, #12]	@ float
 840              		.loc 1 130 53 view .LVU227
 841 0028 A26E     		ldr	r2, [r4, #104]	@ float
 842              		.loc 1 130 50 view .LVU228
 843 002a 0492     		str	r2, [sp, #16]	@ float
 844              		.loc 1 130 78 view .LVU229
 845 002c E36E     		ldr	r3, [r4, #108]	@ float
 846              		.loc 1 130 75 view .LVU230
 847 002e 0593     		str	r3, [sp, #20]	@ float
 131:Core/drogui/src/MPU9250.c ****             min_gyro[0] = m->raw_gx, min_gyro[1] = m->raw_gy, min_gyro[2] = m->raw_gz;
 848              		.loc 1 131 13 is_stmt 1 view .LVU231
 849              		.loc 1 131 25 is_stmt 0 view .LVU232
 850 0030 0091     		str	r1, [sp]	@ float
 851              		.loc 1 131 50 view .LVU233
 852 0032 0192     		str	r2, [sp, #4]	@ float
 853              		.loc 1 131 75 view .LVU234
ARM GAS  C:\Users\julit\AppData\Local\Temp\ccqfzuNA.s 			page 18


 854 0034 0293     		str	r3, [sp, #8]	@ float
 855              	.L30:
 132:Core/drogui/src/MPU9250.c ****         }
 133:Core/drogui/src/MPU9250.c ****         else{
 134:Core/drogui/src/MPU9250.c ****                 max_gyro[0] = fmax(max_gyro[0], m->raw_gx);
 135:Core/drogui/src/MPU9250.c ****                 max_gyro[1] = fmax(max_gyro[1], m->raw_gy);
 136:Core/drogui/src/MPU9250.c ****                 max_gyro[2] = fmax(max_gyro[2], m->raw_gz);
 137:Core/drogui/src/MPU9250.c ****                 
 138:Core/drogui/src/MPU9250.c ****                 min_gyro[0] = fmin(min_gyro[0], m->raw_gx);
 139:Core/drogui/src/MPU9250.c ****                 min_gyro[1] = fmin(min_gyro[1], m->raw_gy);
 140:Core/drogui/src/MPU9250.c ****                 min_gyro[2] = fmin(min_gyro[2], m->raw_gz);
 141:Core/drogui/src/MPU9250.c ****         }
 142:Core/drogui/src/MPU9250.c ****         HAL_Delay(2);
 856              		.loc 1 142 9 is_stmt 1 discriminator 2 view .LVU235
 857 0036 0220     		movs	r0, #2
 858 0038 FFF7FEFF 		bl	HAL_Delay
 859              	.LVL36:
 119:Core/drogui/src/MPU9250.c ****         
 860              		.loc 1 119 27 discriminator 2 view .LVU236
 119:Core/drogui/src/MPU9250.c ****         
 861              		.loc 1 119 28 is_stmt 0 discriminator 2 view .LVU237
 862 003c 0135     		adds	r5, r5, #1
 863              	.LVL37:
 864              	.L28:
 119:Core/drogui/src/MPU9250.c ****         
 865              		.loc 1 119 20 is_stmt 1 discriminator 1 view .LVU238
 119:Core/drogui/src/MPU9250.c ****         
 866              		.loc 1 119 5 is_stmt 0 discriminator 1 view .LVU239
 867 003e B542     		cmp	r5, r6
 868 0040 74DA     		bge	.L47
 121:Core/drogui/src/MPU9250.c ****         Serial.print(m->gx);
 869              		.loc 1 121 9 is_stmt 1 view .LVU240
 870 0042 2046     		mov	r0, r4
 871 0044 FFF7FEFF 		bl	readRawGyro
 872              	.LVL38:
 129:Core/drogui/src/MPU9250.c ****             max_gyro[0] = m->raw_gx, max_gyro[1] = m->raw_gy, max_gyro[2] = m->raw_gz;
 873              		.loc 1 129 9 view .LVU241
 129:Core/drogui/src/MPU9250.c ****             max_gyro[0] = m->raw_gx, max_gyro[1] = m->raw_gy, max_gyro[2] = m->raw_gz;
 874              		.loc 1 129 11 is_stmt 0 view .LVU242
 875 0048 002D     		cmp	r5, #0
 876 004a EBD0     		beq	.L48
 134:Core/drogui/src/MPU9250.c ****                 max_gyro[1] = fmax(max_gyro[1], m->raw_gy);
 877              		.loc 1 134 17 is_stmt 1 view .LVU243
 134:Core/drogui/src/MPU9250.c ****                 max_gyro[1] = fmax(max_gyro[1], m->raw_gy);
 878              		.loc 1 134 31 is_stmt 0 view .LVU244
 879 004c 606E     		ldr	r0, [r4, #100]	@ float
 880 004e FFF7FEFF 		bl	__aeabi_f2d
 881              	.LVL39:
 882 0052 41EC1A0B 		vmov	d10, r0, r1
 883 0056 0398     		ldr	r0, [sp, #12]	@ float
 884 0058 FFF7FEFF 		bl	__aeabi_f2d
 885              	.LVL40:
 886 005c B0EE4A1A 		vmov.f32	s2, s20
 887 0060 F0EE6A1A 		vmov.f32	s3, s21
 888 0064 41EC100B 		vmov	d0, r0, r1
 889 0068 FFF7FEFF 		bl	fmax
 890              	.LVL41:
ARM GAS  C:\Users\julit\AppData\Local\Temp\ccqfzuNA.s 			page 19


 891 006c 51EC100B 		vmov	r0, r1, d0
 892 0070 FFF7FEFF 		bl	__aeabi_d2f
 893              	.LVL42:
 134:Core/drogui/src/MPU9250.c ****                 max_gyro[1] = fmax(max_gyro[1], m->raw_gy);
 894              		.loc 1 134 29 view .LVU245
 895 0074 0390     		str	r0, [sp, #12]	@ float
 135:Core/drogui/src/MPU9250.c ****                 max_gyro[2] = fmax(max_gyro[2], m->raw_gz);
 896              		.loc 1 135 17 is_stmt 1 view .LVU246
 135:Core/drogui/src/MPU9250.c ****                 max_gyro[2] = fmax(max_gyro[2], m->raw_gz);
 897              		.loc 1 135 31 is_stmt 0 view .LVU247
 898 0076 A06E     		ldr	r0, [r4, #104]	@ float
 899 0078 FFF7FEFF 		bl	__aeabi_f2d
 900              	.LVL43:
 901 007c 41EC190B 		vmov	d9, r0, r1
 902 0080 0498     		ldr	r0, [sp, #16]	@ float
 903 0082 FFF7FEFF 		bl	__aeabi_f2d
 904              	.LVL44:
 905 0086 B0EE491A 		vmov.f32	s2, s18
 906 008a F0EE691A 		vmov.f32	s3, s19
 907 008e 41EC100B 		vmov	d0, r0, r1
 908 0092 FFF7FEFF 		bl	fmax
 909              	.LVL45:
 910 0096 51EC100B 		vmov	r0, r1, d0
 911 009a FFF7FEFF 		bl	__aeabi_d2f
 912              	.LVL46:
 135:Core/drogui/src/MPU9250.c ****                 max_gyro[2] = fmax(max_gyro[2], m->raw_gz);
 913              		.loc 1 135 29 view .LVU248
 914 009e 0490     		str	r0, [sp, #16]	@ float
 136:Core/drogui/src/MPU9250.c ****                 
 915              		.loc 1 136 17 is_stmt 1 view .LVU249
 136:Core/drogui/src/MPU9250.c ****                 
 916              		.loc 1 136 31 is_stmt 0 view .LVU250
 917 00a0 E06E     		ldr	r0, [r4, #108]	@ float
 918 00a2 FFF7FEFF 		bl	__aeabi_f2d
 919              	.LVL47:
 920 00a6 41EC180B 		vmov	d8, r0, r1
 921 00aa 0598     		ldr	r0, [sp, #20]	@ float
 922 00ac FFF7FEFF 		bl	__aeabi_f2d
 923              	.LVL48:
 924 00b0 B0EE481A 		vmov.f32	s2, s16
 925 00b4 F0EE681A 		vmov.f32	s3, s17
 926 00b8 41EC100B 		vmov	d0, r0, r1
 927 00bc FFF7FEFF 		bl	fmax
 928              	.LVL49:
 929 00c0 51EC100B 		vmov	r0, r1, d0
 930 00c4 FFF7FEFF 		bl	__aeabi_d2f
 931              	.LVL50:
 136:Core/drogui/src/MPU9250.c ****                 
 932              		.loc 1 136 29 view .LVU251
 933 00c8 0590     		str	r0, [sp, #20]	@ float
 138:Core/drogui/src/MPU9250.c ****                 min_gyro[1] = fmin(min_gyro[1], m->raw_gy);
 934              		.loc 1 138 17 is_stmt 1 view .LVU252
 138:Core/drogui/src/MPU9250.c ****                 min_gyro[1] = fmin(min_gyro[1], m->raw_gy);
 935              		.loc 1 138 31 is_stmt 0 view .LVU253
 936 00ca 0098     		ldr	r0, [sp]	@ float
 937 00cc FFF7FEFF 		bl	__aeabi_f2d
 938              	.LVL51:
ARM GAS  C:\Users\julit\AppData\Local\Temp\ccqfzuNA.s 			page 20


 939 00d0 B0EE4A1A 		vmov.f32	s2, s20
 940 00d4 F0EE6A1A 		vmov.f32	s3, s21
 941 00d8 41EC100B 		vmov	d0, r0, r1
 942 00dc FFF7FEFF 		bl	fmin
 943              	.LVL52:
 944 00e0 51EC100B 		vmov	r0, r1, d0
 945 00e4 FFF7FEFF 		bl	__aeabi_d2f
 946              	.LVL53:
 138:Core/drogui/src/MPU9250.c ****                 min_gyro[1] = fmin(min_gyro[1], m->raw_gy);
 947              		.loc 1 138 29 view .LVU254
 948 00e8 0090     		str	r0, [sp]	@ float
 139:Core/drogui/src/MPU9250.c ****                 min_gyro[2] = fmin(min_gyro[2], m->raw_gz);
 949              		.loc 1 139 17 is_stmt 1 view .LVU255
 139:Core/drogui/src/MPU9250.c ****                 min_gyro[2] = fmin(min_gyro[2], m->raw_gz);
 950              		.loc 1 139 31 is_stmt 0 view .LVU256
 951 00ea 0198     		ldr	r0, [sp, #4]	@ float
 952 00ec FFF7FEFF 		bl	__aeabi_f2d
 953              	.LVL54:
 954 00f0 B0EE491A 		vmov.f32	s2, s18
 955 00f4 F0EE691A 		vmov.f32	s3, s19
 956 00f8 41EC100B 		vmov	d0, r0, r1
 957 00fc FFF7FEFF 		bl	fmin
 958              	.LVL55:
 959 0100 51EC100B 		vmov	r0, r1, d0
 960 0104 FFF7FEFF 		bl	__aeabi_d2f
 961              	.LVL56:
 139:Core/drogui/src/MPU9250.c ****                 min_gyro[2] = fmin(min_gyro[2], m->raw_gz);
 962              		.loc 1 139 29 view .LVU257
 963 0108 0190     		str	r0, [sp, #4]	@ float
 140:Core/drogui/src/MPU9250.c ****         }
 964              		.loc 1 140 17 is_stmt 1 view .LVU258
 140:Core/drogui/src/MPU9250.c ****         }
 965              		.loc 1 140 31 is_stmt 0 view .LVU259
 966 010a 0298     		ldr	r0, [sp, #8]	@ float
 967 010c FFF7FEFF 		bl	__aeabi_f2d
 968              	.LVL57:
 969 0110 B0EE481A 		vmov.f32	s2, s16
 970 0114 F0EE681A 		vmov.f32	s3, s17
 971 0118 41EC100B 		vmov	d0, r0, r1
 972 011c FFF7FEFF 		bl	fmin
 973              	.LVL58:
 974 0120 51EC100B 		vmov	r0, r1, d0
 975 0124 FFF7FEFF 		bl	__aeabi_d2f
 976              	.LVL59:
 140:Core/drogui/src/MPU9250.c ****         }
 977              		.loc 1 140 29 view .LVU260
 978 0128 0290     		str	r0, [sp, #8]	@ float
 979 012a 84E7     		b	.L30
 980              	.L47:
 140:Core/drogui/src/MPU9250.c ****         }
 981              		.loc 1 140 29 view .LVU261
 982              	.LBE2:
 143:Core/drogui/src/MPU9250.c ****     }
 144:Core/drogui/src/MPU9250.c ****     /*
 145:Core/drogui/src/MPU9250.c ****     for(int i = 0 ; i < 3; i++){
 146:Core/drogui/src/MPU9250.c ****         Serial.print(max_gyro[i] -min_gyro[i]);
 147:Core/drogui/src/MPU9250.c ****         Serial.print("\t");
ARM GAS  C:\Users\julit\AppData\Local\Temp\ccqfzuNA.s 			page 21


 148:Core/drogui/src/MPU9250.c ****     }
 149:Core/drogui/src/MPU9250.c ****     Serial.println();*/
 150:Core/drogui/src/MPU9250.c ****     
 151:Core/drogui/src/MPU9250.c ****    //120 260 380
 152:Core/drogui/src/MPU9250.c ****     if((max_gyro[0]-min_gyro[0] < (treshold+220)) && (max_gyro[1]-min_gyro[1] < (treshold+400)) && 
 983              		.loc 1 152 5 is_stmt 1 view .LVU262
 984              		.loc 1 152 17 is_stmt 0 view .LVU263
 985 012c 9DED037A 		vldr.32	s14, [sp, #12]
 986              		.loc 1 152 29 view .LVU264
 987 0130 DDED006A 		vldr.32	s13, [sp]
 988              		.loc 1 152 20 view .LVU265
 989 0134 37EE666A 		vsub.f32	s12, s14, s13
 990              		.loc 1 152 44 view .LVU266
 991 0138 DFED237A 		vldr.32	s15, .L50
 992 013c 7BEE277A 		vadd.f32	s15, s22, s15
 993              		.loc 1 152 7 view .LVU267
 994 0140 B4EEE76A 		vcmpe.f32	s12, s15
 995 0144 F1EE10FA 		vmrs	APSR_nzcv, FPSCR
 996 0148 36D5     		bpl	.L43
 997              		.loc 1 152 63 discriminator 1 view .LVU268
 998 014a 9DED046A 		vldr.32	s12, [sp, #16]
 999              		.loc 1 152 75 discriminator 1 view .LVU269
 1000 014e DDED015A 		vldr.32	s11, [sp, #4]
 1001              		.loc 1 152 66 discriminator 1 view .LVU270
 1002 0152 36EE655A 		vsub.f32	s10, s12, s11
 1003              		.loc 1 152 90 discriminator 1 view .LVU271
 1004 0156 DFED1D7A 		vldr.32	s15, .L50+4
 1005 015a 7BEE277A 		vadd.f32	s15, s22, s15
 1006              		.loc 1 152 51 discriminator 1 view .LVU272
 1007 015e B4EEE75A 		vcmpe.f32	s10, s15
 1008 0162 F1EE10FA 		vmrs	APSR_nzcv, FPSCR
 1009 0166 2CD5     		bpl	.L44
 1010              		.loc 1 152 109 discriminator 2 view .LVU273
 1011 0168 9DED055A 		vldr.32	s10, [sp, #20]
 1012              		.loc 1 152 121 discriminator 2 view .LVU274
 1013 016c DDED024A 		vldr.32	s9, [sp, #8]
 1014              		.loc 1 152 112 discriminator 2 view .LVU275
 1015 0170 75EE647A 		vsub.f32	s15, s10, s9
 1016              		.loc 1 152 136 discriminator 2 view .LVU276
 1017 0174 9FED164A 		vldr.32	s8, .L50+8
 1018 0178 3BEE04BA 		vadd.f32	s22, s22, s8
 1019              	.LVL60:
 1020              		.loc 1 152 97 discriminator 2 view .LVU277
 1021 017c F4EECB7A 		vcmpe.f32	s15, s22
 1022 0180 F1EE10FA 		vmrs	APSR_nzcv, FPSCR
 1023 0184 01D4     		bmi	.L49
 153:Core/drogui/src/MPU9250.c ****         if(cal){
 154:Core/drogui/src/MPU9250.c ****             //Serial.print("Ra");
 155:Core/drogui/src/MPU9250.c ****             m->off_gx = -(max_gyro[0] + min_gyro[0])/2;
 156:Core/drogui/src/MPU9250.c ****             m->off_gy = -(max_gyro[1] + min_gyro[1])/2;
 157:Core/drogui/src/MPU9250.c ****             m->off_gz = -(max_gyro[2] + min_gyro[2])/2;
 158:Core/drogui/src/MPU9250.c ****         }
 159:Core/drogui/src/MPU9250.c ****         return true;
 160:Core/drogui/src/MPU9250.c ****     }
 161:Core/drogui/src/MPU9250.c ****     return false;
 1024              		.loc 1 161 12 view .LVU278
 1025 0186 0020     		movs	r0, #0
ARM GAS  C:\Users\julit\AppData\Local\Temp\ccqfzuNA.s 			page 22


 1026 0188 17E0     		b	.L32
 1027              	.L49:
 153:Core/drogui/src/MPU9250.c ****         if(cal){
 1028              		.loc 1 153 9 is_stmt 1 view .LVU279
 153:Core/drogui/src/MPU9250.c ****         if(cal){
 1029              		.loc 1 153 11 is_stmt 0 view .LVU280
 1030 018a 9FB1     		cbz	r7, .L36
 155:Core/drogui/src/MPU9250.c ****             m->off_gy = -(max_gyro[1] + min_gyro[1])/2;
 1031              		.loc 1 155 13 is_stmt 1 view .LVU281
 155:Core/drogui/src/MPU9250.c ****             m->off_gy = -(max_gyro[1] + min_gyro[1])/2;
 1032              		.loc 1 155 39 is_stmt 0 view .LVU282
 1033 018c 77EE267A 		vadd.f32	s15, s14, s13
 155:Core/drogui/src/MPU9250.c ****             m->off_gy = -(max_gyro[1] + min_gyro[1])/2;
 1034              		.loc 1 155 53 view .LVU283
 1035 0190 B6EE007A 		vmov.f32	s14, #5.0e-1
 1036 0194 67EEC77A 		vnmul.f32	s15, s15, s14
 155:Core/drogui/src/MPU9250.c ****             m->off_gy = -(max_gyro[1] + min_gyro[1])/2;
 1037              		.loc 1 155 23 view .LVU284
 1038 0198 C4ED0A7A 		vstr.32	s15, [r4, #40]
 156:Core/drogui/src/MPU9250.c ****             m->off_gz = -(max_gyro[2] + min_gyro[2])/2;
 1039              		.loc 1 156 13 is_stmt 1 view .LVU285
 156:Core/drogui/src/MPU9250.c ****             m->off_gz = -(max_gyro[2] + min_gyro[2])/2;
 1040              		.loc 1 156 39 is_stmt 0 view .LVU286
 1041 019c 76EE257A 		vadd.f32	s15, s12, s11
 156:Core/drogui/src/MPU9250.c ****             m->off_gz = -(max_gyro[2] + min_gyro[2])/2;
 1042              		.loc 1 156 53 view .LVU287
 1043 01a0 67EEC77A 		vnmul.f32	s15, s15, s14
 156:Core/drogui/src/MPU9250.c ****             m->off_gz = -(max_gyro[2] + min_gyro[2])/2;
 1044              		.loc 1 156 23 view .LVU288
 1045 01a4 C4ED0B7A 		vstr.32	s15, [r4, #44]
 157:Core/drogui/src/MPU9250.c ****         }
 1046              		.loc 1 157 13 is_stmt 1 view .LVU289
 157:Core/drogui/src/MPU9250.c ****         }
 1047              		.loc 1 157 39 is_stmt 0 view .LVU290
 1048 01a8 75EE247A 		vadd.f32	s15, s10, s9
 157:Core/drogui/src/MPU9250.c ****         }
 1049              		.loc 1 157 53 view .LVU291
 1050 01ac 67EEC77A 		vnmul.f32	s15, s15, s14
 157:Core/drogui/src/MPU9250.c ****         }
 1051              		.loc 1 157 23 view .LVU292
 1052 01b0 C4ED0C7A 		vstr.32	s15, [r4, #48]
 1053              	.L36:
 159:Core/drogui/src/MPU9250.c ****     }
 1054              		.loc 1 159 9 is_stmt 1 view .LVU293
 159:Core/drogui/src/MPU9250.c ****     }
 1055              		.loc 1 159 16 is_stmt 0 view .LVU294
 1056 01b4 0120     		movs	r0, #1
 1057 01b6 00E0     		b	.L32
 1058              	.LVL61:
 1059              	.L43:
 1060              		.loc 1 161 12 view .LVU295
 1061 01b8 0020     		movs	r0, #0
 1062              	.LVL62:
 1063              	.L32:
 162:Core/drogui/src/MPU9250.c **** }
 1064              		.loc 1 162 1 view .LVU296
 1065 01ba 07B0     		add	sp, sp, #28
ARM GAS  C:\Users\julit\AppData\Local\Temp\ccqfzuNA.s 			page 23


 1066              	.LCFI22:
 1067              		.cfi_remember_state
 1068              		.cfi_def_cfa_offset 52
 1069              		@ sp needed
 1070 01bc BDEC088B 		vldm	sp!, {d8-d11}
 1071              	.LCFI23:
 1072              		.cfi_restore 86
 1073              		.cfi_restore 87
 1074              		.cfi_restore 84
 1075              		.cfi_restore 85
 1076              		.cfi_restore 82
 1077              		.cfi_restore 83
 1078              		.cfi_restore 80
 1079              		.cfi_restore 81
 1080              		.cfi_def_cfa_offset 20
 1081 01c0 F0BD     		pop	{r4, r5, r6, r7, pc}
 1082              	.LVL63:
 1083              	.L44:
 1084              	.LCFI24:
 1085              		.cfi_restore_state
 161:Core/drogui/src/MPU9250.c **** }
 1086              		.loc 1 161 12 view .LVU297
 1087 01c2 0020     		movs	r0, #0
 1088 01c4 F9E7     		b	.L32
 1089              	.L51:
 1090 01c6 00BF     		.align	2
 1091              	.L50:
 1092 01c8 00005C43 		.word	1130102784
 1093 01cc 0000C843 		.word	1137180672
 1094 01d0 0000BE43 		.word	1136525312
 1095              		.cfi_endproc
 1096              	.LFE151:
 1098              		.section	.text.calibrateGyro,"ax",%progbits
 1099              		.align	1
 1100              		.global	calibrateGyro
 1101              		.syntax unified
 1102              		.thumb
 1103              		.thumb_func
 1104              		.fpu fpv5-sp-d16
 1106              	calibrateGyro:
 1107              	.LVL64:
 1108              	.LFB152:
 163:Core/drogui/src/MPU9250.c **** void calibrateGyro(mpu9250* m){
 1109              		.loc 1 163 31 is_stmt 1 view -0
 1110              		.cfi_startproc
 1111              		@ args = 0, pretend = 0, frame = 0
 1112              		@ frame_needed = 0, uses_anonymous_args = 0
 1113              		.loc 1 163 31 is_stmt 0 view .LVU299
 1114 0000 10B5     		push	{r4, lr}
 1115              	.LCFI25:
 1116              		.cfi_def_cfa_offset 8
 1117              		.cfi_offset 4, -8
 1118              		.cfi_offset 14, -4
 1119 0002 0446     		mov	r4, r0
 164:Core/drogui/src/MPU9250.c ****     
 165:Core/drogui/src/MPU9250.c ****     setReg(CAL_GYR,0);
 1120              		.loc 1 165 5 is_stmt 1 view .LVU300
ARM GAS  C:\Users\julit\AppData\Local\Temp\ccqfzuNA.s 			page 24


 1121 0004 9FED0B0A 		vldr.32	s0, .L55
 1122 0008 0420     		movs	r0, #4
 1123              	.LVL65:
 1124              		.loc 1 165 5 is_stmt 0 view .LVU301
 1125 000a FFF7FEFF 		bl	setReg
 1126              	.LVL66:
 166:Core/drogui/src/MPU9250.c ****     while(!quiet(m,200,0, true));
 1127              		.loc 1 166 5 is_stmt 1 view .LVU302
 1128              	.L53:
 1129              		.loc 1 166 33 discriminator 1 view .LVU303
 1130              		.loc 1 166 10 discriminator 1 view .LVU304
 1131              		.loc 1 166 12 is_stmt 0 discriminator 1 view .LVU305
 1132 000e 0122     		movs	r2, #1
 1133 0010 9FED080A 		vldr.32	s0, .L55
 1134 0014 C821     		movs	r1, #200
 1135 0016 2046     		mov	r0, r4
 1136 0018 FFF7FEFF 		bl	quiet
 1137              	.LVL67:
 1138              		.loc 1 166 10 discriminator 1 view .LVU306
 1139 001c 0028     		cmp	r0, #0
 1140 001e F6D0     		beq	.L53
 167:Core/drogui/src/MPU9250.c ****     setReg(CAL_GYR, 100);
 1141              		.loc 1 167 5 is_stmt 1 view .LVU307
 1142 0020 9FED050A 		vldr.32	s0, .L55+4
 1143 0024 0420     		movs	r0, #4
 1144 0026 FFF7FEFF 		bl	setReg
 1145              	.LVL68:
 168:Core/drogui/src/MPU9250.c ****     HAL_GPIO_TogglePin(LED_GPIO_Port, LED_Pin);
 1146              		.loc 1 168 5 view .LVU308
 1147 002a 0221     		movs	r1, #2
 1148 002c 0348     		ldr	r0, .L55+8
 1149 002e FFF7FEFF 		bl	HAL_GPIO_TogglePin
 1150              	.LVL69:
 169:Core/drogui/src/MPU9250.c **** }
 1151              		.loc 1 169 1 is_stmt 0 view .LVU309
 1152 0032 10BD     		pop	{r4, pc}
 1153              	.LVL70:
 1154              	.L56:
 1155              		.loc 1 169 1 view .LVU310
 1156              		.align	2
 1157              	.L55:
 1158 0034 00000000 		.word	0
 1159 0038 0000C842 		.word	1120403456
 1160 003c 00100240 		.word	1073876992
 1161              		.cfi_endproc
 1162              	.LFE152:
 1164              		.section	.text.dis3d,"ax",%progbits
 1165              		.align	1
 1166              		.global	dis3d
 1167              		.syntax unified
 1168              		.thumb
 1169              		.thumb_func
 1170              		.fpu fpv5-sp-d16
 1172              	dis3d:
 1173              	.LVL71:
 1174              	.LFB153:
 170:Core/drogui/src/MPU9250.c **** 
ARM GAS  C:\Users\julit\AppData\Local\Temp\ccqfzuNA.s 			page 25


 171:Core/drogui/src/MPU9250.c **** float dis3d(float x,float y,float z, float a, float b, float c){
 1175              		.loc 1 171 64 is_stmt 1 view -0
 1176              		.cfi_startproc
 1177              		@ args = 0, pretend = 0, frame = 0
 1178              		@ frame_needed = 0, uses_anonymous_args = 0
 1179              		.loc 1 171 64 is_stmt 0 view .LVU312
 1180 0000 08B5     		push	{r3, lr}
 1181              	.LCFI26:
 1182              		.cfi_def_cfa_offset 8
 1183              		.cfi_offset 3, -8
 1184              		.cfi_offset 14, -4
 172:Core/drogui/src/MPU9250.c ****     return sqrt((x - a)*(x - a) + (y - b)*(y - b) + (z - c)*(z - c));
 1185              		.loc 1 172 5 is_stmt 1 view .LVU313
 1186              		.loc 1 172 20 is_stmt 0 view .LVU314
 1187 0002 70EE611A 		vsub.f32	s3, s0, s3
 1188              	.LVL72:
 1189              		.loc 1 172 24 view .LVU315
 1190 0006 61EEA11A 		vmul.f32	s3, s3, s3
 1191              		.loc 1 172 38 view .LVU316
 1192 000a 30EEC22A 		vsub.f32	s4, s1, s4
 1193              	.LVL73:
 1194              		.loc 1 172 42 view .LVU317
 1195 000e 22EE022A 		vmul.f32	s4, s4, s4
 1196              		.loc 1 172 33 view .LVU318
 1197 0012 71EE821A 		vadd.f32	s3, s3, s4
 1198              		.loc 1 172 56 view .LVU319
 1199 0016 71EE622A 		vsub.f32	s5, s2, s5
 1200              	.LVL74:
 1201              		.loc 1 172 60 view .LVU320
 1202 001a 62EEA22A 		vmul.f32	s5, s5, s5
 1203              		.loc 1 172 12 view .LVU321
 1204 001e 71EEA27A 		vadd.f32	s15, s3, s5
 1205 0022 17EE900A 		vmov	r0, s15
 1206 0026 FFF7FEFF 		bl	__aeabi_f2d
 1207              	.LVL75:
 1208              		.loc 1 172 12 view .LVU322
 1209 002a 41EC100B 		vmov	d0, r0, r1
 1210 002e FFF7FEFF 		bl	sqrt
 1211              	.LVL76:
 1212 0032 51EC100B 		vmov	r0, r1, d0
 1213 0036 FFF7FEFF 		bl	__aeabi_d2f
 1214              	.LVL77:
 173:Core/drogui/src/MPU9250.c **** }
 1215              		.loc 1 173 1 view .LVU323
 1216 003a 00EE100A 		vmov	s0, r0
 1217 003e 08BD     		pop	{r3, pc}
 1218              		.cfi_endproc
 1219              	.LFE153:
 1221              		.global	__aeabi_i2d
 1222              		.global	__aeabi_dmul
 1223              		.global	__aeabi_ddiv
 1224              		.global	__aeabi_dsub
 1225              		.global	__aeabi_dcmpgt
 1226              		.section	.text.calibrateAccel,"ax",%progbits
 1227              		.align	1
 1228              		.global	calibrateAccel
 1229              		.syntax unified
ARM GAS  C:\Users\julit\AppData\Local\Temp\ccqfzuNA.s 			page 26


 1230              		.thumb
 1231              		.thumb_func
 1232              		.fpu fpv5-sp-d16
 1234              	calibrateAccel:
 1235              	.LVL78:
 1236              	.LFB154:
 174:Core/drogui/src/MPU9250.c **** void calibrateAccel(mpu9250* m){
 1237              		.loc 1 174 32 is_stmt 1 view -0
 1238              		.cfi_startproc
 1239              		@ args = 0, pretend = 0, frame = 136
 1240              		@ frame_needed = 0, uses_anonymous_args = 0
 1241              		.loc 1 174 32 is_stmt 0 view .LVU325
 1242 0000 2DE9F04F 		push	{r4, r5, r6, r7, r8, r9, r10, fp, lr}
 1243              	.LCFI27:
 1244              		.cfi_def_cfa_offset 36
 1245              		.cfi_offset 4, -36
 1246              		.cfi_offset 5, -32
 1247              		.cfi_offset 6, -28
 1248              		.cfi_offset 7, -24
 1249              		.cfi_offset 8, -20
 1250              		.cfi_offset 9, -16
 1251              		.cfi_offset 10, -12
 1252              		.cfi_offset 11, -8
 1253              		.cfi_offset 14, -4
 1254 0004 2DED048B 		vpush.64	{d8, d9}
 1255              	.LCFI28:
 1256              		.cfi_def_cfa_offset 52
 1257              		.cfi_offset 80, -52
 1258              		.cfi_offset 81, -48
 1259              		.cfi_offset 82, -44
 1260              		.cfi_offset 83, -40
 1261 0008 A3B0     		sub	sp, sp, #140
 1262              	.LCFI29:
 1263              		.cfi_def_cfa_offset 192
 1264 000a 0646     		mov	r6, r0
 175:Core/drogui/src/MPU9250.c ****     
 176:Core/drogui/src/MPU9250.c ****     setReg(CAL_ACC,0);
 1265              		.loc 1 176 5 is_stmt 1 view .LVU326
 1266 000c 9FEDD40A 		vldr.32	s0, .L94+24
 1267 0010 0620     		movs	r0, #6
 1268              	.LVL79:
 1269              		.loc 1 176 5 is_stmt 0 view .LVU327
 1270 0012 FFF7FEFF 		bl	setReg
 1271              	.LVL80:
 177:Core/drogui/src/MPU9250.c **** 
 178:Core/drogui/src/MPU9250.c ****     int neq = 4, nval = 2;
 1272              		.loc 1 178 5 is_stmt 1 view .LVU328
 179:Core/drogui/src/MPU9250.c ****     int tot = neq + nval;
 1273              		.loc 1 179 5 view .LVU329
 180:Core/drogui/src/MPU9250.c **** 
 181:Core/drogui/src/MPU9250.c ****     float acc[tot][3], scale, aux;
 1274              		.loc 1 181 5 view .LVU330
 182:Core/drogui/src/MPU9250.c ****     for(int i = 0; i < tot; i++){
 1275              		.loc 1 182 5 view .LVU331
 1276              	.LBB3:
 1277              		.loc 1 182 9 view .LVU332
 1278              		.loc 1 182 13 is_stmt 0 view .LVU333
ARM GAS  C:\Users\julit\AppData\Local\Temp\ccqfzuNA.s 			page 27


 1279 0016 0021     		movs	r1, #0
 1280              		.loc 1 182 5 view .LVU334
 1281 0018 0CE0     		b	.L60
 1282              	.LVL81:
 1283              	.L61:
 1284              	.LBB4:
 183:Core/drogui/src/MPU9250.c ****         for(int j = 0; j < 3; j++){
 184:Core/drogui/src/MPU9250.c ****             acc[i][j] = 0;
 1285              		.loc 1 184 13 is_stmt 1 discriminator 3 view .LVU335
 1286              		.loc 1 184 23 is_stmt 0 discriminator 3 view .LVU336
 1287 001a 01EB4103 		add	r3, r1, r1, lsl #1
 1288 001e 1344     		add	r3, r3, r2
 1289 0020 22A8     		add	r0, sp, #136
 1290 0022 00EB8303 		add	r3, r0, r3, lsl #2
 1291 0026 0020     		movs	r0, #0
 1292 0028 43F8780C 		str	r0, [r3, #-120]	@ float
 183:Core/drogui/src/MPU9250.c ****         for(int j = 0; j < 3; j++){
 1293              		.loc 1 183 31 is_stmt 1 discriminator 3 view .LVU337
 183:Core/drogui/src/MPU9250.c ****         for(int j = 0; j < 3; j++){
 1294              		.loc 1 183 32 is_stmt 0 discriminator 3 view .LVU338
 1295 002c 0132     		adds	r2, r2, #1
 1296              	.LVL82:
 1297              	.L62:
 183:Core/drogui/src/MPU9250.c ****         for(int j = 0; j < 3; j++){
 1298              		.loc 1 183 24 is_stmt 1 discriminator 1 view .LVU339
 183:Core/drogui/src/MPU9250.c ****         for(int j = 0; j < 3; j++){
 1299              		.loc 1 183 9 is_stmt 0 discriminator 1 view .LVU340
 1300 002e 022A     		cmp	r2, #2
 1301 0030 F3DD     		ble	.L61
 1302              	.LBE4:
 182:Core/drogui/src/MPU9250.c ****     for(int i = 0; i < tot; i++){
 1303              		.loc 1 182 29 is_stmt 1 discriminator 2 view .LVU341
 182:Core/drogui/src/MPU9250.c ****     for(int i = 0; i < tot; i++){
 1304              		.loc 1 182 30 is_stmt 0 discriminator 2 view .LVU342
 1305 0032 0131     		adds	r1, r1, #1
 1306              	.LVL83:
 1307              	.L60:
 182:Core/drogui/src/MPU9250.c ****     for(int i = 0; i < tot; i++){
 1308              		.loc 1 182 20 is_stmt 1 discriminator 1 view .LVU343
 182:Core/drogui/src/MPU9250.c ****     for(int i = 0; i < tot; i++){
 1309              		.loc 1 182 5 is_stmt 0 discriminator 1 view .LVU344
 1310 0034 0529     		cmp	r1, #5
 1311 0036 01DC     		bgt	.L88
 1312              	.LBB5:
 183:Core/drogui/src/MPU9250.c ****         for(int j = 0; j < 3; j++){
 1313              		.loc 1 183 17 view .LVU345
 1314 0038 0022     		movs	r2, #0
 1315 003a F8E7     		b	.L62
 1316              	.L88:
 1317              	.LBE5:
 1318              	.LBE3:
 185:Core/drogui/src/MPU9250.c ****         }    
 186:Core/drogui/src/MPU9250.c ****     }
 187:Core/drogui/src/MPU9250.c **** 
 188:Core/drogui/src/MPU9250.c ****     mat A, b, ans;
 1319              		.loc 1 188 5 is_stmt 1 view .LVU346
 189:Core/drogui/src/MPU9250.c ****     matInit(&A,3,3);
ARM GAS  C:\Users\julit\AppData\Local\Temp\ccqfzuNA.s 			page 28


 1320              		.loc 1 189 5 view .LVU347
 1321 003c 0322     		movs	r2, #3
 1322 003e 1146     		mov	r1, r2
 1323              	.LVL84:
 1324              		.loc 1 189 5 is_stmt 0 view .LVU348
 1325 0040 1EA8     		add	r0, sp, #120
 1326 0042 FFF7FEFF 		bl	matInit
 1327              	.LVL85:
 190:Core/drogui/src/MPU9250.c ****     matInit(&b,3,1);
 1328              		.loc 1 190 5 is_stmt 1 view .LVU349
 1329 0046 0122     		movs	r2, #1
 1330 0048 0321     		movs	r1, #3
 1331 004a 1AA8     		add	r0, sp, #104
 1332 004c FFF7FEFF 		bl	matInit
 1333              	.LVL86:
 191:Core/drogui/src/MPU9250.c ****     matInit(&ans,3,1);
 1334              		.loc 1 191 5 view .LVU350
 1335 0050 0122     		movs	r2, #1
 1336 0052 0321     		movs	r1, #3
 1337 0054 16A8     		add	r0, sp, #88
 1338 0056 FFF7FEFF 		bl	matInit
 1339              	.LVL87:
 192:Core/drogui/src/MPU9250.c **** 
 193:Core/drogui/src/MPU9250.c ****     int head = 0, cnt = 0;
 1340              		.loc 1 193 5 view .LVU351
 194:Core/drogui/src/MPU9250.c ****     bool done = false, valid;
 1341              		.loc 1 194 5 view .LVU352
 195:Core/drogui/src/MPU9250.c ****     
 196:Core/drogui/src/MPU9250.c ****     while(!done){
 1342              		.loc 1 196 5 view .LVU353
 194:Core/drogui/src/MPU9250.c ****     bool done = false, valid;
 1343              		.loc 1 194 10 is_stmt 0 view .LVU354
 1344 005a 0023     		movs	r3, #0
 1345 005c 0193     		str	r3, [sp, #4]
 193:Core/drogui/src/MPU9250.c ****     bool done = false, valid;
 1346              		.loc 1 193 19 view .LVU355
 1347 005e 9B46     		mov	fp, r3
 193:Core/drogui/src/MPU9250.c ****     bool done = false, valid;
 1348              		.loc 1 193 9 view .LVU356
 1349 0060 9846     		mov	r8, r3
 1350              		.loc 1 196 10 view .LVU357
 1351 0062 27E0     		b	.L63
 1352              	.LVL88:
 1353              	.L80:
 1354              	.LBB6:
 1355              	.LBB7:
 197:Core/drogui/src/MPU9250.c ****         while(!quiet(m,100,30, false));
 198:Core/drogui/src/MPU9250.c ****         readRawAcc(m);
 199:Core/drogui/src/MPU9250.c ****         valid = true;
 200:Core/drogui/src/MPU9250.c ****         for(int i = 1 ; i <= tot-1 ; i++){
 201:Core/drogui/src/MPU9250.c ****             int j = (head - i + tot) % tot;
 202:Core/drogui/src/MPU9250.c ****             // Serial.println("quiet ");
 203:Core/drogui/src/MPU9250.c ****             if(dis3d(m->raw_ax, m->raw_ay, m->raw_az, acc[j][0],acc[j][1],acc[j][2]) < 800){
 204:Core/drogui/src/MPU9250.c ****                 valid = false; break;
 1356              		.loc 1 204 23 view .LVU358
 1357 0064 019D     		ldr	r5, [sp, #4]
 1358              	.LVL89:
ARM GAS  C:\Users\julit\AppData\Local\Temp\ccqfzuNA.s 			page 29


 1359              	.L66:
 1360              		.loc 1 204 23 view .LVU359
 1361              	.LBE7:
 1362              	.LBE6:
 205:Core/drogui/src/MPU9250.c ****             } 
 206:Core/drogui/src/MPU9250.c ****         }
 207:Core/drogui/src/MPU9250.c **** 
 208:Core/drogui/src/MPU9250.c ****         if(valid){
 1363              		.loc 1 208 9 is_stmt 1 view .LVU360
 1364              		.loc 1 208 11 is_stmt 0 view .LVU361
 1365 0066 002D     		cmp	r5, #0
 1366 0068 60D1     		bne	.L89
 1367              	.L68:
 209:Core/drogui/src/MPU9250.c ****             HAL_GPIO_TogglePin(LED_GPIO_Port, LED_Pin);
 210:Core/drogui/src/MPU9250.c ****             acc[head][0] = m->raw_ax, acc[head][1] = m->raw_ay, acc[head][2] = m->raw_az;
 211:Core/drogui/src/MPU9250.c ****             head++, cnt++, head%= tot; 
 212:Core/drogui/src/MPU9250.c ****         }
 213:Core/drogui/src/MPU9250.c ****         setReg(CAL_ACC, 100*fmin(cnt,6)/7 );
 1368              		.loc 1 213 9 is_stmt 1 view .LVU362
 1369              		.loc 1 213 29 is_stmt 0 view .LVU363
 1370 006a 5846     		mov	r0, fp
 1371 006c FFF7FEFF 		bl	__aeabi_i2d
 1372              	.LVL90:
 1373 0070 9FEDB51B 		vldr.64	d1, .L94
 1374 0074 41EC100B 		vmov	d0, r0, r1
 1375 0078 FFF7FEFF 		bl	fmin
 1376              	.LVL91:
 1377 007c 51EC100B 		vmov	r0, r1, d0
 1378              		.loc 1 213 28 view .LVU364
 1379 0080 0022     		movs	r2, #0
 1380 0082 B84B     		ldr	r3, .L94+28
 1381 0084 FFF7FEFF 		bl	__aeabi_dmul
 1382              	.LVL92:
 1383              		.loc 1 213 40 view .LVU365
 1384 0088 0022     		movs	r2, #0
 1385 008a B74B     		ldr	r3, .L94+32
 1386 008c FFF7FEFF 		bl	__aeabi_ddiv
 1387              	.LVL93:
 1388              		.loc 1 213 9 view .LVU366
 1389 0090 FFF7FEFF 		bl	__aeabi_d2f
 1390              	.LVL94:
 1391 0094 00EE100A 		vmov	s0, r0
 1392 0098 0620     		movs	r0, #6
 1393 009a FFF7FEFF 		bl	setReg
 1394              	.LVL95:
 214:Core/drogui/src/MPU9250.c **** 
 215:Core/drogui/src/MPU9250.c ****         if(cnt >= tot && valid){
 1395              		.loc 1 215 9 is_stmt 1 view .LVU367
 1396              		.loc 1 215 23 is_stmt 0 view .LVU368
 1397 009e BBF1050F 		cmp	fp, #5
 1398 00a2 D4BF     		ite	le
 1399 00a4 4FF00009 		movle	r9, #0
 1400 00a8 05F00109 		andgt	r9, r5, #1
 1401              		.loc 1 215 11 view .LVU369
 1402 00ac B9F1000F 		cmp	r9, #0
 1403 00b0 40F0AA80 		bne	.L90
 1404              	.LVL96:
ARM GAS  C:\Users\julit\AppData\Local\Temp\ccqfzuNA.s 			page 30


 1405              	.L63:
 196:Core/drogui/src/MPU9250.c ****         while(!quiet(m,100,30, false));
 1406              		.loc 1 196 10 is_stmt 1 view .LVU370
 1407 00b4 019B     		ldr	r3, [sp, #4]
 1408 00b6 002B     		cmp	r3, #0
 1409 00b8 40F05E81 		bne	.L91
 1410              	.L64:
 197:Core/drogui/src/MPU9250.c ****         readRawAcc(m);
 1411              		.loc 1 197 39 discriminator 1 view .LVU371
 197:Core/drogui/src/MPU9250.c ****         readRawAcc(m);
 1412              		.loc 1 197 14 discriminator 1 view .LVU372
 197:Core/drogui/src/MPU9250.c ****         readRawAcc(m);
 1413              		.loc 1 197 16 is_stmt 0 discriminator 1 view .LVU373
 1414 00bc 0022     		movs	r2, #0
 1415 00be B3EE0E0A 		vmov.f32	s0, #3.0e+1
 1416 00c2 6421     		movs	r1, #100
 1417 00c4 3046     		mov	r0, r6
 1418 00c6 FFF7FEFF 		bl	quiet
 1419              	.LVL97:
 197:Core/drogui/src/MPU9250.c ****         readRawAcc(m);
 1420              		.loc 1 197 14 discriminator 1 view .LVU374
 1421 00ca 0546     		mov	r5, r0
 1422 00cc 0028     		cmp	r0, #0
 1423 00ce F5D0     		beq	.L64
 198:Core/drogui/src/MPU9250.c ****         valid = true;
 1424              		.loc 1 198 9 is_stmt 1 view .LVU375
 1425 00d0 3046     		mov	r0, r6
 1426 00d2 FFF7FEFF 		bl	readRawAcc
 1427              	.LVL98:
 199:Core/drogui/src/MPU9250.c ****         for(int i = 1 ; i <= tot-1 ; i++){
 1428              		.loc 1 199 9 view .LVU376
 200:Core/drogui/src/MPU9250.c ****             int j = (head - i + tot) % tot;
 1429              		.loc 1 200 9 view .LVU377
 1430              	.LBB9:
 200:Core/drogui/src/MPU9250.c ****             int j = (head - i + tot) % tot;
 1431              		.loc 1 200 13 view .LVU378
 200:Core/drogui/src/MPU9250.c ****             int j = (head - i + tot) % tot;
 1432              		.loc 1 200 17 is_stmt 0 view .LVU379
 1433 00d6 0124     		movs	r4, #1
 1434              	.LVL99:
 1435              	.L65:
 200:Core/drogui/src/MPU9250.c ****             int j = (head - i + tot) % tot;
 1436              		.loc 1 200 25 is_stmt 1 discriminator 1 view .LVU380
 200:Core/drogui/src/MPU9250.c ****             int j = (head - i + tot) % tot;
 1437              		.loc 1 200 9 is_stmt 0 discriminator 1 view .LVU381
 1438 00d8 052C     		cmp	r4, #5
 1439 00da C4DC     		bgt	.L66
 1440              	.LBB8:
 201:Core/drogui/src/MPU9250.c ****             // Serial.println("quiet ");
 1441              		.loc 1 201 13 is_stmt 1 view .LVU382
 201:Core/drogui/src/MPU9250.c ****             // Serial.println("quiet ");
 1442              		.loc 1 201 27 is_stmt 0 view .LVU383
 1443 00dc A8EB0402 		sub	r2, r8, r4
 201:Core/drogui/src/MPU9250.c ****             // Serial.println("quiet ");
 1444              		.loc 1 201 31 view .LVU384
 1445 00e0 0632     		adds	r2, r2, #6
 201:Core/drogui/src/MPU9250.c ****             // Serial.println("quiet ");
ARM GAS  C:\Users\julit\AppData\Local\Temp\ccqfzuNA.s 			page 31


 1446              		.loc 1 201 17 view .LVU385
 1447 00e2 A24B     		ldr	r3, .L94+36
 1448 00e4 83FB0213 		smull	r1, r3, r3, r2
 1449 00e8 A3EBE273 		sub	r3, r3, r2, asr #31
 1450 00ec 03EB4303 		add	r3, r3, r3, lsl #1
 1451 00f0 A2EB4303 		sub	r3, r2, r3, lsl #1
 1452              	.LVL100:
 203:Core/drogui/src/MPU9250.c ****                 valid = false; break;
 1453              		.loc 1 203 13 is_stmt 1 view .LVU386
 203:Core/drogui/src/MPU9250.c ****                 valid = false; break;
 1454              		.loc 1 203 16 is_stmt 0 view .LVU387
 1455 00f4 03EB4302 		add	r2, r3, r3, lsl #1
 1456 00f8 22A9     		add	r1, sp, #136
 1457 00fa 01EB8202 		add	r2, r1, r2, lsl #2
 1458 00fe 52ED1C2A 		vldr.32	s5, [r2, #-112]
 1459 0102 12ED1D2A 		vldr.32	s4, [r2, #-116]
 1460 0106 52ED1E1A 		vldr.32	s3, [r2, #-120]
 1461 010a 96ED181A 		vldr.32	s2, [r6, #96]
 1462 010e D6ED170A 		vldr.32	s1, [r6, #92]
 1463 0112 96ED160A 		vldr.32	s0, [r6, #88]
 1464 0116 FFF7FEFF 		bl	dis3d
 1465              	.LVL101:
 203:Core/drogui/src/MPU9250.c ****                 valid = false; break;
 1466              		.loc 1 203 15 view .LVU388
 1467 011a DFED957A 		vldr.32	s15, .L94+40
 1468 011e B4EEE70A 		vcmpe.f32	s0, s15
 1469 0122 F1EE10FA 		vmrs	APSR_nzcv, FPSCR
 1470 0126 9DD4     		bmi	.L80
 1471              	.LBE8:
 200:Core/drogui/src/MPU9250.c ****             int j = (head - i + tot) % tot;
 1472              		.loc 1 200 38 is_stmt 1 discriminator 2 view .LVU389
 200:Core/drogui/src/MPU9250.c ****             int j = (head - i + tot) % tot;
 1473              		.loc 1 200 39 is_stmt 0 discriminator 2 view .LVU390
 1474 0128 0134     		adds	r4, r4, #1
 1475              	.LVL102:
 200:Core/drogui/src/MPU9250.c ****             int j = (head - i + tot) % tot;
 1476              		.loc 1 200 39 discriminator 2 view .LVU391
 1477 012a D5E7     		b	.L65
 1478              	.LVL103:
 1479              	.L89:
 200:Core/drogui/src/MPU9250.c ****             int j = (head - i + tot) % tot;
 1480              		.loc 1 200 39 discriminator 2 view .LVU392
 1481              	.LBE9:
 209:Core/drogui/src/MPU9250.c ****             acc[head][0] = m->raw_ax, acc[head][1] = m->raw_ay, acc[head][2] = m->raw_az;
 1482              		.loc 1 209 13 is_stmt 1 view .LVU393
 1483 012c 0221     		movs	r1, #2
 1484 012e 9148     		ldr	r0, .L94+44
 1485 0130 FFF7FEFF 		bl	HAL_GPIO_TogglePin
 1486              	.LVL104:
 210:Core/drogui/src/MPU9250.c ****             head++, cnt++, head%= tot; 
 1487              		.loc 1 210 13 view .LVU394
 210:Core/drogui/src/MPU9250.c ****             head++, cnt++, head%= tot; 
 1488              		.loc 1 210 29 is_stmt 0 view .LVU395
 1489 0134 B26D     		ldr	r2, [r6, #88]	@ float
 210:Core/drogui/src/MPU9250.c ****             head++, cnt++, head%= tot; 
 1490              		.loc 1 210 26 view .LVU396
 1491 0136 08EB4803 		add	r3, r8, r8, lsl #1
ARM GAS  C:\Users\julit\AppData\Local\Temp\ccqfzuNA.s 			page 32


 1492 013a 22A9     		add	r1, sp, #136
 1493 013c 01EB8303 		add	r3, r1, r3, lsl #2
 1494 0140 43F8782C 		str	r2, [r3, #-120]	@ float
 210:Core/drogui/src/MPU9250.c ****             head++, cnt++, head%= tot; 
 1495              		.loc 1 210 55 view .LVU397
 1496 0144 F26D     		ldr	r2, [r6, #92]	@ float
 210:Core/drogui/src/MPU9250.c ****             head++, cnt++, head%= tot; 
 1497              		.loc 1 210 52 view .LVU398
 1498 0146 43F8742C 		str	r2, [r3, #-116]	@ float
 210:Core/drogui/src/MPU9250.c ****             head++, cnt++, head%= tot; 
 1499              		.loc 1 210 81 view .LVU399
 1500 014a 326E     		ldr	r2, [r6, #96]	@ float
 210:Core/drogui/src/MPU9250.c ****             head++, cnt++, head%= tot; 
 1501              		.loc 1 210 78 view .LVU400
 1502 014c 43F8702C 		str	r2, [r3, #-112]	@ float
 211:Core/drogui/src/MPU9250.c ****         }
 1503              		.loc 1 211 13 is_stmt 1 view .LVU401
 211:Core/drogui/src/MPU9250.c ****         }
 1504              		.loc 1 211 17 is_stmt 0 view .LVU402
 1505 0150 08F10103 		add	r3, r8, #1
 1506              	.LVL105:
 211:Core/drogui/src/MPU9250.c ****         }
 1507              		.loc 1 211 24 view .LVU403
 1508 0154 0BF1010B 		add	fp, fp, #1
 1509              	.LVL106:
 211:Core/drogui/src/MPU9250.c ****         }
 1510              		.loc 1 211 32 view .LVU404
 1511 0158 844A     		ldr	r2, .L94+36
 1512 015a 82FB0328 		smull	r2, r8, r2, r3
 1513 015e A8EBE378 		sub	r8, r8, r3, asr #31
 1514 0162 08EB4808 		add	r8, r8, r8, lsl #1
 1515 0166 A3EB4808 		sub	r8, r3, r8, lsl #1
 1516              	.LVL107:
 211:Core/drogui/src/MPU9250.c ****         }
 1517              		.loc 1 211 32 view .LVU405
 1518 016a 7EE7     		b	.L68
 1519              	.LVL108:
 1520              	.L71:
 1521              	.LBB10:
 1522              	.LBB11:
 216:Core/drogui/src/MPU9250.c **** 
 217:Core/drogui/src/MPU9250.c ****             for(int i = 1 ; i <= neq-1; i++){
 218:Core/drogui/src/MPU9250.c ****                 aux = 0;
 219:Core/drogui/src/MPU9250.c ****                 for(int j = 0; j < 3; j++){
 220:Core/drogui/src/MPU9250.c ****                     setMatVal(&A, i-1, j, 2*(acc[(head + i-1)%6][j] - acc[(head + i)%6][j]));
 1523              		.loc 1 220 21 is_stmt 1 discriminator 3 view .LVU406
 1524              		.loc 1 220 56 is_stmt 0 discriminator 3 view .LVU407
 1525 016c 08EB0A02 		add	r2, r8, r10
 1526              		.loc 1 220 59 discriminator 3 view .LVU408
 1527 0170 511E     		subs	r1, r2, #1
 1528              		.loc 1 220 62 discriminator 3 view .LVU409
 1529 0172 7E4B     		ldr	r3, .L94+36
 1530 0174 83FB0104 		smull	r0, r4, r3, r1
 1531 0178 A4EBE174 		sub	r4, r4, r1, asr #31
 1532 017c 04EB4404 		add	r4, r4, r4, lsl #1
 1533 0180 A1EB4404 		sub	r4, r1, r4, lsl #1
 1534              		.loc 1 220 65 discriminator 3 view .LVU410
ARM GAS  C:\Users\julit\AppData\Local\Temp\ccqfzuNA.s 			page 33


 1535 0184 04EB4404 		add	r4, r4, r4, lsl #1
 1536 0188 2C44     		add	r4, r4, r5
 1537 018a 22A9     		add	r1, sp, #136
 1538 018c 01EB8404 		add	r4, r1, r4, lsl #2
 1539 0190 14ED1E0A 		vldr.32	s0, [r4, #-120]
 1540              		.loc 1 220 85 discriminator 3 view .LVU411
 1541 0194 83FB0213 		smull	r1, r3, r3, r2
 1542 0198 A3EBE273 		sub	r3, r3, r2, asr #31
 1543 019c 03EB4303 		add	r3, r3, r3, lsl #1
 1544 01a0 A2EB4303 		sub	r3, r2, r3, lsl #1
 1545              		.loc 1 220 88 discriminator 3 view .LVU412
 1546 01a4 03EB4303 		add	r3, r3, r3, lsl #1
 1547 01a8 5F19     		adds	r7, r3, r5
 1548 01aa 22AB     		add	r3, sp, #136
 1549 01ac 03EB8707 		add	r7, r3, r7, lsl #2
 1550 01b0 57ED1E7A 		vldr.32	s15, [r7, #-120]
 1551              		.loc 1 220 69 discriminator 3 view .LVU413
 1552 01b4 30EE670A 		vsub.f32	s0, s0, s15
 1553              		.loc 1 220 21 discriminator 3 view .LVU414
 1554 01b8 30EE000A 		vadd.f32	s0, s0, s0
 1555 01bc 2A46     		mov	r2, r5
 1556 01be 0AF1FF31 		add	r1, r10, #-1
 1557 01c2 1EA8     		add	r0, sp, #120
 1558 01c4 FFF7FEFF 		bl	setMatVal
 1559              	.LVL109:
 221:Core/drogui/src/MPU9250.c ****                     //x2*x2-x1*x1+y2*y2-y1*y1+z2*z2-z1*z1 = 2*c1*(x1-x2)+2*c2*(y1-y2)+2*c3*(z1-z2)
 222:Core/drogui/src/MPU9250.c ****                     aux += acc[(head + i)%6][j]*acc[(head + i)%6][j] - acc[(head + i-1)%6][j]*acc[(
 1560              		.loc 1 222 21 is_stmt 1 discriminator 3 view .LVU415
 1561              		.loc 1 222 45 is_stmt 0 discriminator 3 view .LVU416
 1562 01c8 57ED1E7A 		vldr.32	s15, [r7, #-120]
 1563              		.loc 1 222 48 discriminator 3 view .LVU417
 1564 01cc 67EEA77A 		vmul.f32	s15, s15, s15
 1565              		.loc 1 222 91 discriminator 3 view .LVU418
 1566 01d0 14ED1E7A 		vldr.32	s14, [r4, #-120]
 1567              		.loc 1 222 94 discriminator 3 view .LVU419
 1568 01d4 27EE077A 		vmul.f32	s14, s14, s14
 1569              		.loc 1 222 70 discriminator 3 view .LVU420
 1570 01d8 77EEC77A 		vsub.f32	s15, s15, s14
 1571              		.loc 1 222 25 discriminator 3 view .LVU421
 1572 01dc 38EE278A 		vadd.f32	s16, s16, s15
 1573              	.LVL110:
 219:Core/drogui/src/MPU9250.c ****                     setMatVal(&A, i-1, j, 2*(acc[(head + i-1)%6][j] - acc[(head + i)%6][j]));
 1574              		.loc 1 219 39 is_stmt 1 discriminator 3 view .LVU422
 219:Core/drogui/src/MPU9250.c ****                     setMatVal(&A, i-1, j, 2*(acc[(head + i-1)%6][j] - acc[(head + i)%6][j]));
 1575              		.loc 1 219 40 is_stmt 0 discriminator 3 view .LVU423
 1576 01e0 0135     		adds	r5, r5, #1
 1577              	.LVL111:
 1578              	.L72:
 219:Core/drogui/src/MPU9250.c ****                     setMatVal(&A, i-1, j, 2*(acc[(head + i-1)%6][j] - acc[(head + i)%6][j]));
 1579              		.loc 1 219 32 is_stmt 1 discriminator 1 view .LVU424
 219:Core/drogui/src/MPU9250.c ****                     setMatVal(&A, i-1, j, 2*(acc[(head + i-1)%6][j] - acc[(head + i)%6][j]));
 1580              		.loc 1 219 17 is_stmt 0 discriminator 1 view .LVU425
 1581 01e2 022D     		cmp	r5, #2
 1582 01e4 C2DD     		ble	.L71
 1583              	.LBE11:
 223:Core/drogui/src/MPU9250.c ****                 }
 224:Core/drogui/src/MPU9250.c ****                 setMatVal(&b, i-1, 0, aux);
ARM GAS  C:\Users\julit\AppData\Local\Temp\ccqfzuNA.s 			page 34


 1584              		.loc 1 224 17 is_stmt 1 discriminator 2 view .LVU426
 1585 01e6 B0EE480A 		vmov.f32	s0, s16
 1586 01ea 0022     		movs	r2, #0
 1587 01ec 0AF1FF31 		add	r1, r10, #-1
 1588 01f0 1AA8     		add	r0, sp, #104
 1589 01f2 FFF7FEFF 		bl	setMatVal
 1590              	.LVL112:
 217:Core/drogui/src/MPU9250.c ****                 aux = 0;
 1591              		.loc 1 217 41 discriminator 2 view .LVU427
 217:Core/drogui/src/MPU9250.c ****                 aux = 0;
 1592              		.loc 1 217 42 is_stmt 0 discriminator 2 view .LVU428
 1593 01f6 0AF1010A 		add	r10, r10, #1
 1594              	.LVL113:
 1595              	.L69:
 217:Core/drogui/src/MPU9250.c ****                 aux = 0;
 1596              		.loc 1 217 29 is_stmt 1 discriminator 1 view .LVU429
 217:Core/drogui/src/MPU9250.c ****                 aux = 0;
 1597              		.loc 1 217 13 is_stmt 0 discriminator 1 view .LVU430
 1598 01fa BAF1030F 		cmp	r10, #3
 1599 01fe 06DC     		bgt	.L92
 1600              	.LBB12:
 219:Core/drogui/src/MPU9250.c ****                     setMatVal(&A, i-1, j, 2*(acc[(head + i-1)%6][j] - acc[(head + i)%6][j]));
 1601              		.loc 1 219 25 view .LVU431
 1602 0200 0025     		movs	r5, #0
 1603              	.LBE12:
 218:Core/drogui/src/MPU9250.c ****                 for(int j = 0; j < 3; j++){
 1604              		.loc 1 218 21 view .LVU432
 1605 0202 9FED578A 		vldr.32	s16, .L94+24
 1606 0206 ECE7     		b	.L72
 1607              	.LVL114:
 1608              	.L90:
 217:Core/drogui/src/MPU9250.c ****                 aux = 0;
 1609              		.loc 1 217 21 view .LVU433
 1610 0208 4FF0010A 		mov	r10, #1
 1611 020c F5E7     		b	.L69
 1612              	.LVL115:
 1613              	.L92:
 217:Core/drogui/src/MPU9250.c ****                 aux = 0;
 1614              		.loc 1 217 21 view .LVU434
 1615              	.LBE10:
 225:Core/drogui/src/MPU9250.c ****             }
 226:Core/drogui/src/MPU9250.c **** 
 227:Core/drogui/src/MPU9250.c ****             gaussElimination3x3(&A, &b, &ans);
 1616              		.loc 1 227 13 is_stmt 1 view .LVU435
 1617 020e 16AA     		add	r2, sp, #88
 1618 0210 1AA9     		add	r1, sp, #104
 1619 0212 1EA8     		add	r0, sp, #120
 1620 0214 FFF7FEFF 		bl	gaussElimination3x3
 1621              	.LVL116:
 228:Core/drogui/src/MPU9250.c ****             aux = 0;
 1622              		.loc 1 228 13 view .LVU436
 229:Core/drogui/src/MPU9250.c ****             for(int i = 0; i < 3; i++){
 1623              		.loc 1 229 13 view .LVU437
 1624              	.LBB13:
 1625              		.loc 1 229 17 view .LVU438
 1626              		.loc 1 229 21 is_stmt 0 view .LVU439
 1627 0218 0025     		movs	r5, #0
ARM GAS  C:\Users\julit\AppData\Local\Temp\ccqfzuNA.s 			page 35


 1628              	.LBE13:
 228:Core/drogui/src/MPU9250.c ****             aux = 0;
 1629              		.loc 1 228 17 view .LVU440
 1630 021a 9FED519A 		vldr.32	s18, .L94+24
 1631              	.LVL117:
 1632              	.L73:
 1633              	.LBB14:
 1634              		.loc 1 229 28 is_stmt 1 discriminator 1 view .LVU441
 1635              		.loc 1 229 13 is_stmt 0 discriminator 1 view .LVU442
 1636 021e 022D     		cmp	r5, #2
 1637 0220 1DDC     		bgt	.L93
 230:Core/drogui/src/MPU9250.c ****                 aux += (acc[head][i] + getMatVal(&ans, i, 0))*(acc[head][i] + getMatVal(&ans, i, 0)
 1638              		.loc 1 230 17 is_stmt 1 discriminator 3 view .LVU443
 1639              		.loc 1 230 34 is_stmt 0 discriminator 3 view .LVU444
 1640 0222 08EB4804 		add	r4, r8, r8, lsl #1
 1641 0226 2C44     		add	r4, r4, r5
 1642 0228 22AB     		add	r3, sp, #136
 1643 022a 03EB8404 		add	r4, r3, r4, lsl #2
 1644 022e 14ED1E8A 		vldr.32	s16, [r4, #-120]
 1645              		.loc 1 230 40 discriminator 3 view .LVU445
 1646 0232 0022     		movs	r2, #0
 1647 0234 2946     		mov	r1, r5
 1648 0236 16A8     		add	r0, sp, #88
 1649 0238 FFF7FEFF 		bl	getMatVal
 1650              	.LVL118:
 1651              		.loc 1 230 38 discriminator 3 view .LVU446
 1652 023c 38EE008A 		vadd.f32	s16, s16, s0
 1653              		.loc 1 230 73 discriminator 3 view .LVU447
 1654 0240 54ED1E8A 		vldr.32	s17, [r4, #-120]
 1655              		.loc 1 230 79 discriminator 3 view .LVU448
 1656 0244 0022     		movs	r2, #0
 1657 0246 2946     		mov	r1, r5
 1658 0248 16A8     		add	r0, sp, #88
 1659 024a FFF7FEFF 		bl	getMatVal
 1660              	.LVL119:
 1661              		.loc 1 230 77 discriminator 3 view .LVU449
 1662 024e 78EE808A 		vadd.f32	s17, s17, s0
 1663              		.loc 1 230 62 discriminator 3 view .LVU450
 1664 0252 28EE288A 		vmul.f32	s16, s16, s17
 1665              		.loc 1 230 21 discriminator 3 view .LVU451
 1666 0256 39EE089A 		vadd.f32	s18, s18, s16
 1667              	.LVL120:
 229:Core/drogui/src/MPU9250.c ****             for(int i = 0; i < 3; i++){
 1668              		.loc 1 229 35 is_stmt 1 discriminator 3 view .LVU452
 229:Core/drogui/src/MPU9250.c ****             for(int i = 0; i < 3; i++){
 1669              		.loc 1 229 36 is_stmt 0 discriminator 3 view .LVU453
 1670 025a 0135     		adds	r5, r5, #1
 1671              	.LVL121:
 229:Core/drogui/src/MPU9250.c ****             for(int i = 0; i < 3; i++){
 1672              		.loc 1 229 36 discriminator 3 view .LVU454
 1673 025c DFE7     		b	.L73
 1674              	.L93:
 229:Core/drogui/src/MPU9250.c ****             for(int i = 0; i < 3; i++){
 1675              		.loc 1 229 36 discriminator 3 view .LVU455
 1676              	.LBE14:
 231:Core/drogui/src/MPU9250.c ****             }
 232:Core/drogui/src/MPU9250.c ****             scale = sqrt(aux/G/G);
ARM GAS  C:\Users\julit\AppData\Local\Temp\ccqfzuNA.s 			page 36


 1677              		.loc 1 232 13 is_stmt 1 view .LVU456
 1678              		.loc 1 232 29 is_stmt 0 view .LVU457
 1679 025e 19EE100A 		vmov	r0, s18
 1680 0262 FFF7FEFF 		bl	__aeabi_f2d
 1681              	.LVL122:
 1682 0266 3AA3     		adr	r3, .L94+8
 1683 0268 D3E90023 		ldrd	r2, [r3]
 1684 026c FFF7FEFF 		bl	__aeabi_ddiv
 1685              	.LVL123:
 1686              		.loc 1 232 21 view .LVU458
 1687 0270 37A3     		adr	r3, .L94+8
 1688 0272 D3E90023 		ldrd	r2, [r3]
 1689 0276 FFF7FEFF 		bl	__aeabi_ddiv
 1690              	.LVL124:
 1691 027a 41EC100B 		vmov	d0, r0, r1
 1692 027e FFF7FEFF 		bl	sqrt
 1693              	.LVL125:
 1694 0282 51EC100B 		vmov	r0, r1, d0
 1695              		.loc 1 232 19 view .LVU459
 1696 0286 FFF7FEFF 		bl	__aeabi_d2f
 1697              	.LVL126:
 1698 028a 09EE900A 		vmov	s19, r0
 1699              	.LVL127:
 233:Core/drogui/src/MPU9250.c **** 
 234:Core/drogui/src/MPU9250.c ****             valid = true;
 1700              		.loc 1 234 13 is_stmt 1 view .LVU460
 235:Core/drogui/src/MPU9250.c ****             for(int i = neq ; i <= tot-1; i++){
 1701              		.loc 1 235 13 view .LVU461
 1702              	.LBB15:
 1703              		.loc 1 235 17 view .LVU462
 1704              		.loc 1 235 21 is_stmt 0 view .LVU463
 1705 028e 0425     		movs	r5, #4
 1706              	.LVL128:
 1707              		.loc 1 235 13 view .LVU464
 1708 0290 49E0     		b	.L75
 1709              	.LVL129:
 1710              	.L76:
 1711              	.LBB16:
 236:Core/drogui/src/MPU9250.c ****                 aux = 0;
 237:Core/drogui/src/MPU9250.c ****                 for(int j= 0; j < 3; j++){
 238:Core/drogui/src/MPU9250.c ****                     aux += (acc[(head+i)%tot][j] + getMatVal(&ans, j, 0))*(acc[(head+i)%tot][j] + g
 1712              		.loc 1 238 21 is_stmt 1 discriminator 3 view .LVU465
 1713              		.loc 1 238 38 is_stmt 0 discriminator 3 view .LVU466
 1714 0292 08EB0502 		add	r2, r8, r5
 1715              		.loc 1 238 41 discriminator 3 view .LVU467
 1716 0296 354B     		ldr	r3, .L94+36
 1717 0298 83FB0213 		smull	r1, r3, r3, r2
 1718 029c A3EBE273 		sub	r3, r3, r2, asr #31
 1719 02a0 03EB4303 		add	r3, r3, r3, lsl #1
 1720 02a4 A2EB4303 		sub	r3, r2, r3, lsl #1
 1721              		.loc 1 238 46 discriminator 3 view .LVU468
 1722 02a8 03EB4303 		add	r3, r3, r3, lsl #1
 1723 02ac DC19     		adds	r4, r3, r7
 1724 02ae 22AB     		add	r3, sp, #136
 1725 02b0 03EB8404 		add	r4, r3, r4, lsl #2
 1726 02b4 14ED1E8A 		vldr.32	s16, [r4, #-120]
 1727              		.loc 1 238 52 discriminator 3 view .LVU469
ARM GAS  C:\Users\julit\AppData\Local\Temp\ccqfzuNA.s 			page 37


 1728 02b8 0022     		movs	r2, #0
 1729 02ba 3946     		mov	r1, r7
 1730 02bc 16A8     		add	r0, sp, #88
 1731 02be FFF7FEFF 		bl	getMatVal
 1732              	.LVL130:
 1733              		.loc 1 238 50 discriminator 3 view .LVU470
 1734 02c2 38EE008A 		vadd.f32	s16, s16, s0
 1735              		.loc 1 238 93 discriminator 3 view .LVU471
 1736 02c6 54ED1E8A 		vldr.32	s17, [r4, #-120]
 1737              		.loc 1 238 99 discriminator 3 view .LVU472
 1738 02ca 0022     		movs	r2, #0
 1739 02cc 3946     		mov	r1, r7
 1740 02ce 16A8     		add	r0, sp, #88
 1741 02d0 FFF7FEFF 		bl	getMatVal
 1742              	.LVL131:
 1743              		.loc 1 238 97 discriminator 3 view .LVU473
 1744 02d4 78EE808A 		vadd.f32	s17, s17, s0
 1745              		.loc 1 238 74 discriminator 3 view .LVU474
 1746 02d8 28EE288A 		vmul.f32	s16, s16, s17
 1747              		.loc 1 238 25 discriminator 3 view .LVU475
 1748 02dc 39EE089A 		vadd.f32	s18, s18, s16
 1749              	.LVL132:
 237:Core/drogui/src/MPU9250.c ****                     aux += (acc[(head+i)%tot][j] + getMatVal(&ans, j, 0))*(acc[(head+i)%tot][j] + g
 1750              		.loc 1 237 38 is_stmt 1 discriminator 3 view .LVU476
 237:Core/drogui/src/MPU9250.c ****                     aux += (acc[(head+i)%tot][j] + getMatVal(&ans, j, 0))*(acc[(head+i)%tot][j] + g
 1751              		.loc 1 237 39 is_stmt 0 discriminator 3 view .LVU477
 1752 02e0 0137     		adds	r7, r7, #1
 1753              	.LVL133:
 1754              	.L78:
 237:Core/drogui/src/MPU9250.c ****                     aux += (acc[(head+i)%tot][j] + getMatVal(&ans, j, 0))*(acc[(head+i)%tot][j] + g
 1755              		.loc 1 237 31 is_stmt 1 discriminator 1 view .LVU478
 237:Core/drogui/src/MPU9250.c ****                     aux += (acc[(head+i)%tot][j] + getMatVal(&ans, j, 0))*(acc[(head+i)%tot][j] + g
 1756              		.loc 1 237 17 is_stmt 0 discriminator 1 view .LVU479
 1757 02e2 022F     		cmp	r7, #2
 1758 02e4 D5DD     		ble	.L76
 1759              	.LBE16:
 239:Core/drogui/src/MPU9250.c ****                 }
 240:Core/drogui/src/MPU9250.c ****                 if(fabs(sqrt(aux/scale/scale) - G) > 0.3){
 1760              		.loc 1 240 17 is_stmt 1 view .LVU480
 1761              		.loc 1 240 33 is_stmt 0 view .LVU481
 1762 02e6 C9EE297A 		vdiv.f32	s15, s18, s19
 1763              		.loc 1 240 25 view .LVU482
 1764 02ea C7EEA97A 		vdiv.f32	s15, s15, s19
 1765 02ee 17EE900A 		vmov	r0, s15
 1766 02f2 FFF7FEFF 		bl	__aeabi_f2d
 1767              	.LVL134:
 1768 02f6 41EC100B 		vmov	d0, r0, r1
 1769 02fa FFF7FEFF 		bl	sqrt
 1770              	.LVL135:
 1771 02fe 51EC100B 		vmov	r0, r1, d0
 1772              		.loc 1 240 47 view .LVU483
 1773 0302 13A3     		adr	r3, .L94+8
 1774 0304 D3E90023 		ldrd	r2, [r3]
 1775 0308 FFF7FEFF 		bl	__aeabi_dsub
 1776              	.LVL136:
 1777              		.loc 1 240 20 view .LVU484
 1778 030c 0290     		str	r0, [sp, #8]
ARM GAS  C:\Users\julit\AppData\Local\Temp\ccqfzuNA.s 			page 38


 1779 030e 21F00043 		bic	r3, r1, #-2147483648
 1780 0312 0393     		str	r3, [sp, #12]
 1781              		.loc 1 240 19 view .LVU485
 1782 0314 10A3     		adr	r3, .L94+16
 1783 0316 D3E90023 		ldrd	r2, [r3]
 1784 031a DDE90201 		ldrd	r0, [sp, #8]
 1785 031e FFF7FEFF 		bl	__aeabi_dcmpgt
 1786              	.LVL137:
 1787 0322 30B9     		cbnz	r0, .L83
 235:Core/drogui/src/MPU9250.c ****                 aux = 0;
 1788              		.loc 1 235 43 is_stmt 1 discriminator 2 view .LVU486
 235:Core/drogui/src/MPU9250.c ****                 aux = 0;
 1789              		.loc 1 235 44 is_stmt 0 discriminator 2 view .LVU487
 1790 0324 0135     		adds	r5, r5, #1
 1791              	.LVL138:
 1792              	.L75:
 235:Core/drogui/src/MPU9250.c ****                 aux = 0;
 1793              		.loc 1 235 31 is_stmt 1 discriminator 1 view .LVU488
 235:Core/drogui/src/MPU9250.c ****                 aux = 0;
 1794              		.loc 1 235 13 is_stmt 0 discriminator 1 view .LVU489
 1795 0326 052D     		cmp	r5, #5
 1796 0328 05DC     		bgt	.L77
 1797              	.LBB17:
 237:Core/drogui/src/MPU9250.c ****                     aux += (acc[(head+i)%tot][j] + getMatVal(&ans, j, 0))*(acc[(head+i)%tot][j] + g
 1798              		.loc 1 237 25 view .LVU490
 1799 032a 0027     		movs	r7, #0
 1800              	.LBE17:
 236:Core/drogui/src/MPU9250.c ****                 for(int j= 0; j < 3; j++){
 1801              		.loc 1 236 21 view .LVU491
 1802 032c 9FED0C9A 		vldr.32	s18, .L94+24
 1803              	.LVL139:
 236:Core/drogui/src/MPU9250.c ****                 for(int j= 0; j < 3; j++){
 1804              		.loc 1 236 21 view .LVU492
 1805 0330 D7E7     		b	.L78
 1806              	.LVL140:
 1807              	.L83:
 241:Core/drogui/src/MPU9250.c ****                     //Serial.println(sqrt(aux/scale/scale));
 242:Core/drogui/src/MPU9250.c ****                     valid = false;
 1808              		.loc 1 242 27 view .LVU493
 1809 0332 DDF80490 		ldr	r9, [sp, #4]
 1810              	.LVL141:
 1811              	.L77:
 1812              		.loc 1 242 27 view .LVU494
 1813              	.LBE15:
 243:Core/drogui/src/MPU9250.c ****                     break;
 244:Core/drogui/src/MPU9250.c ****                 }
 245:Core/drogui/src/MPU9250.c ****             }
 246:Core/drogui/src/MPU9250.c ****             if(valid) done = true;
 1814              		.loc 1 246 13 is_stmt 1 view .LVU495
 1815              		.loc 1 246 15 is_stmt 0 view .LVU496
 1816 0336 B9F1000F 		cmp	r9, #0
 1817 033a 3FF4BBAE 		beq	.L63
 1818              		.loc 1 246 28 view .LVU497
 1819 033e CDF80490 		str	r9, [sp, #4]
 1820              	.LVL142:
 1821              		.loc 1 246 28 view .LVU498
 1822 0342 B7E6     		b	.L63
ARM GAS  C:\Users\julit\AppData\Local\Temp\ccqfzuNA.s 			page 39


 1823              	.L95:
 1824 0344 AFF30080 		.align	3
 1825              	.L94:
 1826 0348 00000000 		.word	0
 1827 034c 00001840 		.word	1075314688
 1828 0350 1F85EB51 		.word	1374389535
 1829 0354 B89E2340 		.word	1076076216
 1830 0358 33333333 		.word	858993459
 1831 035c 3333D33F 		.word	1070805811
 1832 0360 00000000 		.word	0
 1833 0364 00005940 		.word	1079574528
 1834 0368 00001C40 		.word	1075576832
 1835 036c ABAAAA2A 		.word	715827883
 1836 0370 00004844 		.word	1145569280
 1837 0374 00100240 		.word	1073876992
 1838              	.LVL143:
 1839              	.L91:
 247:Core/drogui/src/MPU9250.c **** 
 248:Core/drogui/src/MPU9250.c ****         }
 249:Core/drogui/src/MPU9250.c ****     }
 250:Core/drogui/src/MPU9250.c **** 
 251:Core/drogui/src/MPU9250.c ****     m -> off_ax = getMatVal(&ans, 0, 0);
 1840              		.loc 1 251 5 is_stmt 1 view .LVU499
 1841              		.loc 1 251 19 is_stmt 0 view .LVU500
 1842 0378 0022     		movs	r2, #0
 1843 037a 1146     		mov	r1, r2
 1844 037c 16A8     		add	r0, sp, #88
 1845 037e FFF7FEFF 		bl	getMatVal
 1846              	.LVL144:
 1847              		.loc 1 251 17 view .LVU501
 1848 0382 86ED030A 		vstr.32	s0, [r6, #12]
 252:Core/drogui/src/MPU9250.c ****     m -> off_ay = getMatVal(&ans, 1, 0);
 1849              		.loc 1 252 5 is_stmt 1 view .LVU502
 1850              		.loc 1 252 19 is_stmt 0 view .LVU503
 1851 0386 0022     		movs	r2, #0
 1852 0388 0121     		movs	r1, #1
 1853 038a 16A8     		add	r0, sp, #88
 1854 038c FFF7FEFF 		bl	getMatVal
 1855              	.LVL145:
 1856              		.loc 1 252 17 view .LVU504
 1857 0390 86ED040A 		vstr.32	s0, [r6, #16]
 253:Core/drogui/src/MPU9250.c ****     m -> off_az = getMatVal(&ans, 2, 0);
 1858              		.loc 1 253 5 is_stmt 1 view .LVU505
 1859              		.loc 1 253 19 is_stmt 0 view .LVU506
 1860 0394 0022     		movs	r2, #0
 1861 0396 0221     		movs	r1, #2
 1862 0398 16A8     		add	r0, sp, #88
 1863 039a FFF7FEFF 		bl	getMatVal
 1864              	.LVL146:
 1865              		.loc 1 253 17 view .LVU507
 1866 039e 86ED050A 		vstr.32	s0, [r6, #20]
 254:Core/drogui/src/MPU9250.c ****     m -> scl_acc = scale;
 1867              		.loc 1 254 5 is_stmt 1 view .LVU508
 1868              		.loc 1 254 18 is_stmt 0 view .LVU509
 1869 03a2 C6ED069A 		vstr.32	s19, [r6, #24]
 255:Core/drogui/src/MPU9250.c **** /*
 256:Core/drogui/src/MPU9250.c ****     char buff[50];
ARM GAS  C:\Users\julit\AppData\Local\Temp\ccqfzuNA.s 			page 40


 257:Core/drogui/src/MPU9250.c **** 
 258:Core/drogui/src/MPU9250.c ****     sprintf(buff, "%f %f %f %f\n", m->off_ax, m->off_ay, m->off_az, m->scl_acc);
 259:Core/drogui/src/MPU9250.c ****     HAL_UART_Transmit(&huart1, (uint8_t *)buff, strlen(buff), 100);*/
 260:Core/drogui/src/MPU9250.c **** 
 261:Core/drogui/src/MPU9250.c ****     matDestruct(&A);
 1870              		.loc 1 261 5 is_stmt 1 view .LVU510
 1871 03a6 1EA8     		add	r0, sp, #120
 1872 03a8 FFF7FEFF 		bl	matDestruct
 1873              	.LVL147:
 262:Core/drogui/src/MPU9250.c ****     matDestruct(&b);
 1874              		.loc 1 262 5 view .LVU511
 1875 03ac 1AA8     		add	r0, sp, #104
 1876 03ae FFF7FEFF 		bl	matDestruct
 1877              	.LVL148:
 263:Core/drogui/src/MPU9250.c ****     matDestruct(&ans);
 1878              		.loc 1 263 5 view .LVU512
 1879 03b2 16A8     		add	r0, sp, #88
 1880 03b4 FFF7FEFF 		bl	matDestruct
 1881              	.LVL149:
 264:Core/drogui/src/MPU9250.c **** }
 1882              		.loc 1 264 1 is_stmt 0 view .LVU513
 1883 03b8 23B0     		add	sp, sp, #140
 1884              	.LCFI30:
 1885              		.cfi_def_cfa_offset 52
 1886              		@ sp needed
 1887 03ba BDEC048B 		vldm	sp!, {d8-d9}
 1888              	.LCFI31:
 1889              		.cfi_restore 82
 1890              		.cfi_restore 83
 1891              		.cfi_restore 80
 1892              		.cfi_restore 81
 1893              		.cfi_def_cfa_offset 36
 1894 03be BDE8F08F 		pop	{r4, r5, r6, r7, r8, r9, r10, fp, pc}
 1895              		.loc 1 264 1 view .LVU514
 1896              		.cfi_endproc
 1897              	.LFE154:
 1899 03c2 00BF     		.section	.rodata.calibrateMag.str1.4,"aMS",%progbits,1
 1900              		.align	2
 1901              	.LC0:
 1902 0000 25662025 		.ascii	"%f %f %f\012\000"
 1902      66202566 
 1902      0A00
 1903 000a 0000     		.align	2
 1904              	.LC1:
 1905 000c 2566200A 		.ascii	"%f \012\000"
 1905      00
 1906 0011 000000   		.align	2
 1907              	.LC2:
 1908 0014 25640A00 		.ascii	"%d\012\000"
 1909              		.section	.text.calibrateMag,"ax",%progbits
 1910              		.align	1
 1911              		.global	calibrateMag
 1912              		.syntax unified
 1913              		.thumb
 1914              		.thumb_func
 1915              		.fpu fpv5-sp-d16
 1917              	calibrateMag:
ARM GAS  C:\Users\julit\AppData\Local\Temp\ccqfzuNA.s 			page 41


 1918              	.LVL150:
 1919              	.LFB155:
 265:Core/drogui/src/MPU9250.c **** 
 266:Core/drogui/src/MPU9250.c **** void calibrateMag(mpu9250* m){
 1920              		.loc 1 266 30 is_stmt 1 view -0
 1921              		.cfi_startproc
 1922              		@ args = 0, pretend = 0, frame = 168
 1923              		@ frame_needed = 1, uses_anonymous_args = 0
 1924              		.loc 1 266 30 is_stmt 0 view .LVU516
 1925 0000 2DE9F04F 		push	{r4, r5, r6, r7, r8, r9, r10, fp, lr}
 1926              	.LCFI32:
 1927              		.cfi_def_cfa_offset 36
 1928              		.cfi_offset 4, -36
 1929              		.cfi_offset 5, -32
 1930              		.cfi_offset 6, -28
 1931              		.cfi_offset 7, -24
 1932              		.cfi_offset 8, -20
 1933              		.cfi_offset 9, -16
 1934              		.cfi_offset 10, -12
 1935              		.cfi_offset 11, -8
 1936              		.cfi_offset 14, -4
 1937 0004 2DED068B 		vpush.64	{d8, d9, d10}
 1938              	.LCFI33:
 1939              		.cfi_def_cfa_offset 60
 1940              		.cfi_offset 80, -60
 1941              		.cfi_offset 81, -56
 1942              		.cfi_offset 82, -52
 1943              		.cfi_offset 83, -48
 1944              		.cfi_offset 84, -44
 1945              		.cfi_offset 85, -40
 1946 0008 AFB0     		sub	sp, sp, #188
 1947              	.LCFI34:
 1948              		.cfi_def_cfa_offset 248
 1949 000a 04AF     		add	r7, sp, #16
 1950              	.LCFI35:
 1951              		.cfi_def_cfa 7, 232
 1952 000c 0646     		mov	r6, r0
 267:Core/drogui/src/MPU9250.c ****     
 268:Core/drogui/src/MPU9250.c ****     char aux_buff[50]="";
 1953              		.loc 1 268 5 is_stmt 1 view .LVU517
 1954              		.loc 1 268 10 is_stmt 0 view .LVU518
 1955 000e 0024     		movs	r4, #0
 1956 0010 7C67     		str	r4, [r7, #116]
 1957 0012 2E22     		movs	r2, #46
 1958 0014 2146     		mov	r1, r4
 1959 0016 07F17800 		add	r0, r7, #120
 1960              	.LVL151:
 1961              		.loc 1 268 10 view .LVU519
 1962 001a FFF7FEFF 		bl	memset
 1963              	.LVL152:
 269:Core/drogui/src/MPU9250.c **** 
 270:Core/drogui/src/MPU9250.c ****     setReg(CAL_MAG,0);
 1964              		.loc 1 270 5 is_stmt 1 view .LVU520
 1965 001e 9FED840A 		vldr.32	s0, .L118
 1966 0022 0820     		movs	r0, #8
 1967 0024 FFF7FEFF 		bl	setReg
 1968              	.LVL153:
ARM GAS  C:\Users\julit\AppData\Local\Temp\ccqfzuNA.s 			page 42


 271:Core/drogui/src/MPU9250.c **** 
 272:Core/drogui/src/MPU9250.c ****     int head = 0, cnt = 0;
 1969              		.loc 1 272 5 view .LVU521
 273:Core/drogui/src/MPU9250.c ****     bool done = false, valid;
 1970              		.loc 1 273 5 view .LVU522
 274:Core/drogui/src/MPU9250.c ****     const int n = 100;
 1971              		.loc 1 274 5 view .LVU523
 275:Core/drogui/src/MPU9250.c ****     float magX, magY, magZ, scaleGlobal = 0.01;
 1972              		.loc 1 275 5 view .LVU524
 276:Core/drogui/src/MPU9250.c ****     float mag[n][3];
 1973              		.loc 1 276 5 view .LVU525
 1974              		.loc 1 276 11 is_stmt 0 view .LVU526
 1975 0028 ADF5966D 		sub	sp, sp, #1200
 1976 002c 04AD     		add	r5, sp, #16
 1977              	.LVL154:
 277:Core/drogui/src/MPU9250.c ****     for(int i = 0; i < n; i++){
 1978              		.loc 1 277 5 is_stmt 1 view .LVU527
 1979              	.LBB18:
 1980              		.loc 1 277 9 view .LVU528
 1981              		.loc 1 277 13 is_stmt 0 view .LVU529
 1982 002e 2146     		mov	r1, r4
 1983              		.loc 1 277 5 view .LVU530
 1984 0030 0AE0     		b	.L97
 1985              	.LVL155:
 1986              	.L98:
 1987              	.LBB19:
 278:Core/drogui/src/MPU9250.c ****         for(int j = 0; j < 3; j++){
 279:Core/drogui/src/MPU9250.c ****             mag[i][j] = 0;
 1988              		.loc 1 279 13 is_stmt 1 discriminator 3 view .LVU531
 1989              		.loc 1 279 23 is_stmt 0 discriminator 3 view .LVU532
 1990 0032 01EB4103 		add	r3, r1, r1, lsl #1
 1991 0036 1344     		add	r3, r3, r2
 1992 0038 05EB8303 		add	r3, r5, r3, lsl #2
 1993 003c 0020     		movs	r0, #0
 1994 003e 1860     		str	r0, [r3]	@ float
 278:Core/drogui/src/MPU9250.c ****         for(int j = 0; j < 3; j++){
 1995              		.loc 1 278 31 is_stmt 1 discriminator 3 view .LVU533
 278:Core/drogui/src/MPU9250.c ****         for(int j = 0; j < 3; j++){
 1996              		.loc 1 278 32 is_stmt 0 discriminator 3 view .LVU534
 1997 0040 0132     		adds	r2, r2, #1
 1998              	.LVL156:
 1999              	.L99:
 278:Core/drogui/src/MPU9250.c ****         for(int j = 0; j < 3; j++){
 2000              		.loc 1 278 24 is_stmt 1 discriminator 1 view .LVU535
 278:Core/drogui/src/MPU9250.c ****         for(int j = 0; j < 3; j++){
 2001              		.loc 1 278 9 is_stmt 0 discriminator 1 view .LVU536
 2002 0042 022A     		cmp	r2, #2
 2003 0044 F5DD     		ble	.L98
 2004              	.LBE19:
 277:Core/drogui/src/MPU9250.c ****     for(int i = 0; i < n; i++){
 2005              		.loc 1 277 27 is_stmt 1 discriminator 2 view .LVU537
 277:Core/drogui/src/MPU9250.c ****     for(int i = 0; i < n; i++){
 2006              		.loc 1 277 28 is_stmt 0 discriminator 2 view .LVU538
 2007 0046 0131     		adds	r1, r1, #1
 2008              	.LVL157:
 2009              	.L97:
 277:Core/drogui/src/MPU9250.c ****     for(int i = 0; i < n; i++){
ARM GAS  C:\Users\julit\AppData\Local\Temp\ccqfzuNA.s 			page 43


 2010              		.loc 1 277 20 is_stmt 1 discriminator 1 view .LVU539
 277:Core/drogui/src/MPU9250.c ****     for(int i = 0; i < n; i++){
 2011              		.loc 1 277 5 is_stmt 0 discriminator 1 view .LVU540
 2012 0048 6329     		cmp	r1, #99
 2013 004a 01DC     		bgt	.L113
 2014              	.LBB20:
 278:Core/drogui/src/MPU9250.c ****         for(int j = 0; j < 3; j++){
 2015              		.loc 1 278 17 view .LVU541
 2016 004c 0022     		movs	r2, #0
 2017 004e F8E7     		b	.L99
 2018              	.L113:
 2019              	.LBE20:
 2020              	.LBE18:
 273:Core/drogui/src/MPU9250.c ****     const int n = 100;
 2021              		.loc 1 273 10 view .LVU542
 2022 0050 4FF0000B 		mov	fp, #0
 272:Core/drogui/src/MPU9250.c ****     bool done = false, valid;
 2023              		.loc 1 272 19 view .LVU543
 2024 0054 5C46     		mov	r4, fp
 272:Core/drogui/src/MPU9250.c ****     bool done = false, valid;
 2025              		.loc 1 272 9 view .LVU544
 2026 0056 DA46     		mov	r10, fp
 2027 0058 1EE0     		b	.L100
 2028              	.LVL158:
 2029              	.L117:
 280:Core/drogui/src/MPU9250.c ****         }    
 281:Core/drogui/src/MPU9250.c ****     }
 282:Core/drogui/src/MPU9250.c **** 
 283:Core/drogui/src/MPU9250.c ****     while (!done){
 284:Core/drogui/src/MPU9250.c ****         HAL_Delay(100);
 285:Core/drogui/src/MPU9250.c ****         readRawMag(m);
 286:Core/drogui/src/MPU9250.c ****         magX = m->raw_mx*scaleGlobal;
 287:Core/drogui/src/MPU9250.c ****         magY = m->raw_my*scaleGlobal;
 288:Core/drogui/src/MPU9250.c ****         magZ = m->raw_mz*scaleGlobal;
 289:Core/drogui/src/MPU9250.c ****         
 290:Core/drogui/src/MPU9250.c ****         sprintf(aux_buff, "%f %f %f\n", m->raw_mx, m->raw_my, m->raw_mz);
 291:Core/drogui/src/MPU9250.c ****         HAL_UART_Transmit(&huart2, (uint8_t*) aux_buff, strlen(aux_buff), 100);
 292:Core/drogui/src/MPU9250.c ****         valid = true;
 2030              		.loc 1 292 15 view .LVU545
 2031 005a 0123     		movs	r3, #1
 2032              	.L102:
 2033              	.LVL159:
 293:Core/drogui/src/MPU9250.c ****         for(int i = 1 ; i <= cnt ; i++){
 294:Core/drogui/src/MPU9250.c ****             int j = (head - i + n) % n;
 295:Core/drogui/src/MPU9250.c ****             float d = dis3d(magX, magY, magZ, mag[j][0], mag[j][1], mag[j][2]);
 296:Core/drogui/src/MPU9250.c **** 
 297:Core/drogui/src/MPU9250.c ****             sprintf(aux_buff, "%f \n", d);
 298:Core/drogui/src/MPU9250.c ****             HAL_UART_Transmit(&huart2, (uint8_t*) aux_buff, strlen(aux_buff), 100);
 299:Core/drogui/src/MPU9250.c **** 
 300:Core/drogui/src/MPU9250.c ****             if(d < 15*scaleGlobal){
 301:Core/drogui/src/MPU9250.c ****                 valid = false; break;
 302:Core/drogui/src/MPU9250.c ****             } 
 303:Core/drogui/src/MPU9250.c ****         }
 304:Core/drogui/src/MPU9250.c ****         if(valid){
 2034              		.loc 1 304 9 is_stmt 1 view .LVU546
 2035              		.loc 1 304 11 is_stmt 0 view .LVU547
 2036 005c 002B     		cmp	r3, #0
ARM GAS  C:\Users\julit\AppData\Local\Temp\ccqfzuNA.s 			page 44


 2037 005e 40F09E80 		bne	.L114
 2038              	.LVL160:
 2039              	.L104:
 305:Core/drogui/src/MPU9250.c ****             HAL_GPIO_TogglePin(LED_GPIO_Port, LED_Pin);
 306:Core/drogui/src/MPU9250.c ****             mag[head][0] = magX, mag[head][1] = magY, mag[head][2] = magZ;
 307:Core/drogui/src/MPU9250.c ****             head++, cnt++, head%= n; 
 308:Core/drogui/src/MPU9250.c ****         }
 309:Core/drogui/src/MPU9250.c ****         setReg(CAL_MAG, cnt);
 2040              		.loc 1 309 9 is_stmt 1 view .LVU548
 2041 0062 07EE904A 		vmov	s15, r4	@ int
 2042 0066 B8EEE70A 		vcvt.f32.s32	s0, s15
 2043 006a 0820     		movs	r0, #8
 2044 006c FFF7FEFF 		bl	setReg
 2045              	.LVL161:
 310:Core/drogui/src/MPU9250.c ****         
 311:Core/drogui/src/MPU9250.c ****         sprintf(aux_buff, "%d\n", cnt);
 2046              		.loc 1 311 9 view .LVU549
 2047 0070 2246     		mov	r2, r4
 2048 0072 7049     		ldr	r1, .L118+4
 2049 0074 07F17400 		add	r0, r7, #116
 2050 0078 FFF7FEFF 		bl	sprintf
 2051              	.LVL162:
 312:Core/drogui/src/MPU9250.c ****         HAL_UART_Transmit(&huart2, (uint8_t*) aux_buff, strlen(aux_buff), 100);
 2052              		.loc 1 312 9 view .LVU550
 2053              		.loc 1 312 57 is_stmt 0 view .LVU551
 2054 007c 07F17400 		add	r0, r7, #116
 2055 0080 FFF7FEFF 		bl	strlen
 2056              	.LVL163:
 2057              		.loc 1 312 9 view .LVU552
 2058 0084 6423     		movs	r3, #100
 2059 0086 82B2     		uxth	r2, r0
 2060 0088 07F17401 		add	r1, r7, #116
 2061 008c 6A48     		ldr	r0, .L118+8
 2062 008e FFF7FEFF 		bl	HAL_UART_Transmit
 2063              	.LVL164:
 313:Core/drogui/src/MPU9250.c **** 
 314:Core/drogui/src/MPU9250.c ****         if(cnt == n){done = true;}
 2064              		.loc 1 314 9 is_stmt 1 view .LVU553
 2065              		.loc 1 314 11 is_stmt 0 view .LVU554
 2066 0092 642C     		cmp	r4, #100
 2067 0094 00F09F80 		beq	.L115
 2068              	.LVL165:
 2069              	.L100:
 283:Core/drogui/src/MPU9250.c ****         HAL_Delay(100);
 2070              		.loc 1 283 11 is_stmt 1 view .LVU555
 2071 0098 BBF1000F 		cmp	fp, #0
 2072 009c 40F09E80 		bne	.L116
 284:Core/drogui/src/MPU9250.c ****         readRawMag(m);
 2073              		.loc 1 284 9 view .LVU556
 2074 00a0 6420     		movs	r0, #100
 2075 00a2 FFF7FEFF 		bl	HAL_Delay
 2076              	.LVL166:
 285:Core/drogui/src/MPU9250.c ****         magX = m->raw_mx*scaleGlobal;
 2077              		.loc 1 285 9 view .LVU557
 2078 00a6 3046     		mov	r0, r6
 2079 00a8 FFF7FEFF 		bl	readRawMag
 2080              	.LVL167:
ARM GAS  C:\Users\julit\AppData\Local\Temp\ccqfzuNA.s 			page 45


 286:Core/drogui/src/MPU9250.c ****         magY = m->raw_my*scaleGlobal;
 2081              		.loc 1 286 9 view .LVU558
 286:Core/drogui/src/MPU9250.c ****         magY = m->raw_my*scaleGlobal;
 2082              		.loc 1 286 14 is_stmt 0 view .LVU559
 2083 00ac DFED688A 		vldr.32	s17, .L118+32
 2084 00b0 D6ED1C7A 		vldr.32	s15, [r6, #112]
 2085 00b4 67EEA89A 		vmul.f32	s19, s15, s17
 2086              	.LVL168:
 287:Core/drogui/src/MPU9250.c ****         magZ = m->raw_mz*scaleGlobal;
 2087              		.loc 1 287 9 is_stmt 1 view .LVU560
 287:Core/drogui/src/MPU9250.c ****         magZ = m->raw_mz*scaleGlobal;
 2088              		.loc 1 287 17 is_stmt 0 view .LVU561
 2089 00b8 96ED1D8A 		vldr.32	s16, [r6, #116]
 287:Core/drogui/src/MPU9250.c ****         magZ = m->raw_mz*scaleGlobal;
 2090              		.loc 1 287 14 view .LVU562
 2091 00bc 28EE289A 		vmul.f32	s18, s16, s17
 2092              	.LVL169:
 288:Core/drogui/src/MPU9250.c ****         
 2093              		.loc 1 288 9 is_stmt 1 view .LVU563
 288:Core/drogui/src/MPU9250.c ****         
 2094              		.loc 1 288 17 is_stmt 0 view .LVU564
 2095 00c0 96ED1EAA 		vldr.32	s20, [r6, #120]
 288:Core/drogui/src/MPU9250.c ****         
 2096              		.loc 1 288 14 view .LVU565
 2097 00c4 6AEE288A 		vmul.f32	s17, s20, s17
 2098              	.LVL170:
 290:Core/drogui/src/MPU9250.c ****         HAL_UART_Transmit(&huart2, (uint8_t*) aux_buff, strlen(aux_buff), 100);
 2099              		.loc 1 290 9 is_stmt 1 view .LVU566
 2100 00c8 17EE900A 		vmov	r0, s15
 2101 00cc FFF7FEFF 		bl	__aeabi_f2d
 2102              	.LVL171:
 2103 00d0 8046     		mov	r8, r0
 2104 00d2 8946     		mov	r9, r1
 2105 00d4 1AEE100A 		vmov	r0, s20
 2106 00d8 FFF7FEFF 		bl	__aeabi_f2d
 2107              	.LVL172:
 2108 00dc CDE90201 		strd	r0, [sp, #8]
 2109 00e0 18EE100A 		vmov	r0, s16
 2110 00e4 FFF7FEFF 		bl	__aeabi_f2d
 2111              	.LVL173:
 2112 00e8 CDE90001 		strd	r0, [sp]
 2113 00ec 4246     		mov	r2, r8
 2114 00ee 4B46     		mov	r3, r9
 2115 00f0 5249     		ldr	r1, .L118+12
 2116 00f2 07F17400 		add	r0, r7, #116
 2117 00f6 FFF7FEFF 		bl	sprintf
 2118              	.LVL174:
 291:Core/drogui/src/MPU9250.c ****         valid = true;
 2119              		.loc 1 291 9 view .LVU567
 291:Core/drogui/src/MPU9250.c ****         valid = true;
 2120              		.loc 1 291 57 is_stmt 0 view .LVU568
 2121 00fa 07F17400 		add	r0, r7, #116
 2122 00fe FFF7FEFF 		bl	strlen
 2123              	.LVL175:
 291:Core/drogui/src/MPU9250.c ****         valid = true;
 2124              		.loc 1 291 9 view .LVU569
 2125 0102 6423     		movs	r3, #100
ARM GAS  C:\Users\julit\AppData\Local\Temp\ccqfzuNA.s 			page 46


 2126 0104 82B2     		uxth	r2, r0
 2127 0106 07F17401 		add	r1, r7, #116
 2128 010a 4B48     		ldr	r0, .L118+8
 2129 010c FFF7FEFF 		bl	HAL_UART_Transmit
 2130              	.LVL176:
 292:Core/drogui/src/MPU9250.c ****         for(int i = 1 ; i <= cnt ; i++){
 2131              		.loc 1 292 9 is_stmt 1 view .LVU570
 293:Core/drogui/src/MPU9250.c ****             int j = (head - i + n) % n;
 2132              		.loc 1 293 9 view .LVU571
 2133              	.LBB21:
 293:Core/drogui/src/MPU9250.c ****             int j = (head - i + n) % n;
 2134              		.loc 1 293 13 view .LVU572
 293:Core/drogui/src/MPU9250.c ****             int j = (head - i + n) % n;
 2135              		.loc 1 293 17 is_stmt 0 view .LVU573
 2136 0110 4FF00108 		mov	r8, #1
 2137              	.LVL177:
 2138              	.L101:
 293:Core/drogui/src/MPU9250.c ****             int j = (head - i + n) % n;
 2139              		.loc 1 293 25 is_stmt 1 discriminator 1 view .LVU574
 293:Core/drogui/src/MPU9250.c ****             int j = (head - i + n) % n;
 2140              		.loc 1 293 9 is_stmt 0 discriminator 1 view .LVU575
 2141 0114 4445     		cmp	r4, r8
 2142 0116 A0DB     		blt	.L117
 2143              	.LBB22:
 294:Core/drogui/src/MPU9250.c ****             float d = dis3d(magX, magY, magZ, mag[j][0], mag[j][1], mag[j][2]);
 2144              		.loc 1 294 13 is_stmt 1 view .LVU576
 294:Core/drogui/src/MPU9250.c ****             float d = dis3d(magX, magY, magZ, mag[j][0], mag[j][1], mag[j][2]);
 2145              		.loc 1 294 27 is_stmt 0 view .LVU577
 2146 0118 AAEB0802 		sub	r2, r10, r8
 294:Core/drogui/src/MPU9250.c ****             float d = dis3d(magX, magY, magZ, mag[j][0], mag[j][1], mag[j][2]);
 2147              		.loc 1 294 31 view .LVU578
 2148 011c 6432     		adds	r2, r2, #100
 294:Core/drogui/src/MPU9250.c ****             float d = dis3d(magX, magY, magZ, mag[j][0], mag[j][1], mag[j][2]);
 2149              		.loc 1 294 17 view .LVU579
 2150 011e 4849     		ldr	r1, .L118+16
 2151 0120 81FB0231 		smull	r3, r1, r1, r2
 2152 0124 D317     		asrs	r3, r2, #31
 2153 0126 C3EB6113 		rsb	r3, r3, r1, asr #5
 2154 012a 4FF06409 		mov	r9, #100
 2155 012e 09FB1323 		mls	r3, r9, r3, r2
 2156              	.LVL178:
 295:Core/drogui/src/MPU9250.c **** 
 2157              		.loc 1 295 13 is_stmt 1 view .LVU580
 295:Core/drogui/src/MPU9250.c **** 
 2158              		.loc 1 295 23 is_stmt 0 view .LVU581
 2159 0132 03EB4302 		add	r2, r3, r3, lsl #1
 2160 0136 05EB8202 		add	r2, r5, r2, lsl #2
 2161 013a D2ED022A 		vldr.32	s5, [r2, #8]
 2162 013e 92ED012A 		vldr.32	s4, [r2, #4]
 2163 0142 D2ED001A 		vldr.32	s3, [r2]
 2164 0146 B0EE681A 		vmov.f32	s2, s17
 2165 014a F0EE490A 		vmov.f32	s1, s18
 2166 014e B0EE690A 		vmov.f32	s0, s19
 2167 0152 FFF7FEFF 		bl	dis3d
 2168              	.LVL179:
 295:Core/drogui/src/MPU9250.c **** 
 2169              		.loc 1 295 23 view .LVU582
ARM GAS  C:\Users\julit\AppData\Local\Temp\ccqfzuNA.s 			page 47


 2170 0156 B0EE408A 		vmov.f32	s16, s0
 2171              	.LVL180:
 297:Core/drogui/src/MPU9250.c ****             HAL_UART_Transmit(&huart2, (uint8_t*) aux_buff, strlen(aux_buff), 100);
 2172              		.loc 1 297 13 is_stmt 1 view .LVU583
 2173 015a 10EE100A 		vmov	r0, s0
 2174 015e FFF7FEFF 		bl	__aeabi_f2d
 2175              	.LVL181:
 297:Core/drogui/src/MPU9250.c ****             HAL_UART_Transmit(&huart2, (uint8_t*) aux_buff, strlen(aux_buff), 100);
 2176              		.loc 1 297 13 is_stmt 0 view .LVU584
 2177 0162 0246     		mov	r2, r0
 2178 0164 0B46     		mov	r3, r1
 2179 0166 3749     		ldr	r1, .L118+20
 2180 0168 07F17400 		add	r0, r7, #116
 2181 016c FFF7FEFF 		bl	sprintf
 2182              	.LVL182:
 298:Core/drogui/src/MPU9250.c **** 
 2183              		.loc 1 298 13 is_stmt 1 view .LVU585
 298:Core/drogui/src/MPU9250.c **** 
 2184              		.loc 1 298 61 is_stmt 0 view .LVU586
 2185 0170 07F17400 		add	r0, r7, #116
 2186 0174 FFF7FEFF 		bl	strlen
 2187              	.LVL183:
 298:Core/drogui/src/MPU9250.c **** 
 2188              		.loc 1 298 13 view .LVU587
 2189 0178 4B46     		mov	r3, r9
 2190 017a 82B2     		uxth	r2, r0
 2191 017c 07F17401 		add	r1, r7, #116
 2192 0180 2D48     		ldr	r0, .L118+8
 2193 0182 FFF7FEFF 		bl	HAL_UART_Transmit
 2194              	.LVL184:
 300:Core/drogui/src/MPU9250.c ****                 valid = false; break;
 2195              		.loc 1 300 13 is_stmt 1 view .LVU588
 300:Core/drogui/src/MPU9250.c ****                 valid = false; break;
 2196              		.loc 1 300 15 is_stmt 0 view .LVU589
 2197 0186 DFED307A 		vldr.32	s15, .L118+24
 2198 018a B4EEE78A 		vcmpe.f32	s16, s15
 2199 018e F1EE10FA 		vmrs	APSR_nzcv, FPSCR
 2200 0192 02D4     		bmi	.L110
 2201              	.LBE22:
 293:Core/drogui/src/MPU9250.c ****             int j = (head - i + n) % n;
 2202              		.loc 1 293 36 is_stmt 1 discriminator 2 view .LVU590
 293:Core/drogui/src/MPU9250.c ****             int j = (head - i + n) % n;
 2203              		.loc 1 293 37 is_stmt 0 discriminator 2 view .LVU591
 2204 0194 08F10108 		add	r8, r8, #1
 2205              	.LVL185:
 293:Core/drogui/src/MPU9250.c ****             int j = (head - i + n) % n;
 2206              		.loc 1 293 37 discriminator 2 view .LVU592
 2207 0198 BCE7     		b	.L101
 2208              	.LVL186:
 2209              	.L110:
 2210              	.LBB23:
 301:Core/drogui/src/MPU9250.c ****             } 
 2211              		.loc 1 301 23 view .LVU593
 2212 019a 5B46     		mov	r3, fp
 2213 019c 5EE7     		b	.L102
 2214              	.LVL187:
 2215              	.L114:
ARM GAS  C:\Users\julit\AppData\Local\Temp\ccqfzuNA.s 			page 48


 301:Core/drogui/src/MPU9250.c ****             } 
 2216              		.loc 1 301 23 view .LVU594
 2217              	.LBE23:
 2218              	.LBE21:
 305:Core/drogui/src/MPU9250.c ****             mag[head][0] = magX, mag[head][1] = magY, mag[head][2] = magZ;
 2219              		.loc 1 305 13 is_stmt 1 view .LVU595
 2220 019e 0221     		movs	r1, #2
 2221 01a0 2A48     		ldr	r0, .L118+28
 2222 01a2 FFF7FEFF 		bl	HAL_GPIO_TogglePin
 2223              	.LVL188:
 306:Core/drogui/src/MPU9250.c ****             head++, cnt++, head%= n; 
 2224              		.loc 1 306 13 view .LVU596
 306:Core/drogui/src/MPU9250.c ****             head++, cnt++, head%= n; 
 2225              		.loc 1 306 26 is_stmt 0 view .LVU597
 2226 01a6 0AEB4A03 		add	r3, r10, r10, lsl #1
 2227 01aa 05EB8303 		add	r3, r5, r3, lsl #2
 2228 01ae C3ED009A 		vstr.32	s19, [r3]
 306:Core/drogui/src/MPU9250.c ****             head++, cnt++, head%= n; 
 2229              		.loc 1 306 47 view .LVU598
 2230 01b2 83ED019A 		vstr.32	s18, [r3, #4]
 306:Core/drogui/src/MPU9250.c ****             head++, cnt++, head%= n; 
 2231              		.loc 1 306 68 view .LVU599
 2232 01b6 C3ED028A 		vstr.32	s17, [r3, #8]
 307:Core/drogui/src/MPU9250.c ****         }
 2233              		.loc 1 307 13 is_stmt 1 view .LVU600
 307:Core/drogui/src/MPU9250.c ****         }
 2234              		.loc 1 307 17 is_stmt 0 view .LVU601
 2235 01ba 0AF10103 		add	r3, r10, #1
 2236              	.LVL189:
 307:Core/drogui/src/MPU9250.c ****         }
 2237              		.loc 1 307 24 view .LVU602
 2238 01be 0134     		adds	r4, r4, #1
 2239              	.LVL190:
 307:Core/drogui/src/MPU9250.c ****         }
 2240              		.loc 1 307 32 view .LVU603
 2241 01c0 1F4A     		ldr	r2, .L118+16
 2242 01c2 82FB0312 		smull	r1, r2, r2, r3
 2243 01c6 4FEAE37A 		asr	r10, r3, #31
 2244 01ca CAEB621A 		rsb	r10, r10, r2, asr #5
 2245 01ce 6422     		movs	r2, #100
 2246 01d0 02FB1A3A 		mls	r10, r2, r10, r3
 2247              	.LVL191:
 307:Core/drogui/src/MPU9250.c ****         }
 2248              		.loc 1 307 32 view .LVU604
 2249 01d4 45E7     		b	.L104
 2250              	.L115:
 2251              		.loc 1 314 27 view .LVU605
 2252 01d6 4FF0010B 		mov	fp, #1
 2253              	.LVL192:
 2254              		.loc 1 314 27 view .LVU606
 2255 01da 5DE7     		b	.L100
 2256              	.LVL193:
 2257              	.L116:
 315:Core/drogui/src/MPU9250.c ****     }
 316:Core/drogui/src/MPU9250.c **** 
 317:Core/drogui/src/MPU9250.c ****     mat H, Ht, w, prod, prod2, X, inverse;
 2258              		.loc 1 317 5 is_stmt 1 view .LVU607
ARM GAS  C:\Users\julit\AppData\Local\Temp\ccqfzuNA.s 			page 49


 318:Core/drogui/src/MPU9250.c ****     matInit(&H, n, 6);
 2259              		.loc 1 318 5 view .LVU608
 2260 01dc 0622     		movs	r2, #6
 2261 01de 6421     		movs	r1, #100
 2262 01e0 7818     		adds	r0, r7, r1
 2263 01e2 FFF7FEFF 		bl	matInit
 2264              	.LVL194:
 319:Core/drogui/src/MPU9250.c ****     matInit(&Ht, 6, n);
 2265              		.loc 1 319 5 view .LVU609
 2266 01e6 6422     		movs	r2, #100
 2267 01e8 0621     		movs	r1, #6
 2268 01ea 07F15400 		add	r0, r7, #84
 2269 01ee FFF7FEFF 		bl	matInit
 2270              	.LVL195:
 320:Core/drogui/src/MPU9250.c ****     matInit(&prod, 6, 6);
 2271              		.loc 1 320 5 view .LVU610
 2272 01f2 0622     		movs	r2, #6
 2273 01f4 1146     		mov	r1, r2
 2274 01f6 07F13400 		add	r0, r7, #52
 2275 01fa FFF7FEFF 		bl	matInit
 2276              	.LVL196:
 321:Core/drogui/src/MPU9250.c ****     matInit(&prod2, 6, n);
 2277              		.loc 1 321 5 view .LVU611
 2278 01fe 6422     		movs	r2, #100
 2279 0200 0621     		movs	r1, #6
 2280 0202 07F12400 		add	r0, r7, #36
 2281 0206 FFF7FEFF 		bl	matInit
 2282              	.LVL197:
 322:Core/drogui/src/MPU9250.c ****     matInit(&inverse, 6, 6);
 2283              		.loc 1 322 5 view .LVU612
 2284 020a 0622     		movs	r2, #6
 2285 020c 1146     		mov	r1, r2
 2286 020e 381D     		adds	r0, r7, #4
 2287 0210 FFF7FEFF 		bl	matInit
 2288              	.LVL198:
 323:Core/drogui/src/MPU9250.c ****     matInit(&w, n, 1);
 2289              		.loc 1 323 5 view .LVU613
 2290 0214 0122     		movs	r2, #1
 2291 0216 6421     		movs	r1, #100
 2292 0218 07F14400 		add	r0, r7, #68
 2293 021c FFF7FEFF 		bl	matInit
 2294              	.LVL199:
 324:Core/drogui/src/MPU9250.c ****     matInit(&X, 6, 1);
 2295              		.loc 1 324 5 view .LVU614
 2296 0220 0122     		movs	r2, #1
 2297 0222 0621     		movs	r1, #6
 2298 0224 07F11400 		add	r0, r7, #20
 2299 0228 FFF7FEFF 		bl	matInit
 2300              	.LVL200:
 325:Core/drogui/src/MPU9250.c **** /*
 326:Core/drogui/src/MPU9250.c ****     Serial.print("mx = [ ");
 327:Core/drogui/src/MPU9250.c ****     for(int i = 0 ; i < 99 ; i++){
 328:Core/drogui/src/MPU9250.c ****         Serial.print(mag[i][0]), Serial.print(";");
 329:Core/drogui/src/MPU9250.c ****     }
 330:Core/drogui/src/MPU9250.c ****     Serial.print(mag[99][0]), Serial.println("];");
 331:Core/drogui/src/MPU9250.c **** 
 332:Core/drogui/src/MPU9250.c ****     Serial.print("my = [ ");
ARM GAS  C:\Users\julit\AppData\Local\Temp\ccqfzuNA.s 			page 50


 333:Core/drogui/src/MPU9250.c ****     for(int i = 0 ; i < 99 ; i++){
 334:Core/drogui/src/MPU9250.c ****         Serial.print(mag[i][1]), Serial.print(";");
 335:Core/drogui/src/MPU9250.c ****     }
 336:Core/drogui/src/MPU9250.c ****     Serial.print(mag[99][1]), Serial.println("];");
 337:Core/drogui/src/MPU9250.c ****     
 338:Core/drogui/src/MPU9250.c ****     
 339:Core/drogui/src/MPU9250.c ****     Serial.print("mz = [ ");
 340:Core/drogui/src/MPU9250.c ****     for(int i = 0 ; i < 99 ; i++){
 341:Core/drogui/src/MPU9250.c ****         Serial.print(mag[i][2]), Serial.print(";");
 342:Core/drogui/src/MPU9250.c ****     }
 343:Core/drogui/src/MPU9250.c ****     Serial.print(mag[99][2]), Serial.println("];");*/
 344:Core/drogui/src/MPU9250.c ****     
 345:Core/drogui/src/MPU9250.c **** 
 346:Core/drogui/src/MPU9250.c **** 
 347:Core/drogui/src/MPU9250.c ****     for(int i = 0; i < n; i++){
 2301              		.loc 1 347 5 view .LVU615
 2302              	.LBB24:
 2303              		.loc 1 347 9 view .LVU616
 2304              		.loc 1 347 13 is_stmt 0 view .LVU617
 2305 022c 0024     		movs	r4, #0
 2306              	.LVL201:
 2307              		.loc 1 347 5 view .LVU618
 2308 022e 54E0     		b	.L107
 2309              	.L119:
 2310              		.align	2
 2311              	.L118:
 2312 0230 00000000 		.word	0
 2313 0234 14000000 		.word	.LC2
 2314 0238 00000000 		.word	huart2
 2315 023c 00000000 		.word	.LC0
 2316 0240 1F85EB51 		.word	1374389535
 2317 0244 0C000000 		.word	.LC1
 2318 0248 9999193E 		.word	1041865113
 2319 024c 00100240 		.word	1073876992
 2320 0250 0AD7233C 		.word	1008981770
 2321              	.LVL202:
 2322              	.L108:
 348:Core/drogui/src/MPU9250.c ****         setMatVal(&H, i, 0, mag[i][0]);
 2323              		.loc 1 348 9 is_stmt 1 discriminator 3 view .LVU619
 2324 0254 04EB4408 		add	r8, r4, r4, lsl #1
 2325 0258 05EB8808 		add	r8, r5, r8, lsl #2
 2326 025c 98ED000A 		vldr.32	s0, [r8]
 2327 0260 0022     		movs	r2, #0
 2328 0262 2146     		mov	r1, r4
 2329 0264 07F16400 		add	r0, r7, #100
 2330 0268 FFF7FEFF 		bl	setMatVal
 2331              	.LVL203:
 349:Core/drogui/src/MPU9250.c ****         setMatVal(&H, i, 1, mag[i][1]);
 2332              		.loc 1 349 9 discriminator 3 view .LVU620
 2333 026c 98ED010A 		vldr.32	s0, [r8, #4]
 2334 0270 0122     		movs	r2, #1
 2335 0272 2146     		mov	r1, r4
 2336 0274 07F16400 		add	r0, r7, #100
 2337 0278 FFF7FEFF 		bl	setMatVal
 2338              	.LVL204:
 350:Core/drogui/src/MPU9250.c ****         setMatVal(&H, i, 2, mag[i][2]);
 2339              		.loc 1 350 9 discriminator 3 view .LVU621
ARM GAS  C:\Users\julit\AppData\Local\Temp\ccqfzuNA.s 			page 51


 2340 027c 98ED020A 		vldr.32	s0, [r8, #8]
 2341 0280 0222     		movs	r2, #2
 2342 0282 2146     		mov	r1, r4
 2343 0284 07F16400 		add	r0, r7, #100
 2344 0288 FFF7FEFF 		bl	setMatVal
 2345              	.LVL205:
 351:Core/drogui/src/MPU9250.c ****         setMatVal(&H, i, 3, -mag[i][1]*mag[i][1]);
 2346              		.loc 1 351 9 discriminator 3 view .LVU622
 2347              		.loc 1 351 36 is_stmt 0 discriminator 3 view .LVU623
 2348 028c 98ED010A 		vldr.32	s0, [r8, #4]
 2349              		.loc 1 351 9 discriminator 3 view .LVU624
 2350 0290 20EE400A 		vnmul.f32	s0, s0, s0
 2351 0294 0322     		movs	r2, #3
 2352 0296 2146     		mov	r1, r4
 2353 0298 07F16400 		add	r0, r7, #100
 2354 029c FFF7FEFF 		bl	setMatVal
 2355              	.LVL206:
 352:Core/drogui/src/MPU9250.c ****         setMatVal(&H, i, 4, -mag[i][2]*mag[i][2]);
 2356              		.loc 1 352 9 is_stmt 1 discriminator 3 view .LVU625
 2357              		.loc 1 352 36 is_stmt 0 discriminator 3 view .LVU626
 2358 02a0 98ED020A 		vldr.32	s0, [r8, #8]
 2359              		.loc 1 352 9 discriminator 3 view .LVU627
 2360 02a4 20EE400A 		vnmul.f32	s0, s0, s0
 2361 02a8 0422     		movs	r2, #4
 2362 02aa 2146     		mov	r1, r4
 2363 02ac 07F16400 		add	r0, r7, #100
 2364 02b0 FFF7FEFF 		bl	setMatVal
 2365              	.LVL207:
 353:Core/drogui/src/MPU9250.c ****         setMatVal(&H, i, 5, 1);
 2366              		.loc 1 353 9 is_stmt 1 discriminator 3 view .LVU628
 2367 02b4 B7EE000A 		vmov.f32	s0, #1.0e+0
 2368 02b8 0522     		movs	r2, #5
 2369 02ba 2146     		mov	r1, r4
 2370 02bc 07F16400 		add	r0, r7, #100
 2371 02c0 FFF7FEFF 		bl	setMatVal
 2372              	.LVL208:
 354:Core/drogui/src/MPU9250.c **** 
 355:Core/drogui/src/MPU9250.c ****         setMatVal(&w, i, 0, mag[i][0]*mag[i][0]);
 2373              		.loc 1 355 9 discriminator 3 view .LVU629
 2374              		.loc 1 355 35 is_stmt 0 discriminator 3 view .LVU630
 2375 02c4 98ED000A 		vldr.32	s0, [r8]
 2376              		.loc 1 355 9 discriminator 3 view .LVU631
 2377 02c8 20EE000A 		vmul.f32	s0, s0, s0
 2378 02cc 0022     		movs	r2, #0
 2379 02ce 2146     		mov	r1, r4
 2380 02d0 07F14400 		add	r0, r7, #68
 2381 02d4 FFF7FEFF 		bl	setMatVal
 2382              	.LVL209:
 347:Core/drogui/src/MPU9250.c ****         setMatVal(&H, i, 0, mag[i][0]);
 2383              		.loc 1 347 27 is_stmt 1 discriminator 3 view .LVU632
 347:Core/drogui/src/MPU9250.c ****         setMatVal(&H, i, 0, mag[i][0]);
 2384              		.loc 1 347 28 is_stmt 0 discriminator 3 view .LVU633
 2385 02d8 0134     		adds	r4, r4, #1
 2386              	.LVL210:
 2387              	.L107:
 347:Core/drogui/src/MPU9250.c ****         setMatVal(&H, i, 0, mag[i][0]);
 2388              		.loc 1 347 20 is_stmt 1 discriminator 1 view .LVU634
ARM GAS  C:\Users\julit\AppData\Local\Temp\ccqfzuNA.s 			page 52


 347:Core/drogui/src/MPU9250.c ****         setMatVal(&H, i, 0, mag[i][0]);
 2389              		.loc 1 347 5 is_stmt 0 discriminator 1 view .LVU635
 2390 02da 632C     		cmp	r4, #99
 2391 02dc BADD     		ble	.L108
 2392              	.LBE24:
 356:Core/drogui/src/MPU9250.c ****     }
 357:Core/drogui/src/MPU9250.c ****     matTrans(&Ht, &H);
 2393              		.loc 1 357 5 is_stmt 1 view .LVU636
 2394 02de 07F16401 		add	r1, r7, #100
 2395 02e2 07F15400 		add	r0, r7, #84
 2396 02e6 FFF7FEFF 		bl	matTrans
 2397              	.LVL211:
 358:Core/drogui/src/MPU9250.c ****     matMult(&prod, &Ht, &H);
 2398              		.loc 1 358 5 view .LVU637
 2399 02ea 07F16402 		add	r2, r7, #100
 2400 02ee 07F15401 		add	r1, r7, #84
 2401 02f2 07F13400 		add	r0, r7, #52
 2402 02f6 FFF7FEFF 		bl	matMult
 2403              	.LVL212:
 359:Core/drogui/src/MPU9250.c ****     
 360:Core/drogui/src/MPU9250.c ****     
 361:Core/drogui/src/MPU9250.c ****     /*
 362:Core/drogui/src/MPU9250.c ****     Serial.print("H = [");
 363:Core/drogui/src/MPU9250.c ****     for(int i = 0; i < prod.row; i++){
 364:Core/drogui/src/MPU9250.c ****         for(int j = 0; j < prod.col; j++){
 365:Core/drogui/src/MPU9250.c ****             Serial.print(" ");
 366:Core/drogui/src/MPU9250.c ****             dtostrf(getMatVal(&prod, i, j), 15, 2, str_temp);
 367:Core/drogui/src/MPU9250.c ****             Serial.println(str_temp);
 368:Core/drogui/src/MPU9250.c **** 
 369:Core/drogui/src/MPU9250.c ****         }
 370:Core/drogui/src/MPU9250.c ****         Serial.println(";");
 371:Core/drogui/src/MPU9250.c ****     }
 372:Core/drogui/src/MPU9250.c ****     Serial.println("];");
 373:Core/drogui/src/MPU9250.c ****     */
 374:Core/drogui/src/MPU9250.c ****     matInverse(&inverse, &prod);
 2404              		.loc 1 374 5 view .LVU638
 2405 02fa 07F13401 		add	r1, r7, #52
 2406 02fe 381D     		adds	r0, r7, #4
 2407 0300 FFF7FEFF 		bl	matInverse
 2408              	.LVL213:
 375:Core/drogui/src/MPU9250.c ****     matMult(&prod2, &inverse, &Ht);
 2409              		.loc 1 375 5 view .LVU639
 2410 0304 07F15402 		add	r2, r7, #84
 2411 0308 391D     		adds	r1, r7, #4
 2412 030a 07F12400 		add	r0, r7, #36
 2413 030e FFF7FEFF 		bl	matMult
 2414              	.LVL214:
 376:Core/drogui/src/MPU9250.c ****     matMult(&X, &prod2, &w);
 2415              		.loc 1 376 5 view .LVU640
 2416 0312 07F14402 		add	r2, r7, #68
 2417 0316 07F12401 		add	r1, r7, #36
 2418 031a 07F11400 		add	r0, r7, #20
 2419 031e FFF7FEFF 		bl	matMult
 2420              	.LVL215:
 377:Core/drogui/src/MPU9250.c ****     
 378:Core/drogui/src/MPU9250.c ****     /*for(int i = 0; i < 6; i++)
 379:Core/drogui/src/MPU9250.c ****         Serial.println(getMatVal(&X, i, 0));
ARM GAS  C:\Users\julit\AppData\Local\Temp\ccqfzuNA.s 			page 53


 380:Core/drogui/src/MPU9250.c ****     */
 381:Core/drogui/src/MPU9250.c ****     m -> off_mx = getMatVal(&X, 0, 0)/(2);
 2421              		.loc 1 381 5 view .LVU641
 2422              		.loc 1 381 19 is_stmt 0 view .LVU642
 2423 0322 0022     		movs	r2, #0
 2424 0324 1146     		mov	r1, r2
 2425 0326 07F11400 		add	r0, r7, #20
 2426 032a FFF7FEFF 		bl	getMatVal
 2427              	.LVL216:
 2428              		.loc 1 381 38 view .LVU643
 2429 032e F6EE007A 		vmov.f32	s15, #5.0e-1
 2430 0332 60EE277A 		vmul.f32	s15, s0, s15
 2431              		.loc 1 381 17 view .LVU644
 2432 0336 C6ED107A 		vstr.32	s15, [r6, #64]
 382:Core/drogui/src/MPU9250.c ****     m -> off_my = getMatVal(&X, 1, 0)/(2*getMatVal(&X, 3, 0));
 2433              		.loc 1 382 5 is_stmt 1 view .LVU645
 2434              		.loc 1 382 19 is_stmt 0 view .LVU646
 2435 033a 0022     		movs	r2, #0
 2436 033c 0121     		movs	r1, #1
 2437 033e 07F11400 		add	r0, r7, #20
 2438 0342 FFF7FEFF 		bl	getMatVal
 2439              	.LVL217:
 2440 0346 B0EE408A 		vmov.f32	s16, s0
 2441              		.loc 1 382 42 view .LVU647
 2442 034a 0022     		movs	r2, #0
 2443 034c 0321     		movs	r1, #3
 2444 034e 07F11400 		add	r0, r7, #20
 2445 0352 FFF7FEFF 		bl	getMatVal
 2446              	.LVL218:
 2447              		.loc 1 382 41 view .LVU648
 2448 0356 30EE000A 		vadd.f32	s0, s0, s0
 2449              		.loc 1 382 38 view .LVU649
 2450 035a C8EE007A 		vdiv.f32	s15, s16, s0
 2451              		.loc 1 382 17 view .LVU650
 2452 035e C6ED117A 		vstr.32	s15, [r6, #68]
 383:Core/drogui/src/MPU9250.c ****     m -> off_mz = getMatVal(&X, 2, 0)/(2*getMatVal(&X, 4, 0));
 2453              		.loc 1 383 5 is_stmt 1 view .LVU651
 2454              		.loc 1 383 19 is_stmt 0 view .LVU652
 2455 0362 0022     		movs	r2, #0
 2456 0364 0221     		movs	r1, #2
 2457 0366 07F11400 		add	r0, r7, #20
 2458 036a FFF7FEFF 		bl	getMatVal
 2459              	.LVL219:
 2460 036e B0EE408A 		vmov.f32	s16, s0
 2461              		.loc 1 383 42 view .LVU653
 2462 0372 0022     		movs	r2, #0
 2463 0374 0421     		movs	r1, #4
 2464 0376 07F11400 		add	r0, r7, #20
 2465 037a FFF7FEFF 		bl	getMatVal
 2466              	.LVL220:
 2467              		.loc 1 383 41 view .LVU654
 2468 037e 30EE000A 		vadd.f32	s0, s0, s0
 2469              		.loc 1 383 38 view .LVU655
 2470 0382 C8EE007A 		vdiv.f32	s15, s16, s0
 2471              		.loc 1 383 17 view .LVU656
 2472 0386 C6ED127A 		vstr.32	s15, [r6, #72]
 384:Core/drogui/src/MPU9250.c ****     
ARM GAS  C:\Users\julit\AppData\Local\Temp\ccqfzuNA.s 			page 54


 385:Core/drogui/src/MPU9250.c ****     float temp = getMatVal(&X, 5, 0) + (m -> off_mx) * (m -> off_mx) + (m -> off_my) * (m -> off_my
 2473              		.loc 1 385 5 is_stmt 1 view .LVU657
 2474              		.loc 1 385 18 is_stmt 0 view .LVU658
 2475 038a 0022     		movs	r2, #0
 2476 038c 0521     		movs	r1, #5
 2477 038e 07F11400 		add	r0, r7, #20
 2478 0392 FFF7FEFF 		bl	getMatVal
 2479              	.LVL221:
 2480              		.loc 1 385 43 view .LVU659
 2481 0396 96ED106A 		vldr.32	s12, [r6, #64]
 2482              		.loc 1 385 54 view .LVU660
 2483 039a 26EE068A 		vmul.f32	s16, s12, s12
 2484              		.loc 1 385 38 view .LVU661
 2485 039e 30EE088A 		vadd.f32	s16, s0, s16
 2486              		.loc 1 385 75 view .LVU662
 2487 03a2 D6ED116A 		vldr.32	s13, [r6, #68]
 2488              		.loc 1 385 86 view .LVU663
 2489 03a6 66EEA67A 		vmul.f32	s15, s13, s13
 2490              		.loc 1 385 70 view .LVU664
 2491 03aa 38EE278A 		vadd.f32	s16, s16, s15
 2492              		.loc 1 385 107 view .LVU665
 2493 03ae 96ED127A 		vldr.32	s14, [r6, #72]
 2494              		.loc 1 385 118 view .LVU666
 2495 03b2 67EE077A 		vmul.f32	s15, s14, s14
 2496              		.loc 1 385 11 view .LVU667
 2497 03b6 38EE278A 		vadd.f32	s16, s16, s15
 2498              	.LVL222:
 386:Core/drogui/src/MPU9250.c ****     //Serial.println(temp);
 387:Core/drogui/src/MPU9250.c ****     
 388:Core/drogui/src/MPU9250.c ****     m -> off_mx /= scaleGlobal;
 2499              		.loc 1 388 5 is_stmt 1 view .LVU668
 2500              		.loc 1 388 17 is_stmt 0 view .LVU669
 2501 03ba 5FED5B7A 		vldr.32	s15, .L118+32
 2502 03be C6EE275A 		vdiv.f32	s11, s12, s15
 2503 03c2 C6ED105A 		vstr.32	s11, [r6, #64]
 389:Core/drogui/src/MPU9250.c ****     m -> off_my /= scaleGlobal;
 2504              		.loc 1 389 5 is_stmt 1 view .LVU670
 2505              		.loc 1 389 17 is_stmt 0 view .LVU671
 2506 03c6 86EEA76A 		vdiv.f32	s12, s13, s15
 2507 03ca 86ED116A 		vstr.32	s12, [r6, #68]
 390:Core/drogui/src/MPU9250.c ****     m -> off_mz /= scaleGlobal;
 2508              		.loc 1 390 5 is_stmt 1 view .LVU672
 2509              		.loc 1 390 17 is_stmt 0 view .LVU673
 2510 03ce C7EE276A 		vdiv.f32	s13, s14, s15
 2511 03d2 C6ED126A 		vstr.32	s13, [r6, #72]
 391:Core/drogui/src/MPU9250.c ****     
 392:Core/drogui/src/MPU9250.c ****     m -> scl_magx = sqrt(temp)/ (scaleGlobal);
 2512              		.loc 1 392 5 is_stmt 1 view .LVU674
 2513              		.loc 1 392 21 is_stmt 0 view .LVU675
 2514 03d6 18EE100A 		vmov	r0, s16
 2515 03da FFF7FEFF 		bl	__aeabi_f2d
 2516              	.LVL223:
 2517 03de 41EC100B 		vmov	d0, r0, r1
 2518 03e2 FFF7FEFF 		bl	sqrt
 2519              	.LVL224:
 2520 03e6 51EC100B 		vmov	r0, r1, d0
 2521              		.loc 1 392 31 view .LVU676
ARM GAS  C:\Users\julit\AppData\Local\Temp\ccqfzuNA.s 			page 55


 2522 03ea 2FA3     		adr	r3, .L120
 2523 03ec D3E90023 		ldrd	r2, [r3]
 2524 03f0 FFF7FEFF 		bl	__aeabi_ddiv
 2525              	.LVL225:
 2526 03f4 FFF7FEFF 		bl	__aeabi_d2f
 2527              	.LVL226:
 2528              		.loc 1 392 19 view .LVU677
 2529 03f8 F064     		str	r0, [r6, #76]	@ float
 393:Core/drogui/src/MPU9250.c ****     m -> scl_magy = sqrt(temp / getMatVal(&X, 3, 0)) / (scaleGlobal);
 2530              		.loc 1 393 5 is_stmt 1 view .LVU678
 2531              		.loc 1 393 33 is_stmt 0 view .LVU679
 2532 03fa 0022     		movs	r2, #0
 2533 03fc 0321     		movs	r1, #3
 2534 03fe 07F11400 		add	r0, r7, #20
 2535 0402 FFF7FEFF 		bl	getMatVal
 2536              	.LVL227:
 2537              		.loc 1 393 21 view .LVU680
 2538 0406 C8EE007A 		vdiv.f32	s15, s16, s0
 2539 040a 17EE900A 		vmov	r0, s15
 2540 040e FFF7FEFF 		bl	__aeabi_f2d
 2541              	.LVL228:
 2542 0412 41EC100B 		vmov	d0, r0, r1
 2543 0416 FFF7FEFF 		bl	sqrt
 2544              	.LVL229:
 2545 041a 51EC100B 		vmov	r0, r1, d0
 2546              		.loc 1 393 54 view .LVU681
 2547 041e 22A3     		adr	r3, .L120
 2548 0420 D3E90023 		ldrd	r2, [r3]
 2549 0424 FFF7FEFF 		bl	__aeabi_ddiv
 2550              	.LVL230:
 2551 0428 FFF7FEFF 		bl	__aeabi_d2f
 2552              	.LVL231:
 2553              		.loc 1 393 19 view .LVU682
 2554 042c 3065     		str	r0, [r6, #80]	@ float
 394:Core/drogui/src/MPU9250.c ****     m -> scl_magz = sqrt(temp / getMatVal(&X, 4, 0)) / (scaleGlobal);
 2555              		.loc 1 394 5 is_stmt 1 view .LVU683
 2556              		.loc 1 394 33 is_stmt 0 view .LVU684
 2557 042e 0022     		movs	r2, #0
 2558 0430 0421     		movs	r1, #4
 2559 0432 07F11400 		add	r0, r7, #20
 2560 0436 FFF7FEFF 		bl	getMatVal
 2561              	.LVL232:
 2562              		.loc 1 394 21 view .LVU685
 2563 043a C8EE007A 		vdiv.f32	s15, s16, s0
 2564 043e 17EE900A 		vmov	r0, s15
 2565 0442 FFF7FEFF 		bl	__aeabi_f2d
 2566              	.LVL233:
 2567 0446 41EC100B 		vmov	d0, r0, r1
 2568 044a FFF7FEFF 		bl	sqrt
 2569              	.LVL234:
 2570 044e 51EC100B 		vmov	r0, r1, d0
 2571              		.loc 1 394 54 view .LVU686
 2572 0452 15A3     		adr	r3, .L120
 2573 0454 D3E90023 		ldrd	r2, [r3]
 2574 0458 FFF7FEFF 		bl	__aeabi_ddiv
 2575              	.LVL235:
 2576 045c FFF7FEFF 		bl	__aeabi_d2f
ARM GAS  C:\Users\julit\AppData\Local\Temp\ccqfzuNA.s 			page 56


 2577              	.LVL236:
 2578              		.loc 1 394 19 view .LVU687
 2579 0460 7065     		str	r0, [r6, #84]	@ float
 395:Core/drogui/src/MPU9250.c **** /*
 396:Core/drogui/src/MPU9250.c ****     Serial.print(m -> off_mx);
 397:Core/drogui/src/MPU9250.c ****     Serial.print("\t");
 398:Core/drogui/src/MPU9250.c ****     Serial.print(m -> off_my);
 399:Core/drogui/src/MPU9250.c ****     Serial.print("\t");
 400:Core/drogui/src/MPU9250.c ****     Serial.print(m -> off_mz);
 401:Core/drogui/src/MPU9250.c ****     Serial.print("\t");
 402:Core/drogui/src/MPU9250.c ****     Serial.println(m -> scl_magx);
 403:Core/drogui/src/MPU9250.c ****     Serial.print("\t");
 404:Core/drogui/src/MPU9250.c ****     Serial.println(m -> scl_magy);
 405:Core/drogui/src/MPU9250.c ****     Serial.print("\t");
 406:Core/drogui/src/MPU9250.c ****     Serial.println(m -> scl_magz);*/
 407:Core/drogui/src/MPU9250.c ****     
 408:Core/drogui/src/MPU9250.c ****     matDestruct(&H);
 2580              		.loc 1 408 5 is_stmt 1 view .LVU688
 2581 0462 07F16400 		add	r0, r7, #100
 2582 0466 FFF7FEFF 		bl	matDestruct
 2583              	.LVL237:
 409:Core/drogui/src/MPU9250.c ****     matDestruct(&Ht);
 2584              		.loc 1 409 5 view .LVU689
 2585 046a 07F15400 		add	r0, r7, #84
 2586 046e FFF7FEFF 		bl	matDestruct
 2587              	.LVL238:
 410:Core/drogui/src/MPU9250.c ****     matDestruct(&prod);    
 2588              		.loc 1 410 5 view .LVU690
 2589 0472 07F13400 		add	r0, r7, #52
 2590 0476 FFF7FEFF 		bl	matDestruct
 2591              	.LVL239:
 411:Core/drogui/src/MPU9250.c ****     matDestruct(&prod2); 
 2592              		.loc 1 411 5 view .LVU691
 2593 047a 07F12400 		add	r0, r7, #36
 2594 047e FFF7FEFF 		bl	matDestruct
 2595              	.LVL240:
 412:Core/drogui/src/MPU9250.c ****     matDestruct(&inverse); 
 2596              		.loc 1 412 5 view .LVU692
 2597 0482 381D     		adds	r0, r7, #4
 2598 0484 FFF7FEFF 		bl	matDestruct
 2599              	.LVL241:
 413:Core/drogui/src/MPU9250.c ****     matDestruct(&w); 
 2600              		.loc 1 413 5 view .LVU693
 2601 0488 07F14400 		add	r0, r7, #68
 2602 048c FFF7FEFF 		bl	matDestruct
 2603              	.LVL242:
 414:Core/drogui/src/MPU9250.c ****     matDestruct(&X); 
 2604              		.loc 1 414 5 view .LVU694
 2605 0490 07F11400 		add	r0, r7, #20
 2606 0494 FFF7FEFF 		bl	matDestruct
 2607              	.LVL243:
 415:Core/drogui/src/MPU9250.c **** /*
 416:Core/drogui/src/MPU9250.c ****     Serial.print("mxf = [ ");
 417:Core/drogui/src/MPU9250.c ****     for(int i = 0 ; i < 99 ; i++){
 418:Core/drogui/src/MPU9250.c ****         Serial.print((mag[i][0] - m->off_mx)/m->scl_magx), Serial.print(";");
 419:Core/drogui/src/MPU9250.c ****     }
 420:Core/drogui/src/MPU9250.c ****     Serial.print((mag[99][0] - m->off_mx)/m->scl_magx), Serial.println("];");
ARM GAS  C:\Users\julit\AppData\Local\Temp\ccqfzuNA.s 			page 57


 421:Core/drogui/src/MPU9250.c **** 
 422:Core/drogui/src/MPU9250.c ****     Serial.print("myf = [ ");
 423:Core/drogui/src/MPU9250.c ****     for(int i = 0 ; i < 99 ; i++){
 424:Core/drogui/src/MPU9250.c ****         Serial.print((mag[i][1] - m->off_my)/m->scl_magy), Serial.print(";");
 425:Core/drogui/src/MPU9250.c ****     }
 426:Core/drogui/src/MPU9250.c ****     Serial.print((mag[99][1] - m->off_my)/m->scl_magy), Serial.println("];");
 427:Core/drogui/src/MPU9250.c **** 
 428:Core/drogui/src/MPU9250.c ****     Serial.print("mzf = [ ");
 429:Core/drogui/src/MPU9250.c ****     for(int i = 0 ; i < 99 ; i++){
 430:Core/drogui/src/MPU9250.c ****         Serial.print((mag[i][2] - m->off_mz)/m->scl_magz), Serial.print(";");
 431:Core/drogui/src/MPU9250.c ****     }
 432:Core/drogui/src/MPU9250.c ****     Serial.print((mag[99][2] - m->off_mz)/m->scl_magz), Serial.println("];");*/
 433:Core/drogui/src/MPU9250.c **** 
 434:Core/drogui/src/MPU9250.c ****        
 435:Core/drogui/src/MPU9250.c **** }...
 2608              		.loc 1 435 1 is_stmt 0 view .LVU695
 2609 0498 AC37     		adds	r7, r7, #172
 2610              	.LCFI36:
 2611              		.cfi_def_cfa_offset 60
 2612 049a BD46     		mov	sp, r7
 2613              	.LCFI37:
 2614              		.cfi_def_cfa_register 13
 2615              		@ sp needed
 2616 049c BDEC068B 		vldm	sp!, {d8-d10}
 2617              	.LCFI38:
 2618              		.cfi_restore 84
 2619              		.cfi_restore 85
 2620              		.cfi_restore 82
 2621              		.cfi_restore 83
 2622              		.cfi_restore 80
 2623              		.cfi_restore 81
 2624              		.cfi_def_cfa_offset 36
 2625              	.LVL244:
 2626              		.loc 1 435 1 view .LVU696
 2627 04a0 BDE8F08F 		pop	{r4, r5, r6, r7, r8, r9, r10, fp, pc}
 2628              	.LVL245:
 2629              	.L121:
 2630              		.loc 1 435 1 view .LVU697
 2631 04a4 AFF30080 		.align	3
 2632              	.L120:
 2633 04a8 00000040 		.word	1073741824
 2634 04ac E17A843F 		.word	1065646817
 2635              		.cfi_endproc
 2636              	.LFE155:
 2638              		.global	_mz
 2639              		.global	_my
 2640              		.global	_mx
 2641              		.global	_gz
 2642              		.global	_gy
 2643              		.global	_gx
 2644              		.global	_az
 2645              		.global	_ay
 2646              		.global	_ax
 2647              		.section	.bss._ax,"aw",%nobits
 2648              		.align	1
 2649              		.set	.LANCHOR0,. + 0
 2652              	_ax:
ARM GAS  C:\Users\julit\AppData\Local\Temp\ccqfzuNA.s 			page 58


 2653 0000 0000     		.space	2
 2654              		.section	.bss._ay,"aw",%nobits
 2655              		.align	1
 2656              		.set	.LANCHOR1,. + 0
 2659              	_ay:
 2660 0000 0000     		.space	2
 2661              		.section	.bss._az,"aw",%nobits
 2662              		.align	1
 2663              		.set	.LANCHOR2,. + 0
 2666              	_az:
 2667 0000 0000     		.space	2
 2668              		.section	.bss._gx,"aw",%nobits
 2669              		.align	1
 2670              		.set	.LANCHOR3,. + 0
 2673              	_gx:
 2674 0000 0000     		.space	2
 2675              		.section	.bss._gy,"aw",%nobits
 2676              		.align	1
 2677              		.set	.LANCHOR4,. + 0
 2680              	_gy:
 2681 0000 0000     		.space	2
 2682              		.section	.bss._gz,"aw",%nobits
 2683              		.align	1
 2684              		.set	.LANCHOR5,. + 0
 2687              	_gz:
 2688 0000 0000     		.space	2
 2689              		.section	.bss._mx,"aw",%nobits
 2690              		.align	1
 2691              		.set	.LANCHOR6,. + 0
 2694              	_mx:
 2695 0000 0000     		.space	2
 2696              		.section	.bss._my,"aw",%nobits
 2697              		.align	1
 2698              		.set	.LANCHOR7,. + 0
 2701              	_my:
 2702 0000 0000     		.space	2
 2703              		.section	.bss._mz,"aw",%nobits
 2704              		.align	1
 2705              		.set	.LANCHOR8,. + 0
 2708              	_mz:
 2709 0000 0000     		.space	2
 2710              		.text
 2711              	.Letext0:
 2712              		.file 2 "Core/drogui/include/MPU9250.h"
 2713              		.file 3 "c:\\program files (x86)\\gnu arm embedded toolchain\\10 2020-q4-major\\arm-none-eabi\\inc
 2714              		.file 4 "c:\\program files (x86)\\gnu arm embedded toolchain\\10 2020-q4-major\\arm-none-eabi\\inc
 2715              		.file 5 "Drivers/CMSIS/Device/ST/STM32F7xx/Include/stm32f746xx.h"
 2716              		.file 6 "Drivers/STM32F7xx_HAL_Driver/Inc/stm32f7xx_hal_def.h"
 2717              		.file 7 "Drivers/STM32F7xx_HAL_Driver/Inc/stm32f7xx_hal_dma.h"
 2718              		.file 8 "Drivers/STM32F7xx_HAL_Driver/Inc/stm32f7xx_hal_uart.h"
 2719              		.file 9 "Core/drogui/include/matlib.h"
 2720              		.file 10 "Core/Inc/usart.h"
 2721              		.file 11 "c:\\program files (x86)\\gnu arm embedded toolchain\\10 2020-q4-major\\arm-none-eabi\\in
 2722              		.file 12 "c:\\program files (x86)\\gnu arm embedded toolchain\\10 2020-q4-major\\arm-none-eabi\\in
 2723              		.file 13 "Core/drogui/include/utils.h"
 2724              		.file 14 "Drivers/STM32F7xx_HAL_Driver/Inc/stm32f7xx_hal.h"
 2725              		.file 15 "Drivers/STM32F7xx_HAL_Driver/Inc/stm32f7xx_hal_gpio.h"
ARM GAS  C:\Users\julit\AppData\Local\Temp\ccqfzuNA.s 			page 59


 2726              		.file 16 "c:\\program files (x86)\\gnu arm embedded toolchain\\10 2020-q4-major\\arm-none-eabi\\in
 2727              		.file 17 "<built-in>"
ARM GAS  C:\Users\julit\AppData\Local\Temp\ccqfzuNA.s 			page 60


DEFINED SYMBOLS
                            *ABS*:00000000 MPU9250.c
C:\Users\julit\AppData\Local\Temp\ccqfzuNA.s:18     .text.initMpu:00000000 $t
C:\Users\julit\AppData\Local\Temp\ccqfzuNA.s:26     .text.initMpu:00000000 initMpu
C:\Users\julit\AppData\Local\Temp\ccqfzuNA.s:100    .text.readRawAcc:00000000 $t
C:\Users\julit\AppData\Local\Temp\ccqfzuNA.s:107    .text.readRawAcc:00000000 readRawAcc
C:\Users\julit\AppData\Local\Temp\ccqfzuNA.s:195    .text.readRawAcc:00000074 $d
C:\Users\julit\AppData\Local\Temp\ccqfzuNA.s:202    .text.readRawGyro:00000000 $t
C:\Users\julit\AppData\Local\Temp\ccqfzuNA.s:209    .text.readRawGyro:00000000 readRawGyro
C:\Users\julit\AppData\Local\Temp\ccqfzuNA.s:297    .text.readRawGyro:00000074 $d
C:\Users\julit\AppData\Local\Temp\ccqfzuNA.s:304    .text.readRawMag:00000000 $t
C:\Users\julit\AppData\Local\Temp\ccqfzuNA.s:311    .text.readRawMag:00000000 readRawMag
C:\Users\julit\AppData\Local\Temp\ccqfzuNA.s:401    .text.readRawMag:00000078 $d
C:\Users\julit\AppData\Local\Temp\ccqfzuNA.s:408    .text.readAcc:00000000 $t
C:\Users\julit\AppData\Local\Temp\ccqfzuNA.s:415    .text.readAcc:00000000 readAcc
C:\Users\julit\AppData\Local\Temp\ccqfzuNA.s:523    .text.readAcc:000000a0 $d
C:\Users\julit\AppData\Local\Temp\ccqfzuNA.s:530    .text.readGyro:00000000 $t
C:\Users\julit\AppData\Local\Temp\ccqfzuNA.s:537    .text.readGyro:00000000 readGyro
C:\Users\julit\AppData\Local\Temp\ccqfzuNA.s:637    .text.readGyro:0000008c $d
C:\Users\julit\AppData\Local\Temp\ccqfzuNA.s:644    .text.readMag:00000000 $t
C:\Users\julit\AppData\Local\Temp\ccqfzuNA.s:651    .text.readMag:00000000 readMag
C:\Users\julit\AppData\Local\Temp\ccqfzuNA.s:764    .text.readMag:000000a8 $d
C:\Users\julit\AppData\Local\Temp\ccqfzuNA.s:773    .text.quiet:00000000 $t
C:\Users\julit\AppData\Local\Temp\ccqfzuNA.s:780    .text.quiet:00000000 quiet
C:\Users\julit\AppData\Local\Temp\ccqfzuNA.s:1092   .text.quiet:000001c8 $d
C:\Users\julit\AppData\Local\Temp\ccqfzuNA.s:1099   .text.calibrateGyro:00000000 $t
C:\Users\julit\AppData\Local\Temp\ccqfzuNA.s:1106   .text.calibrateGyro:00000000 calibrateGyro
C:\Users\julit\AppData\Local\Temp\ccqfzuNA.s:1158   .text.calibrateGyro:00000034 $d
C:\Users\julit\AppData\Local\Temp\ccqfzuNA.s:1165   .text.dis3d:00000000 $t
C:\Users\julit\AppData\Local\Temp\ccqfzuNA.s:1172   .text.dis3d:00000000 dis3d
C:\Users\julit\AppData\Local\Temp\ccqfzuNA.s:1227   .text.calibrateAccel:00000000 $t
C:\Users\julit\AppData\Local\Temp\ccqfzuNA.s:1234   .text.calibrateAccel:00000000 calibrateAccel
C:\Users\julit\AppData\Local\Temp\ccqfzuNA.s:1826   .text.calibrateAccel:00000348 $d
C:\Users\julit\AppData\Local\Temp\ccqfzuNA.s:1842   .text.calibrateAccel:00000378 $t
C:\Users\julit\AppData\Local\Temp\ccqfzuNA.s:1900   .rodata.calibrateMag.str1.4:00000000 $d
C:\Users\julit\AppData\Local\Temp\ccqfzuNA.s:1910   .text.calibrateMag:00000000 $t
C:\Users\julit\AppData\Local\Temp\ccqfzuNA.s:1917   .text.calibrateMag:00000000 calibrateMag
C:\Users\julit\AppData\Local\Temp\ccqfzuNA.s:2312   .text.calibrateMag:00000230 $d
C:\Users\julit\AppData\Local\Temp\ccqfzuNA.s:2324   .text.calibrateMag:00000254 $t
C:\Users\julit\AppData\Local\Temp\ccqfzuNA.s:2633   .text.calibrateMag:000004a8 $d
C:\Users\julit\AppData\Local\Temp\ccqfzuNA.s:2708   .bss._mz:00000000 _mz
C:\Users\julit\AppData\Local\Temp\ccqfzuNA.s:2701   .bss._my:00000000 _my
C:\Users\julit\AppData\Local\Temp\ccqfzuNA.s:2694   .bss._mx:00000000 _mx
C:\Users\julit\AppData\Local\Temp\ccqfzuNA.s:2687   .bss._gz:00000000 _gz
C:\Users\julit\AppData\Local\Temp\ccqfzuNA.s:2680   .bss._gy:00000000 _gy
C:\Users\julit\AppData\Local\Temp\ccqfzuNA.s:2673   .bss._gx:00000000 _gx
C:\Users\julit\AppData\Local\Temp\ccqfzuNA.s:2666   .bss._az:00000000 _az
C:\Users\julit\AppData\Local\Temp\ccqfzuNA.s:2659   .bss._ay:00000000 _ay
C:\Users\julit\AppData\Local\Temp\ccqfzuNA.s:2652   .bss._ax:00000000 _ax
C:\Users\julit\AppData\Local\Temp\ccqfzuNA.s:2648   .bss._ax:00000000 $d
C:\Users\julit\AppData\Local\Temp\ccqfzuNA.s:2655   .bss._ay:00000000 $d
C:\Users\julit\AppData\Local\Temp\ccqfzuNA.s:2662   .bss._az:00000000 $d
C:\Users\julit\AppData\Local\Temp\ccqfzuNA.s:2669   .bss._gx:00000000 $d
C:\Users\julit\AppData\Local\Temp\ccqfzuNA.s:2676   .bss._gy:00000000 $d
C:\Users\julit\AppData\Local\Temp\ccqfzuNA.s:2683   .bss._gz:00000000 $d
C:\Users\julit\AppData\Local\Temp\ccqfzuNA.s:2690   .bss._mx:00000000 $d
C:\Users\julit\AppData\Local\Temp\ccqfzuNA.s:2697   .bss._my:00000000 $d
ARM GAS  C:\Users\julit\AppData\Local\Temp\ccqfzuNA.s 			page 61


C:\Users\julit\AppData\Local\Temp\ccqfzuNA.s:2704   .bss._mz:00000000 $d

UNDEFINED SYMBOLS
I2CwriteByte
HAL_Delay
I2Cread
__aeabi_f2d
__aeabi_d2f
fmax
fmin
setReg
HAL_GPIO_TogglePin
sqrt
__aeabi_i2d
__aeabi_dmul
__aeabi_ddiv
__aeabi_dsub
__aeabi_dcmpgt
matInit
setMatVal
gaussElimination3x3
getMatVal
matDestruct
memset
sprintf
strlen
HAL_UART_Transmit
huart2
matTrans
matMult
matInverse
