ARM GAS  C:\Users\GUILLE~1\AppData\Local\Temp\cc0zZBLL.s 			page 1


   1              		.cpu cortex-m7
   2              		.eabi_attribute 27, 1
   3              		.eabi_attribute 28, 1
   4              		.eabi_attribute 20, 1
   5              		.eabi_attribute 21, 1
   6              		.eabi_attribute 23, 3
   7              		.eabi_attribute 24, 1
   8              		.eabi_attribute 25, 1
   9              		.eabi_attribute 26, 1
  10              		.eabi_attribute 30, 1
  11              		.eabi_attribute 34, 1
  12              		.eabi_attribute 18, 4
  13              		.file	"principal.c"
  14              		.text
  15              	.Ltext0:
  16              		.cfi_sections	.debug_frame
  17              		.section	.text._main,"ax",%progbits
  18              		.align	1
  19              		.global	_main
  20              		.arch armv7e-m
  21              		.syntax unified
  22              		.thumb
  23              		.thumb_func
  24              		.fpu fpv5-sp-d16
  26              	_main:
  27              	.LFB141:
  28              		.file 1 "Core/drogui/src/principal.c"
   1:Core/drogui/src/principal.c **** #include "main.h"
   2:Core/drogui/src/principal.c **** #include <string.h>
   3:Core/drogui/src/principal.c **** #include "mylib.h"
   4:Core/drogui/src/principal.c **** #include "lib_test.h"
   5:Core/drogui/src/principal.c **** 
   6:Core/drogui/src/principal.c **** void _main(){
  29              		.loc 1 6 13 view -0
  30              		.cfi_startproc
  31              		@ Volatile: function does not return.
  32              		@ args = 0, pretend = 0, frame = 56
  33              		@ frame_needed = 0, uses_anonymous_args = 0
  34 0000 00B5     		push	{lr}
  35              	.LCFI0:
  36              		.cfi_def_cfa_offset 4
  37              		.cfi_offset 14, -4
  38 0002 8FB0     		sub	sp, sp, #60
  39              	.LCFI1:
  40              		.cfi_def_cfa_offset 64
   7:Core/drogui/src/principal.c ****     char message[50] = "Hello drogui!!\r\n";
  41              		.loc 1 7 5 view .LVU1
  42              		.loc 1 7 10 is_stmt 0 view .LVU2
  43 0004 01AC     		add	r4, sp, #4
  44 0006 144D     		ldr	r5, .L4
  45 0008 0FCD     		ldmia	r5!, {r0, r1, r2, r3}
  46 000a 0FC4     		stmia	r4!, {r0, r1, r2, r3}
  47 000c 2B68     		ldr	r3, [r5]
  48 000e 2370     		strb	r3, [r4]
  49 0010 2122     		movs	r2, #33
  50 0012 0021     		movs	r1, #0
  51 0014 0DF11500 		add	r0, sp, #21
ARM GAS  C:\Users\GUILLE~1\AppData\Local\Temp\cc0zZBLL.s 			page 2


  52 0018 FFF7FEFF 		bl	memset
  53              	.LVL0:
  54              	.L2:
   8:Core/drogui/src/principal.c ****     while (1){
  55              		.loc 1 8 5 is_stmt 1 discriminator 1 view .LVU3
   9:Core/drogui/src/principal.c **** 
  10:Core/drogui/src/principal.c ****         HAL_GPIO_TogglePin(LED_GPIO_Port, LED_Pin);
  56              		.loc 1 10 9 discriminator 1 view .LVU4
  57 001c 0221     		movs	r1, #2
  58 001e 0F48     		ldr	r0, .L4+4
  59 0020 FFF7FEFF 		bl	HAL_GPIO_TogglePin
  60              	.LVL1:
  11:Core/drogui/src/principal.c ****         HAL_Delay(suma(250,250) + resta(1000,500));
  61              		.loc 1 11 9 discriminator 1 view .LVU5
  62              		.loc 1 11 19 is_stmt 0 discriminator 1 view .LVU6
  63 0024 FA21     		movs	r1, #250
  64 0026 0846     		mov	r0, r1
  65 0028 FFF7FEFF 		bl	suma
  66              	.LVL2:
  67 002c 0446     		mov	r4, r0
  68              		.loc 1 11 35 discriminator 1 view .LVU7
  69 002e 4FF4FA71 		mov	r1, #500
  70 0032 4FF47A70 		mov	r0, #1000
  71 0036 FFF7FEFF 		bl	resta
  72              	.LVL3:
  73              		.loc 1 11 9 discriminator 1 view .LVU8
  74 003a 2044     		add	r0, r0, r4
  75 003c FFF7FEFF 		bl	HAL_Delay
  76              	.LVL4:
  12:Core/drogui/src/principal.c ****         HAL_UART_Transmit(&huart1, (uint8_t*) message, strlen(message), 1000);
  77              		.loc 1 12 9 is_stmt 1 discriminator 1 view .LVU9
  78              		.loc 1 12 56 is_stmt 0 discriminator 1 view .LVU10
  79 0040 01A8     		add	r0, sp, #4
  80 0042 FFF7FEFF 		bl	strlen
  81              	.LVL5:
  82              		.loc 1 12 9 discriminator 1 view .LVU11
  83 0046 4FF47A73 		mov	r3, #1000
  84 004a 82B2     		uxth	r2, r0
  85 004c 01A9     		add	r1, sp, #4
  86 004e 0448     		ldr	r0, .L4+8
  87 0050 FFF7FEFF 		bl	HAL_UART_Transmit
  88              	.LVL6:
   8:Core/drogui/src/principal.c **** 
  89              		.loc 1 8 11 is_stmt 1 discriminator 1 view .LVU12
  90 0054 E2E7     		b	.L2
  91              	.L5:
  92 0056 00BF     		.align	2
  93              	.L4:
  94 0058 00000000 		.word	.LANCHOR0
  95 005c 00100240 		.word	1073876992
  96 0060 00000000 		.word	huart1
  97              		.cfi_endproc
  98              	.LFE141:
 100              		.section	.rodata
 101              		.align	2
 102              		.set	.LANCHOR0,. + 0
 103              	.LC0:
ARM GAS  C:\Users\GUILLE~1\AppData\Local\Temp\cc0zZBLL.s 			page 3


 104 0000 48656C6C 		.ascii	"Hello drogui!!\015\012\000"
 104      6F206472 
 104      6F677569 
 104      21210D0A 
 104      00
 105 0011 00000000 		.space	33
 105      00000000 
 105      00000000 
 105      00000000 
 105      00000000 
 106              		.text
 107              	.Letext0:
 108              		.file 2 "c:\\program files (x86)\\gnu arm embedded toolchain\\10 2020-q4-major\\arm-none-eabi\\inc
 109              		.file 3 "c:\\program files (x86)\\gnu arm embedded toolchain\\10 2020-q4-major\\arm-none-eabi\\inc
 110              		.file 4 "Drivers/CMSIS/Device/ST/STM32F7xx/Include/stm32f746xx.h"
 111              		.file 5 "Drivers/STM32F7xx_HAL_Driver/Inc/stm32f7xx_hal_def.h"
 112              		.file 6 "Drivers/STM32F7xx_HAL_Driver/Inc/stm32f7xx_hal_dma.h"
 113              		.file 7 "Drivers/STM32F7xx_HAL_Driver/Inc/stm32f7xx_hal_uart.h"
 114              		.file 8 "Drivers/STM32F7xx_HAL_Driver/Inc/stm32f7xx_hal_gpio.h"
 115              		.file 9 "Core/Inc/mylib.h"
 116              		.file 10 "Core/drogui/include/lib_test.h"
 117              		.file 11 "Drivers/STM32F7xx_HAL_Driver/Inc/stm32f7xx_hal.h"
 118              		.file 12 "c:\\program files (x86)\\gnu arm embedded toolchain\\10 2020-q4-major\\arm-none-eabi\\in
 119              		.file 13 "Core/Inc/main.h"
 120              		.file 14 "<built-in>"
ARM GAS  C:\Users\GUILLE~1\AppData\Local\Temp\cc0zZBLL.s 			page 4


DEFINED SYMBOLS
                            *ABS*:00000000 principal.c
C:\Users\GUILLE~1\AppData\Local\Temp\cc0zZBLL.s:18     .text._main:00000000 $t
C:\Users\GUILLE~1\AppData\Local\Temp\cc0zZBLL.s:26     .text._main:00000000 _main
C:\Users\GUILLE~1\AppData\Local\Temp\cc0zZBLL.s:94     .text._main:00000058 $d
C:\Users\GUILLE~1\AppData\Local\Temp\cc0zZBLL.s:101    .rodata:00000000 $d

UNDEFINED SYMBOLS
memset
HAL_GPIO_TogglePin
suma
resta
HAL_Delay
strlen
HAL_UART_Transmit
huart1
