ARM GAS  C:\Users\GUILLE~1\AppData\Local\Temp\cccyfgax.s 			page 1


   1              		.cpu cortex-m7
   2              		.eabi_attribute 27, 1
   3              		.eabi_attribute 28, 1
   4              		.eabi_attribute 20, 1
   5              		.eabi_attribute 21, 1
   6              		.eabi_attribute 23, 3
   7              		.eabi_attribute 24, 1
   8              		.eabi_attribute 25, 1
   9              		.eabi_attribute 26, 1
  10              		.eabi_attribute 30, 1
  11              		.eabi_attribute 34, 1
  12              		.eabi_attribute 18, 4
  13              		.file	"pwm_test.c"
  14              		.text
  15              	.Ltext0:
  16              		.cfi_sections	.debug_frame
  17              		.section	.text.pwmTask,"ax",%progbits
  18              		.align	1
  19              		.global	pwmTask
  20              		.arch armv7e-m
  21              		.syntax unified
  22              		.thumb
  23              		.thumb_func
  24              		.fpu fpv5-sp-d16
  26              	pwmTask:
  27              	.LFB181:
  28              		.file 1 "Core/drogui/test/pwm_test.c"
   1:Core/drogui/test/pwm_test.c **** #define PWM_TEST
   2:Core/drogui/test/pwm_test.c **** #ifdef PWM_TEST
   3:Core/drogui/test/pwm_test.c **** 
   4:Core/drogui/test/pwm_test.c **** #include "_main.h"
   5:Core/drogui/test/pwm_test.c **** #include "usart.h"
   6:Core/drogui/test/pwm_test.c **** #include <stdio.h>
   7:Core/drogui/test/pwm_test.c **** #include <string.h>
   8:Core/drogui/test/pwm_test.c **** #include "_freertos.h"
   9:Core/drogui/test/pwm_test.c **** #include "tim.h"
  10:Core/drogui/test/pwm_test.c **** 
  11:Core/drogui/test/pwm_test.c **** 
  12:Core/drogui/test/pwm_test.c **** osThreadId_t debugHandle;
  13:Core/drogui/test/pwm_test.c **** const osThreadAttr_t debugAttributes = {    .name = "debugTask", \
  14:Core/drogui/test/pwm_test.c ****                                             .stack_size = 512 * 4, \
  15:Core/drogui/test/pwm_test.c ****                                             .priority = (osPriority_t) osPriorityNormal};
  16:Core/drogui/test/pwm_test.c **** 
  17:Core/drogui/test/pwm_test.c **** 
  18:Core/drogui/test/pwm_test.c **** osThreadId_t blinkHandle;
  19:Core/drogui/test/pwm_test.c **** const osThreadAttr_t blinkAttributes = {    .name = "blinkTask",\
  20:Core/drogui/test/pwm_test.c ****                                             .stack_size = 128 * 4,\
  21:Core/drogui/test/pwm_test.c ****                                             .priority = (osPriority_t) osPriorityNormal};
  22:Core/drogui/test/pwm_test.c **** 
  23:Core/drogui/test/pwm_test.c **** osThreadId_t pwmHandle;
  24:Core/drogui/test/pwm_test.c **** const osThreadAttr_t pwmAttributes = {    .name = "pwmTask",\
  25:Core/drogui/test/pwm_test.c ****                                             .stack_size = 128 * 4,\
  26:Core/drogui/test/pwm_test.c ****                                             .priority = (osPriority_t) osPriorityNormal};
  27:Core/drogui/test/pwm_test.c **** 
  28:Core/drogui/test/pwm_test.c **** 
  29:Core/drogui/test/pwm_test.c **** void pwmTask(void *argument){
  29              		.loc 1 29 29 view -0
ARM GAS  C:\Users\GUILLE~1\AppData\Local\Temp\cccyfgax.s 			page 2


  30              		.cfi_startproc
  31              		@ Volatile: function does not return.
  32              		@ args = 0, pretend = 0, frame = 0
  33              		@ frame_needed = 0, uses_anonymous_args = 0
  34              	.LVL0:
  35              		.loc 1 29 29 is_stmt 0 view .LVU1
  36 0000 08B5     		push	{r3, lr}
  37              	.LCFI0:
  38              		.cfi_def_cfa_offset 8
  39              		.cfi_offset 3, -8
  40              		.cfi_offset 14, -4
  41              	.LVL1:
  42              	.L2:
  30:Core/drogui/test/pwm_test.c **** 
  31:Core/drogui/test/pwm_test.c ****     for(;;){
  43              		.loc 1 31 5 is_stmt 1 discriminator 1 view .LVU2
  32:Core/drogui/test/pwm_test.c ****         htim3.Instance->CCR1 = 25000;
  44              		.loc 1 32 9 discriminator 1 view .LVU3
  45              		.loc 1 32 14 is_stmt 0 discriminator 1 view .LVU4
  46 0002 0A4B     		ldr	r3, .L4
  47 0004 1B68     		ldr	r3, [r3]
  48              		.loc 1 32 30 discriminator 1 view .LVU5
  49 0006 46F2A812 		movw	r2, #25000
  50 000a 5A63     		str	r2, [r3, #52]
  33:Core/drogui/test/pwm_test.c ****         htim3.Instance->CCR2 = 12500;
  51              		.loc 1 33 9 is_stmt 1 discriminator 1 view .LVU6
  52              		.loc 1 33 30 is_stmt 0 discriminator 1 view .LVU7
  53 000c 43F2D402 		movw	r2, #12500
  54 0010 9A63     		str	r2, [r3, #56]
  34:Core/drogui/test/pwm_test.c ****         htim4.Instance->CCR3 = 20000;
  55              		.loc 1 34 9 is_stmt 1 discriminator 1 view .LVU8
  56              		.loc 1 34 14 is_stmt 0 discriminator 1 view .LVU9
  57 0012 074B     		ldr	r3, .L4+4
  58 0014 1B68     		ldr	r3, [r3]
  59              		.loc 1 34 30 discriminator 1 view .LVU10
  60 0016 44F62062 		movw	r2, #20000
  61 001a DA63     		str	r2, [r3, #60]
  35:Core/drogui/test/pwm_test.c ****         htim4.Instance->CCR4 = 10000;
  62              		.loc 1 35 9 is_stmt 1 discriminator 1 view .LVU11
  63              		.loc 1 35 30 is_stmt 0 discriminator 1 view .LVU12
  64 001c 42F21072 		movw	r2, #10000
  65 0020 1A64     		str	r2, [r3, #64]
  36:Core/drogui/test/pwm_test.c ****         osDelay(1000);
  66              		.loc 1 36 9 is_stmt 1 discriminator 1 view .LVU13
  67 0022 4FF47A70 		mov	r0, #1000
  68 0026 FFF7FEFF 		bl	osDelay
  69              	.LVL2:
  31:Core/drogui/test/pwm_test.c ****         htim3.Instance->CCR1 = 25000;
  70              		.loc 1 31 10 discriminator 1 view .LVU14
  71 002a EAE7     		b	.L2
  72              	.L5:
  73              		.align	2
  74              	.L4:
  75 002c 00000000 		.word	htim3
  76 0030 00000000 		.word	htim4
  77              		.cfi_endproc
  78              	.LFE181:
ARM GAS  C:\Users\GUILLE~1\AppData\Local\Temp\cccyfgax.s 			page 3


  80              		.section	.text.blinkTask,"ax",%progbits
  81              		.align	1
  82              		.global	blinkTask
  83              		.syntax unified
  84              		.thumb
  85              		.thumb_func
  86              		.fpu fpv5-sp-d16
  88              	blinkTask:
  89              	.LFB182:
  37:Core/drogui/test/pwm_test.c ****     }
  38:Core/drogui/test/pwm_test.c **** }
  39:Core/drogui/test/pwm_test.c **** 
  40:Core/drogui/test/pwm_test.c **** 
  41:Core/drogui/test/pwm_test.c **** void blinkTask(void *argument){
  90              		.loc 1 41 31 view -0
  91              		.cfi_startproc
  92              		@ Volatile: function does not return.
  93              		@ args = 0, pretend = 0, frame = 0
  94              		@ frame_needed = 0, uses_anonymous_args = 0
  95              	.LVL3:
  96              		.loc 1 41 31 is_stmt 0 view .LVU16
  97 0000 08B5     		push	{r3, lr}
  98              	.LCFI1:
  99              		.cfi_def_cfa_offset 8
 100              		.cfi_offset 3, -8
 101              		.cfi_offset 14, -4
 102              	.LVL4:
 103              	.L7:
  42:Core/drogui/test/pwm_test.c **** 
  43:Core/drogui/test/pwm_test.c ****     for(;;){
 104              		.loc 1 43 5 is_stmt 1 discriminator 1 view .LVU17
  44:Core/drogui/test/pwm_test.c ****         HAL_GPIO_TogglePin(LED_GPIO_Port, LED_Pin);
 105              		.loc 1 44 9 discriminator 1 view .LVU18
 106 0002 0221     		movs	r1, #2
 107 0004 0348     		ldr	r0, .L9
 108 0006 FFF7FEFF 		bl	HAL_GPIO_TogglePin
 109              	.LVL5:
  45:Core/drogui/test/pwm_test.c ****         osDelay(1000);
 110              		.loc 1 45 9 discriminator 1 view .LVU19
 111 000a 4FF47A70 		mov	r0, #1000
 112 000e FFF7FEFF 		bl	osDelay
 113              	.LVL6:
  43:Core/drogui/test/pwm_test.c ****         HAL_GPIO_TogglePin(LED_GPIO_Port, LED_Pin);
 114              		.loc 1 43 10 discriminator 1 view .LVU20
 115 0012 F6E7     		b	.L7
 116              	.L10:
 117              		.align	2
 118              	.L9:
 119 0014 00100240 		.word	1073876992
 120              		.cfi_endproc
 121              	.LFE182:
 123              		.global	__aeabi_f2d
 124              		.section	.rodata.debugTask.str1.4,"aMS",%progbits,1
 125              		.align	2
 126              	.LC0:
 127 0000 25660925 		.ascii	"%f\011%f\011%f;\012\000"
 127      66092566 
ARM GAS  C:\Users\GUILLE~1\AppData\Local\Temp\cccyfgax.s 			page 4


 127      3B0A00
 128              		.section	.text.debugTask,"ax",%progbits
 129              		.align	1
 130              		.global	debugTask
 131              		.syntax unified
 132              		.thumb
 133              		.thumb_func
 134              		.fpu fpv5-sp-d16
 136              	debugTask:
 137              	.LFB183:
  46:Core/drogui/test/pwm_test.c ****     }
  47:Core/drogui/test/pwm_test.c **** }
  48:Core/drogui/test/pwm_test.c **** 
  49:Core/drogui/test/pwm_test.c **** char buff[50] = "hola\n";
  50:Core/drogui/test/pwm_test.c **** void debugTask(void *argument){
 138              		.loc 1 50 31 view -0
 139              		.cfi_startproc
 140              		@ Volatile: function does not return.
 141              		@ args = 0, pretend = 0, frame = 0
 142              		@ frame_needed = 0, uses_anonymous_args = 0
 143              	.LVL7:
 144              		.loc 1 50 31 is_stmt 0 view .LVU22
 145 0000 80B5     		push	{r7, lr}
 146              	.LCFI2:
 147              		.cfi_def_cfa_offset 8
 148              		.cfi_offset 7, -8
 149              		.cfi_offset 14, -4
 150 0002 84B0     		sub	sp, sp, #16
 151              	.LCFI3:
 152              		.cfi_def_cfa_offset 24
 153              	.LVL8:
 154              	.L12:
  51:Core/drogui/test/pwm_test.c ****     
  52:Core/drogui/test/pwm_test.c ****     for(;;){
 155              		.loc 1 52 5 is_stmt 1 discriminator 1 view .LVU23
  53:Core/drogui/test/pwm_test.c ****         sprintf(buff, "%f\t%f\t%f;\n", myIMU.gx/5, gx, gy);
 156              		.loc 1 53 9 discriminator 1 view .LVU24
 157              		.loc 1 53 45 is_stmt 0 discriminator 1 view .LVU25
 158 0004 164B     		ldr	r3, .L14
 159 0006 93ED077A 		vldr.32	s14, [r3, #28]
 160              		.loc 1 53 9 discriminator 1 view .LVU26
 161 000a F1EE047A 		vmov.f32	s15, #5.0e+0
 162 000e C7EE277A 		vdiv.f32	s15, s14, s15
 163 0012 17EE900A 		vmov	r0, s15
 164 0016 FFF7FEFF 		bl	__aeabi_f2d
 165              	.LVL9:
 166 001a 0646     		mov	r6, r0
 167 001c 0F46     		mov	r7, r1
 168 001e 114C     		ldr	r4, .L14+4
 169 0020 114B     		ldr	r3, .L14+8
 170 0022 1868     		ldr	r0, [r3]	@ float
 171 0024 FFF7FEFF 		bl	__aeabi_f2d
 172              	.LVL10:
 173 0028 CDE90201 		strd	r0, [sp, #8]
 174 002c 0F4B     		ldr	r3, .L14+12
 175 002e 1868     		ldr	r0, [r3]	@ float
 176 0030 FFF7FEFF 		bl	__aeabi_f2d
ARM GAS  C:\Users\GUILLE~1\AppData\Local\Temp\cccyfgax.s 			page 5


 177              	.LVL11:
 178 0034 CDE90001 		strd	r0, [sp]
 179 0038 3246     		mov	r2, r6
 180 003a 3B46     		mov	r3, r7
 181 003c 0C49     		ldr	r1, .L14+16
 182 003e 2046     		mov	r0, r4
 183 0040 FFF7FEFF 		bl	sprintf
 184              	.LVL12:
  54:Core/drogui/test/pwm_test.c ****         HAL_UART_Transmit(&huart2, (uint8_t*) buff, strlen(buff), 100);
 185              		.loc 1 54 9 is_stmt 1 discriminator 1 view .LVU27
 186              		.loc 1 54 53 is_stmt 0 discriminator 1 view .LVU28
 187 0044 2046     		mov	r0, r4
 188 0046 FFF7FEFF 		bl	strlen
 189              	.LVL13:
 190              		.loc 1 54 9 discriminator 1 view .LVU29
 191 004a 6423     		movs	r3, #100
 192 004c 82B2     		uxth	r2, r0
 193 004e 2146     		mov	r1, r4
 194 0050 0848     		ldr	r0, .L14+20
 195 0052 FFF7FEFF 		bl	HAL_UART_Transmit
 196              	.LVL14:
  55:Core/drogui/test/pwm_test.c ****         osDelay(1);
 197              		.loc 1 55 9 is_stmt 1 discriminator 1 view .LVU30
 198 0056 0120     		movs	r0, #1
 199 0058 FFF7FEFF 		bl	osDelay
 200              	.LVL15:
  52:Core/drogui/test/pwm_test.c ****         sprintf(buff, "%f\t%f\t%f;\n", myIMU.gx/5, gx, gy);
 201              		.loc 1 52 10 discriminator 1 view .LVU31
 202 005c D2E7     		b	.L12
 203              	.L15:
 204 005e 00BF     		.align	2
 205              	.L14:
 206 0060 00000000 		.word	myIMU
 207 0064 00000000 		.word	.LANCHOR0
 208 0068 00000000 		.word	gy
 209 006c 00000000 		.word	gx
 210 0070 00000000 		.word	.LC0
 211 0074 00000000 		.word	huart2
 212              		.cfi_endproc
 213              	.LFE183:
 215              		.section	.text.initSystem,"ax",%progbits
 216              		.align	1
 217              		.global	initSystem
 218              		.syntax unified
 219              		.thumb
 220              		.thumb_func
 221              		.fpu fpv5-sp-d16
 223              	initSystem:
 224              	.LFB184:
  56:Core/drogui/test/pwm_test.c ****     }
  57:Core/drogui/test/pwm_test.c **** }
  58:Core/drogui/test/pwm_test.c **** 
  59:Core/drogui/test/pwm_test.c **** void initSystem(){
 225              		.loc 1 59 18 view -0
 226              		.cfi_startproc
 227              		@ args = 0, pretend = 0, frame = 0
 228              		@ frame_needed = 0, uses_anonymous_args = 0
ARM GAS  C:\Users\GUILLE~1\AppData\Local\Temp\cccyfgax.s 			page 6


 229 0000 10B5     		push	{r4, lr}
 230              	.LCFI4:
 231              		.cfi_def_cfa_offset 8
 232              		.cfi_offset 4, -8
 233              		.cfi_offset 14, -4
  60:Core/drogui/test/pwm_test.c ****     HAL_TIM_PWM_Start(&htim3, TIM_CHANNEL_1);
 234              		.loc 1 60 5 view .LVU33
 235 0002 104C     		ldr	r4, .L18
 236 0004 0021     		movs	r1, #0
 237 0006 2046     		mov	r0, r4
 238 0008 FFF7FEFF 		bl	HAL_TIM_PWM_Start
 239              	.LVL16:
  61:Core/drogui/test/pwm_test.c ****     HAL_TIM_PWM_Start(&htim3, TIM_CHANNEL_2);
 240              		.loc 1 61 5 view .LVU34
 241 000c 0421     		movs	r1, #4
 242 000e 2046     		mov	r0, r4
 243 0010 FFF7FEFF 		bl	HAL_TIM_PWM_Start
 244              	.LVL17:
  62:Core/drogui/test/pwm_test.c ****     HAL_TIM_PWM_Start(&htim4, TIM_CHANNEL_3);
 245              		.loc 1 62 5 view .LVU35
 246 0014 0C4C     		ldr	r4, .L18+4
 247 0016 0821     		movs	r1, #8
 248 0018 2046     		mov	r0, r4
 249 001a FFF7FEFF 		bl	HAL_TIM_PWM_Start
 250              	.LVL18:
  63:Core/drogui/test/pwm_test.c ****     HAL_TIM_PWM_Start(&htim4, TIM_CHANNEL_4);
 251              		.loc 1 63 5 view .LVU36
 252 001e 0C21     		movs	r1, #12
 253 0020 2046     		mov	r0, r4
 254 0022 FFF7FEFF 		bl	HAL_TIM_PWM_Start
 255              	.LVL19:
  64:Core/drogui/test/pwm_test.c **** 
  65:Core/drogui/test/pwm_test.c ****     blinkHandle = osThreadNew(blinkTask, NULL, &blinkAttributes);
 256              		.loc 1 65 5 view .LVU37
 257              		.loc 1 65 19 is_stmt 0 view .LVU38
 258 0026 094A     		ldr	r2, .L18+8
 259 0028 0021     		movs	r1, #0
 260 002a 0948     		ldr	r0, .L18+12
 261 002c FFF7FEFF 		bl	osThreadNew
 262              	.LVL20:
 263              		.loc 1 65 17 view .LVU39
 264 0030 084B     		ldr	r3, .L18+16
 265 0032 1860     		str	r0, [r3]
  66:Core/drogui/test/pwm_test.c ****     //debugHandle = osThreadNew(debugTask, NULL, &debugAttributes);
  67:Core/drogui/test/pwm_test.c ****     pwmHandle = osThreadNew(pwmTask, NULL, &pwmAttributes);
 266              		.loc 1 67 5 is_stmt 1 view .LVU40
 267              		.loc 1 67 17 is_stmt 0 view .LVU41
 268 0034 084A     		ldr	r2, .L18+20
 269 0036 0021     		movs	r1, #0
 270 0038 0848     		ldr	r0, .L18+24
 271 003a FFF7FEFF 		bl	osThreadNew
 272              	.LVL21:
 273              		.loc 1 67 15 view .LVU42
 274 003e 084B     		ldr	r3, .L18+28
 275 0040 1860     		str	r0, [r3]
  68:Core/drogui/test/pwm_test.c ****     
  69:Core/drogui/test/pwm_test.c **** }
ARM GAS  C:\Users\GUILLE~1\AppData\Local\Temp\cccyfgax.s 			page 7


 276              		.loc 1 69 1 view .LVU43
 277 0042 10BD     		pop	{r4, pc}
 278              	.L19:
 279              		.align	2
 280              	.L18:
 281 0044 00000000 		.word	htim3
 282 0048 00000000 		.word	htim4
 283 004c 00000000 		.word	.LANCHOR1
 284 0050 00000000 		.word	blinkTask
 285 0054 00000000 		.word	.LANCHOR2
 286 0058 00000000 		.word	.LANCHOR3
 287 005c 00000000 		.word	pwmTask
 288 0060 00000000 		.word	.LANCHOR4
 289              		.cfi_endproc
 290              	.LFE184:
 292              		.global	buff
 293              		.global	pwmAttributes
 294              		.section	.rodata.str1.4,"aMS",%progbits,1
 295              		.align	2
 296              	.LC1:
 297 0000 70776D54 		.ascii	"pwmTask\000"
 297      61736B00 
 298              		.global	pwmHandle
 299              		.global	blinkAttributes
 300              		.align	2
 301              	.LC2:
 302 0008 626C696E 		.ascii	"blinkTask\000"
 302      6B546173 
 302      6B00
 303              		.global	blinkHandle
 304              		.global	debugAttributes
 305 0012 0000     		.align	2
 306              	.LC3:
 307 0014 64656275 		.ascii	"debugTask\000"
 307      67546173 
 307      6B00
 308              		.global	debugHandle
 309              		.section	.bss.blinkHandle,"aw",%nobits
 310              		.align	2
 311              		.set	.LANCHOR2,. + 0
 314              	blinkHandle:
 315 0000 00000000 		.space	4
 316              		.section	.bss.debugHandle,"aw",%nobits
 317              		.align	2
 320              	debugHandle:
 321 0000 00000000 		.space	4
 322              		.section	.bss.pwmHandle,"aw",%nobits
 323              		.align	2
 324              		.set	.LANCHOR4,. + 0
 327              	pwmHandle:
 328 0000 00000000 		.space	4
 329              		.section	.data.buff,"aw"
 330              		.align	2
 331              		.set	.LANCHOR0,. + 0
 334              	buff:
 335 0000 686F6C61 		.ascii	"hola\012\000"
 335      0A00
ARM GAS  C:\Users\GUILLE~1\AppData\Local\Temp\cccyfgax.s 			page 8


 336 0006 00000000 		.space	44
 336      00000000 
 336      00000000 
 336      00000000 
 336      00000000 
 337              		.section	.rodata.blinkAttributes,"a"
 338              		.align	2
 339              		.set	.LANCHOR1,. + 0
 342              	blinkAttributes:
 343 0000 08000000 		.word	.LC2
 344 0004 00000000 		.space	16
 344      00000000 
 344      00000000 
 344      00000000 
 345 0014 00020000 		.word	512
 346 0018 18000000 		.word	24
 347 001c 00000000 		.space	8
 347      00000000 
 348              		.section	.rodata.debugAttributes,"a"
 349              		.align	2
 352              	debugAttributes:
 353 0000 14000000 		.word	.LC3
 354 0004 00000000 		.space	16
 354      00000000 
 354      00000000 
 354      00000000 
 355 0014 00080000 		.word	2048
 356 0018 18000000 		.word	24
 357 001c 00000000 		.space	8
 357      00000000 
 358              		.section	.rodata.pwmAttributes,"a"
 359              		.align	2
 360              		.set	.LANCHOR3,. + 0
 363              	pwmAttributes:
 364 0000 00000000 		.word	.LC1
 365 0004 00000000 		.space	16
 365      00000000 
 365      00000000 
 365      00000000 
 366 0014 00020000 		.word	512
 367 0018 18000000 		.word	24
 368 001c 00000000 		.space	8
 368      00000000 
 369              		.text
 370              	.Letext0:
 371              		.file 2 "c:\\program files (x86)\\gnu arm embedded toolchain\\10 2020-q4-major\\arm-none-eabi\\inc
 372              		.file 3 "c:\\program files (x86)\\gnu arm embedded toolchain\\10 2020-q4-major\\arm-none-eabi\\inc
 373              		.file 4 "Drivers/CMSIS/Device/ST/STM32F7xx/Include/stm32f746xx.h"
 374              		.file 5 "Drivers/STM32F7xx_HAL_Driver/Inc/stm32f7xx_hal_def.h"
 375              		.file 6 "Drivers/STM32F7xx_HAL_Driver/Inc/stm32f7xx_hal_dma.h"
 376              		.file 7 "Drivers/STM32F7xx_HAL_Driver/Inc/stm32f7xx_hal_tim.h"
 377              		.file 8 "Drivers/STM32F7xx_HAL_Driver/Inc/stm32f7xx_hal_uart.h"
 378              		.file 9 "Middlewares/Third_Party/FreeRTOS/Source/CMSIS_RTOS_V2/cmsis_os2.h"
 379              		.file 10 "Core/drogui/include/MPU9250.h"
 380              		.file 11 "Core/drogui/include/sensorsTasks.h"
 381              		.file 12 "Core/Inc/usart.h"
 382              		.file 13 "Core/Inc/tim.h"
ARM GAS  C:\Users\GUILLE~1\AppData\Local\Temp\cccyfgax.s 			page 9


 383              		.file 14 "c:\\program files (x86)\\gnu arm embedded toolchain\\10 2020-q4-major\\arm-none-eabi\\in
 384              		.file 15 "c:\\program files (x86)\\gnu arm embedded toolchain\\10 2020-q4-major\\arm-none-eabi\\in
 385              		.file 16 "Drivers/STM32F7xx_HAL_Driver/Inc/stm32f7xx_hal_gpio.h"
ARM GAS  C:\Users\GUILLE~1\AppData\Local\Temp\cccyfgax.s 			page 10

