ARM GAS  C:\Users\julit\AppData\Local\Temp\cc2FQTxk.s 			page 1


   1              		.cpu cortex-m7
   2              		.eabi_attribute 27, 1
   3              		.eabi_attribute 28, 1
   4              		.eabi_attribute 20, 1
   5              		.eabi_attribute 21, 1
   6              		.eabi_attribute 23, 3
   7              		.eabi_attribute 24, 1
   8              		.eabi_attribute 25, 1
   9              		.eabi_attribute 26, 1
  10              		.eabi_attribute 30, 1
  11              		.eabi_attribute 34, 1
  12              		.eabi_attribute 18, 4
  13              		.file	"sensorsTasks.c"
  14              		.text
  15              	.Ltext0:
  16              		.cfi_sections	.debug_frame
  17              		.section	.text.accelTask,"ax",%progbits
  18              		.align	1
  19              		.global	accelTask
  20              		.arch armv7e-m
  21              		.syntax unified
  22              		.thumb
  23              		.thumb_func
  24              		.fpu fpv5-sp-d16
  26              	accelTask:
  27              	.LFB177:
  28              		.file 1 "Core/drogui/src/sensorsTasks.c"
   1:Core/drogui/src/sensorsTasks.c **** #include "sensorsTasks.h"
   2:Core/drogui/src/sensorsTasks.c **** #include "mahony.h"
   3:Core/drogui/src/sensorsTasks.c **** #include "task.h"
   4:Core/drogui/src/sensorsTasks.c **** #include "usart.h"
   5:Core/drogui/src/sensorsTasks.c **** #include <stdio.h>
   6:Core/drogui/src/sensorsTasks.c **** #include <string.h>
   7:Core/drogui/src/sensorsTasks.c **** 
   8:Core/drogui/src/sensorsTasks.c **** 
   9:Core/drogui/src/sensorsTasks.c **** mpu9250 myIMU;
  10:Core/drogui/src/sensorsTasks.c **** 
  11:Core/drogui/src/sensorsTasks.c **** filter filter_gx, filter_gy, filter_gz;
  12:Core/drogui/src/sensorsTasks.c **** filter filter_gx2, filter_gy2, filter_gz2;
  13:Core/drogui/src/sensorsTasks.c **** dNotchFilter dnotch_gx, dnotch_gy, dnotch_gz; 
  14:Core/drogui/src/sensorsTasks.c **** dNotchFilter dnotch_gx2, dnotch_gy2, dnotch_gz2;
  15:Core/drogui/src/sensorsTasks.c **** 
  16:Core/drogui/src/sensorsTasks.c **** 
  17:Core/drogui/src/sensorsTasks.c **** filter filter_ax, filter_ay, filter_az;
  18:Core/drogui/src/sensorsTasks.c **** dNotchFilter dnotch_ax, dnotch_ay, dnotch_az; 
  19:Core/drogui/src/sensorsTasks.c **** 
  20:Core/drogui/src/sensorsTasks.c **** filter filter_roll, filter_pitch, filter_yaw;
  21:Core/drogui/src/sensorsTasks.c **** float roll, pitch, yaw, ax, ay, az, gx, gy, gz, mx, my, mz, x, y, z;
  22:Core/drogui/src/sensorsTasks.c **** 
  23:Core/drogui/src/sensorsTasks.c **** bmp388 myBMP;
  24:Core/drogui/src/sensorsTasks.c **** float altitude;
  25:Core/drogui/src/sensorsTasks.c **** 
  26:Core/drogui/src/sensorsTasks.c **** emaFilter ema_bmp;
  27:Core/drogui/src/sensorsTasks.c **** mvAvgFilter mvAvg_bmp;
  28:Core/drogui/src/sensorsTasks.c **** 
  29:Core/drogui/src/sensorsTasks.c **** 
  30:Core/drogui/src/sensorsTasks.c **** void accelTask(){   
ARM GAS  C:\Users\julit\AppData\Local\Temp\cc2FQTxk.s 			page 2


  29              		.loc 1 30 17 view -0
  30              		.cfi_startproc
  31              		@ args = 0, pretend = 0, frame = 0
  32              		@ frame_needed = 0, uses_anonymous_args = 0
  33 0000 70B5     		push	{r4, r5, r6, lr}
  34              	.LCFI0:
  35              		.cfi_def_cfa_offset 16
  36              		.cfi_offset 4, -16
  37              		.cfi_offset 5, -12
  38              		.cfi_offset 6, -8
  39              		.cfi_offset 14, -4
  31:Core/drogui/src/sensorsTasks.c ****     readAcc(&myIMU);
  40              		.loc 1 31 5 view .LVU1
  41 0002 204C     		ldr	r4, .L3
  42 0004 2046     		mov	r0, r4
  43 0006 FFF7FEFF 		bl	readAcc
  44              	.LVL0:
  32:Core/drogui/src/sensorsTasks.c **** 
  33:Core/drogui/src/sensorsTasks.c ****     ax = computeFilter(&filter_ax, myIMU.ax);
  45              		.loc 1 33 5 view .LVU2
  46              		.loc 1 33 10 is_stmt 0 view .LVU3
  47 000a 94ED000A 		vldr.32	s0, [r4]
  48 000e 1E48     		ldr	r0, .L3+4
  49 0010 FFF7FEFF 		bl	computeFilter
  50              	.LVL1:
  51              		.loc 1 33 8 view .LVU4
  52 0014 1D4E     		ldr	r6, .L3+8
  53 0016 86ED000A 		vstr.32	s0, [r6]
  34:Core/drogui/src/sensorsTasks.c ****     ay = computeFilter(&filter_ay, myIMU.ay);
  54              		.loc 1 34 5 is_stmt 1 view .LVU5
  55              		.loc 1 34 10 is_stmt 0 view .LVU6
  56 001a 94ED010A 		vldr.32	s0, [r4, #4]
  57 001e 1C48     		ldr	r0, .L3+12
  58 0020 FFF7FEFF 		bl	computeFilter
  59              	.LVL2:
  60              		.loc 1 34 8 view .LVU7
  61 0024 1B4D     		ldr	r5, .L3+16
  62 0026 85ED000A 		vstr.32	s0, [r5]
  35:Core/drogui/src/sensorsTasks.c ****     az = computeFilter(&filter_az, myIMU.az);
  63              		.loc 1 35 5 is_stmt 1 view .LVU8
  64              		.loc 1 35 10 is_stmt 0 view .LVU9
  65 002a 94ED020A 		vldr.32	s0, [r4, #8]
  66 002e 1A48     		ldr	r0, .L3+20
  67 0030 FFF7FEFF 		bl	computeFilter
  68              	.LVL3:
  69              		.loc 1 35 8 view .LVU10
  70 0034 194C     		ldr	r4, .L3+24
  71 0036 84ED000A 		vstr.32	s0, [r4]
  36:Core/drogui/src/sensorsTasks.c **** 
  37:Core/drogui/src/sensorsTasks.c **** 
  38:Core/drogui/src/sensorsTasks.c ****     ax = computeDNotch(&dnotch_ax, ax);
  72              		.loc 1 38 5 is_stmt 1 view .LVU11
  73              		.loc 1 38 10 is_stmt 0 view .LVU12
  74 003a 96ED000A 		vldr.32	s0, [r6]
  75 003e 1848     		ldr	r0, .L3+28
  76 0040 FFF7FEFF 		bl	computeDNotch
  77              	.LVL4:
ARM GAS  C:\Users\julit\AppData\Local\Temp\cc2FQTxk.s 			page 3


  78              		.loc 1 38 8 view .LVU13
  79 0044 86ED000A 		vstr.32	s0, [r6]
  39:Core/drogui/src/sensorsTasks.c ****     ay = computeDNotch(&dnotch_ay, ay);
  80              		.loc 1 39 5 is_stmt 1 view .LVU14
  81              		.loc 1 39 10 is_stmt 0 view .LVU15
  82 0048 95ED000A 		vldr.32	s0, [r5]
  83 004c 1548     		ldr	r0, .L3+32
  84 004e FFF7FEFF 		bl	computeDNotch
  85              	.LVL5:
  86              		.loc 1 39 8 view .LVU16
  87 0052 85ED000A 		vstr.32	s0, [r5]
  40:Core/drogui/src/sensorsTasks.c ****     az = computeDNotch(&dnotch_az, az);
  88              		.loc 1 40 5 is_stmt 1 view .LVU17
  89              		.loc 1 40 10 is_stmt 0 view .LVU18
  90 0056 94ED000A 		vldr.32	s0, [r4]
  91 005a 1348     		ldr	r0, .L3+36
  92 005c FFF7FEFF 		bl	computeDNotch
  93              	.LVL6:
  94              		.loc 1 40 8 view .LVU19
  95 0060 84ED000A 		vstr.32	s0, [r4]
  41:Core/drogui/src/sensorsTasks.c **** 
  42:Core/drogui/src/sensorsTasks.c ****     setReg(ACC_X,(float)(ax));
  96              		.loc 1 42 5 is_stmt 1 view .LVU20
  97 0064 96ED000A 		vldr.32	s0, [r6]
  98 0068 7420     		movs	r0, #116
  99 006a FFF7FEFF 		bl	setReg
 100              	.LVL7:
  43:Core/drogui/src/sensorsTasks.c ****     setReg(ACC_Y,(float)(ay));
 101              		.loc 1 43 5 view .LVU21
 102 006e 95ED000A 		vldr.32	s0, [r5]
 103 0072 7620     		movs	r0, #118
 104 0074 FFF7FEFF 		bl	setReg
 105              	.LVL8:
  44:Core/drogui/src/sensorsTasks.c ****     setReg(ACC_Z,(float)(az));
 106              		.loc 1 44 5 view .LVU22
 107 0078 94ED000A 		vldr.32	s0, [r4]
 108 007c 7820     		movs	r0, #120
 109 007e FFF7FEFF 		bl	setReg
 110              	.LVL9:
  45:Core/drogui/src/sensorsTasks.c **** }
 111              		.loc 1 45 1 is_stmt 0 view .LVU23
 112 0082 70BD     		pop	{r4, r5, r6, pc}
 113              	.L4:
 114              		.align	2
 115              	.L3:
 116 0084 00000000 		.word	.LANCHOR0
 117 0088 00000000 		.word	.LANCHOR1
 118 008c 00000000 		.word	.LANCHOR2
 119 0090 00000000 		.word	.LANCHOR3
 120 0094 00000000 		.word	.LANCHOR4
 121 0098 00000000 		.word	.LANCHOR5
 122 009c 00000000 		.word	.LANCHOR6
 123 00a0 00000000 		.word	.LANCHOR7
 124 00a4 00000000 		.word	.LANCHOR8
 125 00a8 00000000 		.word	.LANCHOR9
 126              		.cfi_endproc
 127              	.LFE177:
ARM GAS  C:\Users\julit\AppData\Local\Temp\cc2FQTxk.s 			page 4


 129              		.section	.text.gyroTask,"ax",%progbits
 130              		.align	1
 131              		.global	gyroTask
 132              		.syntax unified
 133              		.thumb
 134              		.thumb_func
 135              		.fpu fpv5-sp-d16
 137              	gyroTask:
 138              	.LFB178:
  46:Core/drogui/src/sensorsTasks.c **** 
  47:Core/drogui/src/sensorsTasks.c **** char buff2[50] = "hola\n";
  48:Core/drogui/src/sensorsTasks.c **** void gyroTask(){
 139              		.loc 1 48 16 is_stmt 1 view -0
 140              		.cfi_startproc
 141              		@ args = 0, pretend = 0, frame = 0
 142              		@ frame_needed = 0, uses_anonymous_args = 0
 143 0000 70B5     		push	{r4, r5, r6, lr}
 144              	.LCFI1:
 145              		.cfi_def_cfa_offset 16
 146              		.cfi_offset 4, -16
 147              		.cfi_offset 5, -12
 148              		.cfi_offset 6, -8
 149              		.cfi_offset 14, -4
  49:Core/drogui/src/sensorsTasks.c **** 
  50:Core/drogui/src/sensorsTasks.c ****     readGyro(&myIMU);
 150              		.loc 1 50 5 view .LVU25
 151 0002 3E4D     		ldr	r5, .L7
 152 0004 2846     		mov	r0, r5
 153 0006 FFF7FEFF 		bl	readGyro
 154              	.LVL10:
  51:Core/drogui/src/sensorsTasks.c **** 
  52:Core/drogui/src/sensorsTasks.c ****     gx = computeFilter(&filter_gx, myIMU.gx);
 155              		.loc 1 52 5 view .LVU26
 156              		.loc 1 52 10 is_stmt 0 view .LVU27
 157 000a 95ED070A 		vldr.32	s0, [r5, #28]
 158 000e 3C48     		ldr	r0, .L7+4
 159 0010 FFF7FEFF 		bl	computeFilter
 160              	.LVL11:
 161              		.loc 1 52 8 view .LVU28
 162 0014 3B4E     		ldr	r6, .L7+8
 163 0016 86ED000A 		vstr.32	s0, [r6]
  53:Core/drogui/src/sensorsTasks.c ****     gy = computeFilter(&filter_gy, myIMU.gy);
 164              		.loc 1 53 5 is_stmt 1 view .LVU29
 165              		.loc 1 53 10 is_stmt 0 view .LVU30
 166 001a 95ED080A 		vldr.32	s0, [r5, #32]
 167 001e 3A48     		ldr	r0, .L7+12
 168 0020 FFF7FEFF 		bl	computeFilter
 169              	.LVL12:
 170              		.loc 1 53 8 view .LVU31
 171 0024 394C     		ldr	r4, .L7+16
 172 0026 84ED000A 		vstr.32	s0, [r4]
  54:Core/drogui/src/sensorsTasks.c ****     gz = computeFilter(&filter_gz, myIMU.gz);
 173              		.loc 1 54 5 is_stmt 1 view .LVU32
 174              		.loc 1 54 10 is_stmt 0 view .LVU33
 175 002a 95ED090A 		vldr.32	s0, [r5, #36]
 176 002e 3848     		ldr	r0, .L7+20
 177 0030 FFF7FEFF 		bl	computeFilter
ARM GAS  C:\Users\julit\AppData\Local\Temp\cc2FQTxk.s 			page 5


 178              	.LVL13:
 179              		.loc 1 54 8 view .LVU34
 180 0034 374D     		ldr	r5, .L7+24
 181 0036 85ED000A 		vstr.32	s0, [r5]
  55:Core/drogui/src/sensorsTasks.c **** 
  56:Core/drogui/src/sensorsTasks.c ****     gx = computeFilter(&filter_gx2, gx);
 182              		.loc 1 56 5 is_stmt 1 view .LVU35
 183              		.loc 1 56 10 is_stmt 0 view .LVU36
 184 003a 96ED000A 		vldr.32	s0, [r6]
 185 003e 3648     		ldr	r0, .L7+28
 186 0040 FFF7FEFF 		bl	computeFilter
 187              	.LVL14:
 188              		.loc 1 56 8 view .LVU37
 189 0044 86ED000A 		vstr.32	s0, [r6]
  57:Core/drogui/src/sensorsTasks.c ****     gy = computeFilter(&filter_gy2, gy);
 190              		.loc 1 57 5 is_stmt 1 view .LVU38
 191              		.loc 1 57 10 is_stmt 0 view .LVU39
 192 0048 94ED000A 		vldr.32	s0, [r4]
 193 004c 3348     		ldr	r0, .L7+32
 194 004e FFF7FEFF 		bl	computeFilter
 195              	.LVL15:
 196              		.loc 1 57 8 view .LVU40
 197 0052 84ED000A 		vstr.32	s0, [r4]
  58:Core/drogui/src/sensorsTasks.c ****     gz = computeFilter(&filter_gz2, gz);
 198              		.loc 1 58 5 is_stmt 1 view .LVU41
 199              		.loc 1 58 10 is_stmt 0 view .LVU42
 200 0056 95ED000A 		vldr.32	s0, [r5]
 201 005a 3148     		ldr	r0, .L7+36
 202 005c FFF7FEFF 		bl	computeFilter
 203              	.LVL16:
 204              		.loc 1 58 8 view .LVU43
 205 0060 85ED000A 		vstr.32	s0, [r5]
  59:Core/drogui/src/sensorsTasks.c **** 
  60:Core/drogui/src/sensorsTasks.c ****     gx = computeDNotch(&dnotch_gx, gx);
 206              		.loc 1 60 5 is_stmt 1 view .LVU44
 207              		.loc 1 60 10 is_stmt 0 view .LVU45
 208 0064 96ED000A 		vldr.32	s0, [r6]
 209 0068 2E48     		ldr	r0, .L7+40
 210 006a FFF7FEFF 		bl	computeDNotch
 211              	.LVL17:
 212              		.loc 1 60 8 view .LVU46
 213 006e 86ED000A 		vstr.32	s0, [r6]
  61:Core/drogui/src/sensorsTasks.c ****     gy = computeDNotch(&dnotch_gy, gy);
 214              		.loc 1 61 5 is_stmt 1 view .LVU47
 215              		.loc 1 61 10 is_stmt 0 view .LVU48
 216 0072 94ED000A 		vldr.32	s0, [r4]
 217 0076 2C48     		ldr	r0, .L7+44
 218 0078 FFF7FEFF 		bl	computeDNotch
 219              	.LVL18:
 220              		.loc 1 61 8 view .LVU49
 221 007c 84ED000A 		vstr.32	s0, [r4]
  62:Core/drogui/src/sensorsTasks.c ****     gz = computeDNotch(&dnotch_gz, gz);
 222              		.loc 1 62 5 is_stmt 1 view .LVU50
 223              		.loc 1 62 10 is_stmt 0 view .LVU51
 224 0080 95ED000A 		vldr.32	s0, [r5]
 225 0084 2948     		ldr	r0, .L7+48
 226 0086 FFF7FEFF 		bl	computeDNotch
ARM GAS  C:\Users\julit\AppData\Local\Temp\cc2FQTxk.s 			page 6


 227              	.LVL19:
 228              		.loc 1 62 8 view .LVU52
 229 008a 85ED000A 		vstr.32	s0, [r5]
  63:Core/drogui/src/sensorsTasks.c **** 
  64:Core/drogui/src/sensorsTasks.c ****     gx = computeDNotch(&dnotch_gx2, gx);
 230              		.loc 1 64 5 is_stmt 1 view .LVU53
 231              		.loc 1 64 10 is_stmt 0 view .LVU54
 232 008e 96ED000A 		vldr.32	s0, [r6]
 233 0092 2748     		ldr	r0, .L7+52
 234 0094 FFF7FEFF 		bl	computeDNotch
 235              	.LVL20:
 236              		.loc 1 64 8 view .LVU55
 237 0098 86ED000A 		vstr.32	s0, [r6]
  65:Core/drogui/src/sensorsTasks.c ****     gy = computeDNotch(&dnotch_gy2, gy);
 238              		.loc 1 65 5 is_stmt 1 view .LVU56
 239              		.loc 1 65 10 is_stmt 0 view .LVU57
 240 009c 94ED000A 		vldr.32	s0, [r4]
 241 00a0 2448     		ldr	r0, .L7+56
 242 00a2 FFF7FEFF 		bl	computeDNotch
 243              	.LVL21:
 244              		.loc 1 65 8 view .LVU58
 245 00a6 84ED000A 		vstr.32	s0, [r4]
  66:Core/drogui/src/sensorsTasks.c ****     gz = computeDNotch(&dnotch_gz2, gz);
 246              		.loc 1 66 5 is_stmt 1 view .LVU59
 247              		.loc 1 66 10 is_stmt 0 view .LVU60
 248 00aa 95ED000A 		vldr.32	s0, [r5]
 249 00ae 2248     		ldr	r0, .L7+60
 250 00b0 FFF7FEFF 		bl	computeDNotch
 251              	.LVL22:
 252 00b4 F0EE407A 		vmov.f32	s15, s0
 253              		.loc 1 66 8 view .LVU61
 254 00b8 85ED000A 		vstr.32	s0, [r5]
  67:Core/drogui/src/sensorsTasks.c ****     
  68:Core/drogui/src/sensorsTasks.c ****     gx /= 5;
 255              		.loc 1 68 5 is_stmt 1 view .LVU62
 256              		.loc 1 68 8 is_stmt 0 view .LVU63
 257 00bc D6ED006A 		vldr.32	s13, [r6]
 258 00c0 B1EE047A 		vmov.f32	s14, #5.0e+0
 259 00c4 86EE870A 		vdiv.f32	s0, s13, s14
 260 00c8 86ED000A 		vstr.32	s0, [r6]
  69:Core/drogui/src/sensorsTasks.c ****     gy /= 5;
 261              		.loc 1 69 5 is_stmt 1 view .LVU64
 262              		.loc 1 69 8 is_stmt 0 view .LVU65
 263 00cc 94ED006A 		vldr.32	s12, [r4]
 264 00d0 C6EE076A 		vdiv.f32	s13, s12, s14
 265 00d4 C4ED006A 		vstr.32	s13, [r4]
  70:Core/drogui/src/sensorsTasks.c ****     gz /= 5; 
 266              		.loc 1 70 5 is_stmt 1 view .LVU66
 267              		.loc 1 70 8 is_stmt 0 view .LVU67
 268 00d8 C7EE876A 		vdiv.f32	s13, s15, s14
 269 00dc C5ED006A 		vstr.32	s13, [r5]
  71:Core/drogui/src/sensorsTasks.c **** 
  72:Core/drogui/src/sensorsTasks.c **** 
  73:Core/drogui/src/sensorsTasks.c ****     setReg(GYRO_X, gx);
 270              		.loc 1 73 5 is_stmt 1 view .LVU68
 271 00e0 7C20     		movs	r0, #124
 272 00e2 FFF7FEFF 		bl	setReg
ARM GAS  C:\Users\julit\AppData\Local\Temp\cc2FQTxk.s 			page 7


 273              	.LVL23:
  74:Core/drogui/src/sensorsTasks.c ****     setReg(GYRO_Y, gy);
 274              		.loc 1 74 5 view .LVU69
 275 00e6 94ED000A 		vldr.32	s0, [r4]
 276 00ea 7E20     		movs	r0, #126
 277 00ec FFF7FEFF 		bl	setReg
 278              	.LVL24:
  75:Core/drogui/src/sensorsTasks.c ****     setReg(GYRO_Z, gz);
 279              		.loc 1 75 5 view .LVU70
 280 00f0 95ED000A 		vldr.32	s0, [r5]
 281 00f4 8020     		movs	r0, #128
 282 00f6 FFF7FEFF 		bl	setReg
 283              	.LVL25:
  76:Core/drogui/src/sensorsTasks.c **** }
 284              		.loc 1 76 1 is_stmt 0 view .LVU71
 285 00fa 70BD     		pop	{r4, r5, r6, pc}
 286              	.L8:
 287              		.align	2
 288              	.L7:
 289 00fc 00000000 		.word	.LANCHOR0
 290 0100 00000000 		.word	.LANCHOR10
 291 0104 00000000 		.word	.LANCHOR11
 292 0108 00000000 		.word	.LANCHOR12
 293 010c 00000000 		.word	.LANCHOR13
 294 0110 00000000 		.word	.LANCHOR14
 295 0114 00000000 		.word	.LANCHOR15
 296 0118 00000000 		.word	.LANCHOR16
 297 011c 00000000 		.word	.LANCHOR17
 298 0120 00000000 		.word	.LANCHOR18
 299 0124 00000000 		.word	.LANCHOR19
 300 0128 00000000 		.word	.LANCHOR20
 301 012c 00000000 		.word	.LANCHOR21
 302 0130 00000000 		.word	.LANCHOR22
 303 0134 00000000 		.word	.LANCHOR23
 304 0138 00000000 		.word	.LANCHOR24
 305              		.cfi_endproc
 306              	.LFE178:
 308              		.section	.text.magTask,"ax",%progbits
 309              		.align	1
 310              		.global	magTask
 311              		.syntax unified
 312              		.thumb
 313              		.thumb_func
 314              		.fpu fpv5-sp-d16
 316              	magTask:
 317              	.LFB179:
  77:Core/drogui/src/sensorsTasks.c **** 
  78:Core/drogui/src/sensorsTasks.c **** void magTask(){
 318              		.loc 1 78 15 is_stmt 1 view -0
 319              		.cfi_startproc
 320              		@ args = 0, pretend = 0, frame = 0
 321              		@ frame_needed = 0, uses_anonymous_args = 0
 322 0000 10B5     		push	{r4, lr}
 323              	.LCFI2:
 324              		.cfi_def_cfa_offset 8
 325              		.cfi_offset 4, -8
 326              		.cfi_offset 14, -4
ARM GAS  C:\Users\julit\AppData\Local\Temp\cc2FQTxk.s 			page 8


  79:Core/drogui/src/sensorsTasks.c ****     readMag(&myIMU);
 327              		.loc 1 79 5 view .LVU73
 328 0002 074C     		ldr	r4, .L11
 329 0004 2046     		mov	r0, r4
 330 0006 FFF7FEFF 		bl	readMag
 331              	.LVL26:
  80:Core/drogui/src/sensorsTasks.c ****     mx = myIMU.mx;
 332              		.loc 1 80 5 view .LVU74
 333              		.loc 1 80 15 is_stmt 0 view .LVU75
 334 000a 626B     		ldr	r2, [r4, #52]	@ float
 335              		.loc 1 80 8 view .LVU76
 336 000c 054B     		ldr	r3, .L11+4
 337 000e 1A60     		str	r2, [r3]	@ float
  81:Core/drogui/src/sensorsTasks.c ****     my = myIMU.my;
 338              		.loc 1 81 5 is_stmt 1 view .LVU77
 339              		.loc 1 81 15 is_stmt 0 view .LVU78
 340 0010 A26B     		ldr	r2, [r4, #56]	@ float
 341              		.loc 1 81 8 view .LVU79
 342 0012 054B     		ldr	r3, .L11+8
 343 0014 1A60     		str	r2, [r3]	@ float
  82:Core/drogui/src/sensorsTasks.c ****     mz = myIMU.mz;
 344              		.loc 1 82 5 is_stmt 1 view .LVU80
 345              		.loc 1 82 15 is_stmt 0 view .LVU81
 346 0016 E26B     		ldr	r2, [r4, #60]	@ float
 347              		.loc 1 82 8 view .LVU82
 348 0018 044B     		ldr	r3, .L11+12
 349 001a 1A60     		str	r2, [r3]	@ float
  83:Core/drogui/src/sensorsTasks.c **** }
 350              		.loc 1 83 1 view .LVU83
 351 001c 10BD     		pop	{r4, pc}
 352              	.L12:
 353 001e 00BF     		.align	2
 354              	.L11:
 355 0020 00000000 		.word	.LANCHOR0
 356 0024 00000000 		.word	.LANCHOR25
 357 0028 00000000 		.word	.LANCHOR26
 358 002c 00000000 		.word	.LANCHOR27
 359              		.cfi_endproc
 360              	.LFE179:
 362              		.section	.text.rpyTask,"ax",%progbits
 363              		.align	1
 364              		.global	rpyTask
 365              		.syntax unified
 366              		.thumb
 367              		.thumb_func
 368              		.fpu fpv5-sp-d16
 370              	rpyTask:
 371              	.LFB180:
  84:Core/drogui/src/sensorsTasks.c **** 
  85:Core/drogui/src/sensorsTasks.c **** float Kdfilt = 0.01;
  86:Core/drogui/src/sensorsTasks.c **** void rpyTask(){
 372              		.loc 1 86 15 is_stmt 1 view -0
 373              		.cfi_startproc
 374              		@ args = 0, pretend = 0, frame = 16
 375              		@ frame_needed = 0, uses_anonymous_args = 0
 376 0000 70B5     		push	{r4, r5, r6, lr}
 377              	.LCFI3:
ARM GAS  C:\Users\julit\AppData\Local\Temp\cc2FQTxk.s 			page 9


 378              		.cfi_def_cfa_offset 16
 379              		.cfi_offset 4, -16
 380              		.cfi_offset 5, -12
 381              		.cfi_offset 6, -8
 382              		.cfi_offset 14, -4
 383 0002 84B0     		sub	sp, sp, #16
 384              	.LCFI4:
 385              		.cfi_def_cfa_offset 32
  87:Core/drogui/src/sensorsTasks.c ****     
  88:Core/drogui/src/sensorsTasks.c ****     float rpy[3];
 386              		.loc 1 88 5 view .LVU85
  89:Core/drogui/src/sensorsTasks.c ****     mahonyUpdate(gx*PI/360.0f, gy*PI/360.0f, gz*PI/360.0f, ax, ay, az, my, mx, mz);
 387              		.loc 1 89 5 view .LVU86
 388              		.loc 1 89 20 is_stmt 0 view .LVU87
 389 0004 2F4B     		ldr	r3, .L15
 390 0006 93ED000A 		vldr.32	s0, [r3]
 391 000a DFED2F7A 		vldr.32	s15, .L15+4
 392 000e 20EE270A 		vmul.f32	s0, s0, s15
 393              		.loc 1 89 34 view .LVU88
 394 0012 2E4B     		ldr	r3, .L15+8
 395 0014 D3ED000A 		vldr.32	s1, [r3]
 396 0018 60EEA70A 		vmul.f32	s1, s1, s15
 397              		.loc 1 89 48 view .LVU89
 398 001c 2C4B     		ldr	r3, .L15+12
 399 001e 93ED001A 		vldr.32	s2, [r3]
 400 0022 21EE271A 		vmul.f32	s2, s2, s15
 401              		.loc 1 89 5 view .LVU90
 402 0026 DFED2B7A 		vldr.32	s15, .L15+16
 403 002a 2B4B     		ldr	r3, .L15+20
 404 002c 93ED004A 		vldr.32	s8, [r3]
 405 0030 2A4B     		ldr	r3, .L15+24
 406 0032 D3ED003A 		vldr.32	s7, [r3]
 407 0036 2A4B     		ldr	r3, .L15+28
 408 0038 93ED003A 		vldr.32	s6, [r3]
 409 003c 294B     		ldr	r3, .L15+32
 410 003e D3ED002A 		vldr.32	s5, [r3]
 411 0042 294B     		ldr	r3, .L15+36
 412 0044 93ED002A 		vldr.32	s4, [r3]
 413 0048 284B     		ldr	r3, .L15+40
 414 004a D3ED001A 		vldr.32	s3, [r3]
 415 004e 81EE271A 		vdiv.f32	s2, s2, s15
 416 0052 C0EEA70A 		vdiv.f32	s1, s1, s15
 417 0056 80EE270A 		vdiv.f32	s0, s0, s15
 418 005a FFF7FEFF 		bl	mahonyUpdate
 419              	.LVL27:
  90:Core/drogui/src/sensorsTasks.c ****     getMahonyEuler(rpy);
 420              		.loc 1 90 5 is_stmt 1 view .LVU91
 421 005e 01A8     		add	r0, sp, #4
 422 0060 FFF7FEFF 		bl	getMahonyEuler
 423              	.LVL28:
  91:Core/drogui/src/sensorsTasks.c ****     roll = rpy[0], pitch = rpy[1], yaw = rpy[2];
 424              		.loc 1 91 5 view .LVU92
 425              		.loc 1 91 15 is_stmt 0 view .LVU93
 426 0064 9DED010A 		vldr.32	s0, [sp, #4]
 427              		.loc 1 91 10 view .LVU94
 428 0068 214E     		ldr	r6, .L15+44
 429 006a 86ED000A 		vstr.32	s0, [r6]
ARM GAS  C:\Users\julit\AppData\Local\Temp\cc2FQTxk.s 			page 10


 430              		.loc 1 91 26 view .LVU95
 431 006e 214D     		ldr	r5, .L15+48
 432 0070 029B     		ldr	r3, [sp, #8]	@ float
 433 0072 2B60     		str	r3, [r5]	@ float
 434              		.loc 1 91 40 view .LVU96
 435 0074 204C     		ldr	r4, .L15+52
 436 0076 039B     		ldr	r3, [sp, #12]	@ float
 437 0078 2360     		str	r3, [r4]	@ float
  92:Core/drogui/src/sensorsTasks.c ****     
  93:Core/drogui/src/sensorsTasks.c ****     /*roll += fmax(fmin(Kdfilt, (rpy[0] - roll)),-Kdfilt);
  94:Core/drogui/src/sensorsTasks.c ****     pitch += fmax(fmin(Kdfilt, (rpy[1] - pitch)),-Kdfilt);
  95:Core/drogui/src/sensorsTasks.c ****     yaw += fmax(fmin(Kdfilt,(rpy[2] - yaw)),-Kdfilt);*/
  96:Core/drogui/src/sensorsTasks.c **** 
  97:Core/drogui/src/sensorsTasks.c ****     roll = computeFilter(&filter_roll, roll);
 438              		.loc 1 97 5 is_stmt 1 view .LVU97
 439              		.loc 1 97 12 is_stmt 0 view .LVU98
 440 007a 2048     		ldr	r0, .L15+56
 441 007c FFF7FEFF 		bl	computeFilter
 442              	.LVL29:
 443              		.loc 1 97 10 view .LVU99
 444 0080 86ED000A 		vstr.32	s0, [r6]
  98:Core/drogui/src/sensorsTasks.c ****     pitch = computeFilter(&filter_pitch, pitch);
 445              		.loc 1 98 5 is_stmt 1 view .LVU100
 446              		.loc 1 98 13 is_stmt 0 view .LVU101
 447 0084 95ED000A 		vldr.32	s0, [r5]
 448 0088 1D48     		ldr	r0, .L15+60
 449 008a FFF7FEFF 		bl	computeFilter
 450              	.LVL30:
 451              		.loc 1 98 11 view .LVU102
 452 008e 85ED000A 		vstr.32	s0, [r5]
  99:Core/drogui/src/sensorsTasks.c ****     yaw = computeFilter(&filter_yaw, yaw);
 453              		.loc 1 99 5 is_stmt 1 view .LVU103
 454              		.loc 1 99 11 is_stmt 0 view .LVU104
 455 0092 94ED000A 		vldr.32	s0, [r4]
 456 0096 1B48     		ldr	r0, .L15+64
 457 0098 FFF7FEFF 		bl	computeFilter
 458              	.LVL31:
 459              		.loc 1 99 9 view .LVU105
 460 009c 84ED000A 		vstr.32	s0, [r4]
 100:Core/drogui/src/sensorsTasks.c **** 
 101:Core/drogui/src/sensorsTasks.c **** 
 102:Core/drogui/src/sensorsTasks.c ****     setReg(ROLL_VAL, roll);
 461              		.loc 1 102 5 is_stmt 1 view .LVU106
 462 00a0 96ED000A 		vldr.32	s0, [r6]
 463 00a4 2E20     		movs	r0, #46
 464 00a6 FFF7FEFF 		bl	setReg
 465              	.LVL32:
 103:Core/drogui/src/sensorsTasks.c ****     setReg(PITCH_VAL, pitch);
 466              		.loc 1 103 5 view .LVU107
 467 00aa 95ED000A 		vldr.32	s0, [r5]
 468 00ae 3020     		movs	r0, #48
 469 00b0 FFF7FEFF 		bl	setReg
 470              	.LVL33:
 104:Core/drogui/src/sensorsTasks.c ****     setReg(YAW_VAL, yaw);
 471              		.loc 1 104 5 view .LVU108
 472 00b4 94ED000A 		vldr.32	s0, [r4]
 473 00b8 3220     		movs	r0, #50
ARM GAS  C:\Users\julit\AppData\Local\Temp\cc2FQTxk.s 			page 11


 474 00ba FFF7FEFF 		bl	setReg
 475              	.LVL34:
 105:Core/drogui/src/sensorsTasks.c **** }
 476              		.loc 1 105 1 is_stmt 0 view .LVU109
 477 00be 04B0     		add	sp, sp, #16
 478              	.LCFI5:
 479              		.cfi_def_cfa_offset 16
 480              		@ sp needed
 481 00c0 70BD     		pop	{r4, r5, r6, pc}
 482              	.L16:
 483 00c2 00BF     		.align	2
 484              	.L15:
 485 00c4 00000000 		.word	.LANCHOR11
 486 00c8 DB0F4940 		.word	1078530011
 487 00cc 00000000 		.word	.LANCHOR13
 488 00d0 00000000 		.word	.LANCHOR15
 489 00d4 0000B443 		.word	1135869952
 490 00d8 00000000 		.word	.LANCHOR27
 491 00dc 00000000 		.word	.LANCHOR25
 492 00e0 00000000 		.word	.LANCHOR26
 493 00e4 00000000 		.word	.LANCHOR6
 494 00e8 00000000 		.word	.LANCHOR4
 495 00ec 00000000 		.word	.LANCHOR2
 496 00f0 00000000 		.word	.LANCHOR28
 497 00f4 00000000 		.word	.LANCHOR29
 498 00f8 00000000 		.word	.LANCHOR30
 499 00fc 00000000 		.word	.LANCHOR31
 500 0100 00000000 		.word	.LANCHOR32
 501 0104 00000000 		.word	.LANCHOR33
 502              		.cfi_endproc
 503              	.LFE180:
 505              		.section	.text.altitudeTask,"ax",%progbits
 506              		.align	1
 507              		.global	altitudeTask
 508              		.syntax unified
 509              		.thumb
 510              		.thumb_func
 511              		.fpu fpv5-sp-d16
 513              	altitudeTask:
 514              	.LFB181:
 106:Core/drogui/src/sensorsTasks.c **** 
 107:Core/drogui/src/sensorsTasks.c **** void altitudeTask(){
 515              		.loc 1 107 20 is_stmt 1 view -0
 516              		.cfi_startproc
 517              		@ args = 0, pretend = 0, frame = 0
 518              		@ frame_needed = 0, uses_anonymous_args = 0
 519 0000 10B5     		push	{r4, lr}
 520              	.LCFI6:
 521              		.cfi_def_cfa_offset 8
 522              		.cfi_offset 4, -8
 523              		.cfi_offset 14, -4
 108:Core/drogui/src/sensorsTasks.c ****     
 109:Core/drogui/src/sensorsTasks.c ****     bmp388ReadAltitude(&myBMP);
 524              		.loc 1 109 5 view .LVU111
 525 0002 0A4C     		ldr	r4, .L19
 526 0004 2046     		mov	r0, r4
 527 0006 FFF7FEFF 		bl	bmp388ReadAltitude
ARM GAS  C:\Users\julit\AppData\Local\Temp\cc2FQTxk.s 			page 12


 528              	.LVL35:
 110:Core/drogui/src/sensorsTasks.c ****     altitude = compueteMvAvgFilter( &mvAvg_bmp, myBMP.altitude );
 529              		.loc 1 110 5 view .LVU112
 530              		.loc 1 110 16 is_stmt 0 view .LVU113
 531 000a 94ED030A 		vldr.32	s0, [r4, #12]
 532 000e 0848     		ldr	r0, .L19+4
 533 0010 FFF7FEFF 		bl	compueteMvAvgFilter
 534              	.LVL36:
 535              		.loc 1 110 14 view .LVU114
 536 0014 074C     		ldr	r4, .L19+8
 537 0016 84ED000A 		vstr.32	s0, [r4]
 111:Core/drogui/src/sensorsTasks.c ****     altitude = computeEmaFilter( &ema_bmp, altitude );
 538              		.loc 1 111 5 is_stmt 1 view .LVU115
 539              		.loc 1 111 16 is_stmt 0 view .LVU116
 540 001a 0748     		ldr	r0, .L19+12
 541 001c FFF7FEFF 		bl	computeEmaFilter
 542              	.LVL37:
 543              		.loc 1 111 14 view .LVU117
 544 0020 84ED000A 		vstr.32	s0, [r4]
 112:Core/drogui/src/sensorsTasks.c **** 
 113:Core/drogui/src/sensorsTasks.c ****     setReg(Z_VAL,altitude);
 545              		.loc 1 113 5 is_stmt 1 view .LVU118
 546 0024 3820     		movs	r0, #56
 547 0026 FFF7FEFF 		bl	setReg
 548              	.LVL38:
 114:Core/drogui/src/sensorsTasks.c **** 
 115:Core/drogui/src/sensorsTasks.c **** }
 549              		.loc 1 115 1 is_stmt 0 view .LVU119
 550 002a 10BD     		pop	{r4, pc}
 551              	.L20:
 552              		.align	2
 553              	.L19:
 554 002c 00000000 		.word	.LANCHOR34
 555 0030 00000000 		.word	.LANCHOR35
 556 0034 00000000 		.word	.LANCHOR36
 557 0038 00000000 		.word	.LANCHOR37
 558              		.cfi_endproc
 559              	.LFE181:
 561              		.section	.text.initSensorsTasks,"ax",%progbits
 562              		.align	1
 563              		.global	initSensorsTasks
 564              		.syntax unified
 565              		.thumb
 566              		.thumb_func
 567              		.fpu fpv5-sp-d16
 569              	initSensorsTasks:
 570              	.LFB182:
 116:Core/drogui/src/sensorsTasks.c **** 
 117:Core/drogui/src/sensorsTasks.c **** void initSensorsTasks(){
 571              		.loc 1 117 24 is_stmt 1 view -0
 572              		.cfi_startproc
 573              		@ args = 0, pretend = 0, frame = 0
 574              		@ frame_needed = 0, uses_anonymous_args = 0
 575 0000 2DE9F041 		push	{r4, r5, r6, r7, r8, lr}
 576              	.LCFI7:
 577              		.cfi_def_cfa_offset 24
 578              		.cfi_offset 4, -24
ARM GAS  C:\Users\julit\AppData\Local\Temp\cc2FQTxk.s 			page 13


 579              		.cfi_offset 5, -20
 580              		.cfi_offset 6, -16
 581              		.cfi_offset 7, -12
 582              		.cfi_offset 8, -8
 583              		.cfi_offset 14, -4
 584 0004 2DED028B 		vpush.64	{d8}
 585              	.LCFI8:
 586              		.cfi_def_cfa_offset 32
 587              		.cfi_offset 80, -32
 588              		.cfi_offset 81, -28
 118:Core/drogui/src/sensorsTasks.c ****     
 119:Core/drogui/src/sensorsTasks.c ****     initMpu(&myIMU);
 589              		.loc 1 119 5 view .LVU121
 590 0008 804E     		ldr	r6, .L23
 591 000a 3046     		mov	r0, r6
 592 000c FFF7FEFF 		bl	initMpu
 593              	.LVL39:
 120:Core/drogui/src/sensorsTasks.c **** 
 121:Core/drogui/src/sensorsTasks.c ****     initFilter(&filter_gx, 4 , k_1_10, v_1_10);
 594              		.loc 1 121 5 view .LVU122
 595 0010 7F4D     		ldr	r5, .L23+4
 596 0012 804C     		ldr	r4, .L23+8
 597 0014 2B46     		mov	r3, r5
 598 0016 2246     		mov	r2, r4
 599 0018 0421     		movs	r1, #4
 600 001a 7F48     		ldr	r0, .L23+12
 601 001c FFF7FEFF 		bl	initFilter
 602              	.LVL40:
 122:Core/drogui/src/sensorsTasks.c ****     initFilter(&filter_gy, 4 , k_1_10, v_1_10);
 603              		.loc 1 122 5 view .LVU123
 604 0020 2B46     		mov	r3, r5
 605 0022 2246     		mov	r2, r4
 606 0024 0421     		movs	r1, #4
 607 0026 7D48     		ldr	r0, .L23+16
 608 0028 FFF7FEFF 		bl	initFilter
 609              	.LVL41:
 123:Core/drogui/src/sensorsTasks.c ****     initFilter(&filter_gz, 4 , k_1_10, v_1_10);
 610              		.loc 1 123 5 view .LVU124
 611 002c 2B46     		mov	r3, r5
 612 002e 2246     		mov	r2, r4
 613 0030 0421     		movs	r1, #4
 614 0032 7B48     		ldr	r0, .L23+20
 615 0034 FFF7FEFF 		bl	initFilter
 616              	.LVL42:
 124:Core/drogui/src/sensorsTasks.c **** 
 125:Core/drogui/src/sensorsTasks.c ****     initFilter(&filter_gx2, 5 , k_3_10, v_3_10);
 617              		.loc 1 125 5 view .LVU125
 618 0038 DFF87082 		ldr	r8, .L23+160
 619 003c 794F     		ldr	r7, .L23+24
 620 003e 4346     		mov	r3, r8
 621 0040 3A46     		mov	r2, r7
 622 0042 0521     		movs	r1, #5
 623 0044 7848     		ldr	r0, .L23+28
 624 0046 FFF7FEFF 		bl	initFilter
 625              	.LVL43:
 126:Core/drogui/src/sensorsTasks.c ****     initFilter(&filter_gy2, 5 , k_3_10, v_3_10);
 626              		.loc 1 126 5 view .LVU126
ARM GAS  C:\Users\julit\AppData\Local\Temp\cc2FQTxk.s 			page 14


 627 004a 4346     		mov	r3, r8
 628 004c 3A46     		mov	r2, r7
 629 004e 0521     		movs	r1, #5
 630 0050 7648     		ldr	r0, .L23+32
 631 0052 FFF7FEFF 		bl	initFilter
 632              	.LVL44:
 127:Core/drogui/src/sensorsTasks.c ****     initFilter(&filter_gz2, 5 , k_3_10, v_3_10);
 633              		.loc 1 127 5 view .LVU127
 634 0056 4346     		mov	r3, r8
 635 0058 3A46     		mov	r2, r7
 636 005a 0521     		movs	r1, #5
 637 005c 7448     		ldr	r0, .L23+36
 638 005e FFF7FEFF 		bl	initFilter
 639              	.LVL45:
 128:Core/drogui/src/sensorsTasks.c **** 
 129:Core/drogui/src/sensorsTasks.c ****     initDNotchFilter(&dnotch_gx, 64, 50, 1000, 1, 10);
 640              		.loc 1 129 5 view .LVU128
 641 0062 9FED748A 		vldr.32	s16, .L23+40
 642 0066 DFED748A 		vldr.32	s17, .L23+44
 643 006a F2EE041A 		vmov.f32	s3, #1.0e+1
 644 006e B7EE001A 		vmov.f32	s2, #1.0e+0
 645 0072 F0EE480A 		vmov.f32	s1, s16
 646 0076 B0EE680A 		vmov.f32	s0, s17
 647 007a 4021     		movs	r1, #64
 648 007c 6F48     		ldr	r0, .L23+48
 649 007e FFF7FEFF 		bl	initDNotchFilter
 650              	.LVL46:
 130:Core/drogui/src/sensorsTasks.c ****     initDNotchFilter(&dnotch_gy, 64, 50, 1000, 1, 10);
 651              		.loc 1 130 5 view .LVU129
 652 0082 F2EE041A 		vmov.f32	s3, #1.0e+1
 653 0086 B7EE001A 		vmov.f32	s2, #1.0e+0
 654 008a F0EE480A 		vmov.f32	s1, s16
 655 008e B0EE680A 		vmov.f32	s0, s17
 656 0092 4021     		movs	r1, #64
 657 0094 6A48     		ldr	r0, .L23+52
 658 0096 FFF7FEFF 		bl	initDNotchFilter
 659              	.LVL47:
 131:Core/drogui/src/sensorsTasks.c ****     initDNotchFilter(&dnotch_gz, 64, 50, 1000, 1, 10);
 660              		.loc 1 131 5 view .LVU130
 661 009a F2EE041A 		vmov.f32	s3, #1.0e+1
 662 009e B7EE001A 		vmov.f32	s2, #1.0e+0
 663 00a2 F0EE480A 		vmov.f32	s1, s16
 664 00a6 B0EE680A 		vmov.f32	s0, s17
 665 00aa 4021     		movs	r1, #64
 666 00ac 6548     		ldr	r0, .L23+56
 667 00ae FFF7FEFF 		bl	initDNotchFilter
 668              	.LVL48:
 132:Core/drogui/src/sensorsTasks.c **** 
 133:Core/drogui/src/sensorsTasks.c ****     initDNotchFilter(&dnotch_gx2, 64, 50, 1000, 1, 5);
 669              		.loc 1 133 5 view .LVU131
 670 00b2 F1EE041A 		vmov.f32	s3, #5.0e+0
 671 00b6 B7EE001A 		vmov.f32	s2, #1.0e+0
 672 00ba F0EE480A 		vmov.f32	s1, s16
 673 00be B0EE680A 		vmov.f32	s0, s17
 674 00c2 4021     		movs	r1, #64
 675 00c4 6048     		ldr	r0, .L23+60
 676 00c6 FFF7FEFF 		bl	initDNotchFilter
ARM GAS  C:\Users\julit\AppData\Local\Temp\cc2FQTxk.s 			page 15


 677              	.LVL49:
 134:Core/drogui/src/sensorsTasks.c ****     initDNotchFilter(&dnotch_gy2, 64, 50, 1000, 1, 5);
 678              		.loc 1 134 5 view .LVU132
 679 00ca F1EE041A 		vmov.f32	s3, #5.0e+0
 680 00ce B7EE001A 		vmov.f32	s2, #1.0e+0
 681 00d2 F0EE480A 		vmov.f32	s1, s16
 682 00d6 B0EE680A 		vmov.f32	s0, s17
 683 00da 4021     		movs	r1, #64
 684 00dc 5B48     		ldr	r0, .L23+64
 685 00de FFF7FEFF 		bl	initDNotchFilter
 686              	.LVL50:
 135:Core/drogui/src/sensorsTasks.c ****     initDNotchFilter(&dnotch_gz2, 64, 50, 1000, 1, 5);
 687              		.loc 1 135 5 view .LVU133
 688 00e2 F1EE041A 		vmov.f32	s3, #5.0e+0
 689 00e6 B7EE001A 		vmov.f32	s2, #1.0e+0
 690 00ea F0EE480A 		vmov.f32	s1, s16
 691 00ee B0EE680A 		vmov.f32	s0, s17
 692 00f2 4021     		movs	r1, #64
 693 00f4 5648     		ldr	r0, .L23+68
 694 00f6 FFF7FEFF 		bl	initDNotchFilter
 695              	.LVL51:
 136:Core/drogui/src/sensorsTasks.c **** 
 137:Core/drogui/src/sensorsTasks.c ****     initFilter(&filter_ax, 4 , k_5_100, v_5_100);
 696              		.loc 1 137 5 view .LVU134
 697 00fa DFF8B481 		ldr	r8, .L23+164
 698 00fe 554F     		ldr	r7, .L23+72
 699 0100 4346     		mov	r3, r8
 700 0102 3A46     		mov	r2, r7
 701 0104 0421     		movs	r1, #4
 702 0106 5448     		ldr	r0, .L23+76
 703 0108 FFF7FEFF 		bl	initFilter
 704              	.LVL52:
 138:Core/drogui/src/sensorsTasks.c ****     initFilter(&filter_ay, 4 , k_5_100, v_5_100);
 705              		.loc 1 138 5 view .LVU135
 706 010c 4346     		mov	r3, r8
 707 010e 3A46     		mov	r2, r7
 708 0110 0421     		movs	r1, #4
 709 0112 5248     		ldr	r0, .L23+80
 710 0114 FFF7FEFF 		bl	initFilter
 711              	.LVL53:
 139:Core/drogui/src/sensorsTasks.c ****     initFilter(&filter_az, 4 , k_5_100, v_5_100);
 712              		.loc 1 139 5 view .LVU136
 713 0118 4346     		mov	r3, r8
 714 011a 3A46     		mov	r2, r7
 715 011c 0421     		movs	r1, #4
 716 011e 5048     		ldr	r0, .L23+84
 717 0120 FFF7FEFF 		bl	initFilter
 718              	.LVL54:
 140:Core/drogui/src/sensorsTasks.c **** 
 141:Core/drogui/src/sensorsTasks.c **** 
 142:Core/drogui/src/sensorsTasks.c ****     initDNotchFilter(&dnotch_ax, 64, 40, 1000, 1, 1);
 719              		.loc 1 142 5 view .LVU137
 720 0124 DFED4F8A 		vldr.32	s17, .L23+88
 721 0128 F7EE001A 		vmov.f32	s3, #1.0e+0
 722 012c B0EE611A 		vmov.f32	s2, s3
 723 0130 F0EE480A 		vmov.f32	s1, s16
 724 0134 B0EE680A 		vmov.f32	s0, s17
ARM GAS  C:\Users\julit\AppData\Local\Temp\cc2FQTxk.s 			page 16


 725 0138 4021     		movs	r1, #64
 726 013a 4B48     		ldr	r0, .L23+92
 727 013c FFF7FEFF 		bl	initDNotchFilter
 728              	.LVL55:
 143:Core/drogui/src/sensorsTasks.c ****     initDNotchFilter(&dnotch_ay, 64, 40, 1000, 1, 1);
 729              		.loc 1 143 5 view .LVU138
 730 0140 F7EE001A 		vmov.f32	s3, #1.0e+0
 731 0144 B0EE611A 		vmov.f32	s2, s3
 732 0148 F0EE480A 		vmov.f32	s1, s16
 733 014c B0EE680A 		vmov.f32	s0, s17
 734 0150 4021     		movs	r1, #64
 735 0152 4648     		ldr	r0, .L23+96
 736 0154 FFF7FEFF 		bl	initDNotchFilter
 737              	.LVL56:
 144:Core/drogui/src/sensorsTasks.c ****     initDNotchFilter(&dnotch_az, 64, 40, 1000, 1, 1);
 738              		.loc 1 144 5 view .LVU139
 739 0158 F7EE001A 		vmov.f32	s3, #1.0e+0
 740 015c B0EE611A 		vmov.f32	s2, s3
 741 0160 F0EE480A 		vmov.f32	s1, s16
 742 0164 B0EE680A 		vmov.f32	s0, s17
 743 0168 4021     		movs	r1, #64
 744 016a 4148     		ldr	r0, .L23+100
 745 016c FFF7FEFF 		bl	initDNotchFilter
 746              	.LVL57:
 145:Core/drogui/src/sensorsTasks.c ****     
 146:Core/drogui/src/sensorsTasks.c **** 
 147:Core/drogui/src/sensorsTasks.c ****     initFilter(&filter_roll, 4, k_1_10, v_1_10);
 747              		.loc 1 147 5 view .LVU140
 748 0170 2B46     		mov	r3, r5
 749 0172 2246     		mov	r2, r4
 750 0174 0421     		movs	r1, #4
 751 0176 3F48     		ldr	r0, .L23+104
 752 0178 FFF7FEFF 		bl	initFilter
 753              	.LVL58:
 148:Core/drogui/src/sensorsTasks.c ****     initFilter(&filter_pitch, 4, k_1_10, v_1_10);
 754              		.loc 1 148 5 view .LVU141
 755 017c 2B46     		mov	r3, r5
 756 017e 2246     		mov	r2, r4
 757 0180 0421     		movs	r1, #4
 758 0182 3D48     		ldr	r0, .L23+108
 759 0184 FFF7FEFF 		bl	initFilter
 760              	.LVL59:
 149:Core/drogui/src/sensorsTasks.c ****     initFilter(&filter_yaw, 4, k_1_10, v_1_10);
 761              		.loc 1 149 5 view .LVU142
 762 0188 2B46     		mov	r3, r5
 763 018a 2246     		mov	r2, r4
 764 018c 0421     		movs	r1, #4
 765 018e 3B48     		ldr	r0, .L23+112
 766 0190 FFF7FEFF 		bl	initFilter
 767              	.LVL60:
 150:Core/drogui/src/sensorsTasks.c **** 
 151:Core/drogui/src/sensorsTasks.c ****     calibrateGyro(&myIMU);
 768              		.loc 1 151 5 view .LVU143
 769 0194 3046     		mov	r0, r6
 770 0196 FFF7FEFF 		bl	calibrateGyro
 771              	.LVL61:
 152:Core/drogui/src/sensorsTasks.c ****     calibrateAccel(&myIMU);
ARM GAS  C:\Users\julit\AppData\Local\Temp\cc2FQTxk.s 			page 17


 772              		.loc 1 152 5 view .LVU144
 773 019a 3046     		mov	r0, r6
 774 019c FFF7FEFF 		bl	calibrateAccel
 775              	.LVL62:
 153:Core/drogui/src/sensorsTasks.c ****     calibrateMag(&myIMU);
 776              		.loc 1 153 5 view .LVU145
 777 01a0 3046     		mov	r0, r6
 778 01a2 FFF7FEFF 		bl	calibrateMag
 779              	.LVL63:
 154:Core/drogui/src/sensorsTasks.c ****     
 155:Core/drogui/src/sensorsTasks.c ****     initBmp388(&myBMP, 10);  
 780              		.loc 1 155 5 view .LVU146
 781 01a6 0A21     		movs	r1, #10
 782 01a8 3548     		ldr	r0, .L23+116
 783 01aa FFF7FEFF 		bl	initBmp388
 784              	.LVL64:
 156:Core/drogui/src/sensorsTasks.c **** 
 157:Core/drogui/src/sensorsTasks.c ****     initMvAvgFilter(&mvAvg_bmp, N_BMP);
 785              		.loc 1 157 5 view .LVU147
 786 01ae 1921     		movs	r1, #25
 787 01b0 3448     		ldr	r0, .L23+120
 788 01b2 FFF7FEFF 		bl	initMvAvgFilter
 789              	.LVL65:
 158:Core/drogui/src/sensorsTasks.c ****     initEmaFilter(&ema_bmp, 0.6, 0.4, 0.5);
 790              		.loc 1 158 5 view .LVU148
 791 01b6 B6EE001A 		vmov.f32	s2, #5.0e-1
 792 01ba DFED330A 		vldr.32	s1, .L23+124
 793 01be 9FED330A 		vldr.32	s0, .L23+128
 794 01c2 3348     		ldr	r0, .L23+132
 795 01c4 FFF7FEFF 		bl	initEmaFilter
 796              	.LVL66:
 159:Core/drogui/src/sensorsTasks.c **** 
 160:Core/drogui/src/sensorsTasks.c ****     addTask(&gyroTask, 1000, 2);
 797              		.loc 1 160 5 view .LVU149
 798 01c8 0222     		movs	r2, #2
 799 01ca 4FF47A71 		mov	r1, #1000
 800 01ce 3148     		ldr	r0, .L23+136
 801 01d0 FFF7FEFF 		bl	addTask
 802              	.LVL67:
 161:Core/drogui/src/sensorsTasks.c ****     addTask(&accelTask, 1000, 3);
 803              		.loc 1 161 5 view .LVU150
 804 01d4 0322     		movs	r2, #3
 805 01d6 4FF47A71 		mov	r1, #1000
 806 01da 2F48     		ldr	r0, .L23+140
 807 01dc FFF7FEFF 		bl	addTask
 808              	.LVL68:
 162:Core/drogui/src/sensorsTasks.c ****     addTask(&magTask, 100000, 2);
 809              		.loc 1 162 5 view .LVU151
 810 01e0 0222     		movs	r2, #2
 811 01e2 2E49     		ldr	r1, .L23+144
 812 01e4 2E48     		ldr	r0, .L23+148
 813 01e6 FFF7FEFF 		bl	addTask
 814              	.LVL69:
 163:Core/drogui/src/sensorsTasks.c ****     addTask(&rpyTask, 2000, 2);
 815              		.loc 1 163 5 view .LVU152
 816 01ea 0222     		movs	r2, #2
 817 01ec 4FF4FA61 		mov	r1, #2000
ARM GAS  C:\Users\julit\AppData\Local\Temp\cc2FQTxk.s 			page 18


 818 01f0 2C48     		ldr	r0, .L23+152
 819 01f2 FFF7FEFF 		bl	addTask
 820              	.LVL70:
 164:Core/drogui/src/sensorsTasks.c ****     addTask(&altitudeTask,10000,3);
 821              		.loc 1 164 5 view .LVU153
 822 01f6 0322     		movs	r2, #3
 823 01f8 42F21071 		movw	r1, #10000
 824 01fc 2A48     		ldr	r0, .L23+156
 825 01fe FFF7FEFF 		bl	addTask
 826              	.LVL71:
 165:Core/drogui/src/sensorsTasks.c **** 
 166:Core/drogui/src/sensorsTasks.c **** }...
 827              		.loc 1 166 1 is_stmt 0 view .LVU154
 828 0202 BDEC028B 		vldm	sp!, {d8}
 829              	.LCFI9:
 830              		.cfi_restore 80
 831              		.cfi_restore 81
 832              		.cfi_def_cfa_offset 24
 833 0206 BDE8F081 		pop	{r4, r5, r6, r7, r8, pc}
 834              	.L24:
 835 020a 00BF     		.align	2
 836              	.L23:
 837 020c 00000000 		.word	.LANCHOR0
 838 0210 00000000 		.word	v_1_10
 839 0214 00000000 		.word	k_1_10
 840 0218 00000000 		.word	.LANCHOR10
 841 021c 00000000 		.word	.LANCHOR12
 842 0220 00000000 		.word	.LANCHOR14
 843 0224 00000000 		.word	k_3_10
 844 0228 00000000 		.word	.LANCHOR16
 845 022c 00000000 		.word	.LANCHOR17
 846 0230 00000000 		.word	.LANCHOR18
 847 0234 00007A44 		.word	1148846080
 848 0238 00004842 		.word	1112014848
 849 023c 00000000 		.word	.LANCHOR19
 850 0240 00000000 		.word	.LANCHOR20
 851 0244 00000000 		.word	.LANCHOR21
 852 0248 00000000 		.word	.LANCHOR22
 853 024c 00000000 		.word	.LANCHOR23
 854 0250 00000000 		.word	.LANCHOR24
 855 0254 00000000 		.word	k_5_100
 856 0258 00000000 		.word	.LANCHOR1
 857 025c 00000000 		.word	.LANCHOR3
 858 0260 00000000 		.word	.LANCHOR5
 859 0264 00002042 		.word	1109393408
 860 0268 00000000 		.word	.LANCHOR7
 861 026c 00000000 		.word	.LANCHOR8
 862 0270 00000000 		.word	.LANCHOR9
 863 0274 00000000 		.word	.LANCHOR31
 864 0278 00000000 		.word	.LANCHOR32
 865 027c 00000000 		.word	.LANCHOR33
 866 0280 00000000 		.word	.LANCHOR34
 867 0284 00000000 		.word	.LANCHOR35
 868 0288 CDCCCC3E 		.word	1053609165
 869 028c 9A99193F 		.word	1058642330
 870 0290 00000000 		.word	.LANCHOR37
 871 0294 00000000 		.word	gyroTask
ARM GAS  C:\Users\julit\AppData\Local\Temp\cc2FQTxk.s 			page 19


 872 0298 00000000 		.word	accelTask
 873 029c A0860100 		.word	100000
 874 02a0 00000000 		.word	magTask
 875 02a4 00000000 		.word	rpyTask
 876 02a8 00000000 		.word	altitudeTask
 877 02ac 00000000 		.word	v_3_10
 878 02b0 00000000 		.word	v_5_100
 879              		.cfi_endproc
 880              	.LFE182:
 882              		.global	Kdfilt
 883              		.global	buff2
 884              		.global	mvAvg_bmp
 885              		.global	ema_bmp
 886              		.global	altitude
 887              		.global	myBMP
 888              		.global	z
 889              		.global	y
 890              		.global	x
 891              		.global	mz
 892              		.global	my
 893              		.global	mx
 894              		.global	gz
 895              		.global	gy
 896              		.global	gx
 897              		.global	az
 898              		.global	ay
 899              		.global	ax
 900              		.global	yaw
 901              		.global	pitch
 902              		.global	roll
 903              		.global	filter_yaw
 904              		.global	filter_pitch
 905              		.global	filter_roll
 906              		.global	dnotch_az
 907              		.global	dnotch_ay
 908              		.global	dnotch_ax
 909              		.global	filter_az
 910              		.global	filter_ay
 911              		.global	filter_ax
 912              		.global	dnotch_gz2
 913              		.global	dnotch_gy2
 914              		.global	dnotch_gx2
 915              		.global	dnotch_gz
 916              		.global	dnotch_gy
 917              		.global	dnotch_gx
 918              		.global	filter_gz2
 919              		.global	filter_gy2
 920              		.global	filter_gx2
 921              		.global	filter_gz
 922              		.global	filter_gy
 923              		.global	filter_gx
 924              		.global	myIMU
 925              		.section	.bss.altitude,"aw",%nobits
 926              		.align	2
 927              		.set	.LANCHOR36,. + 0
 930              	altitude:
 931 0000 00000000 		.space	4
ARM GAS  C:\Users\julit\AppData\Local\Temp\cc2FQTxk.s 			page 20


 932              		.section	.bss.ax,"aw",%nobits
 933              		.align	2
 934              		.set	.LANCHOR2,. + 0
 937              	ax:
 938 0000 00000000 		.space	4
 939              		.section	.bss.ay,"aw",%nobits
 940              		.align	2
 941              		.set	.LANCHOR4,. + 0
 944              	ay:
 945 0000 00000000 		.space	4
 946              		.section	.bss.az,"aw",%nobits
 947              		.align	2
 948              		.set	.LANCHOR6,. + 0
 951              	az:
 952 0000 00000000 		.space	4
 953              		.section	.bss.dnotch_ax,"aw",%nobits
 954              		.align	2
 955              		.set	.LANCHOR7,. + 0
 958              	dnotch_ax:
 959 0000 00000000 		.space	104
 959      00000000 
 959      00000000 
 959      00000000 
 959      00000000 
 960              		.section	.bss.dnotch_ay,"aw",%nobits
 961              		.align	2
 962              		.set	.LANCHOR8,. + 0
 965              	dnotch_ay:
 966 0000 00000000 		.space	104
 966      00000000 
 966      00000000 
 966      00000000 
 966      00000000 
 967              		.section	.bss.dnotch_az,"aw",%nobits
 968              		.align	2
 969              		.set	.LANCHOR9,. + 0
 972              	dnotch_az:
 973 0000 00000000 		.space	104
 973      00000000 
 973      00000000 
 973      00000000 
 973      00000000 
 974              		.section	.bss.dnotch_gx,"aw",%nobits
 975              		.align	2
 976              		.set	.LANCHOR19,. + 0
 979              	dnotch_gx:
 980 0000 00000000 		.space	104
 980      00000000 
 980      00000000 
 980      00000000 
 980      00000000 
 981              		.section	.bss.dnotch_gx2,"aw",%nobits
 982              		.align	2
 983              		.set	.LANCHOR22,. + 0
 986              	dnotch_gx2:
 987 0000 00000000 		.space	104
 987      00000000 
ARM GAS  C:\Users\julit\AppData\Local\Temp\cc2FQTxk.s 			page 21


 987      00000000 
 987      00000000 
 987      00000000 
 988              		.section	.bss.dnotch_gy,"aw",%nobits
 989              		.align	2
 990              		.set	.LANCHOR20,. + 0
 993              	dnotch_gy:
 994 0000 00000000 		.space	104
 994      00000000 
 994      00000000 
 994      00000000 
 994      00000000 
 995              		.section	.bss.dnotch_gy2,"aw",%nobits
 996              		.align	2
 997              		.set	.LANCHOR23,. + 0
 1000              	dnotch_gy2:
 1001 0000 00000000 		.space	104
 1001      00000000 
 1001      00000000 
 1001      00000000 
 1001      00000000 
 1002              		.section	.bss.dnotch_gz,"aw",%nobits
 1003              		.align	2
 1004              		.set	.LANCHOR21,. + 0
 1007              	dnotch_gz:
 1008 0000 00000000 		.space	104
 1008      00000000 
 1008      00000000 
 1008      00000000 
 1008      00000000 
 1009              		.section	.bss.dnotch_gz2,"aw",%nobits
 1010              		.align	2
 1011              		.set	.LANCHOR24,. + 0
 1014              	dnotch_gz2:
 1015 0000 00000000 		.space	104
 1015      00000000 
 1015      00000000 
 1015      00000000 
 1015      00000000 
 1016              		.section	.bss.ema_bmp,"aw",%nobits
 1017              		.align	2
 1018              		.set	.LANCHOR37,. + 0
 1021              	ema_bmp:
 1022 0000 00000000 		.space	16
 1022      00000000 
 1022      00000000 
 1022      00000000 
 1023              		.section	.bss.filter_ax,"aw",%nobits
 1024              		.align	2
 1025              		.set	.LANCHOR1,. + 0
 1028              	filter_ax:
 1029 0000 00000000 		.space	20
 1029      00000000 
 1029      00000000 
 1029      00000000 
 1029      00000000 
 1030              		.section	.bss.filter_ay,"aw",%nobits
ARM GAS  C:\Users\julit\AppData\Local\Temp\cc2FQTxk.s 			page 22


 1031              		.align	2
 1032              		.set	.LANCHOR3,. + 0
 1035              	filter_ay:
 1036 0000 00000000 		.space	20
 1036      00000000 
 1036      00000000 
 1036      00000000 
 1036      00000000 
 1037              		.section	.bss.filter_az,"aw",%nobits
 1038              		.align	2
 1039              		.set	.LANCHOR5,. + 0
 1042              	filter_az:
 1043 0000 00000000 		.space	20
 1043      00000000 
 1043      00000000 
 1043      00000000 
 1043      00000000 
 1044              		.section	.bss.filter_gx,"aw",%nobits
 1045              		.align	2
 1046              		.set	.LANCHOR10,. + 0
 1049              	filter_gx:
 1050 0000 00000000 		.space	20
 1050      00000000 
 1050      00000000 
 1050      00000000 
 1050      00000000 
 1051              		.section	.bss.filter_gx2,"aw",%nobits
 1052              		.align	2
 1053              		.set	.LANCHOR16,. + 0
 1056              	filter_gx2:
 1057 0000 00000000 		.space	20
 1057      00000000 
 1057      00000000 
 1057      00000000 
 1057      00000000 
 1058              		.section	.bss.filter_gy,"aw",%nobits
 1059              		.align	2
 1060              		.set	.LANCHOR12,. + 0
 1063              	filter_gy:
 1064 0000 00000000 		.space	20
 1064      00000000 
 1064      00000000 
 1064      00000000 
 1064      00000000 
 1065              		.section	.bss.filter_gy2,"aw",%nobits
 1066              		.align	2
 1067              		.set	.LANCHOR17,. + 0
 1070              	filter_gy2:
 1071 0000 00000000 		.space	20
 1071      00000000 
 1071      00000000 
 1071      00000000 
 1071      00000000 
 1072              		.section	.bss.filter_gz,"aw",%nobits
 1073              		.align	2
 1074              		.set	.LANCHOR14,. + 0
 1077              	filter_gz:
ARM GAS  C:\Users\julit\AppData\Local\Temp\cc2FQTxk.s 			page 23


 1078 0000 00000000 		.space	20
 1078      00000000 
 1078      00000000 
 1078      00000000 
 1078      00000000 
 1079              		.section	.bss.filter_gz2,"aw",%nobits
 1080              		.align	2
 1081              		.set	.LANCHOR18,. + 0
 1084              	filter_gz2:
 1085 0000 00000000 		.space	20
 1085      00000000 
 1085      00000000 
 1085      00000000 
 1085      00000000 
 1086              		.section	.bss.filter_pitch,"aw",%nobits
 1087              		.align	2
 1088              		.set	.LANCHOR32,. + 0
 1091              	filter_pitch:
 1092 0000 00000000 		.space	20
 1092      00000000 
 1092      00000000 
 1092      00000000 
 1092      00000000 
 1093              		.section	.bss.filter_roll,"aw",%nobits
 1094              		.align	2
 1095              		.set	.LANCHOR31,. + 0
 1098              	filter_roll:
 1099 0000 00000000 		.space	20
 1099      00000000 
 1099      00000000 
 1099      00000000 
 1099      00000000 
 1100              		.section	.bss.filter_yaw,"aw",%nobits
 1101              		.align	2
 1102              		.set	.LANCHOR33,. + 0
 1105              	filter_yaw:
 1106 0000 00000000 		.space	20
 1106      00000000 
 1106      00000000 
 1106      00000000 
 1106      00000000 
 1107              		.section	.bss.gx,"aw",%nobits
 1108              		.align	2
 1109              		.set	.LANCHOR11,. + 0
 1112              	gx:
 1113 0000 00000000 		.space	4
 1114              		.section	.bss.gy,"aw",%nobits
 1115              		.align	2
 1116              		.set	.LANCHOR13,. + 0
 1119              	gy:
 1120 0000 00000000 		.space	4
 1121              		.section	.bss.gz,"aw",%nobits
 1122              		.align	2
 1123              		.set	.LANCHOR15,. + 0
 1126              	gz:
 1127 0000 00000000 		.space	4
 1128              		.section	.bss.mvAvg_bmp,"aw",%nobits
ARM GAS  C:\Users\julit\AppData\Local\Temp\cc2FQTxk.s 			page 24


 1129              		.align	2
 1130              		.set	.LANCHOR35,. + 0
 1133              	mvAvg_bmp:
 1134 0000 00000000 		.space	16
 1134      00000000 
 1134      00000000 
 1134      00000000 
 1135              		.section	.bss.mx,"aw",%nobits
 1136              		.align	2
 1137              		.set	.LANCHOR25,. + 0
 1140              	mx:
 1141 0000 00000000 		.space	4
 1142              		.section	.bss.my,"aw",%nobits
 1143              		.align	2
 1144              		.set	.LANCHOR26,. + 0
 1147              	my:
 1148 0000 00000000 		.space	4
 1149              		.section	.bss.myBMP,"aw",%nobits
 1150              		.align	3
 1151              		.set	.LANCHOR34,. + 0
 1154              	myBMP:
 1155 0000 00000000 		.space	40
 1155      00000000 
 1155      00000000 
 1155      00000000 
 1155      00000000 
 1156              		.section	.bss.myIMU,"aw",%nobits
 1157              		.align	2
 1158              		.set	.LANCHOR0,. + 0
 1161              	myIMU:
 1162 0000 00000000 		.space	140
 1162      00000000 
 1162      00000000 
 1162      00000000 
 1162      00000000 
 1163              		.section	.bss.mz,"aw",%nobits
 1164              		.align	2
 1165              		.set	.LANCHOR27,. + 0
 1168              	mz:
 1169 0000 00000000 		.space	4
 1170              		.section	.bss.pitch,"aw",%nobits
 1171              		.align	2
 1172              		.set	.LANCHOR29,. + 0
 1175              	pitch:
 1176 0000 00000000 		.space	4
 1177              		.section	.bss.roll,"aw",%nobits
 1178              		.align	2
 1179              		.set	.LANCHOR28,. + 0
 1182              	roll:
 1183 0000 00000000 		.space	4
 1184              		.section	.bss.x,"aw",%nobits
 1185              		.align	2
 1188              	x:
 1189 0000 00000000 		.space	4
 1190              		.section	.bss.y,"aw",%nobits
 1191              		.align	2
 1194              	y:
ARM GAS  C:\Users\julit\AppData\Local\Temp\cc2FQTxk.s 			page 25


 1195 0000 00000000 		.space	4
 1196              		.section	.bss.yaw,"aw",%nobits
 1197              		.align	2
 1198              		.set	.LANCHOR30,. + 0
 1201              	yaw:
 1202 0000 00000000 		.space	4
 1203              		.section	.bss.z,"aw",%nobits
 1204              		.align	2
 1207              	z:
 1208 0000 00000000 		.space	4
 1209              		.section	.data.Kdfilt,"aw"
 1210              		.align	2
 1213              	Kdfilt:
 1214 0000 0AD7233C 		.word	1008981770
 1215              		.section	.data.buff2,"aw"
 1216              		.align	2
 1219              	buff2:
 1220 0000 686F6C61 		.ascii	"hola\012\000"
 1220      0A00
 1221 0006 00000000 		.space	44
 1221      00000000 
 1221      00000000 
 1221      00000000 
 1221      00000000 
 1222              		.text
 1223              	.Letext0:
 1224              		.file 2 "c:\\program files (x86)\\gnu arm embedded toolchain\\10 2020-q4-major\\arm-none-eabi\\inc
 1225              		.file 3 "c:\\program files (x86)\\gnu arm embedded toolchain\\10 2020-q4-major\\arm-none-eabi\\inc
 1226              		.file 4 "Drivers/CMSIS/DSP/Include/arm_math.h"
 1227              		.file 5 "Core/drogui/include/filter.h"
 1228              		.file 6 "Core/drogui/include/MPU9250.h"
 1229              		.file 7 "Core/drogui/include/utils.h"
 1230              		.file 8 "Core/drogui/include/BMP388.h"
 1231              		.file 9 "Core/drogui/include/sensorsTasks.h"
 1232              		.file 10 "Core/drogui/include/task.h"
 1233              		.file 11 "Core/drogui/include/mahony.h"
ARM GAS  C:\Users\julit\AppData\Local\Temp\cc2FQTxk.s 			page 26


DEFINED SYMBOLS
                            *ABS*:00000000 sensorsTasks.c
C:\Users\julit\AppData\Local\Temp\cc2FQTxk.s:18     .text.accelTask:00000000 $t
C:\Users\julit\AppData\Local\Temp\cc2FQTxk.s:26     .text.accelTask:00000000 accelTask
C:\Users\julit\AppData\Local\Temp\cc2FQTxk.s:116    .text.accelTask:00000084 $d
C:\Users\julit\AppData\Local\Temp\cc2FQTxk.s:130    .text.gyroTask:00000000 $t
C:\Users\julit\AppData\Local\Temp\cc2FQTxk.s:137    .text.gyroTask:00000000 gyroTask
C:\Users\julit\AppData\Local\Temp\cc2FQTxk.s:289    .text.gyroTask:000000fc $d
C:\Users\julit\AppData\Local\Temp\cc2FQTxk.s:309    .text.magTask:00000000 $t
C:\Users\julit\AppData\Local\Temp\cc2FQTxk.s:316    .text.magTask:00000000 magTask
C:\Users\julit\AppData\Local\Temp\cc2FQTxk.s:355    .text.magTask:00000020 $d
C:\Users\julit\AppData\Local\Temp\cc2FQTxk.s:363    .text.rpyTask:00000000 $t
C:\Users\julit\AppData\Local\Temp\cc2FQTxk.s:370    .text.rpyTask:00000000 rpyTask
C:\Users\julit\AppData\Local\Temp\cc2FQTxk.s:485    .text.rpyTask:000000c4 $d
C:\Users\julit\AppData\Local\Temp\cc2FQTxk.s:506    .text.altitudeTask:00000000 $t
C:\Users\julit\AppData\Local\Temp\cc2FQTxk.s:513    .text.altitudeTask:00000000 altitudeTask
C:\Users\julit\AppData\Local\Temp\cc2FQTxk.s:554    .text.altitudeTask:0000002c $d
C:\Users\julit\AppData\Local\Temp\cc2FQTxk.s:562    .text.initSensorsTasks:00000000 $t
C:\Users\julit\AppData\Local\Temp\cc2FQTxk.s:569    .text.initSensorsTasks:00000000 initSensorsTasks
C:\Users\julit\AppData\Local\Temp\cc2FQTxk.s:837    .text.initSensorsTasks:0000020c $d
C:\Users\julit\AppData\Local\Temp\cc2FQTxk.s:1213   .data.Kdfilt:00000000 Kdfilt
C:\Users\julit\AppData\Local\Temp\cc2FQTxk.s:1219   .data.buff2:00000000 buff2
C:\Users\julit\AppData\Local\Temp\cc2FQTxk.s:1133   .bss.mvAvg_bmp:00000000 mvAvg_bmp
C:\Users\julit\AppData\Local\Temp\cc2FQTxk.s:1021   .bss.ema_bmp:00000000 ema_bmp
C:\Users\julit\AppData\Local\Temp\cc2FQTxk.s:930    .bss.altitude:00000000 altitude
C:\Users\julit\AppData\Local\Temp\cc2FQTxk.s:1154   .bss.myBMP:00000000 myBMP
C:\Users\julit\AppData\Local\Temp\cc2FQTxk.s:1207   .bss.z:00000000 z
C:\Users\julit\AppData\Local\Temp\cc2FQTxk.s:1194   .bss.y:00000000 y
C:\Users\julit\AppData\Local\Temp\cc2FQTxk.s:1188   .bss.x:00000000 x
C:\Users\julit\AppData\Local\Temp\cc2FQTxk.s:1168   .bss.mz:00000000 mz
C:\Users\julit\AppData\Local\Temp\cc2FQTxk.s:1147   .bss.my:00000000 my
C:\Users\julit\AppData\Local\Temp\cc2FQTxk.s:1140   .bss.mx:00000000 mx
C:\Users\julit\AppData\Local\Temp\cc2FQTxk.s:1126   .bss.gz:00000000 gz
C:\Users\julit\AppData\Local\Temp\cc2FQTxk.s:1119   .bss.gy:00000000 gy
C:\Users\julit\AppData\Local\Temp\cc2FQTxk.s:1112   .bss.gx:00000000 gx
C:\Users\julit\AppData\Local\Temp\cc2FQTxk.s:951    .bss.az:00000000 az
C:\Users\julit\AppData\Local\Temp\cc2FQTxk.s:944    .bss.ay:00000000 ay
C:\Users\julit\AppData\Local\Temp\cc2FQTxk.s:937    .bss.ax:00000000 ax
C:\Users\julit\AppData\Local\Temp\cc2FQTxk.s:1201   .bss.yaw:00000000 yaw
C:\Users\julit\AppData\Local\Temp\cc2FQTxk.s:1175   .bss.pitch:00000000 pitch
C:\Users\julit\AppData\Local\Temp\cc2FQTxk.s:1182   .bss.roll:00000000 roll
C:\Users\julit\AppData\Local\Temp\cc2FQTxk.s:1105   .bss.filter_yaw:00000000 filter_yaw
C:\Users\julit\AppData\Local\Temp\cc2FQTxk.s:1091   .bss.filter_pitch:00000000 filter_pitch
C:\Users\julit\AppData\Local\Temp\cc2FQTxk.s:1098   .bss.filter_roll:00000000 filter_roll
C:\Users\julit\AppData\Local\Temp\cc2FQTxk.s:972    .bss.dnotch_az:00000000 dnotch_az
C:\Users\julit\AppData\Local\Temp\cc2FQTxk.s:965    .bss.dnotch_ay:00000000 dnotch_ay
C:\Users\julit\AppData\Local\Temp\cc2FQTxk.s:958    .bss.dnotch_ax:00000000 dnotch_ax
C:\Users\julit\AppData\Local\Temp\cc2FQTxk.s:1042   .bss.filter_az:00000000 filter_az
C:\Users\julit\AppData\Local\Temp\cc2FQTxk.s:1035   .bss.filter_ay:00000000 filter_ay
C:\Users\julit\AppData\Local\Temp\cc2FQTxk.s:1028   .bss.filter_ax:00000000 filter_ax
C:\Users\julit\AppData\Local\Temp\cc2FQTxk.s:1014   .bss.dnotch_gz2:00000000 dnotch_gz2
C:\Users\julit\AppData\Local\Temp\cc2FQTxk.s:1000   .bss.dnotch_gy2:00000000 dnotch_gy2
C:\Users\julit\AppData\Local\Temp\cc2FQTxk.s:986    .bss.dnotch_gx2:00000000 dnotch_gx2
C:\Users\julit\AppData\Local\Temp\cc2FQTxk.s:1007   .bss.dnotch_gz:00000000 dnotch_gz
C:\Users\julit\AppData\Local\Temp\cc2FQTxk.s:993    .bss.dnotch_gy:00000000 dnotch_gy
C:\Users\julit\AppData\Local\Temp\cc2FQTxk.s:979    .bss.dnotch_gx:00000000 dnotch_gx
C:\Users\julit\AppData\Local\Temp\cc2FQTxk.s:1084   .bss.filter_gz2:00000000 filter_gz2
ARM GAS  C:\Users\julit\AppData\Local\Temp\cc2FQTxk.s 			page 27


C:\Users\julit\AppData\Local\Temp\cc2FQTxk.s:1070   .bss.filter_gy2:00000000 filter_gy2
C:\Users\julit\AppData\Local\Temp\cc2FQTxk.s:1056   .bss.filter_gx2:00000000 filter_gx2
C:\Users\julit\AppData\Local\Temp\cc2FQTxk.s:1077   .bss.filter_gz:00000000 filter_gz
C:\Users\julit\AppData\Local\Temp\cc2FQTxk.s:1063   .bss.filter_gy:00000000 filter_gy
C:\Users\julit\AppData\Local\Temp\cc2FQTxk.s:1049   .bss.filter_gx:00000000 filter_gx
C:\Users\julit\AppData\Local\Temp\cc2FQTxk.s:1161   .bss.myIMU:00000000 myIMU
C:\Users\julit\AppData\Local\Temp\cc2FQTxk.s:926    .bss.altitude:00000000 $d
C:\Users\julit\AppData\Local\Temp\cc2FQTxk.s:933    .bss.ax:00000000 $d
C:\Users\julit\AppData\Local\Temp\cc2FQTxk.s:940    .bss.ay:00000000 $d
C:\Users\julit\AppData\Local\Temp\cc2FQTxk.s:947    .bss.az:00000000 $d
C:\Users\julit\AppData\Local\Temp\cc2FQTxk.s:954    .bss.dnotch_ax:00000000 $d
C:\Users\julit\AppData\Local\Temp\cc2FQTxk.s:961    .bss.dnotch_ay:00000000 $d
C:\Users\julit\AppData\Local\Temp\cc2FQTxk.s:968    .bss.dnotch_az:00000000 $d
C:\Users\julit\AppData\Local\Temp\cc2FQTxk.s:975    .bss.dnotch_gx:00000000 $d
C:\Users\julit\AppData\Local\Temp\cc2FQTxk.s:982    .bss.dnotch_gx2:00000000 $d
C:\Users\julit\AppData\Local\Temp\cc2FQTxk.s:989    .bss.dnotch_gy:00000000 $d
C:\Users\julit\AppData\Local\Temp\cc2FQTxk.s:996    .bss.dnotch_gy2:00000000 $d
C:\Users\julit\AppData\Local\Temp\cc2FQTxk.s:1003   .bss.dnotch_gz:00000000 $d
C:\Users\julit\AppData\Local\Temp\cc2FQTxk.s:1010   .bss.dnotch_gz2:00000000 $d
C:\Users\julit\AppData\Local\Temp\cc2FQTxk.s:1017   .bss.ema_bmp:00000000 $d
C:\Users\julit\AppData\Local\Temp\cc2FQTxk.s:1024   .bss.filter_ax:00000000 $d
C:\Users\julit\AppData\Local\Temp\cc2FQTxk.s:1031   .bss.filter_ay:00000000 $d
C:\Users\julit\AppData\Local\Temp\cc2FQTxk.s:1038   .bss.filter_az:00000000 $d
C:\Users\julit\AppData\Local\Temp\cc2FQTxk.s:1045   .bss.filter_gx:00000000 $d
C:\Users\julit\AppData\Local\Temp\cc2FQTxk.s:1052   .bss.filter_gx2:00000000 $d
C:\Users\julit\AppData\Local\Temp\cc2FQTxk.s:1059   .bss.filter_gy:00000000 $d
C:\Users\julit\AppData\Local\Temp\cc2FQTxk.s:1066   .bss.filter_gy2:00000000 $d
C:\Users\julit\AppData\Local\Temp\cc2FQTxk.s:1073   .bss.filter_gz:00000000 $d
C:\Users\julit\AppData\Local\Temp\cc2FQTxk.s:1080   .bss.filter_gz2:00000000 $d
C:\Users\julit\AppData\Local\Temp\cc2FQTxk.s:1087   .bss.filter_pitch:00000000 $d
C:\Users\julit\AppData\Local\Temp\cc2FQTxk.s:1094   .bss.filter_roll:00000000 $d
C:\Users\julit\AppData\Local\Temp\cc2FQTxk.s:1101   .bss.filter_yaw:00000000 $d
C:\Users\julit\AppData\Local\Temp\cc2FQTxk.s:1108   .bss.gx:00000000 $d
C:\Users\julit\AppData\Local\Temp\cc2FQTxk.s:1115   .bss.gy:00000000 $d
C:\Users\julit\AppData\Local\Temp\cc2FQTxk.s:1122   .bss.gz:00000000 $d
C:\Users\julit\AppData\Local\Temp\cc2FQTxk.s:1129   .bss.mvAvg_bmp:00000000 $d
C:\Users\julit\AppData\Local\Temp\cc2FQTxk.s:1136   .bss.mx:00000000 $d
C:\Users\julit\AppData\Local\Temp\cc2FQTxk.s:1143   .bss.my:00000000 $d
C:\Users\julit\AppData\Local\Temp\cc2FQTxk.s:1150   .bss.myBMP:00000000 $d
C:\Users\julit\AppData\Local\Temp\cc2FQTxk.s:1157   .bss.myIMU:00000000 $d
C:\Users\julit\AppData\Local\Temp\cc2FQTxk.s:1164   .bss.mz:00000000 $d
C:\Users\julit\AppData\Local\Temp\cc2FQTxk.s:1171   .bss.pitch:00000000 $d
C:\Users\julit\AppData\Local\Temp\cc2FQTxk.s:1178   .bss.roll:00000000 $d
C:\Users\julit\AppData\Local\Temp\cc2FQTxk.s:1185   .bss.x:00000000 $d
C:\Users\julit\AppData\Local\Temp\cc2FQTxk.s:1191   .bss.y:00000000 $d
C:\Users\julit\AppData\Local\Temp\cc2FQTxk.s:1197   .bss.yaw:00000000 $d
C:\Users\julit\AppData\Local\Temp\cc2FQTxk.s:1204   .bss.z:00000000 $d
C:\Users\julit\AppData\Local\Temp\cc2FQTxk.s:1210   .data.Kdfilt:00000000 $d
C:\Users\julit\AppData\Local\Temp\cc2FQTxk.s:1216   .data.buff2:00000000 $d

UNDEFINED SYMBOLS
readAcc
computeFilter
computeDNotch
setReg
readGyro
readMag
ARM GAS  C:\Users\julit\AppData\Local\Temp\cc2FQTxk.s 			page 28


mahonyUpdate
getMahonyEuler
bmp388ReadAltitude
compueteMvAvgFilter
computeEmaFilter
initMpu
initFilter
initDNotchFilter
calibrateGyro
calibrateAccel
calibrateMag
initBmp388
initMvAvgFilter
initEmaFilter
addTask
v_1_10
k_1_10
k_3_10
k_5_100
v_3_10
v_5_100
