ARM GAS  C:\Users\USUARIO\AppData\Local\Temp\ccpHPuT0.s 			page 1


   1              		.cpu cortex-m7
   2              		.eabi_attribute 27, 1
   3              		.eabi_attribute 28, 1
   4              		.eabi_attribute 20, 1
   5              		.eabi_attribute 21, 1
   6              		.eabi_attribute 23, 3
   7              		.eabi_attribute 24, 1
   8              		.eabi_attribute 25, 1
   9              		.eabi_attribute 26, 1
  10              		.eabi_attribute 30, 1
  11              		.eabi_attribute 34, 1
  12              		.eabi_attribute 18, 4
  13              		.file	"sensorsTasks.c"
  14              		.text
  15              	.Ltext0:
  16              		.cfi_sections	.debug_frame
  17              		.section	.text.accelTask,"ax",%progbits
  18              		.align	1
  19              		.global	accelTask
  20              		.arch armv7e-m
  21              		.syntax unified
  22              		.thumb
  23              		.thumb_func
  24              		.fpu fpv5-sp-d16
  26              	accelTask:
  27              	.LFB177:
  28              		.file 1 "Core/drogui/src/sensorsTasks.c"
   1:Core/drogui/src/sensorsTasks.c **** #include "sensorsTasks.h"
   2:Core/drogui/src/sensorsTasks.c **** #include "mahony.h"
   3:Core/drogui/src/sensorsTasks.c **** #include "task.h"
   4:Core/drogui/src/sensorsTasks.c **** #include "usart.h"
   5:Core/drogui/src/sensorsTasks.c **** #include <stdio.h>
   6:Core/drogui/src/sensorsTasks.c **** #include <string.h>
   7:Core/drogui/src/sensorsTasks.c **** 
   8:Core/drogui/src/sensorsTasks.c **** 
   9:Core/drogui/src/sensorsTasks.c **** mpu9250 myIMU;
  10:Core/drogui/src/sensorsTasks.c **** 
  11:Core/drogui/src/sensorsTasks.c **** filter filter_gx, filter_gy, filter_gz;
  12:Core/drogui/src/sensorsTasks.c **** filter filter_gx2, filter_gy2, filter_gz2;
  13:Core/drogui/src/sensorsTasks.c **** dNotchFilter dnotch_gx, dnotch_gy, dnotch_gz; 
  14:Core/drogui/src/sensorsTasks.c **** dNotchFilter dnotch_gx2, dnotch_gy2, dnotch_gz2;
  15:Core/drogui/src/sensorsTasks.c **** 
  16:Core/drogui/src/sensorsTasks.c **** 
  17:Core/drogui/src/sensorsTasks.c **** filter filter_ax, filter_ay, filter_az;
  18:Core/drogui/src/sensorsTasks.c **** dNotchFilter dnotch_ax, dnotch_ay, dnotch_az; 
  19:Core/drogui/src/sensorsTasks.c **** 
  20:Core/drogui/src/sensorsTasks.c **** filter filter_roll, filter_pitch, filter_yaw;
  21:Core/drogui/src/sensorsTasks.c **** float roll, pitch, yaw, ax, ay, az, gx, gy, gz, mx, my, mz, x, y, z;
  22:Core/drogui/src/sensorsTasks.c **** 
  23:Core/drogui/src/sensorsTasks.c **** 
  24:Core/drogui/src/sensorsTasks.c **** void accelTask(){   
  29              		.loc 1 24 17 view -0
  30              		.cfi_startproc
  31              		@ args = 0, pretend = 0, frame = 0
  32              		@ frame_needed = 0, uses_anonymous_args = 0
  33 0000 70B5     		push	{r4, r5, r6, lr}
  34              	.LCFI0:
ARM GAS  C:\Users\USUARIO\AppData\Local\Temp\ccpHPuT0.s 			page 2


  35              		.cfi_def_cfa_offset 16
  36              		.cfi_offset 4, -16
  37              		.cfi_offset 5, -12
  38              		.cfi_offset 6, -8
  39              		.cfi_offset 14, -4
  25:Core/drogui/src/sensorsTasks.c ****     readAcc(&myIMU);
  40              		.loc 1 25 5 view .LVU1
  41 0002 164C     		ldr	r4, .L3
  42 0004 2046     		mov	r0, r4
  43 0006 FFF7FEFF 		bl	readAcc
  44              	.LVL0:
  26:Core/drogui/src/sensorsTasks.c **** 
  27:Core/drogui/src/sensorsTasks.c ****     ax = computeFilter(&filter_ax, myIMU.ax);
  45              		.loc 1 27 5 view .LVU2
  46              		.loc 1 27 10 is_stmt 0 view .LVU3
  47 000a 94ED000A 		vldr.32	s0, [r4]
  48 000e 1448     		ldr	r0, .L3+4
  49 0010 FFF7FEFF 		bl	computeFilter
  50              	.LVL1:
  51              		.loc 1 27 8 view .LVU4
  52 0014 134E     		ldr	r6, .L3+8
  53 0016 86ED000A 		vstr.32	s0, [r6]
  28:Core/drogui/src/sensorsTasks.c ****     ay = computeFilter(&filter_ay, myIMU.ay);
  54              		.loc 1 28 5 is_stmt 1 view .LVU5
  55              		.loc 1 28 10 is_stmt 0 view .LVU6
  56 001a 94ED010A 		vldr.32	s0, [r4, #4]
  57 001e 1248     		ldr	r0, .L3+12
  58 0020 FFF7FEFF 		bl	computeFilter
  59              	.LVL2:
  60              		.loc 1 28 8 view .LVU7
  61 0024 114D     		ldr	r5, .L3+16
  62 0026 85ED000A 		vstr.32	s0, [r5]
  29:Core/drogui/src/sensorsTasks.c ****     az = computeFilter(&filter_az, myIMU.az);
  63              		.loc 1 29 5 is_stmt 1 view .LVU8
  64              		.loc 1 29 10 is_stmt 0 view .LVU9
  65 002a 94ED020A 		vldr.32	s0, [r4, #8]
  66 002e 1048     		ldr	r0, .L3+20
  67 0030 FFF7FEFF 		bl	computeFilter
  68              	.LVL3:
  69              		.loc 1 29 8 view .LVU10
  70 0034 0F4C     		ldr	r4, .L3+24
  71 0036 84ED000A 		vstr.32	s0, [r4]
  30:Core/drogui/src/sensorsTasks.c **** 
  31:Core/drogui/src/sensorsTasks.c **** 
  32:Core/drogui/src/sensorsTasks.c ****     /*ax = computeDNotch(&dnotch_ax, ax);
  33:Core/drogui/src/sensorsTasks.c ****     ay = computeDNotch(&dnotch_ay, ay);
  34:Core/drogui/src/sensorsTasks.c ****     az = computeDNotch(&dnotch_az, az);*/
  35:Core/drogui/src/sensorsTasks.c **** 
  36:Core/drogui/src/sensorsTasks.c ****     setReg(ACC_X,(float)(ax));
  72              		.loc 1 36 5 is_stmt 1 view .LVU11
  73 003a 96ED000A 		vldr.32	s0, [r6]
  74 003e 7420     		movs	r0, #116
  75 0040 FFF7FEFF 		bl	setReg
  76              	.LVL4:
  37:Core/drogui/src/sensorsTasks.c ****     setReg(ACC_Y,(float)(ay));
  77              		.loc 1 37 5 view .LVU12
  78 0044 95ED000A 		vldr.32	s0, [r5]
ARM GAS  C:\Users\USUARIO\AppData\Local\Temp\ccpHPuT0.s 			page 3


  79 0048 7620     		movs	r0, #118
  80 004a FFF7FEFF 		bl	setReg
  81              	.LVL5:
  38:Core/drogui/src/sensorsTasks.c ****     setReg(ACC_Z,(float)(az));
  82              		.loc 1 38 5 view .LVU13
  83 004e 94ED000A 		vldr.32	s0, [r4]
  84 0052 7820     		movs	r0, #120
  85 0054 FFF7FEFF 		bl	setReg
  86              	.LVL6:
  39:Core/drogui/src/sensorsTasks.c **** }
  87              		.loc 1 39 1 is_stmt 0 view .LVU14
  88 0058 70BD     		pop	{r4, r5, r6, pc}
  89              	.L4:
  90 005a 00BF     		.align	2
  91              	.L3:
  92 005c 00000000 		.word	.LANCHOR0
  93 0060 00000000 		.word	.LANCHOR1
  94 0064 00000000 		.word	.LANCHOR2
  95 0068 00000000 		.word	.LANCHOR3
  96 006c 00000000 		.word	.LANCHOR4
  97 0070 00000000 		.word	.LANCHOR5
  98 0074 00000000 		.word	.LANCHOR6
  99              		.cfi_endproc
 100              	.LFE177:
 102              		.section	.text.gyroTask,"ax",%progbits
 103              		.align	1
 104              		.global	gyroTask
 105              		.syntax unified
 106              		.thumb
 107              		.thumb_func
 108              		.fpu fpv5-sp-d16
 110              	gyroTask:
 111              	.LFB178:
  40:Core/drogui/src/sensorsTasks.c **** 
  41:Core/drogui/src/sensorsTasks.c **** char buff2[50] = "hola\n";
  42:Core/drogui/src/sensorsTasks.c **** void gyroTask(){
 112              		.loc 1 42 16 is_stmt 1 view -0
 113              		.cfi_startproc
 114              		@ args = 0, pretend = 0, frame = 0
 115              		@ frame_needed = 0, uses_anonymous_args = 0
 116 0000 70B5     		push	{r4, r5, r6, lr}
 117              	.LCFI1:
 118              		.cfi_def_cfa_offset 16
 119              		.cfi_offset 4, -16
 120              		.cfi_offset 5, -12
 121              		.cfi_offset 6, -8
 122              		.cfi_offset 14, -4
  43:Core/drogui/src/sensorsTasks.c ****     //sprintf(buff2, "%lu;\n",TIME);
  44:Core/drogui/src/sensorsTasks.c ****     //HAL_UART_Transmit(&huart2, (uint8_t*) buff2, strlen(buff2), 100);
  45:Core/drogui/src/sensorsTasks.c ****     readGyro(&myIMU);
 123              		.loc 1 45 5 view .LVU16
 124 0002 3E4D     		ldr	r5, .L7
 125 0004 2846     		mov	r0, r5
 126 0006 FFF7FEFF 		bl	readGyro
 127              	.LVL7:
  46:Core/drogui/src/sensorsTasks.c **** 
  47:Core/drogui/src/sensorsTasks.c ****     gx = computeFilter(&filter_gx, myIMU.gx);
ARM GAS  C:\Users\USUARIO\AppData\Local\Temp\ccpHPuT0.s 			page 4


 128              		.loc 1 47 5 view .LVU17
 129              		.loc 1 47 10 is_stmt 0 view .LVU18
 130 000a 95ED070A 		vldr.32	s0, [r5, #28]
 131 000e 3C48     		ldr	r0, .L7+4
 132 0010 FFF7FEFF 		bl	computeFilter
 133              	.LVL8:
 134              		.loc 1 47 8 view .LVU19
 135 0014 3B4E     		ldr	r6, .L7+8
 136 0016 86ED000A 		vstr.32	s0, [r6]
  48:Core/drogui/src/sensorsTasks.c **** 
  49:Core/drogui/src/sensorsTasks.c **** 
  50:Core/drogui/src/sensorsTasks.c ****     /*
  51:Core/drogui/src/sensorsTasks.c ****     sprintf(buff2, "%f\t%f ;\n", myIMU.gx, gx);
  52:Core/drogui/src/sensorsTasks.c ****     HAL_UART_Transmit(&huart2, (uint8_t*) buff2, strlen(buff2), 100);*/
  53:Core/drogui/src/sensorsTasks.c ****     gy = computeFilter(&filter_gy, myIMU.gy);
 137              		.loc 1 53 5 is_stmt 1 view .LVU20
 138              		.loc 1 53 10 is_stmt 0 view .LVU21
 139 001a 95ED080A 		vldr.32	s0, [r5, #32]
 140 001e 3A48     		ldr	r0, .L7+12
 141 0020 FFF7FEFF 		bl	computeFilter
 142              	.LVL9:
 143              		.loc 1 53 8 view .LVU22
 144 0024 394C     		ldr	r4, .L7+16
 145 0026 84ED000A 		vstr.32	s0, [r4]
  54:Core/drogui/src/sensorsTasks.c ****     gz = computeFilter(&filter_gz, myIMU.gz);
 146              		.loc 1 54 5 is_stmt 1 view .LVU23
 147              		.loc 1 54 10 is_stmt 0 view .LVU24
 148 002a 95ED090A 		vldr.32	s0, [r5, #36]
 149 002e 3848     		ldr	r0, .L7+20
 150 0030 FFF7FEFF 		bl	computeFilter
 151              	.LVL10:
 152              		.loc 1 54 8 view .LVU25
 153 0034 374D     		ldr	r5, .L7+24
 154 0036 85ED000A 		vstr.32	s0, [r5]
  55:Core/drogui/src/sensorsTasks.c **** 
  56:Core/drogui/src/sensorsTasks.c ****     
  57:Core/drogui/src/sensorsTasks.c ****     
  58:Core/drogui/src/sensorsTasks.c ****     gx = computeFilter(&filter_gx2, gx);
 155              		.loc 1 58 5 is_stmt 1 view .LVU26
 156              		.loc 1 58 10 is_stmt 0 view .LVU27
 157 003a 96ED000A 		vldr.32	s0, [r6]
 158 003e 3648     		ldr	r0, .L7+28
 159 0040 FFF7FEFF 		bl	computeFilter
 160              	.LVL11:
 161              		.loc 1 58 8 view .LVU28
 162 0044 86ED000A 		vstr.32	s0, [r6]
  59:Core/drogui/src/sensorsTasks.c ****     gy = computeFilter(&filter_gy2, gy);
 163              		.loc 1 59 5 is_stmt 1 view .LVU29
 164              		.loc 1 59 10 is_stmt 0 view .LVU30
 165 0048 94ED000A 		vldr.32	s0, [r4]
 166 004c 3348     		ldr	r0, .L7+32
 167 004e FFF7FEFF 		bl	computeFilter
 168              	.LVL12:
 169              		.loc 1 59 8 view .LVU31
 170 0052 84ED000A 		vstr.32	s0, [r4]
  60:Core/drogui/src/sensorsTasks.c ****     gz = computeFilter(&filter_gz2, gz);
 171              		.loc 1 60 5 is_stmt 1 view .LVU32
ARM GAS  C:\Users\USUARIO\AppData\Local\Temp\ccpHPuT0.s 			page 5


 172              		.loc 1 60 10 is_stmt 0 view .LVU33
 173 0056 95ED000A 		vldr.32	s0, [r5]
 174 005a 3148     		ldr	r0, .L7+36
 175 005c FFF7FEFF 		bl	computeFilter
 176              	.LVL13:
 177              		.loc 1 60 8 view .LVU34
 178 0060 85ED000A 		vstr.32	s0, [r5]
  61:Core/drogui/src/sensorsTasks.c **** 
  62:Core/drogui/src/sensorsTasks.c ****     gx = computeDNotch(&dnotch_gx, gx);
 179              		.loc 1 62 5 is_stmt 1 view .LVU35
 180              		.loc 1 62 10 is_stmt 0 view .LVU36
 181 0064 96ED000A 		vldr.32	s0, [r6]
 182 0068 2E48     		ldr	r0, .L7+40
 183 006a FFF7FEFF 		bl	computeDNotch
 184              	.LVL14:
 185              		.loc 1 62 8 view .LVU37
 186 006e 86ED000A 		vstr.32	s0, [r6]
  63:Core/drogui/src/sensorsTasks.c ****     gy = computeDNotch(&dnotch_gy, gy);
 187              		.loc 1 63 5 is_stmt 1 view .LVU38
 188              		.loc 1 63 10 is_stmt 0 view .LVU39
 189 0072 94ED000A 		vldr.32	s0, [r4]
 190 0076 2C48     		ldr	r0, .L7+44
 191 0078 FFF7FEFF 		bl	computeDNotch
 192              	.LVL15:
 193              		.loc 1 63 8 view .LVU40
 194 007c 84ED000A 		vstr.32	s0, [r4]
  64:Core/drogui/src/sensorsTasks.c ****     gz = computeDNotch(&dnotch_gz, gz);
 195              		.loc 1 64 5 is_stmt 1 view .LVU41
 196              		.loc 1 64 10 is_stmt 0 view .LVU42
 197 0080 95ED000A 		vldr.32	s0, [r5]
 198 0084 2948     		ldr	r0, .L7+48
 199 0086 FFF7FEFF 		bl	computeDNotch
 200              	.LVL16:
 201              		.loc 1 64 8 view .LVU43
 202 008a 85ED000A 		vstr.32	s0, [r5]
  65:Core/drogui/src/sensorsTasks.c **** 
  66:Core/drogui/src/sensorsTasks.c ****     gx = computeDNotch(&dnotch_gx2, gx);
 203              		.loc 1 66 5 is_stmt 1 view .LVU44
 204              		.loc 1 66 10 is_stmt 0 view .LVU45
 205 008e 96ED000A 		vldr.32	s0, [r6]
 206 0092 2748     		ldr	r0, .L7+52
 207 0094 FFF7FEFF 		bl	computeDNotch
 208              	.LVL17:
 209              		.loc 1 66 8 view .LVU46
 210 0098 86ED000A 		vstr.32	s0, [r6]
  67:Core/drogui/src/sensorsTasks.c ****     gy = computeDNotch(&dnotch_gy2, gy);
 211              		.loc 1 67 5 is_stmt 1 view .LVU47
 212              		.loc 1 67 10 is_stmt 0 view .LVU48
 213 009c 94ED000A 		vldr.32	s0, [r4]
 214 00a0 2448     		ldr	r0, .L7+56
 215 00a2 FFF7FEFF 		bl	computeDNotch
 216              	.LVL18:
 217              		.loc 1 67 8 view .LVU49
 218 00a6 84ED000A 		vstr.32	s0, [r4]
  68:Core/drogui/src/sensorsTasks.c ****     gz = computeDNotch(&dnotch_gz2, gz);
 219              		.loc 1 68 5 is_stmt 1 view .LVU50
 220              		.loc 1 68 10 is_stmt 0 view .LVU51
ARM GAS  C:\Users\USUARIO\AppData\Local\Temp\ccpHPuT0.s 			page 6


 221 00aa 95ED000A 		vldr.32	s0, [r5]
 222 00ae 2248     		ldr	r0, .L7+60
 223 00b0 FFF7FEFF 		bl	computeDNotch
 224              	.LVL19:
 225 00b4 F0EE407A 		vmov.f32	s15, s0
 226              		.loc 1 68 8 view .LVU52
 227 00b8 85ED000A 		vstr.32	s0, [r5]
  69:Core/drogui/src/sensorsTasks.c ****     
  70:Core/drogui/src/sensorsTasks.c ****     gx /= 5;
 228              		.loc 1 70 5 is_stmt 1 view .LVU53
 229              		.loc 1 70 8 is_stmt 0 view .LVU54
 230 00bc D6ED006A 		vldr.32	s13, [r6]
 231 00c0 B1EE047A 		vmov.f32	s14, #5.0e+0
 232 00c4 86EE870A 		vdiv.f32	s0, s13, s14
 233 00c8 86ED000A 		vstr.32	s0, [r6]
  71:Core/drogui/src/sensorsTasks.c ****     gy /= 5;
 234              		.loc 1 71 5 is_stmt 1 view .LVU55
 235              		.loc 1 71 8 is_stmt 0 view .LVU56
 236 00cc 94ED006A 		vldr.32	s12, [r4]
 237 00d0 C6EE076A 		vdiv.f32	s13, s12, s14
 238 00d4 C4ED006A 		vstr.32	s13, [r4]
  72:Core/drogui/src/sensorsTasks.c ****     gz /= 5; 
 239              		.loc 1 72 5 is_stmt 1 view .LVU57
 240              		.loc 1 72 8 is_stmt 0 view .LVU58
 241 00d8 C7EE876A 		vdiv.f32	s13, s15, s14
 242 00dc C5ED006A 		vstr.32	s13, [r5]
  73:Core/drogui/src/sensorsTasks.c **** 
  74:Core/drogui/src/sensorsTasks.c **** 
  75:Core/drogui/src/sensorsTasks.c ****     setReg(GYRO_X, gx);
 243              		.loc 1 75 5 is_stmt 1 view .LVU59
 244 00e0 7C20     		movs	r0, #124
 245 00e2 FFF7FEFF 		bl	setReg
 246              	.LVL20:
  76:Core/drogui/src/sensorsTasks.c ****     setReg(GYRO_Y, gy);
 247              		.loc 1 76 5 view .LVU60
 248 00e6 94ED000A 		vldr.32	s0, [r4]
 249 00ea 7E20     		movs	r0, #126
 250 00ec FFF7FEFF 		bl	setReg
 251              	.LVL21:
  77:Core/drogui/src/sensorsTasks.c ****     setReg(GYRO_Z, gz);
 252              		.loc 1 77 5 view .LVU61
 253 00f0 95ED000A 		vldr.32	s0, [r5]
 254 00f4 8020     		movs	r0, #128
 255 00f6 FFF7FEFF 		bl	setReg
 256              	.LVL22:
  78:Core/drogui/src/sensorsTasks.c **** }
 257              		.loc 1 78 1 is_stmt 0 view .LVU62
 258 00fa 70BD     		pop	{r4, r5, r6, pc}
 259              	.L8:
 260              		.align	2
 261              	.L7:
 262 00fc 00000000 		.word	.LANCHOR0
 263 0100 00000000 		.word	.LANCHOR7
 264 0104 00000000 		.word	.LANCHOR8
 265 0108 00000000 		.word	.LANCHOR9
 266 010c 00000000 		.word	.LANCHOR10
 267 0110 00000000 		.word	.LANCHOR11
ARM GAS  C:\Users\USUARIO\AppData\Local\Temp\ccpHPuT0.s 			page 7


 268 0114 00000000 		.word	.LANCHOR12
 269 0118 00000000 		.word	.LANCHOR13
 270 011c 00000000 		.word	.LANCHOR14
 271 0120 00000000 		.word	.LANCHOR15
 272 0124 00000000 		.word	.LANCHOR16
 273 0128 00000000 		.word	.LANCHOR17
 274 012c 00000000 		.word	.LANCHOR18
 275 0130 00000000 		.word	.LANCHOR19
 276 0134 00000000 		.word	.LANCHOR20
 277 0138 00000000 		.word	.LANCHOR21
 278              		.cfi_endproc
 279              	.LFE178:
 281              		.section	.text.magTask,"ax",%progbits
 282              		.align	1
 283              		.global	magTask
 284              		.syntax unified
 285              		.thumb
 286              		.thumb_func
 287              		.fpu fpv5-sp-d16
 289              	magTask:
 290              	.LFB179:
  79:Core/drogui/src/sensorsTasks.c **** 
  80:Core/drogui/src/sensorsTasks.c **** void magTask(){
 291              		.loc 1 80 15 is_stmt 1 view -0
 292              		.cfi_startproc
 293              		@ args = 0, pretend = 0, frame = 0
 294              		@ frame_needed = 0, uses_anonymous_args = 0
 295 0000 10B5     		push	{r4, lr}
 296              	.LCFI2:
 297              		.cfi_def_cfa_offset 8
 298              		.cfi_offset 4, -8
 299              		.cfi_offset 14, -4
  81:Core/drogui/src/sensorsTasks.c ****     readMag(&myIMU);
 300              		.loc 1 81 5 view .LVU64
 301 0002 074C     		ldr	r4, .L11
 302 0004 2046     		mov	r0, r4
 303 0006 FFF7FEFF 		bl	readMag
 304              	.LVL23:
  82:Core/drogui/src/sensorsTasks.c ****     mx = myIMU.mx;
 305              		.loc 1 82 5 view .LVU65
 306              		.loc 1 82 15 is_stmt 0 view .LVU66
 307 000a 626B     		ldr	r2, [r4, #52]	@ float
 308              		.loc 1 82 8 view .LVU67
 309 000c 054B     		ldr	r3, .L11+4
 310 000e 1A60     		str	r2, [r3]	@ float
  83:Core/drogui/src/sensorsTasks.c ****     my = myIMU.my;
 311              		.loc 1 83 5 is_stmt 1 view .LVU68
 312              		.loc 1 83 15 is_stmt 0 view .LVU69
 313 0010 A26B     		ldr	r2, [r4, #56]	@ float
 314              		.loc 1 83 8 view .LVU70
 315 0012 054B     		ldr	r3, .L11+8
 316 0014 1A60     		str	r2, [r3]	@ float
  84:Core/drogui/src/sensorsTasks.c ****     mz = myIMU.mz;
 317              		.loc 1 84 5 is_stmt 1 view .LVU71
 318              		.loc 1 84 15 is_stmt 0 view .LVU72
 319 0016 E26B     		ldr	r2, [r4, #60]	@ float
 320              		.loc 1 84 8 view .LVU73
ARM GAS  C:\Users\USUARIO\AppData\Local\Temp\ccpHPuT0.s 			page 8


 321 0018 044B     		ldr	r3, .L11+12
 322 001a 1A60     		str	r2, [r3]	@ float
  85:Core/drogui/src/sensorsTasks.c **** }
 323              		.loc 1 85 1 view .LVU74
 324 001c 10BD     		pop	{r4, pc}
 325              	.L12:
 326 001e 00BF     		.align	2
 327              	.L11:
 328 0020 00000000 		.word	.LANCHOR0
 329 0024 00000000 		.word	.LANCHOR22
 330 0028 00000000 		.word	.LANCHOR23
 331 002c 00000000 		.word	.LANCHOR24
 332              		.cfi_endproc
 333              	.LFE179:
 335              		.global	__aeabi_f2d
 336              		.global	__aeabi_dadd
 337              		.global	__aeabi_d2f
 338              		.section	.text.rpyTask,"ax",%progbits
 339              		.align	1
 340              		.global	rpyTask
 341              		.syntax unified
 342              		.thumb
 343              		.thumb_func
 344              		.fpu fpv5-sp-d16
 346              	rpyTask:
 347              	.LFB180:
  86:Core/drogui/src/sensorsTasks.c **** 
  87:Core/drogui/src/sensorsTasks.c **** float Kdfilt = 0.0005;
  88:Core/drogui/src/sensorsTasks.c **** void rpyTask(){
 348              		.loc 1 88 15 is_stmt 1 view -0
 349              		.cfi_startproc
 350              		@ args = 0, pretend = 0, frame = 16
 351              		@ frame_needed = 0, uses_anonymous_args = 0
 352 0000 2DE97043 		push	{r4, r5, r6, r8, r9, lr}
 353              	.LCFI3:
 354              		.cfi_def_cfa_offset 24
 355              		.cfi_offset 4, -24
 356              		.cfi_offset 5, -20
 357              		.cfi_offset 6, -16
 358              		.cfi_offset 8, -12
 359              		.cfi_offset 9, -8
 360              		.cfi_offset 14, -4
 361 0004 2DED088B 		vpush.64	{d8, d9, d10, d11}
 362              	.LCFI4:
 363              		.cfi_def_cfa_offset 56
 364              		.cfi_offset 80, -56
 365              		.cfi_offset 81, -52
 366              		.cfi_offset 82, -48
 367              		.cfi_offset 83, -44
 368              		.cfi_offset 84, -40
 369              		.cfi_offset 85, -36
 370              		.cfi_offset 86, -32
 371              		.cfi_offset 87, -28
 372 0008 84B0     		sub	sp, sp, #16
 373              	.LCFI5:
 374              		.cfi_def_cfa_offset 72
  89:Core/drogui/src/sensorsTasks.c ****     
ARM GAS  C:\Users\USUARIO\AppData\Local\Temp\ccpHPuT0.s 			page 9


  90:Core/drogui/src/sensorsTasks.c ****     float rpy[3];
 375              		.loc 1 90 5 view .LVU76
  91:Core/drogui/src/sensorsTasks.c ****     mahonyUpdate(gx*PI/360.0f, gy*PI/360.0f, gz*PI/360.0f, ax, ay, az, my, mx, mz);
 376              		.loc 1 91 5 view .LVU77
 377              		.loc 1 91 20 is_stmt 0 view .LVU78
 378 000a 704B     		ldr	r3, .L15
 379 000c 93ED000A 		vldr.32	s0, [r3]
 380 0010 DFED6F7A 		vldr.32	s15, .L15+4
 381 0014 20EE270A 		vmul.f32	s0, s0, s15
 382              		.loc 1 91 34 view .LVU79
 383 0018 6E4B     		ldr	r3, .L15+8
 384 001a D3ED000A 		vldr.32	s1, [r3]
 385 001e 60EEA70A 		vmul.f32	s1, s1, s15
 386              		.loc 1 91 48 view .LVU80
 387 0022 6D4B     		ldr	r3, .L15+12
 388 0024 93ED001A 		vldr.32	s2, [r3]
 389 0028 21EE271A 		vmul.f32	s2, s2, s15
 390              		.loc 1 91 5 view .LVU81
 391 002c DFED6B7A 		vldr.32	s15, .L15+16
 392 0030 6B4B     		ldr	r3, .L15+20
 393 0032 93ED004A 		vldr.32	s8, [r3]
 394 0036 6B4B     		ldr	r3, .L15+24
 395 0038 D3ED003A 		vldr.32	s7, [r3]
 396 003c 6A4B     		ldr	r3, .L15+28
 397 003e 93ED003A 		vldr.32	s6, [r3]
 398 0042 6A4B     		ldr	r3, .L15+32
 399 0044 D3ED002A 		vldr.32	s5, [r3]
 400 0048 694B     		ldr	r3, .L15+36
 401 004a 93ED002A 		vldr.32	s4, [r3]
 402 004e 694B     		ldr	r3, .L15+40
 403 0050 D3ED001A 		vldr.32	s3, [r3]
 404 0054 81EE271A 		vdiv.f32	s2, s2, s15
 405 0058 C0EEA70A 		vdiv.f32	s1, s1, s15
 406 005c 80EE270A 		vdiv.f32	s0, s0, s15
 407 0060 FFF7FEFF 		bl	mahonyUpdate
 408              	.LVL24:
  92:Core/drogui/src/sensorsTasks.c ****     getMahonyEuler(rpy);
 409              		.loc 1 92 5 is_stmt 1 view .LVU82
 410 0064 01A8     		add	r0, sp, #4
 411 0066 FFF7FEFF 		bl	getMahonyEuler
 412              	.LVL25:
  93:Core/drogui/src/sensorsTasks.c ****     //roll = rpy[0], pitch = rpy[1], yaw = rpy[2];
  94:Core/drogui/src/sensorsTasks.c ****     roll += fmax(fmin(Kdfilt, (rpy[0] - roll)),-Kdfilt);
 413              		.loc 1 94 5 view .LVU83
 414              		.loc 1 94 10 is_stmt 0 view .LVU84
 415 006a 634E     		ldr	r6, .L15+44
 416 006c 96ED00BA 		vldr.32	s22, [r6]
 417              		.loc 1 94 13 view .LVU85
 418 0070 624B     		ldr	r3, .L15+48
 419 0072 1C68     		ldr	r4, [r3]	@ float
 420 0074 2046     		mov	r0, r4	@ float
 421 0076 FFF7FEFF 		bl	__aeabi_f2d
 422              	.LVL26:
 423 007a 41EC190B 		vmov	d9, r0, r1
 424 007e DDED017A 		vldr.32	s15, [sp, #4]
 425 0082 77EECB7A 		vsub.f32	s15, s15, s22
 426 0086 17EE900A 		vmov	r0, s15
ARM GAS  C:\Users\USUARIO\AppData\Local\Temp\ccpHPuT0.s 			page 10


 427 008a FFF7FEFF 		bl	__aeabi_f2d
 428              	.LVL27:
 429 008e 41EC110B 		vmov	d1, r0, r1
 430 0092 B0EE490A 		vmov.f32	s0, s18
 431 0096 F0EE690A 		vmov.f32	s1, s19
 432 009a FFF7FEFF 		bl	fmin
 433              	.LVL28:
 434 009e B0EE40AA 		vmov.f32	s20, s0
 435 00a2 F0EE60AA 		vmov.f32	s21, s1
 436 00a6 84F00040 		eor	r0, r4, #-2147483648
 437 00aa FFF7FEFF 		bl	__aeabi_f2d
 438              	.LVL29:
 439 00ae 41EC180B 		vmov	d8, r0, r1
 440 00b2 41EC110B 		vmov	d1, r0, r1
 441 00b6 B0EE4A0A 		vmov.f32	s0, s20
 442 00ba F0EE6A0A 		vmov.f32	s1, s21
 443 00be FFF7FEFF 		bl	fmax
 444              	.LVL30:
 445 00c2 55EC104B 		vmov	r4, r5, d0
 446              		.loc 1 94 10 view .LVU86
 447 00c6 1BEE100A 		vmov	r0, s22
 448 00ca FFF7FEFF 		bl	__aeabi_f2d
 449              	.LVL31:
 450 00ce 2246     		mov	r2, r4
 451 00d0 2B46     		mov	r3, r5
 452 00d2 FFF7FEFF 		bl	__aeabi_dadd
 453              	.LVL32:
 454 00d6 FFF7FEFF 		bl	__aeabi_d2f
 455              	.LVL33:
 456 00da 0AEE100A 		vmov	s20, r0
 457 00de 3060     		str	r0, [r6]	@ float
  95:Core/drogui/src/sensorsTasks.c ****     pitch += fmax(fmin(Kdfilt, (rpy[1] - pitch)),-Kdfilt);
 458              		.loc 1 95 5 is_stmt 1 view .LVU87
 459              		.loc 1 95 11 is_stmt 0 view .LVU88
 460 00e0 474D     		ldr	r5, .L15+52
 461 00e2 D5ED00AA 		vldr.32	s21, [r5]
 462              		.loc 1 95 14 view .LVU89
 463 00e6 DDED027A 		vldr.32	s15, [sp, #8]
 464 00ea 77EEEA7A 		vsub.f32	s15, s15, s21
 465 00ee 17EE900A 		vmov	r0, s15
 466 00f2 FFF7FEFF 		bl	__aeabi_f2d
 467              	.LVL34:
 468 00f6 41EC110B 		vmov	d1, r0, r1
 469 00fa B0EE490A 		vmov.f32	s0, s18
 470 00fe F0EE690A 		vmov.f32	s1, s19
 471 0102 FFF7FEFF 		bl	fmin
 472              	.LVL35:
 473 0106 B0EE481A 		vmov.f32	s2, s16
 474 010a F0EE681A 		vmov.f32	s3, s17
 475 010e FFF7FEFF 		bl	fmax
 476              	.LVL36:
 477 0112 59EC108B 		vmov	r8, r9, d0
 478              		.loc 1 95 11 view .LVU90
 479 0116 1AEE900A 		vmov	r0, s21
 480 011a FFF7FEFF 		bl	__aeabi_f2d
 481              	.LVL37:
 482 011e 4246     		mov	r2, r8
ARM GAS  C:\Users\USUARIO\AppData\Local\Temp\ccpHPuT0.s 			page 11


 483 0120 4B46     		mov	r3, r9
 484 0122 FFF7FEFF 		bl	__aeabi_dadd
 485              	.LVL38:
 486 0126 FFF7FEFF 		bl	__aeabi_d2f
 487              	.LVL39:
 488 012a 2860     		str	r0, [r5]	@ float
  96:Core/drogui/src/sensorsTasks.c ****     yaw += fmax(fmin(Kdfilt,(rpy[2] - yaw)),-Kdfilt);
 489              		.loc 1 96 5 is_stmt 1 view .LVU91
 490              		.loc 1 96 9 is_stmt 0 view .LVU92
 491 012c 354C     		ldr	r4, .L15+56
 492 012e D4ED00AA 		vldr.32	s21, [r4]
 493              		.loc 1 96 12 view .LVU93
 494 0132 DDED037A 		vldr.32	s15, [sp, #12]
 495 0136 77EEEA7A 		vsub.f32	s15, s15, s21
 496 013a 17EE900A 		vmov	r0, s15
 497 013e FFF7FEFF 		bl	__aeabi_f2d
 498              	.LVL40:
 499 0142 41EC110B 		vmov	d1, r0, r1
 500 0146 B0EE490A 		vmov.f32	s0, s18
 501 014a F0EE690A 		vmov.f32	s1, s19
 502 014e FFF7FEFF 		bl	fmin
 503              	.LVL41:
 504 0152 B0EE481A 		vmov.f32	s2, s16
 505 0156 F0EE681A 		vmov.f32	s3, s17
 506 015a FFF7FEFF 		bl	fmax
 507              	.LVL42:
 508 015e 59EC108B 		vmov	r8, r9, d0
 509              		.loc 1 96 9 view .LVU94
 510 0162 1AEE900A 		vmov	r0, s21
 511 0166 FFF7FEFF 		bl	__aeabi_f2d
 512              	.LVL43:
 513 016a 4246     		mov	r2, r8
 514 016c 4B46     		mov	r3, r9
 515 016e FFF7FEFF 		bl	__aeabi_dadd
 516              	.LVL44:
 517 0172 FFF7FEFF 		bl	__aeabi_d2f
 518              	.LVL45:
 519 0176 2060     		str	r0, [r4]	@ float
  97:Core/drogui/src/sensorsTasks.c **** 
  98:Core/drogui/src/sensorsTasks.c ****     roll = computeFilter(&filter_roll, roll);
 520              		.loc 1 98 5 is_stmt 1 view .LVU95
 521              		.loc 1 98 12 is_stmt 0 view .LVU96
 522 0178 B0EE4A0A 		vmov.f32	s0, s20
 523 017c 2248     		ldr	r0, .L15+60
 524 017e FFF7FEFF 		bl	computeFilter
 525              	.LVL46:
 526              		.loc 1 98 10 view .LVU97
 527 0182 86ED000A 		vstr.32	s0, [r6]
  99:Core/drogui/src/sensorsTasks.c ****     pitch = computeFilter(&filter_pitch, pitch);
 528              		.loc 1 99 5 is_stmt 1 view .LVU98
 529              		.loc 1 99 13 is_stmt 0 view .LVU99
 530 0186 95ED000A 		vldr.32	s0, [r5]
 531 018a 2048     		ldr	r0, .L15+64
 532 018c FFF7FEFF 		bl	computeFilter
 533              	.LVL47:
 534              		.loc 1 99 11 view .LVU100
 535 0190 85ED000A 		vstr.32	s0, [r5]
ARM GAS  C:\Users\USUARIO\AppData\Local\Temp\ccpHPuT0.s 			page 12


 100:Core/drogui/src/sensorsTasks.c ****     yaw = computeFilter(&filter_yaw, yaw);
 536              		.loc 1 100 5 is_stmt 1 view .LVU101
 537              		.loc 1 100 11 is_stmt 0 view .LVU102
 538 0194 94ED000A 		vldr.32	s0, [r4]
 539 0198 1D48     		ldr	r0, .L15+68
 540 019a FFF7FEFF 		bl	computeFilter
 541              	.LVL48:
 542              		.loc 1 100 9 view .LVU103
 543 019e 84ED000A 		vstr.32	s0, [r4]
 101:Core/drogui/src/sensorsTasks.c **** 
 102:Core/drogui/src/sensorsTasks.c ****     setReg(ROLL_VAL, roll);
 544              		.loc 1 102 5 is_stmt 1 view .LVU104
 545 01a2 96ED000A 		vldr.32	s0, [r6]
 546 01a6 2E20     		movs	r0, #46
 547 01a8 FFF7FEFF 		bl	setReg
 548              	.LVL49:
 103:Core/drogui/src/sensorsTasks.c ****     setReg(PITCH_VAL, pitch);
 549              		.loc 1 103 5 view .LVU105
 550 01ac 95ED000A 		vldr.32	s0, [r5]
 551 01b0 3020     		movs	r0, #48
 552 01b2 FFF7FEFF 		bl	setReg
 553              	.LVL50:
 104:Core/drogui/src/sensorsTasks.c ****     setReg(YAW_VAL, yaw);
 554              		.loc 1 104 5 view .LVU106
 555 01b6 94ED000A 		vldr.32	s0, [r4]
 556 01ba 3220     		movs	r0, #50
 557 01bc FFF7FEFF 		bl	setReg
 558              	.LVL51:
 105:Core/drogui/src/sensorsTasks.c **** }
 559              		.loc 1 105 1 is_stmt 0 view .LVU107
 560 01c0 04B0     		add	sp, sp, #16
 561              	.LCFI6:
 562              		.cfi_def_cfa_offset 56
 563              		@ sp needed
 564 01c2 BDEC088B 		vldm	sp!, {d8-d11}
 565              	.LCFI7:
 566              		.cfi_restore 86
 567              		.cfi_restore 87
 568              		.cfi_restore 84
 569              		.cfi_restore 85
 570              		.cfi_restore 82
 571              		.cfi_restore 83
 572              		.cfi_restore 80
 573              		.cfi_restore 81
 574              		.cfi_def_cfa_offset 24
 575 01c6 BDE87083 		pop	{r4, r5, r6, r8, r9, pc}
 576              	.L16:
 577 01ca 00BF     		.align	2
 578              	.L15:
 579 01cc 00000000 		.word	.LANCHOR8
 580 01d0 DB0F4940 		.word	1078530011
 581 01d4 00000000 		.word	.LANCHOR10
 582 01d8 00000000 		.word	.LANCHOR12
 583 01dc 0000B443 		.word	1135869952
 584 01e0 00000000 		.word	.LANCHOR24
 585 01e4 00000000 		.word	.LANCHOR22
 586 01e8 00000000 		.word	.LANCHOR23
ARM GAS  C:\Users\USUARIO\AppData\Local\Temp\ccpHPuT0.s 			page 13


 587 01ec 00000000 		.word	.LANCHOR6
 588 01f0 00000000 		.word	.LANCHOR4
 589 01f4 00000000 		.word	.LANCHOR2
 590 01f8 00000000 		.word	.LANCHOR25
 591 01fc 00000000 		.word	.LANCHOR26
 592 0200 00000000 		.word	.LANCHOR27
 593 0204 00000000 		.word	.LANCHOR28
 594 0208 00000000 		.word	.LANCHOR29
 595 020c 00000000 		.word	.LANCHOR30
 596 0210 00000000 		.word	.LANCHOR31
 597              		.cfi_endproc
 598              	.LFE180:
 600              		.section	.text.initSensorsTasks,"ax",%progbits
 601              		.align	1
 602              		.global	initSensorsTasks
 603              		.syntax unified
 604              		.thumb
 605              		.thumb_func
 606              		.fpu fpv5-sp-d16
 608              	initSensorsTasks:
 609              	.LFB181:
 106:Core/drogui/src/sensorsTasks.c **** 
 107:Core/drogui/src/sensorsTasks.c **** 
 108:Core/drogui/src/sensorsTasks.c **** void initSensorsTasks(){
 610              		.loc 1 108 24 is_stmt 1 view -0
 611              		.cfi_startproc
 612              		@ args = 0, pretend = 0, frame = 0
 613              		@ frame_needed = 0, uses_anonymous_args = 0
 614 0000 2DE9F047 		push	{r4, r5, r6, r7, r8, r9, r10, lr}
 615              	.LCFI8:
 616              		.cfi_def_cfa_offset 32
 617              		.cfi_offset 4, -32
 618              		.cfi_offset 5, -28
 619              		.cfi_offset 6, -24
 620              		.cfi_offset 7, -20
 621              		.cfi_offset 8, -16
 622              		.cfi_offset 9, -12
 623              		.cfi_offset 10, -8
 624              		.cfi_offset 14, -4
 625 0004 2DED028B 		vpush.64	{d8}
 626              	.LCFI9:
 627              		.cfi_def_cfa_offset 40
 628              		.cfi_offset 80, -40
 629              		.cfi_offset 81, -36
 109:Core/drogui/src/sensorsTasks.c ****     
 110:Core/drogui/src/sensorsTasks.c ****     initMpu(&myIMU);
 630              		.loc 1 110 5 view .LVU109
 631 0008 734F     		ldr	r7, .L19
 632 000a 3846     		mov	r0, r7
 633 000c FFF7FEFF 		bl	initMpu
 634              	.LVL52:
 111:Core/drogui/src/sensorsTasks.c **** 
 112:Core/drogui/src/sensorsTasks.c ****     initFilter(&filter_gx, sz_1_10 , k_1_10, v_1_10);
 635              		.loc 1 112 5 view .LVU110
 636 0010 724E     		ldr	r6, .L19+4
 637 0012 734D     		ldr	r5, .L19+8
 638 0014 734C     		ldr	r4, .L19+12
ARM GAS  C:\Users\USUARIO\AppData\Local\Temp\ccpHPuT0.s 			page 14


 639 0016 3346     		mov	r3, r6
 640 0018 2A46     		mov	r2, r5
 641 001a 2168     		ldr	r1, [r4]
 642 001c 7248     		ldr	r0, .L19+16
 643 001e FFF7FEFF 		bl	initFilter
 644              	.LVL53:
 113:Core/drogui/src/sensorsTasks.c ****     initFilter(&filter_gy, sz_1_10 , k_1_10, v_1_10);
 645              		.loc 1 113 5 view .LVU111
 646 0022 3346     		mov	r3, r6
 647 0024 2A46     		mov	r2, r5
 648 0026 2168     		ldr	r1, [r4]
 649 0028 7048     		ldr	r0, .L19+20
 650 002a FFF7FEFF 		bl	initFilter
 651              	.LVL54:
 114:Core/drogui/src/sensorsTasks.c ****     initFilter(&filter_gz, sz_1_10 , k_1_10, v_1_10);
 652              		.loc 1 114 5 view .LVU112
 653 002e 3346     		mov	r3, r6
 654 0030 2A46     		mov	r2, r5
 655 0032 2168     		ldr	r1, [r4]
 656 0034 6E48     		ldr	r0, .L19+24
 657 0036 FFF7FEFF 		bl	initFilter
 658              	.LVL55:
 115:Core/drogui/src/sensorsTasks.c **** 
 116:Core/drogui/src/sensorsTasks.c ****     initFilter(&filter_gx2, sz_3_10 , k_3_10, v_3_10);
 659              		.loc 1 116 5 view .LVU113
 660 003a DFF810A2 		ldr	r10, .L19+116
 661 003e DFF81092 		ldr	r9, .L19+120
 662 0042 DFF81082 		ldr	r8, .L19+124
 663 0046 5346     		mov	r3, r10
 664 0048 4A46     		mov	r2, r9
 665 004a D8F80010 		ldr	r1, [r8]
 666 004e 6948     		ldr	r0, .L19+28
 667 0050 FFF7FEFF 		bl	initFilter
 668              	.LVL56:
 117:Core/drogui/src/sensorsTasks.c ****     initFilter(&filter_gy2, sz_3_10 , k_3_10, v_3_10);
 669              		.loc 1 117 5 view .LVU114
 670 0054 5346     		mov	r3, r10
 671 0056 4A46     		mov	r2, r9
 672 0058 D8F80010 		ldr	r1, [r8]
 673 005c 6648     		ldr	r0, .L19+32
 674 005e FFF7FEFF 		bl	initFilter
 675              	.LVL57:
 118:Core/drogui/src/sensorsTasks.c ****     initFilter(&filter_gz2, sz_3_10 , k_3_10, v_3_10);
 676              		.loc 1 118 5 view .LVU115
 677 0062 5346     		mov	r3, r10
 678 0064 4A46     		mov	r2, r9
 679 0066 D8F80010 		ldr	r1, [r8]
 680 006a 6448     		ldr	r0, .L19+36
 681 006c FFF7FEFF 		bl	initFilter
 682              	.LVL58:
 119:Core/drogui/src/sensorsTasks.c **** 
 120:Core/drogui/src/sensorsTasks.c ****     initDNotchFilter(&dnotch_gx, 64, 50, 1000, 1, 10);
 683              		.loc 1 120 5 view .LVU116
 684 0070 9FED638A 		vldr.32	s16, .L19+40
 685 0074 DFED638A 		vldr.32	s17, .L19+44
 686 0078 F2EE041A 		vmov.f32	s3, #1.0e+1
 687 007c B7EE001A 		vmov.f32	s2, #1.0e+0
ARM GAS  C:\Users\USUARIO\AppData\Local\Temp\ccpHPuT0.s 			page 15


 688 0080 F0EE480A 		vmov.f32	s1, s16
 689 0084 B0EE680A 		vmov.f32	s0, s17
 690 0088 4021     		movs	r1, #64
 691 008a 5F48     		ldr	r0, .L19+48
 692 008c FFF7FEFF 		bl	initDNotchFilter
 693              	.LVL59:
 121:Core/drogui/src/sensorsTasks.c ****     initDNotchFilter(&dnotch_gy, 64, 50, 1000, 1, 10);
 694              		.loc 1 121 5 view .LVU117
 695 0090 F2EE041A 		vmov.f32	s3, #1.0e+1
 696 0094 B7EE001A 		vmov.f32	s2, #1.0e+0
 697 0098 F0EE480A 		vmov.f32	s1, s16
 698 009c B0EE680A 		vmov.f32	s0, s17
 699 00a0 4021     		movs	r1, #64
 700 00a2 5A48     		ldr	r0, .L19+52
 701 00a4 FFF7FEFF 		bl	initDNotchFilter
 702              	.LVL60:
 122:Core/drogui/src/sensorsTasks.c ****     initDNotchFilter(&dnotch_gz, 64, 50, 1000, 1, 10);
 703              		.loc 1 122 5 view .LVU118
 704 00a8 F2EE041A 		vmov.f32	s3, #1.0e+1
 705 00ac B7EE001A 		vmov.f32	s2, #1.0e+0
 706 00b0 F0EE480A 		vmov.f32	s1, s16
 707 00b4 B0EE680A 		vmov.f32	s0, s17
 708 00b8 4021     		movs	r1, #64
 709 00ba 5548     		ldr	r0, .L19+56
 710 00bc FFF7FEFF 		bl	initDNotchFilter
 711              	.LVL61:
 123:Core/drogui/src/sensorsTasks.c **** 
 124:Core/drogui/src/sensorsTasks.c ****     initDNotchFilter(&dnotch_gx2, 64, 50, 1000, 1, 5);
 712              		.loc 1 124 5 view .LVU119
 713 00c0 F1EE041A 		vmov.f32	s3, #5.0e+0
 714 00c4 B7EE001A 		vmov.f32	s2, #1.0e+0
 715 00c8 F0EE480A 		vmov.f32	s1, s16
 716 00cc B0EE680A 		vmov.f32	s0, s17
 717 00d0 4021     		movs	r1, #64
 718 00d2 5048     		ldr	r0, .L19+60
 719 00d4 FFF7FEFF 		bl	initDNotchFilter
 720              	.LVL62:
 125:Core/drogui/src/sensorsTasks.c ****     initDNotchFilter(&dnotch_gy2, 64, 50, 1000, 1, 5);
 721              		.loc 1 125 5 view .LVU120
 722 00d8 F1EE041A 		vmov.f32	s3, #5.0e+0
 723 00dc B7EE001A 		vmov.f32	s2, #1.0e+0
 724 00e0 F0EE480A 		vmov.f32	s1, s16
 725 00e4 B0EE680A 		vmov.f32	s0, s17
 726 00e8 4021     		movs	r1, #64
 727 00ea 4B48     		ldr	r0, .L19+64
 728 00ec FFF7FEFF 		bl	initDNotchFilter
 729              	.LVL63:
 126:Core/drogui/src/sensorsTasks.c ****     initDNotchFilter(&dnotch_gz2, 64, 50, 1000, 1, 5);
 730              		.loc 1 126 5 view .LVU121
 731 00f0 F1EE041A 		vmov.f32	s3, #5.0e+0
 732 00f4 B7EE001A 		vmov.f32	s2, #1.0e+0
 733 00f8 F0EE480A 		vmov.f32	s1, s16
 734 00fc B0EE680A 		vmov.f32	s0, s17
 735 0100 4021     		movs	r1, #64
 736 0102 4648     		ldr	r0, .L19+68
 737 0104 FFF7FEFF 		bl	initDNotchFilter
 738              	.LVL64:
ARM GAS  C:\Users\USUARIO\AppData\Local\Temp\ccpHPuT0.s 			page 16


 127:Core/drogui/src/sensorsTasks.c **** 
 128:Core/drogui/src/sensorsTasks.c **** 
 129:Core/drogui/src/sensorsTasks.c **** 
 130:Core/drogui/src/sensorsTasks.c ****     /*initFilter(&filter_ax, sz_1_10 , k_1_10, v_1_10);
 131:Core/drogui/src/sensorsTasks.c ****     initFilter(&filter_ay, sz_1_10 , k_1_10, v_1_10);
 132:Core/drogui/src/sensorsTasks.c ****     initFilter(&filter_az, sz_1_10 , k_1_10, v_1_10);*/
 133:Core/drogui/src/sensorsTasks.c **** 
 134:Core/drogui/src/sensorsTasks.c ****     initFilter(&filter_ax, sz_5_100 , k_5_100, v_5_100);
 739              		.loc 1 134 5 view .LVU122
 740 0108 DFF84CA1 		ldr	r10, .L19+128
 741 010c DFF84C91 		ldr	r9, .L19+132
 742 0110 DFF84C81 		ldr	r8, .L19+136
 743 0114 5346     		mov	r3, r10
 744 0116 4A46     		mov	r2, r9
 745 0118 D8F80010 		ldr	r1, [r8]
 746 011c 4048     		ldr	r0, .L19+72
 747 011e FFF7FEFF 		bl	initFilter
 748              	.LVL65:
 135:Core/drogui/src/sensorsTasks.c ****     initFilter(&filter_ay, sz_5_100 , k_5_100, v_5_100);
 749              		.loc 1 135 5 view .LVU123
 750 0122 5346     		mov	r3, r10
 751 0124 4A46     		mov	r2, r9
 752 0126 D8F80010 		ldr	r1, [r8]
 753 012a 3E48     		ldr	r0, .L19+76
 754 012c FFF7FEFF 		bl	initFilter
 755              	.LVL66:
 136:Core/drogui/src/sensorsTasks.c ****     initFilter(&filter_az, sz_5_100 , k_5_100, v_5_100);
 756              		.loc 1 136 5 view .LVU124
 757 0130 5346     		mov	r3, r10
 758 0132 4A46     		mov	r2, r9
 759 0134 D8F80010 		ldr	r1, [r8]
 760 0138 3B48     		ldr	r0, .L19+80
 761 013a FFF7FEFF 		bl	initFilter
 762              	.LVL67:
 137:Core/drogui/src/sensorsTasks.c **** 
 138:Core/drogui/src/sensorsTasks.c **** 
 139:Core/drogui/src/sensorsTasks.c ****     initDNotchFilter(&dnotch_ax, 64, 30, 1000, 1, 10);
 763              		.loc 1 139 5 view .LVU125
 764 013e F2EE041A 		vmov.f32	s3, #1.0e+1
 765 0142 B7EE001A 		vmov.f32	s2, #1.0e+0
 766 0146 F0EE480A 		vmov.f32	s1, s16
 767 014a B3EE0E0A 		vmov.f32	s0, #3.0e+1
 768 014e 4021     		movs	r1, #64
 769 0150 3648     		ldr	r0, .L19+84
 770 0152 FFF7FEFF 		bl	initDNotchFilter
 771              	.LVL68:
 140:Core/drogui/src/sensorsTasks.c ****     initDNotchFilter(&dnotch_ay, 64, 30, 1000, 1, 10);
 772              		.loc 1 140 5 view .LVU126
 773 0156 F2EE041A 		vmov.f32	s3, #1.0e+1
 774 015a B7EE001A 		vmov.f32	s2, #1.0e+0
 775 015e F0EE480A 		vmov.f32	s1, s16
 776 0162 B3EE0E0A 		vmov.f32	s0, #3.0e+1
 777 0166 4021     		movs	r1, #64
 778 0168 3148     		ldr	r0, .L19+88
 779 016a FFF7FEFF 		bl	initDNotchFilter
 780              	.LVL69:
 141:Core/drogui/src/sensorsTasks.c ****     initDNotchFilter(&dnotch_az, 64, 30, 1000, 1, 10);
ARM GAS  C:\Users\USUARIO\AppData\Local\Temp\ccpHPuT0.s 			page 17


 781              		.loc 1 141 5 view .LVU127
 782 016e F2EE041A 		vmov.f32	s3, #1.0e+1
 783 0172 B7EE001A 		vmov.f32	s2, #1.0e+0
 784 0176 F0EE480A 		vmov.f32	s1, s16
 785 017a B3EE0E0A 		vmov.f32	s0, #3.0e+1
 786 017e 4021     		movs	r1, #64
 787 0180 2C48     		ldr	r0, .L19+92
 788 0182 FFF7FEFF 		bl	initDNotchFilter
 789              	.LVL70:
 142:Core/drogui/src/sensorsTasks.c ****     
 143:Core/drogui/src/sensorsTasks.c ****     initFilter(&filter_roll, sz_1_10, k_1_10, v_1_10);
 790              		.loc 1 143 5 view .LVU128
 791 0186 3346     		mov	r3, r6
 792 0188 2A46     		mov	r2, r5
 793 018a 2168     		ldr	r1, [r4]
 794 018c 2A48     		ldr	r0, .L19+96
 795 018e FFF7FEFF 		bl	initFilter
 796              	.LVL71:
 144:Core/drogui/src/sensorsTasks.c ****     initFilter(&filter_pitch, sz_1_10, k_1_10, v_1_10);
 797              		.loc 1 144 5 view .LVU129
 798 0192 3346     		mov	r3, r6
 799 0194 2A46     		mov	r2, r5
 800 0196 2168     		ldr	r1, [r4]
 801 0198 2848     		ldr	r0, .L19+100
 802 019a FFF7FEFF 		bl	initFilter
 803              	.LVL72:
 145:Core/drogui/src/sensorsTasks.c ****     initFilter(&filter_yaw, sz_1_10, k_1_10, v_1_10);
 804              		.loc 1 145 5 view .LVU130
 805 019e 3346     		mov	r3, r6
 806 01a0 2A46     		mov	r2, r5
 807 01a2 2168     		ldr	r1, [r4]
 808 01a4 2648     		ldr	r0, .L19+104
 809 01a6 FFF7FEFF 		bl	initFilter
 810              	.LVL73:
 146:Core/drogui/src/sensorsTasks.c **** 
 147:Core/drogui/src/sensorsTasks.c **** 
 148:Core/drogui/src/sensorsTasks.c ****     calibrateGyro(&myIMU);
 811              		.loc 1 148 5 view .LVU131
 812 01aa 3846     		mov	r0, r7
 813 01ac FFF7FEFF 		bl	calibrateGyro
 814              	.LVL74:
 149:Core/drogui/src/sensorsTasks.c ****     calibrateAccel(&myIMU);
 815              		.loc 1 149 5 view .LVU132
 816 01b0 3846     		mov	r0, r7
 817 01b2 FFF7FEFF 		bl	calibrateAccel
 818              	.LVL75:
 150:Core/drogui/src/sensorsTasks.c ****     //calibrateMag(&myIMU);
 151:Core/drogui/src/sensorsTasks.c ****     
 152:Core/drogui/src/sensorsTasks.c ****     //accelHandle = osThreadNew(accelTask, NULL, &accelAttributes);
 153:Core/drogui/src/sensorsTasks.c ****     addTask(&gyroTask, 1000, 1);
 819              		.loc 1 153 5 view .LVU133
 820 01b6 0122     		movs	r2, #1
 821 01b8 4FF47A71 		mov	r1, #1000
 822 01bc 2148     		ldr	r0, .L19+108
 823 01be FFF7FEFF 		bl	addTask
 824              	.LVL76:
 154:Core/drogui/src/sensorsTasks.c ****     addTask(&accelTask, 1000, 1);
ARM GAS  C:\Users\USUARIO\AppData\Local\Temp\ccpHPuT0.s 			page 18


 825              		.loc 1 154 5 view .LVU134
 826 01c2 0122     		movs	r2, #1
 827 01c4 4FF47A71 		mov	r1, #1000
 828 01c8 1F48     		ldr	r0, .L19+112
 829 01ca FFF7FEFF 		bl	addTask
 830              	.LVL77:
 155:Core/drogui/src/sensorsTasks.c ****     /*magHandle = osThreadNew(magTask, NULL, &magAttributes);
 156:Core/drogui/src/sensorsTasks.c ****     rpyHandle = osThreadNew(rpyTask, NULL, &rpyAttributes);*/
 157:Core/drogui/src/sensorsTasks.c ****     /*initTimer(&timer_accel, &accelInterrupt, 1000);
 158:Core/drogui/src/sensorsTasks.c ****     initTimer(&timer_gyro, &gyroInterrupt, 1000);
 159:Core/drogui/src/sensorsTasks.c ****     initTimer(&timer_mag, &magInterrupt, 10);
 160:Core/drogui/src/sensorsTasks.c ****     initTimer(&timer_rpy, &rpyInterrupt, 500);*/
 161:Core/drogui/src/sensorsTasks.c **** }...
 831              		.loc 1 161 1 is_stmt 0 view .LVU135
 832 01ce BDEC028B 		vldm	sp!, {d8}
 833              	.LCFI10:
 834              		.cfi_restore 80
 835              		.cfi_restore 81
 836              		.cfi_def_cfa_offset 32
 837 01d2 BDE8F087 		pop	{r4, r5, r6, r7, r8, r9, r10, pc}
 838              	.L20:
 839 01d6 00BF     		.align	2
 840              	.L19:
 841 01d8 00000000 		.word	.LANCHOR0
 842 01dc 00000000 		.word	v_1_10
 843 01e0 00000000 		.word	k_1_10
 844 01e4 00000000 		.word	sz_1_10
 845 01e8 00000000 		.word	.LANCHOR7
 846 01ec 00000000 		.word	.LANCHOR9
 847 01f0 00000000 		.word	.LANCHOR11
 848 01f4 00000000 		.word	.LANCHOR13
 849 01f8 00000000 		.word	.LANCHOR14
 850 01fc 00000000 		.word	.LANCHOR15
 851 0200 00007A44 		.word	1148846080
 852 0204 00004842 		.word	1112014848
 853 0208 00000000 		.word	.LANCHOR16
 854 020c 00000000 		.word	.LANCHOR17
 855 0210 00000000 		.word	.LANCHOR18
 856 0214 00000000 		.word	.LANCHOR19
 857 0218 00000000 		.word	.LANCHOR20
 858 021c 00000000 		.word	.LANCHOR21
 859 0220 00000000 		.word	.LANCHOR1
 860 0224 00000000 		.word	.LANCHOR3
 861 0228 00000000 		.word	.LANCHOR5
 862 022c 00000000 		.word	.LANCHOR32
 863 0230 00000000 		.word	.LANCHOR33
 864 0234 00000000 		.word	.LANCHOR34
 865 0238 00000000 		.word	.LANCHOR29
 866 023c 00000000 		.word	.LANCHOR30
 867 0240 00000000 		.word	.LANCHOR31
 868 0244 00000000 		.word	gyroTask
 869 0248 00000000 		.word	accelTask
 870 024c 00000000 		.word	v_3_10
 871 0250 00000000 		.word	k_3_10
 872 0254 00000000 		.word	sz_3_10
 873 0258 00000000 		.word	v_5_100
 874 025c 00000000 		.word	k_5_100
ARM GAS  C:\Users\USUARIO\AppData\Local\Temp\ccpHPuT0.s 			page 19


 875 0260 00000000 		.word	sz_5_100
 876              		.cfi_endproc
 877              	.LFE181:
 879              		.global	Kdfilt
 880              		.global	buff2
 881              		.global	z
 882              		.global	y
 883              		.global	x
 884              		.global	mz
 885              		.global	my
 886              		.global	mx
 887              		.global	gz
 888              		.global	gy
 889              		.global	gx
 890              		.global	az
 891              		.global	ay
 892              		.global	ax
 893              		.global	yaw
 894              		.global	pitch
 895              		.global	roll
 896              		.global	filter_yaw
 897              		.global	filter_pitch
 898              		.global	filter_roll
 899              		.global	dnotch_az
 900              		.global	dnotch_ay
 901              		.global	dnotch_ax
 902              		.global	filter_az
 903              		.global	filter_ay
 904              		.global	filter_ax
 905              		.global	dnotch_gz2
 906              		.global	dnotch_gy2
 907              		.global	dnotch_gx2
 908              		.global	dnotch_gz
 909              		.global	dnotch_gy
 910              		.global	dnotch_gx
 911              		.global	filter_gz2
 912              		.global	filter_gy2
 913              		.global	filter_gx2
 914              		.global	filter_gz
 915              		.global	filter_gy
 916              		.global	filter_gx
 917              		.global	myIMU
 918              		.section	.bss.ax,"aw",%nobits
 919              		.align	2
 920              		.set	.LANCHOR2,. + 0
 923              	ax:
 924 0000 00000000 		.space	4
 925              		.section	.bss.ay,"aw",%nobits
 926              		.align	2
 927              		.set	.LANCHOR4,. + 0
 930              	ay:
 931 0000 00000000 		.space	4
 932              		.section	.bss.az,"aw",%nobits
 933              		.align	2
 934              		.set	.LANCHOR6,. + 0
 937              	az:
 938 0000 00000000 		.space	4
ARM GAS  C:\Users\USUARIO\AppData\Local\Temp\ccpHPuT0.s 			page 20


 939              		.section	.bss.dnotch_ax,"aw",%nobits
 940              		.align	2
 941              		.set	.LANCHOR32,. + 0
 944              	dnotch_ax:
 945 0000 00000000 		.space	104
 945      00000000 
 945      00000000 
 945      00000000 
 945      00000000 
 946              		.section	.bss.dnotch_ay,"aw",%nobits
 947              		.align	2
 948              		.set	.LANCHOR33,. + 0
 951              	dnotch_ay:
 952 0000 00000000 		.space	104
 952      00000000 
 952      00000000 
 952      00000000 
 952      00000000 
 953              		.section	.bss.dnotch_az,"aw",%nobits
 954              		.align	2
 955              		.set	.LANCHOR34,. + 0
 958              	dnotch_az:
 959 0000 00000000 		.space	104
 959      00000000 
 959      00000000 
 959      00000000 
 959      00000000 
 960              		.section	.bss.dnotch_gx,"aw",%nobits
 961              		.align	2
 962              		.set	.LANCHOR16,. + 0
 965              	dnotch_gx:
 966 0000 00000000 		.space	104
 966      00000000 
 966      00000000 
 966      00000000 
 966      00000000 
 967              		.section	.bss.dnotch_gx2,"aw",%nobits
 968              		.align	2
 969              		.set	.LANCHOR19,. + 0
 972              	dnotch_gx2:
 973 0000 00000000 		.space	104
 973      00000000 
 973      00000000 
 973      00000000 
 973      00000000 
 974              		.section	.bss.dnotch_gy,"aw",%nobits
 975              		.align	2
 976              		.set	.LANCHOR17,. + 0
 979              	dnotch_gy:
 980 0000 00000000 		.space	104
 980      00000000 
 980      00000000 
 980      00000000 
 980      00000000 
 981              		.section	.bss.dnotch_gy2,"aw",%nobits
 982              		.align	2
 983              		.set	.LANCHOR20,. + 0
ARM GAS  C:\Users\USUARIO\AppData\Local\Temp\ccpHPuT0.s 			page 21


 986              	dnotch_gy2:
 987 0000 00000000 		.space	104
 987      00000000 
 987      00000000 
 987      00000000 
 987      00000000 
 988              		.section	.bss.dnotch_gz,"aw",%nobits
 989              		.align	2
 990              		.set	.LANCHOR18,. + 0
 993              	dnotch_gz:
 994 0000 00000000 		.space	104
 994      00000000 
 994      00000000 
 994      00000000 
 994      00000000 
 995              		.section	.bss.dnotch_gz2,"aw",%nobits
 996              		.align	2
 997              		.set	.LANCHOR21,. + 0
 1000              	dnotch_gz2:
 1001 0000 00000000 		.space	104
 1001      00000000 
 1001      00000000 
 1001      00000000 
 1001      00000000 
 1002              		.section	.bss.filter_ax,"aw",%nobits
 1003              		.align	2
 1004              		.set	.LANCHOR1,. + 0
 1007              	filter_ax:
 1008 0000 00000000 		.space	20
 1008      00000000 
 1008      00000000 
 1008      00000000 
 1008      00000000 
 1009              		.section	.bss.filter_ay,"aw",%nobits
 1010              		.align	2
 1011              		.set	.LANCHOR3,. + 0
 1014              	filter_ay:
 1015 0000 00000000 		.space	20
 1015      00000000 
 1015      00000000 
 1015      00000000 
 1015      00000000 
 1016              		.section	.bss.filter_az,"aw",%nobits
 1017              		.align	2
 1018              		.set	.LANCHOR5,. + 0
 1021              	filter_az:
 1022 0000 00000000 		.space	20
 1022      00000000 
 1022      00000000 
 1022      00000000 
 1022      00000000 
 1023              		.section	.bss.filter_gx,"aw",%nobits
 1024              		.align	2
 1025              		.set	.LANCHOR7,. + 0
 1028              	filter_gx:
 1029 0000 00000000 		.space	20
 1029      00000000 
ARM GAS  C:\Users\USUARIO\AppData\Local\Temp\ccpHPuT0.s 			page 22


 1029      00000000 
 1029      00000000 
 1029      00000000 
 1030              		.section	.bss.filter_gx2,"aw",%nobits
 1031              		.align	2
 1032              		.set	.LANCHOR13,. + 0
 1035              	filter_gx2:
 1036 0000 00000000 		.space	20
 1036      00000000 
 1036      00000000 
 1036      00000000 
 1036      00000000 
 1037              		.section	.bss.filter_gy,"aw",%nobits
 1038              		.align	2
 1039              		.set	.LANCHOR9,. + 0
 1042              	filter_gy:
 1043 0000 00000000 		.space	20
 1043      00000000 
 1043      00000000 
 1043      00000000 
 1043      00000000 
 1044              		.section	.bss.filter_gy2,"aw",%nobits
 1045              		.align	2
 1046              		.set	.LANCHOR14,. + 0
 1049              	filter_gy2:
 1050 0000 00000000 		.space	20
 1050      00000000 
 1050      00000000 
 1050      00000000 
 1050      00000000 
 1051              		.section	.bss.filter_gz,"aw",%nobits
 1052              		.align	2
 1053              		.set	.LANCHOR11,. + 0
 1056              	filter_gz:
 1057 0000 00000000 		.space	20
 1057      00000000 
 1057      00000000 
 1057      00000000 
 1057      00000000 
 1058              		.section	.bss.filter_gz2,"aw",%nobits
 1059              		.align	2
 1060              		.set	.LANCHOR15,. + 0
 1063              	filter_gz2:
 1064 0000 00000000 		.space	20
 1064      00000000 
 1064      00000000 
 1064      00000000 
 1064      00000000 
 1065              		.section	.bss.filter_pitch,"aw",%nobits
 1066              		.align	2
 1067              		.set	.LANCHOR30,. + 0
 1070              	filter_pitch:
 1071 0000 00000000 		.space	20
 1071      00000000 
 1071      00000000 
 1071      00000000 
 1071      00000000 
ARM GAS  C:\Users\USUARIO\AppData\Local\Temp\ccpHPuT0.s 			page 23


 1072              		.section	.bss.filter_roll,"aw",%nobits
 1073              		.align	2
 1074              		.set	.LANCHOR29,. + 0
 1077              	filter_roll:
 1078 0000 00000000 		.space	20
 1078      00000000 
 1078      00000000 
 1078      00000000 
 1078      00000000 
 1079              		.section	.bss.filter_yaw,"aw",%nobits
 1080              		.align	2
 1081              		.set	.LANCHOR31,. + 0
 1084              	filter_yaw:
 1085 0000 00000000 		.space	20
 1085      00000000 
 1085      00000000 
 1085      00000000 
 1085      00000000 
 1086              		.section	.bss.gx,"aw",%nobits
 1087              		.align	2
 1088              		.set	.LANCHOR8,. + 0
 1091              	gx:
 1092 0000 00000000 		.space	4
 1093              		.section	.bss.gy,"aw",%nobits
 1094              		.align	2
 1095              		.set	.LANCHOR10,. + 0
 1098              	gy:
 1099 0000 00000000 		.space	4
 1100              		.section	.bss.gz,"aw",%nobits
 1101              		.align	2
 1102              		.set	.LANCHOR12,. + 0
 1105              	gz:
 1106 0000 00000000 		.space	4
 1107              		.section	.bss.mx,"aw",%nobits
 1108              		.align	2
 1109              		.set	.LANCHOR22,. + 0
 1112              	mx:
 1113 0000 00000000 		.space	4
 1114              		.section	.bss.my,"aw",%nobits
 1115              		.align	2
 1116              		.set	.LANCHOR23,. + 0
 1119              	my:
 1120 0000 00000000 		.space	4
 1121              		.section	.bss.myIMU,"aw",%nobits
 1122              		.align	2
 1123              		.set	.LANCHOR0,. + 0
 1126              	myIMU:
 1127 0000 00000000 		.space	140
 1127      00000000 
 1127      00000000 
 1127      00000000 
 1127      00000000 
 1128              		.section	.bss.mz,"aw",%nobits
 1129              		.align	2
 1130              		.set	.LANCHOR24,. + 0
 1133              	mz:
 1134 0000 00000000 		.space	4
ARM GAS  C:\Users\USUARIO\AppData\Local\Temp\ccpHPuT0.s 			page 24


 1135              		.section	.bss.pitch,"aw",%nobits
 1136              		.align	2
 1137              		.set	.LANCHOR27,. + 0
 1140              	pitch:
 1141 0000 00000000 		.space	4
 1142              		.section	.bss.roll,"aw",%nobits
 1143              		.align	2
 1144              		.set	.LANCHOR25,. + 0
 1147              	roll:
 1148 0000 00000000 		.space	4
 1149              		.section	.bss.x,"aw",%nobits
 1150              		.align	2
 1153              	x:
 1154 0000 00000000 		.space	4
 1155              		.section	.bss.y,"aw",%nobits
 1156              		.align	2
 1159              	y:
 1160 0000 00000000 		.space	4
 1161              		.section	.bss.yaw,"aw",%nobits
 1162              		.align	2
 1163              		.set	.LANCHOR28,. + 0
 1166              	yaw:
 1167 0000 00000000 		.space	4
 1168              		.section	.bss.z,"aw",%nobits
 1169              		.align	2
 1172              	z:
 1173 0000 00000000 		.space	4
 1174              		.section	.data.Kdfilt,"aw"
 1175              		.align	2
 1176              		.set	.LANCHOR26,. + 0
 1179              	Kdfilt:
 1180 0000 6F12033A 		.word	973279855
 1181              		.section	.data.buff2,"aw"
 1182              		.align	2
 1185              	buff2:
 1186 0000 686F6C61 		.ascii	"hola\012\000"
 1186      0A00
 1187 0006 00000000 		.space	44
 1187      00000000 
 1187      00000000 
 1187      00000000 
 1187      00000000 
 1188              		.text
 1189              	.Letext0:
 1190              		.file 2 "c:\\program files (x86)\\gnu arm embedded toolchain\\10 2020-q4-major\\arm-none-eabi\\inc
 1191              		.file 3 "c:\\program files (x86)\\gnu arm embedded toolchain\\10 2020-q4-major\\arm-none-eabi\\inc
 1192              		.file 4 "Drivers/CMSIS/DSP/Include/arm_math.h"
 1193              		.file 5 "Core/drogui/include/filter.h"
 1194              		.file 6 "Core/drogui/include/MPU9250.h"
 1195              		.file 7 "Core/drogui/include/utils.h"
 1196              		.file 8 "Core/drogui/include/sensorsTasks.h"
 1197              		.file 9 "Core/drogui/include/task.h"
 1198              		.file 10 "Core/drogui/include/mahony.h"
 1199              		.file 11 "c:\\program files (x86)\\gnu arm embedded toolchain\\10 2020-q4-major\\arm-none-eabi\\in
ARM GAS  C:\Users\USUARIO\AppData\Local\Temp\ccpHPuT0.s 			page 25

