ARM GAS  C:\Users\GUILLE~1\AppData\Local\Temp\cc1TcJmr.s 			page 1


   1              		.cpu cortex-m7
   2              		.eabi_attribute 27, 1
   3              		.eabi_attribute 28, 1
   4              		.eabi_attribute 20, 1
   5              		.eabi_attribute 21, 1
   6              		.eabi_attribute 23, 3
   7              		.eabi_attribute 24, 1
   8              		.eabi_attribute 25, 1
   9              		.eabi_attribute 26, 1
  10              		.eabi_attribute 30, 1
  11              		.eabi_attribute 34, 1
  12              		.eabi_attribute 18, 4
  13              		.file	"sensorsTasks.c"
  14              		.text
  15              	.Ltext0:
  16              		.cfi_sections	.debug_frame
  17              		.section	.text.accelTask,"ax",%progbits
  18              		.align	1
  19              		.global	accelTask
  20              		.arch armv7e-m
  21              		.syntax unified
  22              		.thumb
  23              		.thumb_func
  24              		.fpu fpv5-sp-d16
  26              	accelTask:
  27              	.LFB177:
  28              		.file 1 "Core/drogui/src/sensorsTasks.c"
   1:Core/drogui/src/sensorsTasks.c **** #include "sensorsTasks.h"
   2:Core/drogui/src/sensorsTasks.c **** #include "mahony.h"
   3:Core/drogui/src/sensorsTasks.c **** #include "task.h"
   4:Core/drogui/src/sensorsTasks.c **** #include "usart.h"
   5:Core/drogui/src/sensorsTasks.c **** #include <stdio.h>
   6:Core/drogui/src/sensorsTasks.c **** #include <string.h>
   7:Core/drogui/src/sensorsTasks.c **** 
   8:Core/drogui/src/sensorsTasks.c **** 
   9:Core/drogui/src/sensorsTasks.c **** mpu9250 myIMU;
  10:Core/drogui/src/sensorsTasks.c **** 
  11:Core/drogui/src/sensorsTasks.c **** filter filter_gx, filter_gy, filter_gz;
  12:Core/drogui/src/sensorsTasks.c **** filter filter_gx2, filter_gy2, filter_gz2;
  13:Core/drogui/src/sensorsTasks.c **** dNotchFilter dnotch_gx, dnotch_gy, dnotch_gz; 
  14:Core/drogui/src/sensorsTasks.c **** dNotchFilter dnotch_gx2, dnotch_gy2, dnotch_gz2;
  15:Core/drogui/src/sensorsTasks.c **** 
  16:Core/drogui/src/sensorsTasks.c **** 
  17:Core/drogui/src/sensorsTasks.c **** filter filter_ax, filter_ay, filter_az;
  18:Core/drogui/src/sensorsTasks.c **** dNotchFilter dnotch_ax, dnotch_ay, dnotch_az; 
  19:Core/drogui/src/sensorsTasks.c **** 
  20:Core/drogui/src/sensorsTasks.c **** filter filter_roll, filter_pitch, filter_yaw;
  21:Core/drogui/src/sensorsTasks.c **** float roll, pitch, yaw, ax, ay, az, gx, gy, gz, mx, my, mz, x, y, z;
  22:Core/drogui/src/sensorsTasks.c **** 
  23:Core/drogui/src/sensorsTasks.c **** 
  24:Core/drogui/src/sensorsTasks.c **** void accelTask(){   
  29              		.loc 1 24 17 view -0
  30              		.cfi_startproc
  31              		@ args = 0, pretend = 0, frame = 0
  32              		@ frame_needed = 0, uses_anonymous_args = 0
  33 0000 70B5     		push	{r4, r5, r6, lr}
  34              	.LCFI0:
ARM GAS  C:\Users\GUILLE~1\AppData\Local\Temp\cc1TcJmr.s 			page 2


  35              		.cfi_def_cfa_offset 16
  36              		.cfi_offset 4, -16
  37              		.cfi_offset 5, -12
  38              		.cfi_offset 6, -8
  39              		.cfi_offset 14, -4
  25:Core/drogui/src/sensorsTasks.c ****     readAcc(&myIMU);
  40              		.loc 1 25 5 view .LVU1
  41 0002 204C     		ldr	r4, .L3
  42 0004 2046     		mov	r0, r4
  43 0006 FFF7FEFF 		bl	readAcc
  44              	.LVL0:
  26:Core/drogui/src/sensorsTasks.c **** 
  27:Core/drogui/src/sensorsTasks.c ****     ax = computeFilter(&filter_ax, myIMU.ax);
  45              		.loc 1 27 5 view .LVU2
  46              		.loc 1 27 10 is_stmt 0 view .LVU3
  47 000a 94ED000A 		vldr.32	s0, [r4]
  48 000e 1E48     		ldr	r0, .L3+4
  49 0010 FFF7FEFF 		bl	computeFilter
  50              	.LVL1:
  51              		.loc 1 27 8 view .LVU4
  52 0014 1D4E     		ldr	r6, .L3+8
  53 0016 86ED000A 		vstr.32	s0, [r6]
  28:Core/drogui/src/sensorsTasks.c ****     ay = computeFilter(&filter_ay, myIMU.ay);
  54              		.loc 1 28 5 is_stmt 1 view .LVU5
  55              		.loc 1 28 10 is_stmt 0 view .LVU6
  56 001a 94ED010A 		vldr.32	s0, [r4, #4]
  57 001e 1C48     		ldr	r0, .L3+12
  58 0020 FFF7FEFF 		bl	computeFilter
  59              	.LVL2:
  60              		.loc 1 28 8 view .LVU7
  61 0024 1B4D     		ldr	r5, .L3+16
  62 0026 85ED000A 		vstr.32	s0, [r5]
  29:Core/drogui/src/sensorsTasks.c ****     az = computeFilter(&filter_az, myIMU.az);
  63              		.loc 1 29 5 is_stmt 1 view .LVU8
  64              		.loc 1 29 10 is_stmt 0 view .LVU9
  65 002a 94ED020A 		vldr.32	s0, [r4, #8]
  66 002e 1A48     		ldr	r0, .L3+20
  67 0030 FFF7FEFF 		bl	computeFilter
  68              	.LVL3:
  69              		.loc 1 29 8 view .LVU10
  70 0034 194C     		ldr	r4, .L3+24
  71 0036 84ED000A 		vstr.32	s0, [r4]
  30:Core/drogui/src/sensorsTasks.c **** 
  31:Core/drogui/src/sensorsTasks.c **** 
  32:Core/drogui/src/sensorsTasks.c ****     ax = computeDNotch(&dnotch_ax, ax);
  72              		.loc 1 32 5 is_stmt 1 view .LVU11
  73              		.loc 1 32 10 is_stmt 0 view .LVU12
  74 003a 96ED000A 		vldr.32	s0, [r6]
  75 003e 1848     		ldr	r0, .L3+28
  76 0040 FFF7FEFF 		bl	computeDNotch
  77              	.LVL4:
  78              		.loc 1 32 8 view .LVU13
  79 0044 86ED000A 		vstr.32	s0, [r6]
  33:Core/drogui/src/sensorsTasks.c ****     ay = computeDNotch(&dnotch_ay, ay);
  80              		.loc 1 33 5 is_stmt 1 view .LVU14
  81              		.loc 1 33 10 is_stmt 0 view .LVU15
  82 0048 95ED000A 		vldr.32	s0, [r5]
ARM GAS  C:\Users\GUILLE~1\AppData\Local\Temp\cc1TcJmr.s 			page 3


  83 004c 1548     		ldr	r0, .L3+32
  84 004e FFF7FEFF 		bl	computeDNotch
  85              	.LVL5:
  86              		.loc 1 33 8 view .LVU16
  87 0052 85ED000A 		vstr.32	s0, [r5]
  34:Core/drogui/src/sensorsTasks.c ****     az = computeDNotch(&dnotch_az, az);
  88              		.loc 1 34 5 is_stmt 1 view .LVU17
  89              		.loc 1 34 10 is_stmt 0 view .LVU18
  90 0056 94ED000A 		vldr.32	s0, [r4]
  91 005a 1348     		ldr	r0, .L3+36
  92 005c FFF7FEFF 		bl	computeDNotch
  93              	.LVL6:
  94              		.loc 1 34 8 view .LVU19
  95 0060 84ED000A 		vstr.32	s0, [r4]
  35:Core/drogui/src/sensorsTasks.c **** 
  36:Core/drogui/src/sensorsTasks.c ****     setReg(ACC_X,(float)(ax));
  96              		.loc 1 36 5 is_stmt 1 view .LVU20
  97 0064 96ED000A 		vldr.32	s0, [r6]
  98 0068 7420     		movs	r0, #116
  99 006a FFF7FEFF 		bl	setReg
 100              	.LVL7:
  37:Core/drogui/src/sensorsTasks.c ****     setReg(ACC_Y,(float)(ay));
 101              		.loc 1 37 5 view .LVU21
 102 006e 95ED000A 		vldr.32	s0, [r5]
 103 0072 7620     		movs	r0, #118
 104 0074 FFF7FEFF 		bl	setReg
 105              	.LVL8:
  38:Core/drogui/src/sensorsTasks.c ****     setReg(ACC_Z,(float)(az));
 106              		.loc 1 38 5 view .LVU22
 107 0078 94ED000A 		vldr.32	s0, [r4]
 108 007c 7820     		movs	r0, #120
 109 007e FFF7FEFF 		bl	setReg
 110              	.LVL9:
  39:Core/drogui/src/sensorsTasks.c **** }
 111              		.loc 1 39 1 is_stmt 0 view .LVU23
 112 0082 70BD     		pop	{r4, r5, r6, pc}
 113              	.L4:
 114              		.align	2
 115              	.L3:
 116 0084 00000000 		.word	.LANCHOR0
 117 0088 00000000 		.word	.LANCHOR1
 118 008c 00000000 		.word	.LANCHOR2
 119 0090 00000000 		.word	.LANCHOR3
 120 0094 00000000 		.word	.LANCHOR4
 121 0098 00000000 		.word	.LANCHOR5
 122 009c 00000000 		.word	.LANCHOR6
 123 00a0 00000000 		.word	.LANCHOR7
 124 00a4 00000000 		.word	.LANCHOR8
 125 00a8 00000000 		.word	.LANCHOR9
 126              		.cfi_endproc
 127              	.LFE177:
 129              		.section	.text.gyroTask,"ax",%progbits
 130              		.align	1
 131              		.global	gyroTask
 132              		.syntax unified
 133              		.thumb
 134              		.thumb_func
ARM GAS  C:\Users\GUILLE~1\AppData\Local\Temp\cc1TcJmr.s 			page 4


 135              		.fpu fpv5-sp-d16
 137              	gyroTask:
 138              	.LFB178:
  40:Core/drogui/src/sensorsTasks.c **** 
  41:Core/drogui/src/sensorsTasks.c **** char buff2[50] = "hola\n";
  42:Core/drogui/src/sensorsTasks.c **** void gyroTask(){
 139              		.loc 1 42 16 is_stmt 1 view -0
 140              		.cfi_startproc
 141              		@ args = 0, pretend = 0, frame = 0
 142              		@ frame_needed = 0, uses_anonymous_args = 0
 143 0000 70B5     		push	{r4, r5, r6, lr}
 144              	.LCFI1:
 145              		.cfi_def_cfa_offset 16
 146              		.cfi_offset 4, -16
 147              		.cfi_offset 5, -12
 148              		.cfi_offset 6, -8
 149              		.cfi_offset 14, -4
  43:Core/drogui/src/sensorsTasks.c **** 
  44:Core/drogui/src/sensorsTasks.c ****     readGyro(&myIMU);
 150              		.loc 1 44 5 view .LVU25
 151 0002 3E4D     		ldr	r5, .L7
 152 0004 2846     		mov	r0, r5
 153 0006 FFF7FEFF 		bl	readGyro
 154              	.LVL10:
  45:Core/drogui/src/sensorsTasks.c **** 
  46:Core/drogui/src/sensorsTasks.c ****     gx = computeFilter(&filter_gx, myIMU.gx);
 155              		.loc 1 46 5 view .LVU26
 156              		.loc 1 46 10 is_stmt 0 view .LVU27
 157 000a 95ED070A 		vldr.32	s0, [r5, #28]
 158 000e 3C48     		ldr	r0, .L7+4
 159 0010 FFF7FEFF 		bl	computeFilter
 160              	.LVL11:
 161              		.loc 1 46 8 view .LVU28
 162 0014 3B4E     		ldr	r6, .L7+8
 163 0016 86ED000A 		vstr.32	s0, [r6]
  47:Core/drogui/src/sensorsTasks.c ****     gy = computeFilter(&filter_gy, myIMU.gy);
 164              		.loc 1 47 5 is_stmt 1 view .LVU29
 165              		.loc 1 47 10 is_stmt 0 view .LVU30
 166 001a 95ED080A 		vldr.32	s0, [r5, #32]
 167 001e 3A48     		ldr	r0, .L7+12
 168 0020 FFF7FEFF 		bl	computeFilter
 169              	.LVL12:
 170              		.loc 1 47 8 view .LVU31
 171 0024 394C     		ldr	r4, .L7+16
 172 0026 84ED000A 		vstr.32	s0, [r4]
  48:Core/drogui/src/sensorsTasks.c ****     gz = computeFilter(&filter_gz, myIMU.gz);
 173              		.loc 1 48 5 is_stmt 1 view .LVU32
 174              		.loc 1 48 10 is_stmt 0 view .LVU33
 175 002a 95ED090A 		vldr.32	s0, [r5, #36]
 176 002e 3848     		ldr	r0, .L7+20
 177 0030 FFF7FEFF 		bl	computeFilter
 178              	.LVL13:
 179              		.loc 1 48 8 view .LVU34
 180 0034 374D     		ldr	r5, .L7+24
 181 0036 85ED000A 		vstr.32	s0, [r5]
  49:Core/drogui/src/sensorsTasks.c **** 
  50:Core/drogui/src/sensorsTasks.c ****     gx = computeFilter(&filter_gx2, gx);
ARM GAS  C:\Users\GUILLE~1\AppData\Local\Temp\cc1TcJmr.s 			page 5


 182              		.loc 1 50 5 is_stmt 1 view .LVU35
 183              		.loc 1 50 10 is_stmt 0 view .LVU36
 184 003a 96ED000A 		vldr.32	s0, [r6]
 185 003e 3648     		ldr	r0, .L7+28
 186 0040 FFF7FEFF 		bl	computeFilter
 187              	.LVL14:
 188              		.loc 1 50 8 view .LVU37
 189 0044 86ED000A 		vstr.32	s0, [r6]
  51:Core/drogui/src/sensorsTasks.c ****     gy = computeFilter(&filter_gy2, gy);
 190              		.loc 1 51 5 is_stmt 1 view .LVU38
 191              		.loc 1 51 10 is_stmt 0 view .LVU39
 192 0048 94ED000A 		vldr.32	s0, [r4]
 193 004c 3348     		ldr	r0, .L7+32
 194 004e FFF7FEFF 		bl	computeFilter
 195              	.LVL15:
 196              		.loc 1 51 8 view .LVU40
 197 0052 84ED000A 		vstr.32	s0, [r4]
  52:Core/drogui/src/sensorsTasks.c ****     gz = computeFilter(&filter_gz2, gz);
 198              		.loc 1 52 5 is_stmt 1 view .LVU41
 199              		.loc 1 52 10 is_stmt 0 view .LVU42
 200 0056 95ED000A 		vldr.32	s0, [r5]
 201 005a 3148     		ldr	r0, .L7+36
 202 005c FFF7FEFF 		bl	computeFilter
 203              	.LVL16:
 204              		.loc 1 52 8 view .LVU43
 205 0060 85ED000A 		vstr.32	s0, [r5]
  53:Core/drogui/src/sensorsTasks.c **** 
  54:Core/drogui/src/sensorsTasks.c ****     gx = computeDNotch(&dnotch_gx, gx);
 206              		.loc 1 54 5 is_stmt 1 view .LVU44
 207              		.loc 1 54 10 is_stmt 0 view .LVU45
 208 0064 96ED000A 		vldr.32	s0, [r6]
 209 0068 2E48     		ldr	r0, .L7+40
 210 006a FFF7FEFF 		bl	computeDNotch
 211              	.LVL17:
 212              		.loc 1 54 8 view .LVU46
 213 006e 86ED000A 		vstr.32	s0, [r6]
  55:Core/drogui/src/sensorsTasks.c ****     gy = computeDNotch(&dnotch_gy, gy);
 214              		.loc 1 55 5 is_stmt 1 view .LVU47
 215              		.loc 1 55 10 is_stmt 0 view .LVU48
 216 0072 94ED000A 		vldr.32	s0, [r4]
 217 0076 2C48     		ldr	r0, .L7+44
 218 0078 FFF7FEFF 		bl	computeDNotch
 219              	.LVL18:
 220              		.loc 1 55 8 view .LVU49
 221 007c 84ED000A 		vstr.32	s0, [r4]
  56:Core/drogui/src/sensorsTasks.c ****     gz = computeDNotch(&dnotch_gz, gz);
 222              		.loc 1 56 5 is_stmt 1 view .LVU50
 223              		.loc 1 56 10 is_stmt 0 view .LVU51
 224 0080 95ED000A 		vldr.32	s0, [r5]
 225 0084 2948     		ldr	r0, .L7+48
 226 0086 FFF7FEFF 		bl	computeDNotch
 227              	.LVL19:
 228              		.loc 1 56 8 view .LVU52
 229 008a 85ED000A 		vstr.32	s0, [r5]
  57:Core/drogui/src/sensorsTasks.c **** 
  58:Core/drogui/src/sensorsTasks.c ****     gx = computeDNotch(&dnotch_gx2, gx);
 230              		.loc 1 58 5 is_stmt 1 view .LVU53
ARM GAS  C:\Users\GUILLE~1\AppData\Local\Temp\cc1TcJmr.s 			page 6


 231              		.loc 1 58 10 is_stmt 0 view .LVU54
 232 008e 96ED000A 		vldr.32	s0, [r6]
 233 0092 2748     		ldr	r0, .L7+52
 234 0094 FFF7FEFF 		bl	computeDNotch
 235              	.LVL20:
 236              		.loc 1 58 8 view .LVU55
 237 0098 86ED000A 		vstr.32	s0, [r6]
  59:Core/drogui/src/sensorsTasks.c ****     gy = computeDNotch(&dnotch_gy2, gy);
 238              		.loc 1 59 5 is_stmt 1 view .LVU56
 239              		.loc 1 59 10 is_stmt 0 view .LVU57
 240 009c 94ED000A 		vldr.32	s0, [r4]
 241 00a0 2448     		ldr	r0, .L7+56
 242 00a2 FFF7FEFF 		bl	computeDNotch
 243              	.LVL21:
 244              		.loc 1 59 8 view .LVU58
 245 00a6 84ED000A 		vstr.32	s0, [r4]
  60:Core/drogui/src/sensorsTasks.c ****     gz = computeDNotch(&dnotch_gz2, gz);
 246              		.loc 1 60 5 is_stmt 1 view .LVU59
 247              		.loc 1 60 10 is_stmt 0 view .LVU60
 248 00aa 95ED000A 		vldr.32	s0, [r5]
 249 00ae 2248     		ldr	r0, .L7+60
 250 00b0 FFF7FEFF 		bl	computeDNotch
 251              	.LVL22:
 252 00b4 F0EE407A 		vmov.f32	s15, s0
 253              		.loc 1 60 8 view .LVU61
 254 00b8 85ED000A 		vstr.32	s0, [r5]
  61:Core/drogui/src/sensorsTasks.c ****     
  62:Core/drogui/src/sensorsTasks.c ****     gx /= 50;
 255              		.loc 1 62 5 is_stmt 1 view .LVU62
 256              		.loc 1 62 8 is_stmt 0 view .LVU63
 257 00bc D6ED006A 		vldr.32	s13, [r6]
 258 00c0 9FED1E7A 		vldr.32	s14, .L7+64
 259 00c4 86EE870A 		vdiv.f32	s0, s13, s14
 260 00c8 86ED000A 		vstr.32	s0, [r6]
  63:Core/drogui/src/sensorsTasks.c ****     gy /= 50;
 261              		.loc 1 63 5 is_stmt 1 view .LVU64
 262              		.loc 1 63 8 is_stmt 0 view .LVU65
 263 00cc 94ED006A 		vldr.32	s12, [r4]
 264 00d0 C6EE076A 		vdiv.f32	s13, s12, s14
 265 00d4 C4ED006A 		vstr.32	s13, [r4]
  64:Core/drogui/src/sensorsTasks.c ****     gz /= 50; 
 266              		.loc 1 64 5 is_stmt 1 view .LVU66
 267              		.loc 1 64 8 is_stmt 0 view .LVU67
 268 00d8 C7EE876A 		vdiv.f32	s13, s15, s14
 269 00dc C5ED006A 		vstr.32	s13, [r5]
  65:Core/drogui/src/sensorsTasks.c **** 
  66:Core/drogui/src/sensorsTasks.c **** 
  67:Core/drogui/src/sensorsTasks.c ****     setReg(GYRO_X, gx);
 270              		.loc 1 67 5 is_stmt 1 view .LVU68
 271 00e0 7C20     		movs	r0, #124
 272 00e2 FFF7FEFF 		bl	setReg
 273              	.LVL23:
  68:Core/drogui/src/sensorsTasks.c ****     setReg(GYRO_Y, gy);
 274              		.loc 1 68 5 view .LVU69
 275 00e6 94ED000A 		vldr.32	s0, [r4]
 276 00ea 7E20     		movs	r0, #126
 277 00ec FFF7FEFF 		bl	setReg
ARM GAS  C:\Users\GUILLE~1\AppData\Local\Temp\cc1TcJmr.s 			page 7


 278              	.LVL24:
  69:Core/drogui/src/sensorsTasks.c ****     setReg(GYRO_Z, gz);
 279              		.loc 1 69 5 view .LVU70
 280 00f0 95ED000A 		vldr.32	s0, [r5]
 281 00f4 8020     		movs	r0, #128
 282 00f6 FFF7FEFF 		bl	setReg
 283              	.LVL25:
  70:Core/drogui/src/sensorsTasks.c **** }
 284              		.loc 1 70 1 is_stmt 0 view .LVU71
 285 00fa 70BD     		pop	{r4, r5, r6, pc}
 286              	.L8:
 287              		.align	2
 288              	.L7:
 289 00fc 00000000 		.word	.LANCHOR0
 290 0100 00000000 		.word	.LANCHOR10
 291 0104 00000000 		.word	.LANCHOR11
 292 0108 00000000 		.word	.LANCHOR12
 293 010c 00000000 		.word	.LANCHOR13
 294 0110 00000000 		.word	.LANCHOR14
 295 0114 00000000 		.word	.LANCHOR15
 296 0118 00000000 		.word	.LANCHOR16
 297 011c 00000000 		.word	.LANCHOR17
 298 0120 00000000 		.word	.LANCHOR18
 299 0124 00000000 		.word	.LANCHOR19
 300 0128 00000000 		.word	.LANCHOR20
 301 012c 00000000 		.word	.LANCHOR21
 302 0130 00000000 		.word	.LANCHOR22
 303 0134 00000000 		.word	.LANCHOR23
 304 0138 00000000 		.word	.LANCHOR24
 305 013c 00004842 		.word	1112014848
 306              		.cfi_endproc
 307              	.LFE178:
 309              		.section	.text.rpyTask,"ax",%progbits
 310              		.align	1
 311              		.global	rpyTask
 312              		.syntax unified
 313              		.thumb
 314              		.thumb_func
 315              		.fpu fpv5-sp-d16
 317              	rpyTask:
 318              	.LFB180:
  71:Core/drogui/src/sensorsTasks.c **** 
  72:Core/drogui/src/sensorsTasks.c **** void magTask(){
  73:Core/drogui/src/sensorsTasks.c ****     readMag(&myIMU);
  74:Core/drogui/src/sensorsTasks.c ****     mx = myIMU.mx;
  75:Core/drogui/src/sensorsTasks.c ****     my = myIMU.my;
  76:Core/drogui/src/sensorsTasks.c ****     mz = myIMU.mz;
  77:Core/drogui/src/sensorsTasks.c **** }
  78:Core/drogui/src/sensorsTasks.c **** 
  79:Core/drogui/src/sensorsTasks.c **** float Kdfilt = 0.01;
  80:Core/drogui/src/sensorsTasks.c **** void rpyTask(){
 319              		.loc 1 80 15 is_stmt 1 view -0
 320              		.cfi_startproc
 321              		@ args = 0, pretend = 0, frame = 16
 322              		@ frame_needed = 0, uses_anonymous_args = 0
 323 0000 70B5     		push	{r4, r5, r6, lr}
 324              	.LCFI2:
ARM GAS  C:\Users\GUILLE~1\AppData\Local\Temp\cc1TcJmr.s 			page 8


 325              		.cfi_def_cfa_offset 16
 326              		.cfi_offset 4, -16
 327              		.cfi_offset 5, -12
 328              		.cfi_offset 6, -8
 329              		.cfi_offset 14, -4
 330 0002 84B0     		sub	sp, sp, #16
 331              	.LCFI3:
 332              		.cfi_def_cfa_offset 32
  81:Core/drogui/src/sensorsTasks.c ****     
  82:Core/drogui/src/sensorsTasks.c ****     float rpy[3];
 333              		.loc 1 82 5 view .LVU73
  83:Core/drogui/src/sensorsTasks.c ****     mahonyUpdate(gx*PI/360.0f, gy*PI/360.0f, gz*PI/360.0f, ax, ay, az, 0, 0, 0);
 334              		.loc 1 83 5 view .LVU74
 335              		.loc 1 83 20 is_stmt 0 view .LVU75
 336 0004 2D4B     		ldr	r3, .L11
 337 0006 93ED000A 		vldr.32	s0, [r3]
 338 000a DFED2D7A 		vldr.32	s15, .L11+4
 339 000e 20EE270A 		vmul.f32	s0, s0, s15
 340              		.loc 1 83 34 view .LVU76
 341 0012 2C4B     		ldr	r3, .L11+8
 342 0014 D3ED000A 		vldr.32	s1, [r3]
 343 0018 60EEA70A 		vmul.f32	s1, s1, s15
 344              		.loc 1 83 48 view .LVU77
 345 001c 2A4B     		ldr	r3, .L11+12
 346 001e 93ED001A 		vldr.32	s2, [r3]
 347 0022 21EE271A 		vmul.f32	s2, s2, s15
 348              		.loc 1 83 5 view .LVU78
 349 0026 9FED293A 		vldr.32	s6, .L11+16
 350 002a DFED297A 		vldr.32	s15, .L11+20
 351 002e B0EE434A 		vmov.f32	s8, s6
 352 0032 F0EE433A 		vmov.f32	s7, s6
 353 0036 274B     		ldr	r3, .L11+24
 354 0038 D3ED002A 		vldr.32	s5, [r3]
 355 003c 264B     		ldr	r3, .L11+28
 356 003e 93ED002A 		vldr.32	s4, [r3]
 357 0042 264B     		ldr	r3, .L11+32
 358 0044 D3ED001A 		vldr.32	s3, [r3]
 359 0048 81EE271A 		vdiv.f32	s2, s2, s15
 360 004c C0EEA70A 		vdiv.f32	s1, s1, s15
 361 0050 80EE270A 		vdiv.f32	s0, s0, s15
 362 0054 FFF7FEFF 		bl	mahonyUpdate
 363              	.LVL26:
  84:Core/drogui/src/sensorsTasks.c ****     getMahonyEuler(rpy);
 364              		.loc 1 84 5 is_stmt 1 view .LVU79
 365 0058 01A8     		add	r0, sp, #4
 366 005a FFF7FEFF 		bl	getMahonyEuler
 367              	.LVL27:
  85:Core/drogui/src/sensorsTasks.c ****     roll = rpy[0], pitch = rpy[1], yaw = rpy[2];
 368              		.loc 1 85 5 view .LVU80
 369              		.loc 1 85 15 is_stmt 0 view .LVU81
 370 005e 9DED010A 		vldr.32	s0, [sp, #4]
 371              		.loc 1 85 10 view .LVU82
 372 0062 1F4E     		ldr	r6, .L11+36
 373 0064 86ED000A 		vstr.32	s0, [r6]
 374              		.loc 1 85 26 view .LVU83
 375 0068 1E4D     		ldr	r5, .L11+40
 376 006a 029B     		ldr	r3, [sp, #8]	@ float
ARM GAS  C:\Users\GUILLE~1\AppData\Local\Temp\cc1TcJmr.s 			page 9


 377 006c 2B60     		str	r3, [r5]	@ float
 378              		.loc 1 85 40 view .LVU84
 379 006e 1E4C     		ldr	r4, .L11+44
 380 0070 039B     		ldr	r3, [sp, #12]	@ float
 381 0072 2360     		str	r3, [r4]	@ float
  86:Core/drogui/src/sensorsTasks.c ****     
  87:Core/drogui/src/sensorsTasks.c ****     /*roll += fmax(fmin(Kdfilt, (rpy[0] - roll)),-Kdfilt);
  88:Core/drogui/src/sensorsTasks.c ****     pitch += fmax(fmin(Kdfilt, (rpy[1] - pitch)),-Kdfilt);
  89:Core/drogui/src/sensorsTasks.c ****     yaw += fmax(fmin(Kdfilt,(rpy[2] - yaw)),-Kdfilt);*/
  90:Core/drogui/src/sensorsTasks.c **** 
  91:Core/drogui/src/sensorsTasks.c ****     roll = computeFilter(&filter_roll, roll);
 382              		.loc 1 91 5 is_stmt 1 view .LVU85
 383              		.loc 1 91 12 is_stmt 0 view .LVU86
 384 0074 1D48     		ldr	r0, .L11+48
 385 0076 FFF7FEFF 		bl	computeFilter
 386              	.LVL28:
 387              		.loc 1 91 10 view .LVU87
 388 007a 86ED000A 		vstr.32	s0, [r6]
  92:Core/drogui/src/sensorsTasks.c ****     pitch = computeFilter(&filter_pitch, pitch);
 389              		.loc 1 92 5 is_stmt 1 view .LVU88
 390              		.loc 1 92 13 is_stmt 0 view .LVU89
 391 007e 95ED000A 		vldr.32	s0, [r5]
 392 0082 1B48     		ldr	r0, .L11+52
 393 0084 FFF7FEFF 		bl	computeFilter
 394              	.LVL29:
 395              		.loc 1 92 11 view .LVU90
 396 0088 85ED000A 		vstr.32	s0, [r5]
  93:Core/drogui/src/sensorsTasks.c ****     yaw = computeFilter(&filter_yaw, yaw);
 397              		.loc 1 93 5 is_stmt 1 view .LVU91
 398              		.loc 1 93 11 is_stmt 0 view .LVU92
 399 008c 94ED000A 		vldr.32	s0, [r4]
 400 0090 1848     		ldr	r0, .L11+56
 401 0092 FFF7FEFF 		bl	computeFilter
 402              	.LVL30:
 403              		.loc 1 93 9 view .LVU93
 404 0096 84ED000A 		vstr.32	s0, [r4]
  94:Core/drogui/src/sensorsTasks.c **** 
  95:Core/drogui/src/sensorsTasks.c **** 
  96:Core/drogui/src/sensorsTasks.c ****     setReg(ROLL_VAL, roll);
 405              		.loc 1 96 5 is_stmt 1 view .LVU94
 406 009a 96ED000A 		vldr.32	s0, [r6]
 407 009e 2E20     		movs	r0, #46
 408 00a0 FFF7FEFF 		bl	setReg
 409              	.LVL31:
  97:Core/drogui/src/sensorsTasks.c ****     setReg(PITCH_VAL, pitch);
 410              		.loc 1 97 5 view .LVU95
 411 00a4 95ED000A 		vldr.32	s0, [r5]
 412 00a8 3020     		movs	r0, #48
 413 00aa FFF7FEFF 		bl	setReg
 414              	.LVL32:
  98:Core/drogui/src/sensorsTasks.c ****     setReg(YAW_VAL, yaw);
 415              		.loc 1 98 5 view .LVU96
 416 00ae 94ED000A 		vldr.32	s0, [r4]
 417 00b2 3220     		movs	r0, #50
 418 00b4 FFF7FEFF 		bl	setReg
 419              	.LVL33:
  99:Core/drogui/src/sensorsTasks.c **** }
ARM GAS  C:\Users\GUILLE~1\AppData\Local\Temp\cc1TcJmr.s 			page 10


 420              		.loc 1 99 1 is_stmt 0 view .LVU97
 421 00b8 04B0     		add	sp, sp, #16
 422              	.LCFI4:
 423              		.cfi_def_cfa_offset 16
 424              		@ sp needed
 425 00ba 70BD     		pop	{r4, r5, r6, pc}
 426              	.L12:
 427              		.align	2
 428              	.L11:
 429 00bc 00000000 		.word	.LANCHOR11
 430 00c0 DB0F4940 		.word	1078530011
 431 00c4 00000000 		.word	.LANCHOR13
 432 00c8 00000000 		.word	.LANCHOR15
 433 00cc 00000000 		.word	0
 434 00d0 0000B443 		.word	1135869952
 435 00d4 00000000 		.word	.LANCHOR6
 436 00d8 00000000 		.word	.LANCHOR4
 437 00dc 00000000 		.word	.LANCHOR2
 438 00e0 00000000 		.word	.LANCHOR25
 439 00e4 00000000 		.word	.LANCHOR26
 440 00e8 00000000 		.word	.LANCHOR27
 441 00ec 00000000 		.word	.LANCHOR28
 442 00f0 00000000 		.word	.LANCHOR29
 443 00f4 00000000 		.word	.LANCHOR30
 444              		.cfi_endproc
 445              	.LFE180:
 447              		.section	.text.magTask,"ax",%progbits
 448              		.align	1
 449              		.global	magTask
 450              		.syntax unified
 451              		.thumb
 452              		.thumb_func
 453              		.fpu fpv5-sp-d16
 455              	magTask:
 456              	.LFB179:
  72:Core/drogui/src/sensorsTasks.c ****     readMag(&myIMU);
 457              		.loc 1 72 15 is_stmt 1 view -0
 458              		.cfi_startproc
 459              		@ args = 0, pretend = 0, frame = 0
 460              		@ frame_needed = 0, uses_anonymous_args = 0
 461 0000 10B5     		push	{r4, lr}
 462              	.LCFI5:
 463              		.cfi_def_cfa_offset 8
 464              		.cfi_offset 4, -8
 465              		.cfi_offset 14, -4
  73:Core/drogui/src/sensorsTasks.c ****     mx = myIMU.mx;
 466              		.loc 1 73 5 view .LVU99
 467 0002 074C     		ldr	r4, .L15
 468 0004 2046     		mov	r0, r4
 469 0006 FFF7FEFF 		bl	readMag
 470              	.LVL34:
  74:Core/drogui/src/sensorsTasks.c ****     my = myIMU.my;
 471              		.loc 1 74 5 view .LVU100
  74:Core/drogui/src/sensorsTasks.c ****     my = myIMU.my;
 472              		.loc 1 74 15 is_stmt 0 view .LVU101
 473 000a 626B     		ldr	r2, [r4, #52]	@ float
  74:Core/drogui/src/sensorsTasks.c ****     my = myIMU.my;
ARM GAS  C:\Users\GUILLE~1\AppData\Local\Temp\cc1TcJmr.s 			page 11


 474              		.loc 1 74 8 view .LVU102
 475 000c 054B     		ldr	r3, .L15+4
 476 000e 1A60     		str	r2, [r3]	@ float
  75:Core/drogui/src/sensorsTasks.c ****     mz = myIMU.mz;
 477              		.loc 1 75 5 is_stmt 1 view .LVU103
  75:Core/drogui/src/sensorsTasks.c ****     mz = myIMU.mz;
 478              		.loc 1 75 15 is_stmt 0 view .LVU104
 479 0010 A26B     		ldr	r2, [r4, #56]	@ float
  75:Core/drogui/src/sensorsTasks.c ****     mz = myIMU.mz;
 480              		.loc 1 75 8 view .LVU105
 481 0012 054B     		ldr	r3, .L15+8
 482 0014 1A60     		str	r2, [r3]	@ float
  76:Core/drogui/src/sensorsTasks.c **** }
 483              		.loc 1 76 5 is_stmt 1 view .LVU106
  76:Core/drogui/src/sensorsTasks.c **** }
 484              		.loc 1 76 15 is_stmt 0 view .LVU107
 485 0016 E26B     		ldr	r2, [r4, #60]	@ float
  76:Core/drogui/src/sensorsTasks.c **** }
 486              		.loc 1 76 8 view .LVU108
 487 0018 044B     		ldr	r3, .L15+12
 488 001a 1A60     		str	r2, [r3]	@ float
  77:Core/drogui/src/sensorsTasks.c **** 
 489              		.loc 1 77 1 view .LVU109
 490 001c 10BD     		pop	{r4, pc}
 491              	.L16:
 492 001e 00BF     		.align	2
 493              	.L15:
 494 0020 00000000 		.word	.LANCHOR0
 495 0024 00000000 		.word	.LANCHOR31
 496 0028 00000000 		.word	.LANCHOR32
 497 002c 00000000 		.word	.LANCHOR33
 498              		.cfi_endproc
 499              	.LFE179:
 501              		.section	.text.initSensorsTasks,"ax",%progbits
 502              		.align	1
 503              		.global	initSensorsTasks
 504              		.syntax unified
 505              		.thumb
 506              		.thumb_func
 507              		.fpu fpv5-sp-d16
 509              	initSensorsTasks:
 510              	.LFB181:
 100:Core/drogui/src/sensorsTasks.c **** 
 101:Core/drogui/src/sensorsTasks.c **** 
 102:Core/drogui/src/sensorsTasks.c **** void initSensorsTasks(){
 511              		.loc 1 102 24 is_stmt 1 view -0
 512              		.cfi_startproc
 513              		@ args = 0, pretend = 0, frame = 0
 514              		@ frame_needed = 0, uses_anonymous_args = 0
 515 0000 2DE9F041 		push	{r4, r5, r6, r7, r8, lr}
 516              	.LCFI6:
 517              		.cfi_def_cfa_offset 24
 518              		.cfi_offset 4, -24
 519              		.cfi_offset 5, -20
 520              		.cfi_offset 6, -16
 521              		.cfi_offset 7, -12
 522              		.cfi_offset 8, -8
ARM GAS  C:\Users\GUILLE~1\AppData\Local\Temp\cc1TcJmr.s 			page 12


 523              		.cfi_offset 14, -4
 524 0004 2DED028B 		vpush.64	{d8}
 525              	.LCFI7:
 526              		.cfi_def_cfa_offset 32
 527              		.cfi_offset 80, -32
 528              		.cfi_offset 81, -28
 103:Core/drogui/src/sensorsTasks.c ****     
 104:Core/drogui/src/sensorsTasks.c ****     initMpu(&myIMU);
 529              		.loc 1 104 5 view .LVU111
 530 0008 704E     		ldr	r6, .L19
 531 000a 3046     		mov	r0, r6
 532 000c FFF7FEFF 		bl	initMpu
 533              	.LVL35:
 105:Core/drogui/src/sensorsTasks.c **** 
 106:Core/drogui/src/sensorsTasks.c ****     initFilter(&filter_gx, 4 , k_1_10, v_1_10);
 534              		.loc 1 106 5 view .LVU112
 535 0010 6F4D     		ldr	r5, .L19+4
 536 0012 704C     		ldr	r4, .L19+8
 537 0014 2B46     		mov	r3, r5
 538 0016 2246     		mov	r2, r4
 539 0018 0421     		movs	r1, #4
 540 001a 6F48     		ldr	r0, .L19+12
 541 001c FFF7FEFF 		bl	initFilter
 542              	.LVL36:
 107:Core/drogui/src/sensorsTasks.c ****     initFilter(&filter_gy, 4 , k_1_10, v_1_10);
 543              		.loc 1 107 5 view .LVU113
 544 0020 2B46     		mov	r3, r5
 545 0022 2246     		mov	r2, r4
 546 0024 0421     		movs	r1, #4
 547 0026 6D48     		ldr	r0, .L19+16
 548 0028 FFF7FEFF 		bl	initFilter
 549              	.LVL37:
 108:Core/drogui/src/sensorsTasks.c ****     initFilter(&filter_gz, 4 , k_1_10, v_1_10);
 550              		.loc 1 108 5 view .LVU114
 551 002c 2B46     		mov	r3, r5
 552 002e 2246     		mov	r2, r4
 553 0030 0421     		movs	r1, #4
 554 0032 6B48     		ldr	r0, .L19+20
 555 0034 FFF7FEFF 		bl	initFilter
 556              	.LVL38:
 109:Core/drogui/src/sensorsTasks.c **** 
 110:Core/drogui/src/sensorsTasks.c ****     initFilter(&filter_gx2, 5 , k_3_10, v_3_10);
 557              		.loc 1 110 5 view .LVU115
 558 0038 DFF81082 		ldr	r8, .L19+128
 559 003c 694F     		ldr	r7, .L19+24
 560 003e 4346     		mov	r3, r8
 561 0040 3A46     		mov	r2, r7
 562 0042 0521     		movs	r1, #5
 563 0044 6848     		ldr	r0, .L19+28
 564 0046 FFF7FEFF 		bl	initFilter
 565              	.LVL39:
 111:Core/drogui/src/sensorsTasks.c ****     initFilter(&filter_gy2, 5 , k_3_10, v_3_10);
 566              		.loc 1 111 5 view .LVU116
 567 004a 4346     		mov	r3, r8
 568 004c 3A46     		mov	r2, r7
 569 004e 0521     		movs	r1, #5
 570 0050 6648     		ldr	r0, .L19+32
ARM GAS  C:\Users\GUILLE~1\AppData\Local\Temp\cc1TcJmr.s 			page 13


 571 0052 FFF7FEFF 		bl	initFilter
 572              	.LVL40:
 112:Core/drogui/src/sensorsTasks.c ****     initFilter(&filter_gz2, 5 , k_3_10, v_3_10);
 573              		.loc 1 112 5 view .LVU117
 574 0056 4346     		mov	r3, r8
 575 0058 3A46     		mov	r2, r7
 576 005a 0521     		movs	r1, #5
 577 005c 6448     		ldr	r0, .L19+36
 578 005e FFF7FEFF 		bl	initFilter
 579              	.LVL41:
 113:Core/drogui/src/sensorsTasks.c **** 
 114:Core/drogui/src/sensorsTasks.c ****     initDNotchFilter(&dnotch_gx, 64, 50, 1000, 1, 10);
 580              		.loc 1 114 5 view .LVU118
 581 0062 9FED648A 		vldr.32	s16, .L19+40
 582 0066 DFED648A 		vldr.32	s17, .L19+44
 583 006a F2EE041A 		vmov.f32	s3, #1.0e+1
 584 006e B7EE001A 		vmov.f32	s2, #1.0e+0
 585 0072 F0EE480A 		vmov.f32	s1, s16
 586 0076 B0EE680A 		vmov.f32	s0, s17
 587 007a 4021     		movs	r1, #64
 588 007c 5F48     		ldr	r0, .L19+48
 589 007e FFF7FEFF 		bl	initDNotchFilter
 590              	.LVL42:
 115:Core/drogui/src/sensorsTasks.c ****     initDNotchFilter(&dnotch_gy, 64, 50, 1000, 1, 10);
 591              		.loc 1 115 5 view .LVU119
 592 0082 F2EE041A 		vmov.f32	s3, #1.0e+1
 593 0086 B7EE001A 		vmov.f32	s2, #1.0e+0
 594 008a F0EE480A 		vmov.f32	s1, s16
 595 008e B0EE680A 		vmov.f32	s0, s17
 596 0092 4021     		movs	r1, #64
 597 0094 5A48     		ldr	r0, .L19+52
 598 0096 FFF7FEFF 		bl	initDNotchFilter
 599              	.LVL43:
 116:Core/drogui/src/sensorsTasks.c ****     initDNotchFilter(&dnotch_gz, 64, 50, 1000, 1, 10);
 600              		.loc 1 116 5 view .LVU120
 601 009a F2EE041A 		vmov.f32	s3, #1.0e+1
 602 009e B7EE001A 		vmov.f32	s2, #1.0e+0
 603 00a2 F0EE480A 		vmov.f32	s1, s16
 604 00a6 B0EE680A 		vmov.f32	s0, s17
 605 00aa 4021     		movs	r1, #64
 606 00ac 5548     		ldr	r0, .L19+56
 607 00ae FFF7FEFF 		bl	initDNotchFilter
 608              	.LVL44:
 117:Core/drogui/src/sensorsTasks.c **** 
 118:Core/drogui/src/sensorsTasks.c ****     initDNotchFilter(&dnotch_gx2, 64, 50, 1000, 1, 5);
 609              		.loc 1 118 5 view .LVU121
 610 00b2 F1EE041A 		vmov.f32	s3, #5.0e+0
 611 00b6 B7EE001A 		vmov.f32	s2, #1.0e+0
 612 00ba F0EE480A 		vmov.f32	s1, s16
 613 00be B0EE680A 		vmov.f32	s0, s17
 614 00c2 4021     		movs	r1, #64
 615 00c4 5048     		ldr	r0, .L19+60
 616 00c6 FFF7FEFF 		bl	initDNotchFilter
 617              	.LVL45:
 119:Core/drogui/src/sensorsTasks.c ****     initDNotchFilter(&dnotch_gy2, 64, 50, 1000, 1, 5);
 618              		.loc 1 119 5 view .LVU122
 619 00ca F1EE041A 		vmov.f32	s3, #5.0e+0
ARM GAS  C:\Users\GUILLE~1\AppData\Local\Temp\cc1TcJmr.s 			page 14


 620 00ce B7EE001A 		vmov.f32	s2, #1.0e+0
 621 00d2 F0EE480A 		vmov.f32	s1, s16
 622 00d6 B0EE680A 		vmov.f32	s0, s17
 623 00da 4021     		movs	r1, #64
 624 00dc 4B48     		ldr	r0, .L19+64
 625 00de FFF7FEFF 		bl	initDNotchFilter
 626              	.LVL46:
 120:Core/drogui/src/sensorsTasks.c ****     initDNotchFilter(&dnotch_gz2, 64, 50, 1000, 1, 5);
 627              		.loc 1 120 5 view .LVU123
 628 00e2 F1EE041A 		vmov.f32	s3, #5.0e+0
 629 00e6 B7EE001A 		vmov.f32	s2, #1.0e+0
 630 00ea F0EE480A 		vmov.f32	s1, s16
 631 00ee B0EE680A 		vmov.f32	s0, s17
 632 00f2 4021     		movs	r1, #64
 633 00f4 4648     		ldr	r0, .L19+68
 634 00f6 FFF7FEFF 		bl	initDNotchFilter
 635              	.LVL47:
 121:Core/drogui/src/sensorsTasks.c **** 
 122:Core/drogui/src/sensorsTasks.c ****     initFilter(&filter_ax, 4 , k_5_100, v_5_100);
 636              		.loc 1 122 5 view .LVU124
 637 00fa DFF85481 		ldr	r8, .L19+132
 638 00fe 454F     		ldr	r7, .L19+72
 639 0100 4346     		mov	r3, r8
 640 0102 3A46     		mov	r2, r7
 641 0104 0421     		movs	r1, #4
 642 0106 4448     		ldr	r0, .L19+76
 643 0108 FFF7FEFF 		bl	initFilter
 644              	.LVL48:
 123:Core/drogui/src/sensorsTasks.c ****     initFilter(&filter_ay, 4 , k_5_100, v_5_100);
 645              		.loc 1 123 5 view .LVU125
 646 010c 4346     		mov	r3, r8
 647 010e 3A46     		mov	r2, r7
 648 0110 0421     		movs	r1, #4
 649 0112 4248     		ldr	r0, .L19+80
 650 0114 FFF7FEFF 		bl	initFilter
 651              	.LVL49:
 124:Core/drogui/src/sensorsTasks.c ****     initFilter(&filter_az, 4 , k_5_100, v_5_100);
 652              		.loc 1 124 5 view .LVU126
 653 0118 4346     		mov	r3, r8
 654 011a 3A46     		mov	r2, r7
 655 011c 0421     		movs	r1, #4
 656 011e 4048     		ldr	r0, .L19+84
 657 0120 FFF7FEFF 		bl	initFilter
 658              	.LVL50:
 125:Core/drogui/src/sensorsTasks.c **** 
 126:Core/drogui/src/sensorsTasks.c **** 
 127:Core/drogui/src/sensorsTasks.c ****     initDNotchFilter(&dnotch_ax, 64, 40, 1000, 1, 1);
 659              		.loc 1 127 5 view .LVU127
 660 0124 DFED3F8A 		vldr.32	s17, .L19+88
 661 0128 F7EE001A 		vmov.f32	s3, #1.0e+0
 662 012c B0EE611A 		vmov.f32	s2, s3
 663 0130 F0EE480A 		vmov.f32	s1, s16
 664 0134 B0EE680A 		vmov.f32	s0, s17
 665 0138 4021     		movs	r1, #64
 666 013a 3B48     		ldr	r0, .L19+92
 667 013c FFF7FEFF 		bl	initDNotchFilter
 668              	.LVL51:
ARM GAS  C:\Users\GUILLE~1\AppData\Local\Temp\cc1TcJmr.s 			page 15


 128:Core/drogui/src/sensorsTasks.c ****     initDNotchFilter(&dnotch_ay, 64, 40, 1000, 1, 1);
 669              		.loc 1 128 5 view .LVU128
 670 0140 F7EE001A 		vmov.f32	s3, #1.0e+0
 671 0144 B0EE611A 		vmov.f32	s2, s3
 672 0148 F0EE480A 		vmov.f32	s1, s16
 673 014c B0EE680A 		vmov.f32	s0, s17
 674 0150 4021     		movs	r1, #64
 675 0152 3648     		ldr	r0, .L19+96
 676 0154 FFF7FEFF 		bl	initDNotchFilter
 677              	.LVL52:
 129:Core/drogui/src/sensorsTasks.c ****     initDNotchFilter(&dnotch_az, 64, 40, 1000, 1, 1);
 678              		.loc 1 129 5 view .LVU129
 679 0158 F7EE001A 		vmov.f32	s3, #1.0e+0
 680 015c B0EE611A 		vmov.f32	s2, s3
 681 0160 F0EE480A 		vmov.f32	s1, s16
 682 0164 B0EE680A 		vmov.f32	s0, s17
 683 0168 4021     		movs	r1, #64
 684 016a 3148     		ldr	r0, .L19+100
 685 016c FFF7FEFF 		bl	initDNotchFilter
 686              	.LVL53:
 130:Core/drogui/src/sensorsTasks.c ****     
 131:Core/drogui/src/sensorsTasks.c **** 
 132:Core/drogui/src/sensorsTasks.c ****     initFilter(&filter_roll, 4, k_1_10, v_1_10);
 687              		.loc 1 132 5 view .LVU130
 688 0170 2B46     		mov	r3, r5
 689 0172 2246     		mov	r2, r4
 690 0174 0421     		movs	r1, #4
 691 0176 2F48     		ldr	r0, .L19+104
 692 0178 FFF7FEFF 		bl	initFilter
 693              	.LVL54:
 133:Core/drogui/src/sensorsTasks.c ****     initFilter(&filter_pitch, 4, k_1_10, v_1_10);
 694              		.loc 1 133 5 view .LVU131
 695 017c 2B46     		mov	r3, r5
 696 017e 2246     		mov	r2, r4
 697 0180 0421     		movs	r1, #4
 698 0182 2D48     		ldr	r0, .L19+108
 699 0184 FFF7FEFF 		bl	initFilter
 700              	.LVL55:
 134:Core/drogui/src/sensorsTasks.c ****     initFilter(&filter_yaw, 4, k_1_10, v_1_10);
 701              		.loc 1 134 5 view .LVU132
 702 0188 2B46     		mov	r3, r5
 703 018a 2246     		mov	r2, r4
 704 018c 0421     		movs	r1, #4
 705 018e 2B48     		ldr	r0, .L19+112
 706 0190 FFF7FEFF 		bl	initFilter
 707              	.LVL56:
 135:Core/drogui/src/sensorsTasks.c **** 
 136:Core/drogui/src/sensorsTasks.c **** 
 137:Core/drogui/src/sensorsTasks.c ****     calibrateGyro(&myIMU);
 708              		.loc 1 137 5 view .LVU133
 709 0194 3046     		mov	r0, r6
 710 0196 FFF7FEFF 		bl	calibrateGyro
 711              	.LVL57:
 138:Core/drogui/src/sensorsTasks.c ****     calibrateAccel(&myIMU);
 712              		.loc 1 138 5 view .LVU134
 713 019a 3046     		mov	r0, r6
 714 019c FFF7FEFF 		bl	calibrateAccel
ARM GAS  C:\Users\GUILLE~1\AppData\Local\Temp\cc1TcJmr.s 			page 16


 715              	.LVL58:
 139:Core/drogui/src/sensorsTasks.c **** 
 140:Core/drogui/src/sensorsTasks.c ****     //calibrateMag(&myIMU);
 141:Core/drogui/src/sensorsTasks.c ****     
 142:Core/drogui/src/sensorsTasks.c ****     addTask(&gyroTask, 1000, 2);
 716              		.loc 1 142 5 view .LVU135
 717 01a0 0222     		movs	r2, #2
 718 01a2 4FF47A71 		mov	r1, #1000
 719 01a6 2648     		ldr	r0, .L19+116
 720 01a8 FFF7FEFF 		bl	addTask
 721              	.LVL59:
 143:Core/drogui/src/sensorsTasks.c ****     addTask(&accelTask, 1000, 3);
 722              		.loc 1 143 5 view .LVU136
 723 01ac 0322     		movs	r2, #3
 724 01ae 4FF47A71 		mov	r1, #1000
 725 01b2 2448     		ldr	r0, .L19+120
 726 01b4 FFF7FEFF 		bl	addTask
 727              	.LVL60:
 144:Core/drogui/src/sensorsTasks.c ****     //addTask(&magTask, 10, 2);
 145:Core/drogui/src/sensorsTasks.c ****     addTask(&rpyTask, 2000, 2);
 728              		.loc 1 145 5 view .LVU137
 729 01b8 0222     		movs	r2, #2
 730 01ba 4FF4FA61 		mov	r1, #2000
 731 01be 2248     		ldr	r0, .L19+124
 732 01c0 FFF7FEFF 		bl	addTask
 733              	.LVL61:
 146:Core/drogui/src/sensorsTasks.c **** }...
 734              		.loc 1 146 1 is_stmt 0 view .LVU138
 735 01c4 BDEC028B 		vldm	sp!, {d8}
 736              	.LCFI8:
 737              		.cfi_restore 80
 738              		.cfi_restore 81
 739              		.cfi_def_cfa_offset 24
 740 01c8 BDE8F081 		pop	{r4, r5, r6, r7, r8, pc}
 741              	.L20:
 742              		.align	2
 743              	.L19:
 744 01cc 00000000 		.word	.LANCHOR0
 745 01d0 00000000 		.word	v_1_10
 746 01d4 00000000 		.word	k_1_10
 747 01d8 00000000 		.word	.LANCHOR10
 748 01dc 00000000 		.word	.LANCHOR12
 749 01e0 00000000 		.word	.LANCHOR14
 750 01e4 00000000 		.word	k_3_10
 751 01e8 00000000 		.word	.LANCHOR16
 752 01ec 00000000 		.word	.LANCHOR17
 753 01f0 00000000 		.word	.LANCHOR18
 754 01f4 00007A44 		.word	1148846080
 755 01f8 00004842 		.word	1112014848
 756 01fc 00000000 		.word	.LANCHOR19
 757 0200 00000000 		.word	.LANCHOR20
 758 0204 00000000 		.word	.LANCHOR21
 759 0208 00000000 		.word	.LANCHOR22
 760 020c 00000000 		.word	.LANCHOR23
 761 0210 00000000 		.word	.LANCHOR24
 762 0214 00000000 		.word	k_5_100
 763 0218 00000000 		.word	.LANCHOR1
ARM GAS  C:\Users\GUILLE~1\AppData\Local\Temp\cc1TcJmr.s 			page 17


 764 021c 00000000 		.word	.LANCHOR3
 765 0220 00000000 		.word	.LANCHOR5
 766 0224 00002042 		.word	1109393408
 767 0228 00000000 		.word	.LANCHOR7
 768 022c 00000000 		.word	.LANCHOR8
 769 0230 00000000 		.word	.LANCHOR9
 770 0234 00000000 		.word	.LANCHOR28
 771 0238 00000000 		.word	.LANCHOR29
 772 023c 00000000 		.word	.LANCHOR30
 773 0240 00000000 		.word	gyroTask
 774 0244 00000000 		.word	accelTask
 775 0248 00000000 		.word	rpyTask
 776 024c 00000000 		.word	v_3_10
 777 0250 00000000 		.word	v_5_100
 778              		.cfi_endproc
 779              	.LFE181:
 781              		.global	Kdfilt
 782              		.global	buff2
 783              		.global	z
 784              		.global	y
 785              		.global	x
 786              		.global	mz
 787              		.global	my
 788              		.global	mx
 789              		.global	gz
 790              		.global	gy
 791              		.global	gx
 792              		.global	az
 793              		.global	ay
 794              		.global	ax
 795              		.global	yaw
 796              		.global	pitch
 797              		.global	roll
 798              		.global	filter_yaw
 799              		.global	filter_pitch
 800              		.global	filter_roll
 801              		.global	dnotch_az
 802              		.global	dnotch_ay
 803              		.global	dnotch_ax
 804              		.global	filter_az
 805              		.global	filter_ay
 806              		.global	filter_ax
 807              		.global	dnotch_gz2
 808              		.global	dnotch_gy2
 809              		.global	dnotch_gx2
 810              		.global	dnotch_gz
 811              		.global	dnotch_gy
 812              		.global	dnotch_gx
 813              		.global	filter_gz2
 814              		.global	filter_gy2
 815              		.global	filter_gx2
 816              		.global	filter_gz
 817              		.global	filter_gy
 818              		.global	filter_gx
 819              		.global	myIMU
 820              		.section	.bss.ax,"aw",%nobits
 821              		.align	2
ARM GAS  C:\Users\GUILLE~1\AppData\Local\Temp\cc1TcJmr.s 			page 18


 822              		.set	.LANCHOR2,. + 0
 825              	ax:
 826 0000 00000000 		.space	4
 827              		.section	.bss.ay,"aw",%nobits
 828              		.align	2
 829              		.set	.LANCHOR4,. + 0
 832              	ay:
 833 0000 00000000 		.space	4
 834              		.section	.bss.az,"aw",%nobits
 835              		.align	2
 836              		.set	.LANCHOR6,. + 0
 839              	az:
 840 0000 00000000 		.space	4
 841              		.section	.bss.dnotch_ax,"aw",%nobits
 842              		.align	2
 843              		.set	.LANCHOR7,. + 0
 846              	dnotch_ax:
 847 0000 00000000 		.space	104
 847      00000000 
 847      00000000 
 847      00000000 
 847      00000000 
 848              		.section	.bss.dnotch_ay,"aw",%nobits
 849              		.align	2
 850              		.set	.LANCHOR8,. + 0
 853              	dnotch_ay:
 854 0000 00000000 		.space	104
 854      00000000 
 854      00000000 
 854      00000000 
 854      00000000 
 855              		.section	.bss.dnotch_az,"aw",%nobits
 856              		.align	2
 857              		.set	.LANCHOR9,. + 0
 860              	dnotch_az:
 861 0000 00000000 		.space	104
 861      00000000 
 861      00000000 
 861      00000000 
 861      00000000 
 862              		.section	.bss.dnotch_gx,"aw",%nobits
 863              		.align	2
 864              		.set	.LANCHOR19,. + 0
 867              	dnotch_gx:
 868 0000 00000000 		.space	104
 868      00000000 
 868      00000000 
 868      00000000 
 868      00000000 
 869              		.section	.bss.dnotch_gx2,"aw",%nobits
 870              		.align	2
 871              		.set	.LANCHOR22,. + 0
 874              	dnotch_gx2:
 875 0000 00000000 		.space	104
 875      00000000 
 875      00000000 
 875      00000000 
ARM GAS  C:\Users\GUILLE~1\AppData\Local\Temp\cc1TcJmr.s 			page 19


 875      00000000 
 876              		.section	.bss.dnotch_gy,"aw",%nobits
 877              		.align	2
 878              		.set	.LANCHOR20,. + 0
 881              	dnotch_gy:
 882 0000 00000000 		.space	104
 882      00000000 
 882      00000000 
 882      00000000 
 882      00000000 
 883              		.section	.bss.dnotch_gy2,"aw",%nobits
 884              		.align	2
 885              		.set	.LANCHOR23,. + 0
 888              	dnotch_gy2:
 889 0000 00000000 		.space	104
 889      00000000 
 889      00000000 
 889      00000000 
 889      00000000 
 890              		.section	.bss.dnotch_gz,"aw",%nobits
 891              		.align	2
 892              		.set	.LANCHOR21,. + 0
 895              	dnotch_gz:
 896 0000 00000000 		.space	104
 896      00000000 
 896      00000000 
 896      00000000 
 896      00000000 
 897              		.section	.bss.dnotch_gz2,"aw",%nobits
 898              		.align	2
 899              		.set	.LANCHOR24,. + 0
 902              	dnotch_gz2:
 903 0000 00000000 		.space	104
 903      00000000 
 903      00000000 
 903      00000000 
 903      00000000 
 904              		.section	.bss.filter_ax,"aw",%nobits
 905              		.align	2
 906              		.set	.LANCHOR1,. + 0
 909              	filter_ax:
 910 0000 00000000 		.space	20
 910      00000000 
 910      00000000 
 910      00000000 
 910      00000000 
 911              		.section	.bss.filter_ay,"aw",%nobits
 912              		.align	2
 913              		.set	.LANCHOR3,. + 0
 916              	filter_ay:
 917 0000 00000000 		.space	20
 917      00000000 
 917      00000000 
 917      00000000 
 917      00000000 
 918              		.section	.bss.filter_az,"aw",%nobits
 919              		.align	2
ARM GAS  C:\Users\GUILLE~1\AppData\Local\Temp\cc1TcJmr.s 			page 20


 920              		.set	.LANCHOR5,. + 0
 923              	filter_az:
 924 0000 00000000 		.space	20
 924      00000000 
 924      00000000 
 924      00000000 
 924      00000000 
 925              		.section	.bss.filter_gx,"aw",%nobits
 926              		.align	2
 927              		.set	.LANCHOR10,. + 0
 930              	filter_gx:
 931 0000 00000000 		.space	20
 931      00000000 
 931      00000000 
 931      00000000 
 931      00000000 
 932              		.section	.bss.filter_gx2,"aw",%nobits
 933              		.align	2
 934              		.set	.LANCHOR16,. + 0
 937              	filter_gx2:
 938 0000 00000000 		.space	20
 938      00000000 
 938      00000000 
 938      00000000 
 938      00000000 
 939              		.section	.bss.filter_gy,"aw",%nobits
 940              		.align	2
 941              		.set	.LANCHOR12,. + 0
 944              	filter_gy:
 945 0000 00000000 		.space	20
 945      00000000 
 945      00000000 
 945      00000000 
 945      00000000 
 946              		.section	.bss.filter_gy2,"aw",%nobits
 947              		.align	2
 948              		.set	.LANCHOR17,. + 0
 951              	filter_gy2:
 952 0000 00000000 		.space	20
 952      00000000 
 952      00000000 
 952      00000000 
 952      00000000 
 953              		.section	.bss.filter_gz,"aw",%nobits
 954              		.align	2
 955              		.set	.LANCHOR14,. + 0
 958              	filter_gz:
 959 0000 00000000 		.space	20
 959      00000000 
 959      00000000 
 959      00000000 
 959      00000000 
 960              		.section	.bss.filter_gz2,"aw",%nobits
 961              		.align	2
 962              		.set	.LANCHOR18,. + 0
 965              	filter_gz2:
 966 0000 00000000 		.space	20
ARM GAS  C:\Users\GUILLE~1\AppData\Local\Temp\cc1TcJmr.s 			page 21


 966      00000000 
 966      00000000 
 966      00000000 
 966      00000000 
 967              		.section	.bss.filter_pitch,"aw",%nobits
 968              		.align	2
 969              		.set	.LANCHOR29,. + 0
 972              	filter_pitch:
 973 0000 00000000 		.space	20
 973      00000000 
 973      00000000 
 973      00000000 
 973      00000000 
 974              		.section	.bss.filter_roll,"aw",%nobits
 975              		.align	2
 976              		.set	.LANCHOR28,. + 0
 979              	filter_roll:
 980 0000 00000000 		.space	20
 980      00000000 
 980      00000000 
 980      00000000 
 980      00000000 
 981              		.section	.bss.filter_yaw,"aw",%nobits
 982              		.align	2
 983              		.set	.LANCHOR30,. + 0
 986              	filter_yaw:
 987 0000 00000000 		.space	20
 987      00000000 
 987      00000000 
 987      00000000 
 987      00000000 
 988              		.section	.bss.gx,"aw",%nobits
 989              		.align	2
 990              		.set	.LANCHOR11,. + 0
 993              	gx:
 994 0000 00000000 		.space	4
 995              		.section	.bss.gy,"aw",%nobits
 996              		.align	2
 997              		.set	.LANCHOR13,. + 0
 1000              	gy:
 1001 0000 00000000 		.space	4
 1002              		.section	.bss.gz,"aw",%nobits
 1003              		.align	2
 1004              		.set	.LANCHOR15,. + 0
 1007              	gz:
 1008 0000 00000000 		.space	4
 1009              		.section	.bss.mx,"aw",%nobits
 1010              		.align	2
 1011              		.set	.LANCHOR31,. + 0
 1014              	mx:
 1015 0000 00000000 		.space	4
 1016              		.section	.bss.my,"aw",%nobits
 1017              		.align	2
 1018              		.set	.LANCHOR32,. + 0
 1021              	my:
 1022 0000 00000000 		.space	4
 1023              		.section	.bss.myIMU,"aw",%nobits
ARM GAS  C:\Users\GUILLE~1\AppData\Local\Temp\cc1TcJmr.s 			page 22


 1024              		.align	2
 1025              		.set	.LANCHOR0,. + 0
 1028              	myIMU:
 1029 0000 00000000 		.space	140
 1029      00000000 
 1029      00000000 
 1029      00000000 
 1029      00000000 
 1030              		.section	.bss.mz,"aw",%nobits
 1031              		.align	2
 1032              		.set	.LANCHOR33,. + 0
 1035              	mz:
 1036 0000 00000000 		.space	4
 1037              		.section	.bss.pitch,"aw",%nobits
 1038              		.align	2
 1039              		.set	.LANCHOR26,. + 0
 1042              	pitch:
 1043 0000 00000000 		.space	4
 1044              		.section	.bss.roll,"aw",%nobits
 1045              		.align	2
 1046              		.set	.LANCHOR25,. + 0
 1049              	roll:
 1050 0000 00000000 		.space	4
 1051              		.section	.bss.x,"aw",%nobits
 1052              		.align	2
 1055              	x:
 1056 0000 00000000 		.space	4
 1057              		.section	.bss.y,"aw",%nobits
 1058              		.align	2
 1061              	y:
 1062 0000 00000000 		.space	4
 1063              		.section	.bss.yaw,"aw",%nobits
 1064              		.align	2
 1065              		.set	.LANCHOR27,. + 0
 1068              	yaw:
 1069 0000 00000000 		.space	4
 1070              		.section	.bss.z,"aw",%nobits
 1071              		.align	2
 1074              	z:
 1075 0000 00000000 		.space	4
 1076              		.section	.data.Kdfilt,"aw"
 1077              		.align	2
 1080              	Kdfilt:
 1081 0000 0AD7233C 		.word	1008981770
 1082              		.section	.data.buff2,"aw"
 1083              		.align	2
 1086              	buff2:
 1087 0000 686F6C61 		.ascii	"hola\012\000"
 1087      0A00
 1088 0006 00000000 		.space	44
 1088      00000000 
 1088      00000000 
 1088      00000000 
 1088      00000000 
 1089              		.text
 1090              	.Letext0:
 1091              		.file 2 "c:\\program files (x86)\\gnu arm embedded toolchain\\10 2020-q4-major\\arm-none-eabi\\inc
ARM GAS  C:\Users\GUILLE~1\AppData\Local\Temp\cc1TcJmr.s 			page 23


 1092              		.file 3 "c:\\program files (x86)\\gnu arm embedded toolchain\\10 2020-q4-major\\arm-none-eabi\\inc
 1093              		.file 4 "Drivers/CMSIS/DSP/Include/arm_math.h"
 1094              		.file 5 "Core/drogui/include/filter.h"
 1095              		.file 6 "Core/drogui/include/MPU9250.h"
 1096              		.file 7 "Core/drogui/include/utils.h"
 1097              		.file 8 "Core/drogui/include/sensorsTasks.h"
 1098              		.file 9 "Core/drogui/include/task.h"
 1099              		.file 10 "Core/drogui/include/mahony.h"
ARM GAS  C:\Users\GUILLE~1\AppData\Local\Temp\cc1TcJmr.s 			page 24


DEFINED SYMBOLS
                            *ABS*:00000000 sensorsTasks.c
C:\Users\GUILLE~1\AppData\Local\Temp\cc1TcJmr.s:18     .text.accelTask:00000000 $t
C:\Users\GUILLE~1\AppData\Local\Temp\cc1TcJmr.s:26     .text.accelTask:00000000 accelTask
C:\Users\GUILLE~1\AppData\Local\Temp\cc1TcJmr.s:116    .text.accelTask:00000084 $d
C:\Users\GUILLE~1\AppData\Local\Temp\cc1TcJmr.s:130    .text.gyroTask:00000000 $t
C:\Users\GUILLE~1\AppData\Local\Temp\cc1TcJmr.s:137    .text.gyroTask:00000000 gyroTask
C:\Users\GUILLE~1\AppData\Local\Temp\cc1TcJmr.s:289    .text.gyroTask:000000fc $d
C:\Users\GUILLE~1\AppData\Local\Temp\cc1TcJmr.s:310    .text.rpyTask:00000000 $t
C:\Users\GUILLE~1\AppData\Local\Temp\cc1TcJmr.s:317    .text.rpyTask:00000000 rpyTask
C:\Users\GUILLE~1\AppData\Local\Temp\cc1TcJmr.s:429    .text.rpyTask:000000bc $d
C:\Users\GUILLE~1\AppData\Local\Temp\cc1TcJmr.s:448    .text.magTask:00000000 $t
C:\Users\GUILLE~1\AppData\Local\Temp\cc1TcJmr.s:455    .text.magTask:00000000 magTask
C:\Users\GUILLE~1\AppData\Local\Temp\cc1TcJmr.s:494    .text.magTask:00000020 $d
C:\Users\GUILLE~1\AppData\Local\Temp\cc1TcJmr.s:502    .text.initSensorsTasks:00000000 $t
C:\Users\GUILLE~1\AppData\Local\Temp\cc1TcJmr.s:509    .text.initSensorsTasks:00000000 initSensorsTasks
C:\Users\GUILLE~1\AppData\Local\Temp\cc1TcJmr.s:744    .text.initSensorsTasks:000001cc $d
C:\Users\GUILLE~1\AppData\Local\Temp\cc1TcJmr.s:1080   .data.Kdfilt:00000000 Kdfilt
C:\Users\GUILLE~1\AppData\Local\Temp\cc1TcJmr.s:1086   .data.buff2:00000000 buff2
C:\Users\GUILLE~1\AppData\Local\Temp\cc1TcJmr.s:1074   .bss.z:00000000 z
C:\Users\GUILLE~1\AppData\Local\Temp\cc1TcJmr.s:1061   .bss.y:00000000 y
C:\Users\GUILLE~1\AppData\Local\Temp\cc1TcJmr.s:1055   .bss.x:00000000 x
C:\Users\GUILLE~1\AppData\Local\Temp\cc1TcJmr.s:1035   .bss.mz:00000000 mz
C:\Users\GUILLE~1\AppData\Local\Temp\cc1TcJmr.s:1021   .bss.my:00000000 my
C:\Users\GUILLE~1\AppData\Local\Temp\cc1TcJmr.s:1014   .bss.mx:00000000 mx
C:\Users\GUILLE~1\AppData\Local\Temp\cc1TcJmr.s:1007   .bss.gz:00000000 gz
C:\Users\GUILLE~1\AppData\Local\Temp\cc1TcJmr.s:1000   .bss.gy:00000000 gy
C:\Users\GUILLE~1\AppData\Local\Temp\cc1TcJmr.s:993    .bss.gx:00000000 gx
C:\Users\GUILLE~1\AppData\Local\Temp\cc1TcJmr.s:839    .bss.az:00000000 az
C:\Users\GUILLE~1\AppData\Local\Temp\cc1TcJmr.s:832    .bss.ay:00000000 ay
C:\Users\GUILLE~1\AppData\Local\Temp\cc1TcJmr.s:825    .bss.ax:00000000 ax
C:\Users\GUILLE~1\AppData\Local\Temp\cc1TcJmr.s:1068   .bss.yaw:00000000 yaw
C:\Users\GUILLE~1\AppData\Local\Temp\cc1TcJmr.s:1042   .bss.pitch:00000000 pitch
C:\Users\GUILLE~1\AppData\Local\Temp\cc1TcJmr.s:1049   .bss.roll:00000000 roll
C:\Users\GUILLE~1\AppData\Local\Temp\cc1TcJmr.s:986    .bss.filter_yaw:00000000 filter_yaw
C:\Users\GUILLE~1\AppData\Local\Temp\cc1TcJmr.s:972    .bss.filter_pitch:00000000 filter_pitch
C:\Users\GUILLE~1\AppData\Local\Temp\cc1TcJmr.s:979    .bss.filter_roll:00000000 filter_roll
C:\Users\GUILLE~1\AppData\Local\Temp\cc1TcJmr.s:860    .bss.dnotch_az:00000000 dnotch_az
C:\Users\GUILLE~1\AppData\Local\Temp\cc1TcJmr.s:853    .bss.dnotch_ay:00000000 dnotch_ay
C:\Users\GUILLE~1\AppData\Local\Temp\cc1TcJmr.s:846    .bss.dnotch_ax:00000000 dnotch_ax
C:\Users\GUILLE~1\AppData\Local\Temp\cc1TcJmr.s:923    .bss.filter_az:00000000 filter_az
C:\Users\GUILLE~1\AppData\Local\Temp\cc1TcJmr.s:916    .bss.filter_ay:00000000 filter_ay
C:\Users\GUILLE~1\AppData\Local\Temp\cc1TcJmr.s:909    .bss.filter_ax:00000000 filter_ax
C:\Users\GUILLE~1\AppData\Local\Temp\cc1TcJmr.s:902    .bss.dnotch_gz2:00000000 dnotch_gz2
C:\Users\GUILLE~1\AppData\Local\Temp\cc1TcJmr.s:888    .bss.dnotch_gy2:00000000 dnotch_gy2
C:\Users\GUILLE~1\AppData\Local\Temp\cc1TcJmr.s:874    .bss.dnotch_gx2:00000000 dnotch_gx2
C:\Users\GUILLE~1\AppData\Local\Temp\cc1TcJmr.s:895    .bss.dnotch_gz:00000000 dnotch_gz
C:\Users\GUILLE~1\AppData\Local\Temp\cc1TcJmr.s:881    .bss.dnotch_gy:00000000 dnotch_gy
C:\Users\GUILLE~1\AppData\Local\Temp\cc1TcJmr.s:867    .bss.dnotch_gx:00000000 dnotch_gx
C:\Users\GUILLE~1\AppData\Local\Temp\cc1TcJmr.s:965    .bss.filter_gz2:00000000 filter_gz2
C:\Users\GUILLE~1\AppData\Local\Temp\cc1TcJmr.s:951    .bss.filter_gy2:00000000 filter_gy2
C:\Users\GUILLE~1\AppData\Local\Temp\cc1TcJmr.s:937    .bss.filter_gx2:00000000 filter_gx2
C:\Users\GUILLE~1\AppData\Local\Temp\cc1TcJmr.s:958    .bss.filter_gz:00000000 filter_gz
C:\Users\GUILLE~1\AppData\Local\Temp\cc1TcJmr.s:944    .bss.filter_gy:00000000 filter_gy
C:\Users\GUILLE~1\AppData\Local\Temp\cc1TcJmr.s:930    .bss.filter_gx:00000000 filter_gx
C:\Users\GUILLE~1\AppData\Local\Temp\cc1TcJmr.s:1028   .bss.myIMU:00000000 myIMU
C:\Users\GUILLE~1\AppData\Local\Temp\cc1TcJmr.s:821    .bss.ax:00000000 $d
ARM GAS  C:\Users\GUILLE~1\AppData\Local\Temp\cc1TcJmr.s 			page 25


C:\Users\GUILLE~1\AppData\Local\Temp\cc1TcJmr.s:828    .bss.ay:00000000 $d
C:\Users\GUILLE~1\AppData\Local\Temp\cc1TcJmr.s:835    .bss.az:00000000 $d
C:\Users\GUILLE~1\AppData\Local\Temp\cc1TcJmr.s:842    .bss.dnotch_ax:00000000 $d
C:\Users\GUILLE~1\AppData\Local\Temp\cc1TcJmr.s:849    .bss.dnotch_ay:00000000 $d
C:\Users\GUILLE~1\AppData\Local\Temp\cc1TcJmr.s:856    .bss.dnotch_az:00000000 $d
C:\Users\GUILLE~1\AppData\Local\Temp\cc1TcJmr.s:863    .bss.dnotch_gx:00000000 $d
C:\Users\GUILLE~1\AppData\Local\Temp\cc1TcJmr.s:870    .bss.dnotch_gx2:00000000 $d
C:\Users\GUILLE~1\AppData\Local\Temp\cc1TcJmr.s:877    .bss.dnotch_gy:00000000 $d
C:\Users\GUILLE~1\AppData\Local\Temp\cc1TcJmr.s:884    .bss.dnotch_gy2:00000000 $d
C:\Users\GUILLE~1\AppData\Local\Temp\cc1TcJmr.s:891    .bss.dnotch_gz:00000000 $d
C:\Users\GUILLE~1\AppData\Local\Temp\cc1TcJmr.s:898    .bss.dnotch_gz2:00000000 $d
C:\Users\GUILLE~1\AppData\Local\Temp\cc1TcJmr.s:905    .bss.filter_ax:00000000 $d
C:\Users\GUILLE~1\AppData\Local\Temp\cc1TcJmr.s:912    .bss.filter_ay:00000000 $d
C:\Users\GUILLE~1\AppData\Local\Temp\cc1TcJmr.s:919    .bss.filter_az:00000000 $d
C:\Users\GUILLE~1\AppData\Local\Temp\cc1TcJmr.s:926    .bss.filter_gx:00000000 $d
C:\Users\GUILLE~1\AppData\Local\Temp\cc1TcJmr.s:933    .bss.filter_gx2:00000000 $d
C:\Users\GUILLE~1\AppData\Local\Temp\cc1TcJmr.s:940    .bss.filter_gy:00000000 $d
C:\Users\GUILLE~1\AppData\Local\Temp\cc1TcJmr.s:947    .bss.filter_gy2:00000000 $d
C:\Users\GUILLE~1\AppData\Local\Temp\cc1TcJmr.s:954    .bss.filter_gz:00000000 $d
C:\Users\GUILLE~1\AppData\Local\Temp\cc1TcJmr.s:961    .bss.filter_gz2:00000000 $d
C:\Users\GUILLE~1\AppData\Local\Temp\cc1TcJmr.s:968    .bss.filter_pitch:00000000 $d
C:\Users\GUILLE~1\AppData\Local\Temp\cc1TcJmr.s:975    .bss.filter_roll:00000000 $d
C:\Users\GUILLE~1\AppData\Local\Temp\cc1TcJmr.s:982    .bss.filter_yaw:00000000 $d
C:\Users\GUILLE~1\AppData\Local\Temp\cc1TcJmr.s:989    .bss.gx:00000000 $d
C:\Users\GUILLE~1\AppData\Local\Temp\cc1TcJmr.s:996    .bss.gy:00000000 $d
C:\Users\GUILLE~1\AppData\Local\Temp\cc1TcJmr.s:1003   .bss.gz:00000000 $d
C:\Users\GUILLE~1\AppData\Local\Temp\cc1TcJmr.s:1010   .bss.mx:00000000 $d
C:\Users\GUILLE~1\AppData\Local\Temp\cc1TcJmr.s:1017   .bss.my:00000000 $d
C:\Users\GUILLE~1\AppData\Local\Temp\cc1TcJmr.s:1024   .bss.myIMU:00000000 $d
C:\Users\GUILLE~1\AppData\Local\Temp\cc1TcJmr.s:1031   .bss.mz:00000000 $d
C:\Users\GUILLE~1\AppData\Local\Temp\cc1TcJmr.s:1038   .bss.pitch:00000000 $d
C:\Users\GUILLE~1\AppData\Local\Temp\cc1TcJmr.s:1045   .bss.roll:00000000 $d
C:\Users\GUILLE~1\AppData\Local\Temp\cc1TcJmr.s:1052   .bss.x:00000000 $d
C:\Users\GUILLE~1\AppData\Local\Temp\cc1TcJmr.s:1058   .bss.y:00000000 $d
C:\Users\GUILLE~1\AppData\Local\Temp\cc1TcJmr.s:1064   .bss.yaw:00000000 $d
C:\Users\GUILLE~1\AppData\Local\Temp\cc1TcJmr.s:1071   .bss.z:00000000 $d
C:\Users\GUILLE~1\AppData\Local\Temp\cc1TcJmr.s:1077   .data.Kdfilt:00000000 $d
C:\Users\GUILLE~1\AppData\Local\Temp\cc1TcJmr.s:1083   .data.buff2:00000000 $d

UNDEFINED SYMBOLS
readAcc
computeFilter
computeDNotch
setReg
readGyro
mahonyUpdate
getMahonyEuler
readMag
initMpu
initFilter
initDNotchFilter
calibrateGyro
calibrateAccel
addTask
v_1_10
k_1_10
k_3_10
ARM GAS  C:\Users\GUILLE~1\AppData\Local\Temp\cc1TcJmr.s 			page 26


k_5_100
v_3_10
v_5_100
