ARM GAS  C:\Users\GUILLE~1\AppData\Local\Temp\ccMOAPM2.s 			page 1


   1              		.cpu cortex-m7
   2              		.eabi_attribute 27, 1
   3              		.eabi_attribute 28, 1
   4              		.eabi_attribute 20, 1
   5              		.eabi_attribute 21, 1
   6              		.eabi_attribute 23, 3
   7              		.eabi_attribute 24, 1
   8              		.eabi_attribute 25, 1
   9              		.eabi_attribute 26, 1
  10              		.eabi_attribute 30, 1
  11              		.eabi_attribute 34, 1
  12              		.eabi_attribute 18, 4
  13              		.file	"sensorsTasks.c"
  14              		.text
  15              	.Ltext0:
  16              		.cfi_sections	.debug_frame
  17              		.section	.text.gyroTask,"ax",%progbits
  18              		.align	1
  19              		.global	gyroTask
  20              		.arch armv7e-m
  21              		.syntax unified
  22              		.thumb
  23              		.thumb_func
  24              		.fpu fpv5-sp-d16
  26              	gyroTask:
  27              	.LFB178:
  28              		.file 1 "Core/drogui/src/sensorsTasks.c"
   1:Core/drogui/src/sensorsTasks.c **** #include "sensorsTasks.h"
   2:Core/drogui/src/sensorsTasks.c **** #include "mahony.h"
   3:Core/drogui/src/sensorsTasks.c **** #include "task.h"
   4:Core/drogui/src/sensorsTasks.c **** #include "usart.h"
   5:Core/drogui/src/sensorsTasks.c **** #include <stdio.h>
   6:Core/drogui/src/sensorsTasks.c **** #include <string.h>
   7:Core/drogui/src/sensorsTasks.c **** 
   8:Core/drogui/src/sensorsTasks.c **** 
   9:Core/drogui/src/sensorsTasks.c **** mpu9250 myIMU;
  10:Core/drogui/src/sensorsTasks.c **** 
  11:Core/drogui/src/sensorsTasks.c **** filter filter_gx, filter_gy, filter_gz;
  12:Core/drogui/src/sensorsTasks.c **** filter filter_gx2, filter_gy2, filter_gz2;
  13:Core/drogui/src/sensorsTasks.c **** dNotchFilter dnotch_gx, dnotch_gy, dnotch_gz; 
  14:Core/drogui/src/sensorsTasks.c **** dNotchFilter dnotch_gx2, dnotch_gy2, dnotch_gz2;
  15:Core/drogui/src/sensorsTasks.c **** 
  16:Core/drogui/src/sensorsTasks.c **** 
  17:Core/drogui/src/sensorsTasks.c **** filter filter_ax, filter_ay, filter_az;
  18:Core/drogui/src/sensorsTasks.c **** dNotchFilter dnotch_ax, dnotch_ay, dnotch_az; 
  19:Core/drogui/src/sensorsTasks.c **** 
  20:Core/drogui/src/sensorsTasks.c **** filter filter_roll, filter_pitch, filter_yaw;
  21:Core/drogui/src/sensorsTasks.c **** float roll, pitch, yaw, ax, ay, az, gx, gy, gz, mx, my, mz, x, y, z;
  22:Core/drogui/src/sensorsTasks.c **** 
  23:Core/drogui/src/sensorsTasks.c **** 
  24:Core/drogui/src/sensorsTasks.c **** void accelTask(){   
  25:Core/drogui/src/sensorsTasks.c ****     readAcc(&myIMU);
  26:Core/drogui/src/sensorsTasks.c **** 
  27:Core/drogui/src/sensorsTasks.c ****     ax = computeFilter(&filter_ax, myIMU.ax);
  28:Core/drogui/src/sensorsTasks.c ****     ay = computeFilter(&filter_ay, myIMU.ay);
  29:Core/drogui/src/sensorsTasks.c ****     az = computeFilter(&filter_az, myIMU.az);
  30:Core/drogui/src/sensorsTasks.c **** 
ARM GAS  C:\Users\GUILLE~1\AppData\Local\Temp\ccMOAPM2.s 			page 2


  31:Core/drogui/src/sensorsTasks.c **** 
  32:Core/drogui/src/sensorsTasks.c ****     ax = computeDNotch(&dnotch_ax, ax);
  33:Core/drogui/src/sensorsTasks.c ****     ay = computeDNotch(&dnotch_ay, ay);
  34:Core/drogui/src/sensorsTasks.c ****     az = computeDNotch(&dnotch_az, az);
  35:Core/drogui/src/sensorsTasks.c **** 
  36:Core/drogui/src/sensorsTasks.c ****     setReg(ACC_X,(float)(ax));
  37:Core/drogui/src/sensorsTasks.c ****     setReg(ACC_Y,(float)(ay));
  38:Core/drogui/src/sensorsTasks.c ****     setReg(ACC_Z,(float)(az));
  39:Core/drogui/src/sensorsTasks.c **** }
  40:Core/drogui/src/sensorsTasks.c **** 
  41:Core/drogui/src/sensorsTasks.c **** char buff2[50] = "hola\n";
  42:Core/drogui/src/sensorsTasks.c **** void gyroTask(){
  29              		.loc 1 42 16 view -0
  30              		.cfi_startproc
  31              		@ args = 0, pretend = 0, frame = 0
  32              		@ frame_needed = 0, uses_anonymous_args = 0
  33 0000 38B5     		push	{r3, r4, r5, lr}
  34              	.LCFI0:
  35              		.cfi_def_cfa_offset 16
  36              		.cfi_offset 3, -16
  37              		.cfi_offset 4, -12
  38              		.cfi_offset 5, -8
  39              		.cfi_offset 14, -4
  43:Core/drogui/src/sensorsTasks.c ****     readGyro(&myIMU);
  40              		.loc 1 43 5 view .LVU1
  41 0002 184C     		ldr	r4, .L3
  42 0004 2046     		mov	r0, r4
  43 0006 FFF7FEFF 		bl	readGyro
  44              	.LVL0:
  44:Core/drogui/src/sensorsTasks.c **** 
  45:Core/drogui/src/sensorsTasks.c ****     gx = computeFilter(&filter_gx, myIMU.gx);
  45              		.loc 1 45 5 view .LVU2
  46              		.loc 1 45 10 is_stmt 0 view .LVU3
  47 000a 94ED070A 		vldr.32	s0, [r4, #28]
  48 000e 1648     		ldr	r0, .L3+4
  49 0010 FFF7FEFF 		bl	computeFilter
  50              	.LVL1:
  51 0014 F0EE407A 		vmov.f32	s15, s0
  52              		.loc 1 45 8 view .LVU4
  53 0018 144B     		ldr	r3, .L3+8
  54 001a 83ED000A 		vstr.32	s0, [r3]
  46:Core/drogui/src/sensorsTasks.c ****     /*
  47:Core/drogui/src/sensorsTasks.c ****     sprintf(buff2, "%f\t%f ;\n", myIMU.gx, gx);
  48:Core/drogui/src/sensorsTasks.c ****     HAL_UART_Transmit(&huart2, (uint8_t*) buff2, strlen(buff2), 100);*/
  49:Core/drogui/src/sensorsTasks.c ****     /*gy = computeFilter(&filter_gy, myIMU.gy);
  50:Core/drogui/src/sensorsTasks.c ****     gz = computeFilter(&filter_gz, myIMU.gz);
  51:Core/drogui/src/sensorsTasks.c **** 
  52:Core/drogui/src/sensorsTasks.c ****     
  53:Core/drogui/src/sensorsTasks.c ****     gx = computeFilter(&filter_gx2, gx);
  54:Core/drogui/src/sensorsTasks.c ****     gy = computeFilter(&filter_gy2, gy);
  55:Core/drogui/src/sensorsTasks.c ****     gz = computeFilter(&filter_gz2, gz);
  56:Core/drogui/src/sensorsTasks.c **** 
  57:Core/drogui/src/sensorsTasks.c ****     gx = computeDNotch(&dnotch_gx, gx);
  58:Core/drogui/src/sensorsTasks.c ****     gy = computeDNotch(&dnotch_gy, gy);
  59:Core/drogui/src/sensorsTasks.c ****     gz = computeDNotch(&dnotch_gz, gz);
  60:Core/drogui/src/sensorsTasks.c **** 
  61:Core/drogui/src/sensorsTasks.c ****     gx = computeDNotch(&dnotch_gx2, gx);
ARM GAS  C:\Users\GUILLE~1\AppData\Local\Temp\ccMOAPM2.s 			page 3


  62:Core/drogui/src/sensorsTasks.c ****     gy = computeDNotch(&dnotch_gy2, gy);
  63:Core/drogui/src/sensorsTasks.c ****     gz = computeDNotch(&dnotch_gz2, gz);*/
  64:Core/drogui/src/sensorsTasks.c ****     
  65:Core/drogui/src/sensorsTasks.c ****     gx /= 5;
  55              		.loc 1 65 5 is_stmt 1 view .LVU5
  56              		.loc 1 65 8 is_stmt 0 view .LVU6
  57 001e B1EE047A 		vmov.f32	s14, #5.0e+0
  58 0022 87EE870A 		vdiv.f32	s0, s15, s14
  59 0026 83ED000A 		vstr.32	s0, [r3]
  66:Core/drogui/src/sensorsTasks.c ****     gy /= 5;
  60              		.loc 1 66 5 is_stmt 1 view .LVU7
  61              		.loc 1 66 8 is_stmt 0 view .LVU8
  62 002a 114D     		ldr	r5, .L3+12
  63 002c D5ED006A 		vldr.32	s13, [r5]
  64 0030 C6EE877A 		vdiv.f32	s15, s13, s14
  65 0034 C5ED007A 		vstr.32	s15, [r5]
  67:Core/drogui/src/sensorsTasks.c ****     gz /= 5; 
  66              		.loc 1 67 5 is_stmt 1 view .LVU9
  67              		.loc 1 67 8 is_stmt 0 view .LVU10
  68 0038 0E4C     		ldr	r4, .L3+16
  69 003a D4ED006A 		vldr.32	s13, [r4]
  70 003e C6EE877A 		vdiv.f32	s15, s13, s14
  71 0042 C4ED007A 		vstr.32	s15, [r4]
  68:Core/drogui/src/sensorsTasks.c **** 
  69:Core/drogui/src/sensorsTasks.c **** 
  70:Core/drogui/src/sensorsTasks.c ****     setReg(GYRO_X, gx);
  72              		.loc 1 70 5 is_stmt 1 view .LVU11
  73 0046 7C20     		movs	r0, #124
  74 0048 FFF7FEFF 		bl	setReg
  75              	.LVL2:
  71:Core/drogui/src/sensorsTasks.c ****     setReg(GYRO_Y, gy);
  76              		.loc 1 71 5 view .LVU12
  77 004c 95ED000A 		vldr.32	s0, [r5]
  78 0050 7E20     		movs	r0, #126
  79 0052 FFF7FEFF 		bl	setReg
  80              	.LVL3:
  72:Core/drogui/src/sensorsTasks.c ****     setReg(GYRO_Z, gz);
  81              		.loc 1 72 5 view .LVU13
  82 0056 94ED000A 		vldr.32	s0, [r4]
  83 005a 8020     		movs	r0, #128
  84 005c FFF7FEFF 		bl	setReg
  85              	.LVL4:
  73:Core/drogui/src/sensorsTasks.c **** }
  86              		.loc 1 73 1 is_stmt 0 view .LVU14
  87 0060 38BD     		pop	{r3, r4, r5, pc}
  88              	.L4:
  89 0062 00BF     		.align	2
  90              	.L3:
  91 0064 00000000 		.word	.LANCHOR0
  92 0068 00000000 		.word	.LANCHOR1
  93 006c 00000000 		.word	.LANCHOR2
  94 0070 00000000 		.word	.LANCHOR3
  95 0074 00000000 		.word	.LANCHOR4
  96              		.cfi_endproc
  97              	.LFE178:
  99              		.section	.text.accelTask,"ax",%progbits
 100              		.align	1
ARM GAS  C:\Users\GUILLE~1\AppData\Local\Temp\ccMOAPM2.s 			page 4


 101              		.global	accelTask
 102              		.syntax unified
 103              		.thumb
 104              		.thumb_func
 105              		.fpu fpv5-sp-d16
 107              	accelTask:
 108              	.LFB177:
  24:Core/drogui/src/sensorsTasks.c ****     readAcc(&myIMU);
 109              		.loc 1 24 17 is_stmt 1 view -0
 110              		.cfi_startproc
 111              		@ args = 0, pretend = 0, frame = 0
 112              		@ frame_needed = 0, uses_anonymous_args = 0
 113 0000 70B5     		push	{r4, r5, r6, lr}
 114              	.LCFI1:
 115              		.cfi_def_cfa_offset 16
 116              		.cfi_offset 4, -16
 117              		.cfi_offset 5, -12
 118              		.cfi_offset 6, -8
 119              		.cfi_offset 14, -4
  25:Core/drogui/src/sensorsTasks.c **** 
 120              		.loc 1 25 5 view .LVU16
 121 0002 204C     		ldr	r4, .L7
 122 0004 2046     		mov	r0, r4
 123 0006 FFF7FEFF 		bl	readAcc
 124              	.LVL5:
  27:Core/drogui/src/sensorsTasks.c ****     ay = computeFilter(&filter_ay, myIMU.ay);
 125              		.loc 1 27 5 view .LVU17
  27:Core/drogui/src/sensorsTasks.c ****     ay = computeFilter(&filter_ay, myIMU.ay);
 126              		.loc 1 27 10 is_stmt 0 view .LVU18
 127 000a 94ED000A 		vldr.32	s0, [r4]
 128 000e 1E48     		ldr	r0, .L7+4
 129 0010 FFF7FEFF 		bl	computeFilter
 130              	.LVL6:
  27:Core/drogui/src/sensorsTasks.c ****     ay = computeFilter(&filter_ay, myIMU.ay);
 131              		.loc 1 27 8 view .LVU19
 132 0014 1D4E     		ldr	r6, .L7+8
 133 0016 86ED000A 		vstr.32	s0, [r6]
  28:Core/drogui/src/sensorsTasks.c ****     az = computeFilter(&filter_az, myIMU.az);
 134              		.loc 1 28 5 is_stmt 1 view .LVU20
  28:Core/drogui/src/sensorsTasks.c ****     az = computeFilter(&filter_az, myIMU.az);
 135              		.loc 1 28 10 is_stmt 0 view .LVU21
 136 001a 94ED010A 		vldr.32	s0, [r4, #4]
 137 001e 1C48     		ldr	r0, .L7+12
 138 0020 FFF7FEFF 		bl	computeFilter
 139              	.LVL7:
  28:Core/drogui/src/sensorsTasks.c ****     az = computeFilter(&filter_az, myIMU.az);
 140              		.loc 1 28 8 view .LVU22
 141 0024 1B4D     		ldr	r5, .L7+16
 142 0026 85ED000A 		vstr.32	s0, [r5]
  29:Core/drogui/src/sensorsTasks.c **** 
 143              		.loc 1 29 5 is_stmt 1 view .LVU23
  29:Core/drogui/src/sensorsTasks.c **** 
 144              		.loc 1 29 10 is_stmt 0 view .LVU24
 145 002a 94ED020A 		vldr.32	s0, [r4, #8]
 146 002e 1A48     		ldr	r0, .L7+20
 147 0030 FFF7FEFF 		bl	computeFilter
 148              	.LVL8:
ARM GAS  C:\Users\GUILLE~1\AppData\Local\Temp\ccMOAPM2.s 			page 5


  29:Core/drogui/src/sensorsTasks.c **** 
 149              		.loc 1 29 8 view .LVU25
 150 0034 194C     		ldr	r4, .L7+24
 151 0036 84ED000A 		vstr.32	s0, [r4]
  32:Core/drogui/src/sensorsTasks.c ****     ay = computeDNotch(&dnotch_ay, ay);
 152              		.loc 1 32 5 is_stmt 1 view .LVU26
  32:Core/drogui/src/sensorsTasks.c ****     ay = computeDNotch(&dnotch_ay, ay);
 153              		.loc 1 32 10 is_stmt 0 view .LVU27
 154 003a 96ED000A 		vldr.32	s0, [r6]
 155 003e 1848     		ldr	r0, .L7+28
 156 0040 FFF7FEFF 		bl	computeDNotch
 157              	.LVL9:
  32:Core/drogui/src/sensorsTasks.c ****     ay = computeDNotch(&dnotch_ay, ay);
 158              		.loc 1 32 8 view .LVU28
 159 0044 86ED000A 		vstr.32	s0, [r6]
  33:Core/drogui/src/sensorsTasks.c ****     az = computeDNotch(&dnotch_az, az);
 160              		.loc 1 33 5 is_stmt 1 view .LVU29
  33:Core/drogui/src/sensorsTasks.c ****     az = computeDNotch(&dnotch_az, az);
 161              		.loc 1 33 10 is_stmt 0 view .LVU30
 162 0048 95ED000A 		vldr.32	s0, [r5]
 163 004c 1548     		ldr	r0, .L7+32
 164 004e FFF7FEFF 		bl	computeDNotch
 165              	.LVL10:
  33:Core/drogui/src/sensorsTasks.c ****     az = computeDNotch(&dnotch_az, az);
 166              		.loc 1 33 8 view .LVU31
 167 0052 85ED000A 		vstr.32	s0, [r5]
  34:Core/drogui/src/sensorsTasks.c **** 
 168              		.loc 1 34 5 is_stmt 1 view .LVU32
  34:Core/drogui/src/sensorsTasks.c **** 
 169              		.loc 1 34 10 is_stmt 0 view .LVU33
 170 0056 94ED000A 		vldr.32	s0, [r4]
 171 005a 1348     		ldr	r0, .L7+36
 172 005c FFF7FEFF 		bl	computeDNotch
 173              	.LVL11:
  34:Core/drogui/src/sensorsTasks.c **** 
 174              		.loc 1 34 8 view .LVU34
 175 0060 84ED000A 		vstr.32	s0, [r4]
  36:Core/drogui/src/sensorsTasks.c ****     setReg(ACC_Y,(float)(ay));
 176              		.loc 1 36 5 is_stmt 1 view .LVU35
 177 0064 96ED000A 		vldr.32	s0, [r6]
 178 0068 7420     		movs	r0, #116
 179 006a FFF7FEFF 		bl	setReg
 180              	.LVL12:
  37:Core/drogui/src/sensorsTasks.c ****     setReg(ACC_Z,(float)(az));
 181              		.loc 1 37 5 view .LVU36
 182 006e 95ED000A 		vldr.32	s0, [r5]
 183 0072 7620     		movs	r0, #118
 184 0074 FFF7FEFF 		bl	setReg
 185              	.LVL13:
  38:Core/drogui/src/sensorsTasks.c **** }
 186              		.loc 1 38 5 view .LVU37
 187 0078 94ED000A 		vldr.32	s0, [r4]
 188 007c 7820     		movs	r0, #120
 189 007e FFF7FEFF 		bl	setReg
 190              	.LVL14:
  39:Core/drogui/src/sensorsTasks.c **** 
 191              		.loc 1 39 1 is_stmt 0 view .LVU38
ARM GAS  C:\Users\GUILLE~1\AppData\Local\Temp\ccMOAPM2.s 			page 6


 192 0082 70BD     		pop	{r4, r5, r6, pc}
 193              	.L8:
 194              		.align	2
 195              	.L7:
 196 0084 00000000 		.word	.LANCHOR0
 197 0088 00000000 		.word	.LANCHOR5
 198 008c 00000000 		.word	.LANCHOR6
 199 0090 00000000 		.word	.LANCHOR7
 200 0094 00000000 		.word	.LANCHOR8
 201 0098 00000000 		.word	.LANCHOR9
 202 009c 00000000 		.word	.LANCHOR10
 203 00a0 00000000 		.word	.LANCHOR11
 204 00a4 00000000 		.word	.LANCHOR12
 205 00a8 00000000 		.word	.LANCHOR13
 206              		.cfi_endproc
 207              	.LFE177:
 209              		.section	.text.magTask,"ax",%progbits
 210              		.align	1
 211              		.global	magTask
 212              		.syntax unified
 213              		.thumb
 214              		.thumb_func
 215              		.fpu fpv5-sp-d16
 217              	magTask:
 218              	.LFB179:
  74:Core/drogui/src/sensorsTasks.c **** 
  75:Core/drogui/src/sensorsTasks.c **** void magTask(){
 219              		.loc 1 75 15 is_stmt 1 view -0
 220              		.cfi_startproc
 221              		@ args = 0, pretend = 0, frame = 0
 222              		@ frame_needed = 0, uses_anonymous_args = 0
 223 0000 10B5     		push	{r4, lr}
 224              	.LCFI2:
 225              		.cfi_def_cfa_offset 8
 226              		.cfi_offset 4, -8
 227              		.cfi_offset 14, -4
  76:Core/drogui/src/sensorsTasks.c ****     readMag(&myIMU);
 228              		.loc 1 76 5 view .LVU40
 229 0002 074C     		ldr	r4, .L11
 230 0004 2046     		mov	r0, r4
 231 0006 FFF7FEFF 		bl	readMag
 232              	.LVL15:
  77:Core/drogui/src/sensorsTasks.c ****     mx = myIMU.mx;
 233              		.loc 1 77 5 view .LVU41
 234              		.loc 1 77 15 is_stmt 0 view .LVU42
 235 000a 626B     		ldr	r2, [r4, #52]	@ float
 236              		.loc 1 77 8 view .LVU43
 237 000c 054B     		ldr	r3, .L11+4
 238 000e 1A60     		str	r2, [r3]	@ float
  78:Core/drogui/src/sensorsTasks.c ****     my = myIMU.my;
 239              		.loc 1 78 5 is_stmt 1 view .LVU44
 240              		.loc 1 78 15 is_stmt 0 view .LVU45
 241 0010 A26B     		ldr	r2, [r4, #56]	@ float
 242              		.loc 1 78 8 view .LVU46
 243 0012 054B     		ldr	r3, .L11+8
 244 0014 1A60     		str	r2, [r3]	@ float
  79:Core/drogui/src/sensorsTasks.c ****     mz = myIMU.mz;
ARM GAS  C:\Users\GUILLE~1\AppData\Local\Temp\ccMOAPM2.s 			page 7


 245              		.loc 1 79 5 is_stmt 1 view .LVU47
 246              		.loc 1 79 15 is_stmt 0 view .LVU48
 247 0016 E26B     		ldr	r2, [r4, #60]	@ float
 248              		.loc 1 79 8 view .LVU49
 249 0018 044B     		ldr	r3, .L11+12
 250 001a 1A60     		str	r2, [r3]	@ float
  80:Core/drogui/src/sensorsTasks.c **** }
 251              		.loc 1 80 1 view .LVU50
 252 001c 10BD     		pop	{r4, pc}
 253              	.L12:
 254 001e 00BF     		.align	2
 255              	.L11:
 256 0020 00000000 		.word	.LANCHOR0
 257 0024 00000000 		.word	.LANCHOR14
 258 0028 00000000 		.word	.LANCHOR15
 259 002c 00000000 		.word	.LANCHOR16
 260              		.cfi_endproc
 261              	.LFE179:
 263              		.global	__aeabi_f2d
 264              		.global	__aeabi_dadd
 265              		.global	__aeabi_d2f
 266              		.section	.text.rpyTask,"ax",%progbits
 267              		.align	1
 268              		.global	rpyTask
 269              		.syntax unified
 270              		.thumb
 271              		.thumb_func
 272              		.fpu fpv5-sp-d16
 274              	rpyTask:
 275              	.LFB180:
  81:Core/drogui/src/sensorsTasks.c **** 
  82:Core/drogui/src/sensorsTasks.c **** float Kdfilt = 0.0005;
  83:Core/drogui/src/sensorsTasks.c **** void rpyTask(){
 276              		.loc 1 83 15 is_stmt 1 view -0
 277              		.cfi_startproc
 278              		@ args = 0, pretend = 0, frame = 16
 279              		@ frame_needed = 0, uses_anonymous_args = 0
 280 0000 2DE97043 		push	{r4, r5, r6, r8, r9, lr}
 281              	.LCFI3:
 282              		.cfi_def_cfa_offset 24
 283              		.cfi_offset 4, -24
 284              		.cfi_offset 5, -20
 285              		.cfi_offset 6, -16
 286              		.cfi_offset 8, -12
 287              		.cfi_offset 9, -8
 288              		.cfi_offset 14, -4
 289 0004 2DED088B 		vpush.64	{d8, d9, d10, d11}
 290              	.LCFI4:
 291              		.cfi_def_cfa_offset 56
 292              		.cfi_offset 80, -56
 293              		.cfi_offset 81, -52
 294              		.cfi_offset 82, -48
 295              		.cfi_offset 83, -44
 296              		.cfi_offset 84, -40
 297              		.cfi_offset 85, -36
 298              		.cfi_offset 86, -32
 299              		.cfi_offset 87, -28
ARM GAS  C:\Users\GUILLE~1\AppData\Local\Temp\ccMOAPM2.s 			page 8


 300 0008 84B0     		sub	sp, sp, #16
 301              	.LCFI5:
 302              		.cfi_def_cfa_offset 72
  84:Core/drogui/src/sensorsTasks.c ****     
  85:Core/drogui/src/sensorsTasks.c ****     float rpy[3];
 303              		.loc 1 85 5 view .LVU52
  86:Core/drogui/src/sensorsTasks.c ****     mahonyUpdate(gx*PI/360.0f, gy*PI/360.0f, gz*PI/360.0f, ax, ay, az, my, mx, mz);
 304              		.loc 1 86 5 view .LVU53
 305              		.loc 1 86 20 is_stmt 0 view .LVU54
 306 000a 704B     		ldr	r3, .L15
 307 000c 93ED000A 		vldr.32	s0, [r3]
 308 0010 DFED6F7A 		vldr.32	s15, .L15+4
 309 0014 20EE270A 		vmul.f32	s0, s0, s15
 310              		.loc 1 86 34 view .LVU55
 311 0018 6E4B     		ldr	r3, .L15+8
 312 001a D3ED000A 		vldr.32	s1, [r3]
 313 001e 60EEA70A 		vmul.f32	s1, s1, s15
 314              		.loc 1 86 48 view .LVU56
 315 0022 6D4B     		ldr	r3, .L15+12
 316 0024 93ED001A 		vldr.32	s2, [r3]
 317 0028 21EE271A 		vmul.f32	s2, s2, s15
 318              		.loc 1 86 5 view .LVU57
 319 002c DFED6B7A 		vldr.32	s15, .L15+16
 320 0030 6B4B     		ldr	r3, .L15+20
 321 0032 93ED004A 		vldr.32	s8, [r3]
 322 0036 6B4B     		ldr	r3, .L15+24
 323 0038 D3ED003A 		vldr.32	s7, [r3]
 324 003c 6A4B     		ldr	r3, .L15+28
 325 003e 93ED003A 		vldr.32	s6, [r3]
 326 0042 6A4B     		ldr	r3, .L15+32
 327 0044 D3ED002A 		vldr.32	s5, [r3]
 328 0048 694B     		ldr	r3, .L15+36
 329 004a 93ED002A 		vldr.32	s4, [r3]
 330 004e 694B     		ldr	r3, .L15+40
 331 0050 D3ED001A 		vldr.32	s3, [r3]
 332 0054 81EE271A 		vdiv.f32	s2, s2, s15
 333 0058 C0EEA70A 		vdiv.f32	s1, s1, s15
 334 005c 80EE270A 		vdiv.f32	s0, s0, s15
 335 0060 FFF7FEFF 		bl	mahonyUpdate
 336              	.LVL16:
  87:Core/drogui/src/sensorsTasks.c ****     getMahonyEuler(rpy);
 337              		.loc 1 87 5 is_stmt 1 view .LVU58
 338 0064 01A8     		add	r0, sp, #4
 339 0066 FFF7FEFF 		bl	getMahonyEuler
 340              	.LVL17:
  88:Core/drogui/src/sensorsTasks.c ****     //roll = rpy[0], pitch = rpy[1], yaw = rpy[2];
  89:Core/drogui/src/sensorsTasks.c ****     roll += fmax(fmin(Kdfilt, (rpy[0] - roll)),-Kdfilt);
 341              		.loc 1 89 5 view .LVU59
 342              		.loc 1 89 10 is_stmt 0 view .LVU60
 343 006a 634E     		ldr	r6, .L15+44
 344 006c 96ED00BA 		vldr.32	s22, [r6]
 345              		.loc 1 89 13 view .LVU61
 346 0070 624B     		ldr	r3, .L15+48
 347 0072 1C68     		ldr	r4, [r3]	@ float
 348 0074 2046     		mov	r0, r4	@ float
 349 0076 FFF7FEFF 		bl	__aeabi_f2d
 350              	.LVL18:
ARM GAS  C:\Users\GUILLE~1\AppData\Local\Temp\ccMOAPM2.s 			page 9


 351 007a 41EC190B 		vmov	d9, r0, r1
 352 007e DDED017A 		vldr.32	s15, [sp, #4]
 353 0082 77EECB7A 		vsub.f32	s15, s15, s22
 354 0086 17EE900A 		vmov	r0, s15
 355 008a FFF7FEFF 		bl	__aeabi_f2d
 356              	.LVL19:
 357 008e 41EC110B 		vmov	d1, r0, r1
 358 0092 B0EE490A 		vmov.f32	s0, s18
 359 0096 F0EE690A 		vmov.f32	s1, s19
 360 009a FFF7FEFF 		bl	fmin
 361              	.LVL20:
 362 009e B0EE40AA 		vmov.f32	s20, s0
 363 00a2 F0EE60AA 		vmov.f32	s21, s1
 364 00a6 84F00040 		eor	r0, r4, #-2147483648
 365 00aa FFF7FEFF 		bl	__aeabi_f2d
 366              	.LVL21:
 367 00ae 41EC180B 		vmov	d8, r0, r1
 368 00b2 41EC110B 		vmov	d1, r0, r1
 369 00b6 B0EE4A0A 		vmov.f32	s0, s20
 370 00ba F0EE6A0A 		vmov.f32	s1, s21
 371 00be FFF7FEFF 		bl	fmax
 372              	.LVL22:
 373 00c2 55EC104B 		vmov	r4, r5, d0
 374              		.loc 1 89 10 view .LVU62
 375 00c6 1BEE100A 		vmov	r0, s22
 376 00ca FFF7FEFF 		bl	__aeabi_f2d
 377              	.LVL23:
 378 00ce 2246     		mov	r2, r4
 379 00d0 2B46     		mov	r3, r5
 380 00d2 FFF7FEFF 		bl	__aeabi_dadd
 381              	.LVL24:
 382 00d6 FFF7FEFF 		bl	__aeabi_d2f
 383              	.LVL25:
 384 00da 0AEE100A 		vmov	s20, r0
 385 00de 3060     		str	r0, [r6]	@ float
  90:Core/drogui/src/sensorsTasks.c ****     pitch += fmax(fmin(Kdfilt, (rpy[1] - pitch)),-Kdfilt);
 386              		.loc 1 90 5 is_stmt 1 view .LVU63
 387              		.loc 1 90 11 is_stmt 0 view .LVU64
 388 00e0 474D     		ldr	r5, .L15+52
 389 00e2 D5ED00AA 		vldr.32	s21, [r5]
 390              		.loc 1 90 14 view .LVU65
 391 00e6 DDED027A 		vldr.32	s15, [sp, #8]
 392 00ea 77EEEA7A 		vsub.f32	s15, s15, s21
 393 00ee 17EE900A 		vmov	r0, s15
 394 00f2 FFF7FEFF 		bl	__aeabi_f2d
 395              	.LVL26:
 396 00f6 41EC110B 		vmov	d1, r0, r1
 397 00fa B0EE490A 		vmov.f32	s0, s18
 398 00fe F0EE690A 		vmov.f32	s1, s19
 399 0102 FFF7FEFF 		bl	fmin
 400              	.LVL27:
 401 0106 B0EE481A 		vmov.f32	s2, s16
 402 010a F0EE681A 		vmov.f32	s3, s17
 403 010e FFF7FEFF 		bl	fmax
 404              	.LVL28:
 405 0112 59EC108B 		vmov	r8, r9, d0
 406              		.loc 1 90 11 view .LVU66
ARM GAS  C:\Users\GUILLE~1\AppData\Local\Temp\ccMOAPM2.s 			page 10


 407 0116 1AEE900A 		vmov	r0, s21
 408 011a FFF7FEFF 		bl	__aeabi_f2d
 409              	.LVL29:
 410 011e 4246     		mov	r2, r8
 411 0120 4B46     		mov	r3, r9
 412 0122 FFF7FEFF 		bl	__aeabi_dadd
 413              	.LVL30:
 414 0126 FFF7FEFF 		bl	__aeabi_d2f
 415              	.LVL31:
 416 012a 2860     		str	r0, [r5]	@ float
  91:Core/drogui/src/sensorsTasks.c ****     yaw += fmax(fmin(Kdfilt,(rpy[2] - yaw)),-Kdfilt);
 417              		.loc 1 91 5 is_stmt 1 view .LVU67
 418              		.loc 1 91 9 is_stmt 0 view .LVU68
 419 012c 354C     		ldr	r4, .L15+56
 420 012e D4ED00AA 		vldr.32	s21, [r4]
 421              		.loc 1 91 12 view .LVU69
 422 0132 DDED037A 		vldr.32	s15, [sp, #12]
 423 0136 77EEEA7A 		vsub.f32	s15, s15, s21
 424 013a 17EE900A 		vmov	r0, s15
 425 013e FFF7FEFF 		bl	__aeabi_f2d
 426              	.LVL32:
 427 0142 41EC110B 		vmov	d1, r0, r1
 428 0146 B0EE490A 		vmov.f32	s0, s18
 429 014a F0EE690A 		vmov.f32	s1, s19
 430 014e FFF7FEFF 		bl	fmin
 431              	.LVL33:
 432 0152 B0EE481A 		vmov.f32	s2, s16
 433 0156 F0EE681A 		vmov.f32	s3, s17
 434 015a FFF7FEFF 		bl	fmax
 435              	.LVL34:
 436 015e 59EC108B 		vmov	r8, r9, d0
 437              		.loc 1 91 9 view .LVU70
 438 0162 1AEE900A 		vmov	r0, s21
 439 0166 FFF7FEFF 		bl	__aeabi_f2d
 440              	.LVL35:
 441 016a 4246     		mov	r2, r8
 442 016c 4B46     		mov	r3, r9
 443 016e FFF7FEFF 		bl	__aeabi_dadd
 444              	.LVL36:
 445 0172 FFF7FEFF 		bl	__aeabi_d2f
 446              	.LVL37:
 447 0176 2060     		str	r0, [r4]	@ float
  92:Core/drogui/src/sensorsTasks.c **** 
  93:Core/drogui/src/sensorsTasks.c ****     roll = computeFilter(&filter_roll, roll);
 448              		.loc 1 93 5 is_stmt 1 view .LVU71
 449              		.loc 1 93 12 is_stmt 0 view .LVU72
 450 0178 B0EE4A0A 		vmov.f32	s0, s20
 451 017c 2248     		ldr	r0, .L15+60
 452 017e FFF7FEFF 		bl	computeFilter
 453              	.LVL38:
 454              		.loc 1 93 10 view .LVU73
 455 0182 86ED000A 		vstr.32	s0, [r6]
  94:Core/drogui/src/sensorsTasks.c ****     pitch = computeFilter(&filter_pitch, pitch);
 456              		.loc 1 94 5 is_stmt 1 view .LVU74
 457              		.loc 1 94 13 is_stmt 0 view .LVU75
 458 0186 95ED000A 		vldr.32	s0, [r5]
 459 018a 2048     		ldr	r0, .L15+64
ARM GAS  C:\Users\GUILLE~1\AppData\Local\Temp\ccMOAPM2.s 			page 11


 460 018c FFF7FEFF 		bl	computeFilter
 461              	.LVL39:
 462              		.loc 1 94 11 view .LVU76
 463 0190 85ED000A 		vstr.32	s0, [r5]
  95:Core/drogui/src/sensorsTasks.c ****     yaw = computeFilter(&filter_yaw, yaw);
 464              		.loc 1 95 5 is_stmt 1 view .LVU77
 465              		.loc 1 95 11 is_stmt 0 view .LVU78
 466 0194 94ED000A 		vldr.32	s0, [r4]
 467 0198 1D48     		ldr	r0, .L15+68
 468 019a FFF7FEFF 		bl	computeFilter
 469              	.LVL40:
 470              		.loc 1 95 9 view .LVU79
 471 019e 84ED000A 		vstr.32	s0, [r4]
  96:Core/drogui/src/sensorsTasks.c **** 
  97:Core/drogui/src/sensorsTasks.c ****     setReg(ROLL_VAL, roll);
 472              		.loc 1 97 5 is_stmt 1 view .LVU80
 473 01a2 96ED000A 		vldr.32	s0, [r6]
 474 01a6 2E20     		movs	r0, #46
 475 01a8 FFF7FEFF 		bl	setReg
 476              	.LVL41:
  98:Core/drogui/src/sensorsTasks.c ****     setReg(PITCH_VAL, pitch);
 477              		.loc 1 98 5 view .LVU81
 478 01ac 95ED000A 		vldr.32	s0, [r5]
 479 01b0 3020     		movs	r0, #48
 480 01b2 FFF7FEFF 		bl	setReg
 481              	.LVL42:
  99:Core/drogui/src/sensorsTasks.c ****     setReg(YAW_VAL, yaw);
 482              		.loc 1 99 5 view .LVU82
 483 01b6 94ED000A 		vldr.32	s0, [r4]
 484 01ba 3220     		movs	r0, #50
 485 01bc FFF7FEFF 		bl	setReg
 486              	.LVL43:
 100:Core/drogui/src/sensorsTasks.c **** }
 487              		.loc 1 100 1 is_stmt 0 view .LVU83
 488 01c0 04B0     		add	sp, sp, #16
 489              	.LCFI6:
 490              		.cfi_def_cfa_offset 56
 491              		@ sp needed
 492 01c2 BDEC088B 		vldm	sp!, {d8-d11}
 493              	.LCFI7:
 494              		.cfi_restore 86
 495              		.cfi_restore 87
 496              		.cfi_restore 84
 497              		.cfi_restore 85
 498              		.cfi_restore 82
 499              		.cfi_restore 83
 500              		.cfi_restore 80
 501              		.cfi_restore 81
 502              		.cfi_def_cfa_offset 24
 503 01c6 BDE87083 		pop	{r4, r5, r6, r8, r9, pc}
 504              	.L16:
 505 01ca 00BF     		.align	2
 506              	.L15:
 507 01cc 00000000 		.word	.LANCHOR2
 508 01d0 DB0F4940 		.word	1078530011
 509 01d4 00000000 		.word	.LANCHOR3
 510 01d8 00000000 		.word	.LANCHOR4
ARM GAS  C:\Users\GUILLE~1\AppData\Local\Temp\ccMOAPM2.s 			page 12


 511 01dc 0000B443 		.word	1135869952
 512 01e0 00000000 		.word	.LANCHOR16
 513 01e4 00000000 		.word	.LANCHOR14
 514 01e8 00000000 		.word	.LANCHOR15
 515 01ec 00000000 		.word	.LANCHOR10
 516 01f0 00000000 		.word	.LANCHOR8
 517 01f4 00000000 		.word	.LANCHOR6
 518 01f8 00000000 		.word	.LANCHOR17
 519 01fc 00000000 		.word	.LANCHOR18
 520 0200 00000000 		.word	.LANCHOR19
 521 0204 00000000 		.word	.LANCHOR20
 522 0208 00000000 		.word	.LANCHOR21
 523 020c 00000000 		.word	.LANCHOR22
 524 0210 00000000 		.word	.LANCHOR23
 525              		.cfi_endproc
 526              	.LFE180:
 528              		.section	.text.initSensorsTasks,"ax",%progbits
 529              		.align	1
 530              		.global	initSensorsTasks
 531              		.syntax unified
 532              		.thumb
 533              		.thumb_func
 534              		.fpu fpv5-sp-d16
 536              	initSensorsTasks:
 537              	.LFB181:
 101:Core/drogui/src/sensorsTasks.c **** 
 102:Core/drogui/src/sensorsTasks.c **** 
 103:Core/drogui/src/sensorsTasks.c **** void initSensorsTasks(){
 538              		.loc 1 103 24 is_stmt 1 view -0
 539              		.cfi_startproc
 540              		@ args = 0, pretend = 0, frame = 0
 541              		@ frame_needed = 0, uses_anonymous_args = 0
 542 0000 2DE9F047 		push	{r4, r5, r6, r7, r8, r9, r10, lr}
 543              	.LCFI8:
 544              		.cfi_def_cfa_offset 32
 545              		.cfi_offset 4, -32
 546              		.cfi_offset 5, -28
 547              		.cfi_offset 6, -24
 548              		.cfi_offset 7, -20
 549              		.cfi_offset 8, -16
 550              		.cfi_offset 9, -12
 551              		.cfi_offset 10, -8
 552              		.cfi_offset 14, -4
 553 0004 2DED028B 		vpush.64	{d8}
 554              	.LCFI9:
 555              		.cfi_def_cfa_offset 40
 556              		.cfi_offset 80, -40
 557              		.cfi_offset 81, -36
 104:Core/drogui/src/sensorsTasks.c ****     
 105:Core/drogui/src/sensorsTasks.c ****     initMpu(&myIMU);
 558              		.loc 1 105 5 view .LVU85
 559 0008 DFF818A2 		ldr	r10, .L19+116
 560 000c 5046     		mov	r0, r10
 561 000e FFF7FEFF 		bl	initMpu
 562              	.LVL44:
 106:Core/drogui/src/sensorsTasks.c **** 
 107:Core/drogui/src/sensorsTasks.c ****     initFilter(&filter_gx, sz_1_10 , k_1_10, v_1_10);
ARM GAS  C:\Users\GUILLE~1\AppData\Local\Temp\ccMOAPM2.s 			page 13


 563              		.loc 1 107 5 view .LVU86
 564 0012 674E     		ldr	r6, .L19
 565 0014 674D     		ldr	r5, .L19+4
 566 0016 684C     		ldr	r4, .L19+8
 567 0018 3346     		mov	r3, r6
 568 001a 2A46     		mov	r2, r5
 569 001c 2168     		ldr	r1, [r4]
 570 001e 6748     		ldr	r0, .L19+12
 571 0020 FFF7FEFF 		bl	initFilter
 572              	.LVL45:
 108:Core/drogui/src/sensorsTasks.c ****     initFilter(&filter_gy, sz_1_10 , k_1_10, v_1_10);
 573              		.loc 1 108 5 view .LVU87
 574 0024 3346     		mov	r3, r6
 575 0026 2A46     		mov	r2, r5
 576 0028 2168     		ldr	r1, [r4]
 577 002a 6548     		ldr	r0, .L19+16
 578 002c FFF7FEFF 		bl	initFilter
 579              	.LVL46:
 109:Core/drogui/src/sensorsTasks.c ****     initFilter(&filter_gz, sz_1_10 , k_1_10, v_1_10);
 580              		.loc 1 109 5 view .LVU88
 581 0030 3346     		mov	r3, r6
 582 0032 2A46     		mov	r2, r5
 583 0034 2168     		ldr	r1, [r4]
 584 0036 6348     		ldr	r0, .L19+20
 585 0038 FFF7FEFF 		bl	initFilter
 586              	.LVL47:
 110:Core/drogui/src/sensorsTasks.c **** 
 111:Core/drogui/src/sensorsTasks.c ****     initFilter(&filter_gx2, sz_3_10 , k_3_10, v_3_10);
 587              		.loc 1 111 5 view .LVU89
 588 003c DFF8E891 		ldr	r9, .L19+120
 589 0040 DFF8E881 		ldr	r8, .L19+124
 590 0044 604F     		ldr	r7, .L19+24
 591 0046 4B46     		mov	r3, r9
 592 0048 4246     		mov	r2, r8
 593 004a 3968     		ldr	r1, [r7]
 594 004c 5F48     		ldr	r0, .L19+28
 595 004e FFF7FEFF 		bl	initFilter
 596              	.LVL48:
 112:Core/drogui/src/sensorsTasks.c ****     initFilter(&filter_gy2, sz_3_10 , k_3_10, v_3_10);
 597              		.loc 1 112 5 view .LVU90
 598 0052 4B46     		mov	r3, r9
 599 0054 4246     		mov	r2, r8
 600 0056 3968     		ldr	r1, [r7]
 601 0058 5D48     		ldr	r0, .L19+32
 602 005a FFF7FEFF 		bl	initFilter
 603              	.LVL49:
 113:Core/drogui/src/sensorsTasks.c ****     initFilter(&filter_gz2, sz_3_10 , k_3_10, v_3_10);
 604              		.loc 1 113 5 view .LVU91
 605 005e 4B46     		mov	r3, r9
 606 0060 4246     		mov	r2, r8
 607 0062 3968     		ldr	r1, [r7]
 608 0064 5B48     		ldr	r0, .L19+36
 609 0066 FFF7FEFF 		bl	initFilter
 610              	.LVL50:
 114:Core/drogui/src/sensorsTasks.c **** 
 115:Core/drogui/src/sensorsTasks.c ****     initDNotchFilter(&dnotch_gx, 64, 50, 1000, 1, 10);
 611              		.loc 1 115 5 view .LVU92
ARM GAS  C:\Users\GUILLE~1\AppData\Local\Temp\ccMOAPM2.s 			page 14


 612 006a 9FED5B8A 		vldr.32	s16, .L19+40
 613 006e DFED5B8A 		vldr.32	s17, .L19+44
 614 0072 F2EE041A 		vmov.f32	s3, #1.0e+1
 615 0076 B7EE001A 		vmov.f32	s2, #1.0e+0
 616 007a F0EE480A 		vmov.f32	s1, s16
 617 007e B0EE680A 		vmov.f32	s0, s17
 618 0082 4021     		movs	r1, #64
 619 0084 5648     		ldr	r0, .L19+48
 620 0086 FFF7FEFF 		bl	initDNotchFilter
 621              	.LVL51:
 116:Core/drogui/src/sensorsTasks.c ****     initDNotchFilter(&dnotch_gy, 64, 50, 1000, 1, 10);
 622              		.loc 1 116 5 view .LVU93
 623 008a F2EE041A 		vmov.f32	s3, #1.0e+1
 624 008e B7EE001A 		vmov.f32	s2, #1.0e+0
 625 0092 F0EE480A 		vmov.f32	s1, s16
 626 0096 B0EE680A 		vmov.f32	s0, s17
 627 009a 4021     		movs	r1, #64
 628 009c 5148     		ldr	r0, .L19+52
 629 009e FFF7FEFF 		bl	initDNotchFilter
 630              	.LVL52:
 117:Core/drogui/src/sensorsTasks.c ****     initDNotchFilter(&dnotch_gz, 64, 50, 1000, 1, 10);
 631              		.loc 1 117 5 view .LVU94
 632 00a2 F2EE041A 		vmov.f32	s3, #1.0e+1
 633 00a6 B7EE001A 		vmov.f32	s2, #1.0e+0
 634 00aa F0EE480A 		vmov.f32	s1, s16
 635 00ae B0EE680A 		vmov.f32	s0, s17
 636 00b2 4021     		movs	r1, #64
 637 00b4 4C48     		ldr	r0, .L19+56
 638 00b6 FFF7FEFF 		bl	initDNotchFilter
 639              	.LVL53:
 118:Core/drogui/src/sensorsTasks.c **** 
 119:Core/drogui/src/sensorsTasks.c ****     initDNotchFilter(&dnotch_gx2, 64, 50, 1000, 1, 5);
 640              		.loc 1 119 5 view .LVU95
 641 00ba F1EE041A 		vmov.f32	s3, #5.0e+0
 642 00be B7EE001A 		vmov.f32	s2, #1.0e+0
 643 00c2 F0EE480A 		vmov.f32	s1, s16
 644 00c6 B0EE680A 		vmov.f32	s0, s17
 645 00ca 4021     		movs	r1, #64
 646 00cc 4748     		ldr	r0, .L19+60
 647 00ce FFF7FEFF 		bl	initDNotchFilter
 648              	.LVL54:
 120:Core/drogui/src/sensorsTasks.c ****     initDNotchFilter(&dnotch_gy2, 64, 50, 1000, 1, 5);
 649              		.loc 1 120 5 view .LVU96
 650 00d2 F1EE041A 		vmov.f32	s3, #5.0e+0
 651 00d6 B7EE001A 		vmov.f32	s2, #1.0e+0
 652 00da F0EE480A 		vmov.f32	s1, s16
 653 00de B0EE680A 		vmov.f32	s0, s17
 654 00e2 4021     		movs	r1, #64
 655 00e4 4248     		ldr	r0, .L19+64
 656 00e6 FFF7FEFF 		bl	initDNotchFilter
 657              	.LVL55:
 121:Core/drogui/src/sensorsTasks.c ****     initDNotchFilter(&dnotch_gz2, 64, 50, 1000, 1, 5);
 658              		.loc 1 121 5 view .LVU97
 659 00ea F1EE041A 		vmov.f32	s3, #5.0e+0
 660 00ee B7EE001A 		vmov.f32	s2, #1.0e+0
 661 00f2 F0EE480A 		vmov.f32	s1, s16
 662 00f6 B0EE680A 		vmov.f32	s0, s17
ARM GAS  C:\Users\GUILLE~1\AppData\Local\Temp\ccMOAPM2.s 			page 15


 663 00fa 4021     		movs	r1, #64
 664 00fc 3D48     		ldr	r0, .L19+68
 665 00fe FFF7FEFF 		bl	initDNotchFilter
 666              	.LVL56:
 122:Core/drogui/src/sensorsTasks.c **** 
 123:Core/drogui/src/sensorsTasks.c **** 
 124:Core/drogui/src/sensorsTasks.c **** 
 125:Core/drogui/src/sensorsTasks.c ****     initFilter(&filter_ax, sz_1_10 , k_1_10, v_1_10);
 667              		.loc 1 125 5 view .LVU98
 668 0102 3346     		mov	r3, r6
 669 0104 2A46     		mov	r2, r5
 670 0106 2168     		ldr	r1, [r4]
 671 0108 3B48     		ldr	r0, .L19+72
 672 010a FFF7FEFF 		bl	initFilter
 673              	.LVL57:
 126:Core/drogui/src/sensorsTasks.c ****     initFilter(&filter_ay, sz_1_10 , k_1_10, v_1_10);
 674              		.loc 1 126 5 view .LVU99
 675 010e 3346     		mov	r3, r6
 676 0110 2A46     		mov	r2, r5
 677 0112 2168     		ldr	r1, [r4]
 678 0114 3948     		ldr	r0, .L19+76
 679 0116 FFF7FEFF 		bl	initFilter
 680              	.LVL58:
 127:Core/drogui/src/sensorsTasks.c ****     initFilter(&filter_az, sz_1_10 , k_1_10, v_1_10);
 681              		.loc 1 127 5 view .LVU100
 682 011a 3346     		mov	r3, r6
 683 011c 2A46     		mov	r2, r5
 684 011e 2168     		ldr	r1, [r4]
 685 0120 3748     		ldr	r0, .L19+80
 686 0122 FFF7FEFF 		bl	initFilter
 687              	.LVL59:
 128:Core/drogui/src/sensorsTasks.c **** 
 129:Core/drogui/src/sensorsTasks.c ****     initDNotchFilter(&dnotch_ax, 64, 40, 1000, 1, 10);
 688              		.loc 1 129 5 view .LVU101
 689 0126 DFED378A 		vldr.32	s17, .L19+84
 690 012a F2EE041A 		vmov.f32	s3, #1.0e+1
 691 012e B7EE001A 		vmov.f32	s2, #1.0e+0
 692 0132 F0EE480A 		vmov.f32	s1, s16
 693 0136 B0EE680A 		vmov.f32	s0, s17
 694 013a 4021     		movs	r1, #64
 695 013c 3248     		ldr	r0, .L19+88
 696 013e FFF7FEFF 		bl	initDNotchFilter
 697              	.LVL60:
 130:Core/drogui/src/sensorsTasks.c ****     initDNotchFilter(&dnotch_ay, 64, 40, 1000, 1, 10);
 698              		.loc 1 130 5 view .LVU102
 699 0142 F2EE041A 		vmov.f32	s3, #1.0e+1
 700 0146 B7EE001A 		vmov.f32	s2, #1.0e+0
 701 014a F0EE480A 		vmov.f32	s1, s16
 702 014e B0EE680A 		vmov.f32	s0, s17
 703 0152 4021     		movs	r1, #64
 704 0154 2D48     		ldr	r0, .L19+92
 705 0156 FFF7FEFF 		bl	initDNotchFilter
 706              	.LVL61:
 131:Core/drogui/src/sensorsTasks.c ****     initDNotchFilter(&dnotch_az, 64, 40, 1000, 1, 10);
 707              		.loc 1 131 5 view .LVU103
 708 015a F2EE041A 		vmov.f32	s3, #1.0e+1
 709 015e B7EE001A 		vmov.f32	s2, #1.0e+0
ARM GAS  C:\Users\GUILLE~1\AppData\Local\Temp\ccMOAPM2.s 			page 16


 710 0162 F0EE480A 		vmov.f32	s1, s16
 711 0166 B0EE680A 		vmov.f32	s0, s17
 712 016a 4021     		movs	r1, #64
 713 016c 2848     		ldr	r0, .L19+96
 714 016e FFF7FEFF 		bl	initDNotchFilter
 715              	.LVL62:
 132:Core/drogui/src/sensorsTasks.c ****     
 133:Core/drogui/src/sensorsTasks.c ****     initFilter(&filter_roll, sz_1_10, k_1_10, v_1_10);
 716              		.loc 1 133 5 view .LVU104
 717 0172 3346     		mov	r3, r6
 718 0174 2A46     		mov	r2, r5
 719 0176 2168     		ldr	r1, [r4]
 720 0178 2648     		ldr	r0, .L19+100
 721 017a FFF7FEFF 		bl	initFilter
 722              	.LVL63:
 134:Core/drogui/src/sensorsTasks.c ****     initFilter(&filter_pitch, sz_1_10, k_1_10, v_1_10);
 723              		.loc 1 134 5 view .LVU105
 724 017e 3346     		mov	r3, r6
 725 0180 2A46     		mov	r2, r5
 726 0182 2168     		ldr	r1, [r4]
 727 0184 2448     		ldr	r0, .L19+104
 728 0186 FFF7FEFF 		bl	initFilter
 729              	.LVL64:
 135:Core/drogui/src/sensorsTasks.c ****     initFilter(&filter_yaw, sz_1_10, k_1_10, v_1_10);
 730              		.loc 1 135 5 view .LVU106
 731 018a 3346     		mov	r3, r6
 732 018c 2A46     		mov	r2, r5
 733 018e 2168     		ldr	r1, [r4]
 734 0190 2248     		ldr	r0, .L19+108
 735 0192 FFF7FEFF 		bl	initFilter
 736              	.LVL65:
 136:Core/drogui/src/sensorsTasks.c **** 
 137:Core/drogui/src/sensorsTasks.c **** 
 138:Core/drogui/src/sensorsTasks.c ****     calibrateGyro(&myIMU);
 737              		.loc 1 138 5 view .LVU107
 738 0196 5046     		mov	r0, r10
 739 0198 FFF7FEFF 		bl	calibrateGyro
 740              	.LVL66:
 139:Core/drogui/src/sensorsTasks.c ****     //calibrateAccel(&myIMU);
 140:Core/drogui/src/sensorsTasks.c ****     //calibrateMag(&myIMU);
 141:Core/drogui/src/sensorsTasks.c ****     
 142:Core/drogui/src/sensorsTasks.c ****     //accelHandle = osThreadNew(accelTask, NULL, &accelAttributes);
 143:Core/drogui/src/sensorsTasks.c ****     addTask(&gyroTask, 1000, 1);
 741              		.loc 1 143 5 view .LVU108
 742 019c 0122     		movs	r2, #1
 743 019e 4FF47A71 		mov	r1, #1000
 744 01a2 1F48     		ldr	r0, .L19+112
 745 01a4 FFF7FEFF 		bl	addTask
 746              	.LVL67:
 144:Core/drogui/src/sensorsTasks.c ****     /*magHandle = osThreadNew(magTask, NULL, &magAttributes);
 145:Core/drogui/src/sensorsTasks.c ****     rpyHandle = osThreadNew(rpyTask, NULL, &rpyAttributes);*/
 146:Core/drogui/src/sensorsTasks.c ****     /*initTimer(&timer_accel, &accelInterrupt, 1000);
 147:Core/drogui/src/sensorsTasks.c ****     initTimer(&timer_gyro, &gyroInterrupt, 1000);
 148:Core/drogui/src/sensorsTasks.c ****     initTimer(&timer_mag, &magInterrupt, 10);
 149:Core/drogui/src/sensorsTasks.c ****     initTimer(&timer_rpy, &rpyInterrupt, 500);*/
 150:Core/drogui/src/sensorsTasks.c **** }...
 747              		.loc 1 150 1 is_stmt 0 view .LVU109
ARM GAS  C:\Users\GUILLE~1\AppData\Local\Temp\ccMOAPM2.s 			page 17


 748 01a8 BDEC028B 		vldm	sp!, {d8}
 749              	.LCFI10:
 750              		.cfi_restore 80
 751              		.cfi_restore 81
 752              		.cfi_def_cfa_offset 32
 753 01ac BDE8F087 		pop	{r4, r5, r6, r7, r8, r9, r10, pc}
 754              	.L20:
 755              		.align	2
 756              	.L19:
 757 01b0 00000000 		.word	v_1_10
 758 01b4 00000000 		.word	k_1_10
 759 01b8 00000000 		.word	sz_1_10
 760 01bc 00000000 		.word	.LANCHOR1
 761 01c0 00000000 		.word	.LANCHOR24
 762 01c4 00000000 		.word	.LANCHOR25
 763 01c8 00000000 		.word	sz_3_10
 764 01cc 00000000 		.word	.LANCHOR26
 765 01d0 00000000 		.word	.LANCHOR27
 766 01d4 00000000 		.word	.LANCHOR28
 767 01d8 00007A44 		.word	1148846080
 768 01dc 00004842 		.word	1112014848
 769 01e0 00000000 		.word	.LANCHOR29
 770 01e4 00000000 		.word	.LANCHOR30
 771 01e8 00000000 		.word	.LANCHOR31
 772 01ec 00000000 		.word	.LANCHOR32
 773 01f0 00000000 		.word	.LANCHOR33
 774 01f4 00000000 		.word	.LANCHOR34
 775 01f8 00000000 		.word	.LANCHOR5
 776 01fc 00000000 		.word	.LANCHOR7
 777 0200 00000000 		.word	.LANCHOR9
 778 0204 00002042 		.word	1109393408
 779 0208 00000000 		.word	.LANCHOR11
 780 020c 00000000 		.word	.LANCHOR12
 781 0210 00000000 		.word	.LANCHOR13
 782 0214 00000000 		.word	.LANCHOR21
 783 0218 00000000 		.word	.LANCHOR22
 784 021c 00000000 		.word	.LANCHOR23
 785 0220 00000000 		.word	gyroTask
 786 0224 00000000 		.word	.LANCHOR0
 787 0228 00000000 		.word	v_3_10
 788 022c 00000000 		.word	k_3_10
 789              		.cfi_endproc
 790              	.LFE181:
 792              		.global	Kdfilt
 793              		.global	buff2
 794              		.global	z
 795              		.global	y
 796              		.global	x
 797              		.global	mz
 798              		.global	my
 799              		.global	mx
 800              		.global	gz
 801              		.global	gy
 802              		.global	gx
 803              		.global	az
 804              		.global	ay
 805              		.global	ax
ARM GAS  C:\Users\GUILLE~1\AppData\Local\Temp\ccMOAPM2.s 			page 18


 806              		.global	yaw
 807              		.global	pitch
 808              		.global	roll
 809              		.global	filter_yaw
 810              		.global	filter_pitch
 811              		.global	filter_roll
 812              		.global	dnotch_az
 813              		.global	dnotch_ay
 814              		.global	dnotch_ax
 815              		.global	filter_az
 816              		.global	filter_ay
 817              		.global	filter_ax
 818              		.global	dnotch_gz2
 819              		.global	dnotch_gy2
 820              		.global	dnotch_gx2
 821              		.global	dnotch_gz
 822              		.global	dnotch_gy
 823              		.global	dnotch_gx
 824              		.global	filter_gz2
 825              		.global	filter_gy2
 826              		.global	filter_gx2
 827              		.global	filter_gz
 828              		.global	filter_gy
 829              		.global	filter_gx
 830              		.global	myIMU
 831              		.section	.bss.ax,"aw",%nobits
 832              		.align	2
 833              		.set	.LANCHOR6,. + 0
 836              	ax:
 837 0000 00000000 		.space	4
 838              		.section	.bss.ay,"aw",%nobits
 839              		.align	2
 840              		.set	.LANCHOR8,. + 0
 843              	ay:
 844 0000 00000000 		.space	4
 845              		.section	.bss.az,"aw",%nobits
 846              		.align	2
 847              		.set	.LANCHOR10,. + 0
 850              	az:
 851 0000 00000000 		.space	4
 852              		.section	.bss.dnotch_ax,"aw",%nobits
 853              		.align	2
 854              		.set	.LANCHOR11,. + 0
 857              	dnotch_ax:
 858 0000 00000000 		.space	104
 858      00000000 
 858      00000000 
 858      00000000 
 858      00000000 
 859              		.section	.bss.dnotch_ay,"aw",%nobits
 860              		.align	2
 861              		.set	.LANCHOR12,. + 0
 864              	dnotch_ay:
 865 0000 00000000 		.space	104
 865      00000000 
 865      00000000 
 865      00000000 
ARM GAS  C:\Users\GUILLE~1\AppData\Local\Temp\ccMOAPM2.s 			page 19


 865      00000000 
 866              		.section	.bss.dnotch_az,"aw",%nobits
 867              		.align	2
 868              		.set	.LANCHOR13,. + 0
 871              	dnotch_az:
 872 0000 00000000 		.space	104
 872      00000000 
 872      00000000 
 872      00000000 
 872      00000000 
 873              		.section	.bss.dnotch_gx,"aw",%nobits
 874              		.align	2
 875              		.set	.LANCHOR29,. + 0
 878              	dnotch_gx:
 879 0000 00000000 		.space	104
 879      00000000 
 879      00000000 
 879      00000000 
 879      00000000 
 880              		.section	.bss.dnotch_gx2,"aw",%nobits
 881              		.align	2
 882              		.set	.LANCHOR32,. + 0
 885              	dnotch_gx2:
 886 0000 00000000 		.space	104
 886      00000000 
 886      00000000 
 886      00000000 
 886      00000000 
 887              		.section	.bss.dnotch_gy,"aw",%nobits
 888              		.align	2
 889              		.set	.LANCHOR30,. + 0
 892              	dnotch_gy:
 893 0000 00000000 		.space	104
 893      00000000 
 893      00000000 
 893      00000000 
 893      00000000 
 894              		.section	.bss.dnotch_gy2,"aw",%nobits
 895              		.align	2
 896              		.set	.LANCHOR33,. + 0
 899              	dnotch_gy2:
 900 0000 00000000 		.space	104
 900      00000000 
 900      00000000 
 900      00000000 
 900      00000000 
 901              		.section	.bss.dnotch_gz,"aw",%nobits
 902              		.align	2
 903              		.set	.LANCHOR31,. + 0
 906              	dnotch_gz:
 907 0000 00000000 		.space	104
 907      00000000 
 907      00000000 
 907      00000000 
 907      00000000 
 908              		.section	.bss.dnotch_gz2,"aw",%nobits
 909              		.align	2
ARM GAS  C:\Users\GUILLE~1\AppData\Local\Temp\ccMOAPM2.s 			page 20


 910              		.set	.LANCHOR34,. + 0
 913              	dnotch_gz2:
 914 0000 00000000 		.space	104
 914      00000000 
 914      00000000 
 914      00000000 
 914      00000000 
 915              		.section	.bss.filter_ax,"aw",%nobits
 916              		.align	2
 917              		.set	.LANCHOR5,. + 0
 920              	filter_ax:
 921 0000 00000000 		.space	20
 921      00000000 
 921      00000000 
 921      00000000 
 921      00000000 
 922              		.section	.bss.filter_ay,"aw",%nobits
 923              		.align	2
 924              		.set	.LANCHOR7,. + 0
 927              	filter_ay:
 928 0000 00000000 		.space	20
 928      00000000 
 928      00000000 
 928      00000000 
 928      00000000 
 929              		.section	.bss.filter_az,"aw",%nobits
 930              		.align	2
 931              		.set	.LANCHOR9,. + 0
 934              	filter_az:
 935 0000 00000000 		.space	20
 935      00000000 
 935      00000000 
 935      00000000 
 935      00000000 
 936              		.section	.bss.filter_gx,"aw",%nobits
 937              		.align	2
 938              		.set	.LANCHOR1,. + 0
 941              	filter_gx:
 942 0000 00000000 		.space	20
 942      00000000 
 942      00000000 
 942      00000000 
 942      00000000 
 943              		.section	.bss.filter_gx2,"aw",%nobits
 944              		.align	2
 945              		.set	.LANCHOR26,. + 0
 948              	filter_gx2:
 949 0000 00000000 		.space	20
 949      00000000 
 949      00000000 
 949      00000000 
 949      00000000 
 950              		.section	.bss.filter_gy,"aw",%nobits
 951              		.align	2
 952              		.set	.LANCHOR24,. + 0
 955              	filter_gy:
 956 0000 00000000 		.space	20
ARM GAS  C:\Users\GUILLE~1\AppData\Local\Temp\ccMOAPM2.s 			page 21


 956      00000000 
 956      00000000 
 956      00000000 
 956      00000000 
 957              		.section	.bss.filter_gy2,"aw",%nobits
 958              		.align	2
 959              		.set	.LANCHOR27,. + 0
 962              	filter_gy2:
 963 0000 00000000 		.space	20
 963      00000000 
 963      00000000 
 963      00000000 
 963      00000000 
 964              		.section	.bss.filter_gz,"aw",%nobits
 965              		.align	2
 966              		.set	.LANCHOR25,. + 0
 969              	filter_gz:
 970 0000 00000000 		.space	20
 970      00000000 
 970      00000000 
 970      00000000 
 970      00000000 
 971              		.section	.bss.filter_gz2,"aw",%nobits
 972              		.align	2
 973              		.set	.LANCHOR28,. + 0
 976              	filter_gz2:
 977 0000 00000000 		.space	20
 977      00000000 
 977      00000000 
 977      00000000 
 977      00000000 
 978              		.section	.bss.filter_pitch,"aw",%nobits
 979              		.align	2
 980              		.set	.LANCHOR22,. + 0
 983              	filter_pitch:
 984 0000 00000000 		.space	20
 984      00000000 
 984      00000000 
 984      00000000 
 984      00000000 
 985              		.section	.bss.filter_roll,"aw",%nobits
 986              		.align	2
 987              		.set	.LANCHOR21,. + 0
 990              	filter_roll:
 991 0000 00000000 		.space	20
 991      00000000 
 991      00000000 
 991      00000000 
 991      00000000 
 992              		.section	.bss.filter_yaw,"aw",%nobits
 993              		.align	2
 994              		.set	.LANCHOR23,. + 0
 997              	filter_yaw:
 998 0000 00000000 		.space	20
 998      00000000 
 998      00000000 
 998      00000000 
ARM GAS  C:\Users\GUILLE~1\AppData\Local\Temp\ccMOAPM2.s 			page 22


 998      00000000 
 999              		.section	.bss.gx,"aw",%nobits
 1000              		.align	2
 1001              		.set	.LANCHOR2,. + 0
 1004              	gx:
 1005 0000 00000000 		.space	4
 1006              		.section	.bss.gy,"aw",%nobits
 1007              		.align	2
 1008              		.set	.LANCHOR3,. + 0
 1011              	gy:
 1012 0000 00000000 		.space	4
 1013              		.section	.bss.gz,"aw",%nobits
 1014              		.align	2
 1015              		.set	.LANCHOR4,. + 0
 1018              	gz:
 1019 0000 00000000 		.space	4
 1020              		.section	.bss.mx,"aw",%nobits
 1021              		.align	2
 1022              		.set	.LANCHOR14,. + 0
 1025              	mx:
 1026 0000 00000000 		.space	4
 1027              		.section	.bss.my,"aw",%nobits
 1028              		.align	2
 1029              		.set	.LANCHOR15,. + 0
 1032              	my:
 1033 0000 00000000 		.space	4
 1034              		.section	.bss.myIMU,"aw",%nobits
 1035              		.align	2
 1036              		.set	.LANCHOR0,. + 0
 1039              	myIMU:
 1040 0000 00000000 		.space	140
 1040      00000000 
 1040      00000000 
 1040      00000000 
 1040      00000000 
 1041              		.section	.bss.mz,"aw",%nobits
 1042              		.align	2
 1043              		.set	.LANCHOR16,. + 0
 1046              	mz:
 1047 0000 00000000 		.space	4
 1048              		.section	.bss.pitch,"aw",%nobits
 1049              		.align	2
 1050              		.set	.LANCHOR19,. + 0
 1053              	pitch:
 1054 0000 00000000 		.space	4
 1055              		.section	.bss.roll,"aw",%nobits
 1056              		.align	2
 1057              		.set	.LANCHOR17,. + 0
 1060              	roll:
 1061 0000 00000000 		.space	4
 1062              		.section	.bss.x,"aw",%nobits
 1063              		.align	2
 1066              	x:
 1067 0000 00000000 		.space	4
 1068              		.section	.bss.y,"aw",%nobits
 1069              		.align	2
 1072              	y:
ARM GAS  C:\Users\GUILLE~1\AppData\Local\Temp\ccMOAPM2.s 			page 23


 1073 0000 00000000 		.space	4
 1074              		.section	.bss.yaw,"aw",%nobits
 1075              		.align	2
 1076              		.set	.LANCHOR20,. + 0
 1079              	yaw:
 1080 0000 00000000 		.space	4
 1081              		.section	.bss.z,"aw",%nobits
 1082              		.align	2
 1085              	z:
 1086 0000 00000000 		.space	4
 1087              		.section	.data.Kdfilt,"aw"
 1088              		.align	2
 1089              		.set	.LANCHOR18,. + 0
 1092              	Kdfilt:
 1093 0000 6F12033A 		.word	973279855
 1094              		.section	.data.buff2,"aw"
 1095              		.align	2
 1098              	buff2:
 1099 0000 686F6C61 		.ascii	"hola\012\000"
 1099      0A00
 1100 0006 00000000 		.space	44
 1100      00000000 
 1100      00000000 
 1100      00000000 
 1100      00000000 
 1101              		.text
 1102              	.Letext0:
 1103              		.file 2 "c:\\program files (x86)\\gnu arm embedded toolchain\\10 2020-q4-major\\arm-none-eabi\\inc
 1104              		.file 3 "c:\\program files (x86)\\gnu arm embedded toolchain\\10 2020-q4-major\\arm-none-eabi\\inc
 1105              		.file 4 "Drivers/CMSIS/DSP/Include/arm_math.h"
 1106              		.file 5 "Core/drogui/include/filter.h"
 1107              		.file 6 "Core/drogui/include/MPU9250.h"
 1108              		.file 7 "Core/drogui/include/utils.h"
 1109              		.file 8 "Core/drogui/include/sensorsTasks.h"
 1110              		.file 9 "Core/drogui/include/task.h"
 1111              		.file 10 "Core/drogui/include/mahony.h"
 1112              		.file 11 "c:\\program files (x86)\\gnu arm embedded toolchain\\10 2020-q4-major\\arm-none-eabi\\in
ARM GAS  C:\Users\GUILLE~1\AppData\Local\Temp\ccMOAPM2.s 			page 24


DEFINED SYMBOLS
                            *ABS*:00000000 sensorsTasks.c
C:\Users\GUILLE~1\AppData\Local\Temp\ccMOAPM2.s:18     .text.gyroTask:00000000 $t
C:\Users\GUILLE~1\AppData\Local\Temp\ccMOAPM2.s:26     .text.gyroTask:00000000 gyroTask
C:\Users\GUILLE~1\AppData\Local\Temp\ccMOAPM2.s:91     .text.gyroTask:00000064 $d
C:\Users\GUILLE~1\AppData\Local\Temp\ccMOAPM2.s:100    .text.accelTask:00000000 $t
C:\Users\GUILLE~1\AppData\Local\Temp\ccMOAPM2.s:107    .text.accelTask:00000000 accelTask
C:\Users\GUILLE~1\AppData\Local\Temp\ccMOAPM2.s:196    .text.accelTask:00000084 $d
C:\Users\GUILLE~1\AppData\Local\Temp\ccMOAPM2.s:210    .text.magTask:00000000 $t
C:\Users\GUILLE~1\AppData\Local\Temp\ccMOAPM2.s:217    .text.magTask:00000000 magTask
C:\Users\GUILLE~1\AppData\Local\Temp\ccMOAPM2.s:256    .text.magTask:00000020 $d
C:\Users\GUILLE~1\AppData\Local\Temp\ccMOAPM2.s:267    .text.rpyTask:00000000 $t
C:\Users\GUILLE~1\AppData\Local\Temp\ccMOAPM2.s:274    .text.rpyTask:00000000 rpyTask
C:\Users\GUILLE~1\AppData\Local\Temp\ccMOAPM2.s:507    .text.rpyTask:000001cc $d
C:\Users\GUILLE~1\AppData\Local\Temp\ccMOAPM2.s:529    .text.initSensorsTasks:00000000 $t
C:\Users\GUILLE~1\AppData\Local\Temp\ccMOAPM2.s:536    .text.initSensorsTasks:00000000 initSensorsTasks
C:\Users\GUILLE~1\AppData\Local\Temp\ccMOAPM2.s:757    .text.initSensorsTasks:000001b0 $d
C:\Users\GUILLE~1\AppData\Local\Temp\ccMOAPM2.s:1092   .data.Kdfilt:00000000 Kdfilt
C:\Users\GUILLE~1\AppData\Local\Temp\ccMOAPM2.s:1098   .data.buff2:00000000 buff2
C:\Users\GUILLE~1\AppData\Local\Temp\ccMOAPM2.s:1085   .bss.z:00000000 z
C:\Users\GUILLE~1\AppData\Local\Temp\ccMOAPM2.s:1072   .bss.y:00000000 y
C:\Users\GUILLE~1\AppData\Local\Temp\ccMOAPM2.s:1066   .bss.x:00000000 x
C:\Users\GUILLE~1\AppData\Local\Temp\ccMOAPM2.s:1046   .bss.mz:00000000 mz
C:\Users\GUILLE~1\AppData\Local\Temp\ccMOAPM2.s:1032   .bss.my:00000000 my
C:\Users\GUILLE~1\AppData\Local\Temp\ccMOAPM2.s:1025   .bss.mx:00000000 mx
C:\Users\GUILLE~1\AppData\Local\Temp\ccMOAPM2.s:1018   .bss.gz:00000000 gz
C:\Users\GUILLE~1\AppData\Local\Temp\ccMOAPM2.s:1011   .bss.gy:00000000 gy
C:\Users\GUILLE~1\AppData\Local\Temp\ccMOAPM2.s:1004   .bss.gx:00000000 gx
C:\Users\GUILLE~1\AppData\Local\Temp\ccMOAPM2.s:850    .bss.az:00000000 az
C:\Users\GUILLE~1\AppData\Local\Temp\ccMOAPM2.s:843    .bss.ay:00000000 ay
C:\Users\GUILLE~1\AppData\Local\Temp\ccMOAPM2.s:836    .bss.ax:00000000 ax
C:\Users\GUILLE~1\AppData\Local\Temp\ccMOAPM2.s:1079   .bss.yaw:00000000 yaw
C:\Users\GUILLE~1\AppData\Local\Temp\ccMOAPM2.s:1053   .bss.pitch:00000000 pitch
C:\Users\GUILLE~1\AppData\Local\Temp\ccMOAPM2.s:1060   .bss.roll:00000000 roll
C:\Users\GUILLE~1\AppData\Local\Temp\ccMOAPM2.s:997    .bss.filter_yaw:00000000 filter_yaw
C:\Users\GUILLE~1\AppData\Local\Temp\ccMOAPM2.s:983    .bss.filter_pitch:00000000 filter_pitch
C:\Users\GUILLE~1\AppData\Local\Temp\ccMOAPM2.s:990    .bss.filter_roll:00000000 filter_roll
C:\Users\GUILLE~1\AppData\Local\Temp\ccMOAPM2.s:871    .bss.dnotch_az:00000000 dnotch_az
C:\Users\GUILLE~1\AppData\Local\Temp\ccMOAPM2.s:864    .bss.dnotch_ay:00000000 dnotch_ay
C:\Users\GUILLE~1\AppData\Local\Temp\ccMOAPM2.s:857    .bss.dnotch_ax:00000000 dnotch_ax
C:\Users\GUILLE~1\AppData\Local\Temp\ccMOAPM2.s:934    .bss.filter_az:00000000 filter_az
C:\Users\GUILLE~1\AppData\Local\Temp\ccMOAPM2.s:927    .bss.filter_ay:00000000 filter_ay
C:\Users\GUILLE~1\AppData\Local\Temp\ccMOAPM2.s:920    .bss.filter_ax:00000000 filter_ax
C:\Users\GUILLE~1\AppData\Local\Temp\ccMOAPM2.s:913    .bss.dnotch_gz2:00000000 dnotch_gz2
C:\Users\GUILLE~1\AppData\Local\Temp\ccMOAPM2.s:899    .bss.dnotch_gy2:00000000 dnotch_gy2
C:\Users\GUILLE~1\AppData\Local\Temp\ccMOAPM2.s:885    .bss.dnotch_gx2:00000000 dnotch_gx2
C:\Users\GUILLE~1\AppData\Local\Temp\ccMOAPM2.s:906    .bss.dnotch_gz:00000000 dnotch_gz
C:\Users\GUILLE~1\AppData\Local\Temp\ccMOAPM2.s:892    .bss.dnotch_gy:00000000 dnotch_gy
C:\Users\GUILLE~1\AppData\Local\Temp\ccMOAPM2.s:878    .bss.dnotch_gx:00000000 dnotch_gx
C:\Users\GUILLE~1\AppData\Local\Temp\ccMOAPM2.s:976    .bss.filter_gz2:00000000 filter_gz2
C:\Users\GUILLE~1\AppData\Local\Temp\ccMOAPM2.s:962    .bss.filter_gy2:00000000 filter_gy2
C:\Users\GUILLE~1\AppData\Local\Temp\ccMOAPM2.s:948    .bss.filter_gx2:00000000 filter_gx2
C:\Users\GUILLE~1\AppData\Local\Temp\ccMOAPM2.s:969    .bss.filter_gz:00000000 filter_gz
C:\Users\GUILLE~1\AppData\Local\Temp\ccMOAPM2.s:955    .bss.filter_gy:00000000 filter_gy
C:\Users\GUILLE~1\AppData\Local\Temp\ccMOAPM2.s:941    .bss.filter_gx:00000000 filter_gx
C:\Users\GUILLE~1\AppData\Local\Temp\ccMOAPM2.s:1039   .bss.myIMU:00000000 myIMU
C:\Users\GUILLE~1\AppData\Local\Temp\ccMOAPM2.s:832    .bss.ax:00000000 $d
ARM GAS  C:\Users\GUILLE~1\AppData\Local\Temp\ccMOAPM2.s 			page 25


C:\Users\GUILLE~1\AppData\Local\Temp\ccMOAPM2.s:839    .bss.ay:00000000 $d
C:\Users\GUILLE~1\AppData\Local\Temp\ccMOAPM2.s:846    .bss.az:00000000 $d
C:\Users\GUILLE~1\AppData\Local\Temp\ccMOAPM2.s:853    .bss.dnotch_ax:00000000 $d
C:\Users\GUILLE~1\AppData\Local\Temp\ccMOAPM2.s:860    .bss.dnotch_ay:00000000 $d
C:\Users\GUILLE~1\AppData\Local\Temp\ccMOAPM2.s:867    .bss.dnotch_az:00000000 $d
C:\Users\GUILLE~1\AppData\Local\Temp\ccMOAPM2.s:874    .bss.dnotch_gx:00000000 $d
C:\Users\GUILLE~1\AppData\Local\Temp\ccMOAPM2.s:881    .bss.dnotch_gx2:00000000 $d
C:\Users\GUILLE~1\AppData\Local\Temp\ccMOAPM2.s:888    .bss.dnotch_gy:00000000 $d
C:\Users\GUILLE~1\AppData\Local\Temp\ccMOAPM2.s:895    .bss.dnotch_gy2:00000000 $d
C:\Users\GUILLE~1\AppData\Local\Temp\ccMOAPM2.s:902    .bss.dnotch_gz:00000000 $d
C:\Users\GUILLE~1\AppData\Local\Temp\ccMOAPM2.s:909    .bss.dnotch_gz2:00000000 $d
C:\Users\GUILLE~1\AppData\Local\Temp\ccMOAPM2.s:916    .bss.filter_ax:00000000 $d
C:\Users\GUILLE~1\AppData\Local\Temp\ccMOAPM2.s:923    .bss.filter_ay:00000000 $d
C:\Users\GUILLE~1\AppData\Local\Temp\ccMOAPM2.s:930    .bss.filter_az:00000000 $d
C:\Users\GUILLE~1\AppData\Local\Temp\ccMOAPM2.s:937    .bss.filter_gx:00000000 $d
C:\Users\GUILLE~1\AppData\Local\Temp\ccMOAPM2.s:944    .bss.filter_gx2:00000000 $d
C:\Users\GUILLE~1\AppData\Local\Temp\ccMOAPM2.s:951    .bss.filter_gy:00000000 $d
C:\Users\GUILLE~1\AppData\Local\Temp\ccMOAPM2.s:958    .bss.filter_gy2:00000000 $d
C:\Users\GUILLE~1\AppData\Local\Temp\ccMOAPM2.s:965    .bss.filter_gz:00000000 $d
C:\Users\GUILLE~1\AppData\Local\Temp\ccMOAPM2.s:972    .bss.filter_gz2:00000000 $d
C:\Users\GUILLE~1\AppData\Local\Temp\ccMOAPM2.s:979    .bss.filter_pitch:00000000 $d
C:\Users\GUILLE~1\AppData\Local\Temp\ccMOAPM2.s:986    .bss.filter_roll:00000000 $d
C:\Users\GUILLE~1\AppData\Local\Temp\ccMOAPM2.s:993    .bss.filter_yaw:00000000 $d
C:\Users\GUILLE~1\AppData\Local\Temp\ccMOAPM2.s:1000   .bss.gx:00000000 $d
C:\Users\GUILLE~1\AppData\Local\Temp\ccMOAPM2.s:1007   .bss.gy:00000000 $d
C:\Users\GUILLE~1\AppData\Local\Temp\ccMOAPM2.s:1014   .bss.gz:00000000 $d
C:\Users\GUILLE~1\AppData\Local\Temp\ccMOAPM2.s:1021   .bss.mx:00000000 $d
C:\Users\GUILLE~1\AppData\Local\Temp\ccMOAPM2.s:1028   .bss.my:00000000 $d
C:\Users\GUILLE~1\AppData\Local\Temp\ccMOAPM2.s:1035   .bss.myIMU:00000000 $d
C:\Users\GUILLE~1\AppData\Local\Temp\ccMOAPM2.s:1042   .bss.mz:00000000 $d
C:\Users\GUILLE~1\AppData\Local\Temp\ccMOAPM2.s:1049   .bss.pitch:00000000 $d
C:\Users\GUILLE~1\AppData\Local\Temp\ccMOAPM2.s:1056   .bss.roll:00000000 $d
C:\Users\GUILLE~1\AppData\Local\Temp\ccMOAPM2.s:1063   .bss.x:00000000 $d
C:\Users\GUILLE~1\AppData\Local\Temp\ccMOAPM2.s:1069   .bss.y:00000000 $d
C:\Users\GUILLE~1\AppData\Local\Temp\ccMOAPM2.s:1075   .bss.yaw:00000000 $d
C:\Users\GUILLE~1\AppData\Local\Temp\ccMOAPM2.s:1082   .bss.z:00000000 $d
C:\Users\GUILLE~1\AppData\Local\Temp\ccMOAPM2.s:1088   .data.Kdfilt:00000000 $d
C:\Users\GUILLE~1\AppData\Local\Temp\ccMOAPM2.s:1095   .data.buff2:00000000 $d

UNDEFINED SYMBOLS
readGyro
computeFilter
setReg
readAcc
computeDNotch
readMag
__aeabi_f2d
__aeabi_dadd
__aeabi_d2f
mahonyUpdate
getMahonyEuler
fmin
fmax
initMpu
initFilter
initDNotchFilter
calibrateGyro
ARM GAS  C:\Users\GUILLE~1\AppData\Local\Temp\ccMOAPM2.s 			page 26


addTask
v_1_10
k_1_10
sz_1_10
sz_3_10
v_3_10
k_3_10
