ARM GAS  C:\Users\USUARIO\AppData\Local\Temp\ccxSeDYU.s 			page 1


   1              		.cpu cortex-m7
   2              		.eabi_attribute 27, 1
   3              		.eabi_attribute 28, 1
   4              		.eabi_attribute 20, 1
   5              		.eabi_attribute 21, 1
   6              		.eabi_attribute 23, 3
   7              		.eabi_attribute 24, 1
   8              		.eabi_attribute 25, 1
   9              		.eabi_attribute 26, 1
  10              		.eabi_attribute 30, 1
  11              		.eabi_attribute 34, 1
  12              		.eabi_attribute 18, 4
  13              		.file	"sensorsTasks.c"
  14              		.text
  15              	.Ltext0:
  16              		.cfi_sections	.debug_frame
  17              		.section	.text.accelTask,"ax",%progbits
  18              		.align	1
  19              		.global	accelTask
  20              		.arch armv7e-m
  21              		.syntax unified
  22              		.thumb
  23              		.thumb_func
  24              		.fpu fpv5-sp-d16
  26              	accelTask:
  27              	.LFB177:
  28              		.file 1 "Core/drogui/src/sensorsTasks.c"
   1:Core/drogui/src/sensorsTasks.c **** #include "sensorsTasks.h"
   2:Core/drogui/src/sensorsTasks.c **** #include "mahony.h"
   3:Core/drogui/src/sensorsTasks.c **** #include "task.h"
   4:Core/drogui/src/sensorsTasks.c **** #include "usart.h"
   5:Core/drogui/src/sensorsTasks.c **** #include <stdio.h>
   6:Core/drogui/src/sensorsTasks.c **** #include <string.h>
   7:Core/drogui/src/sensorsTasks.c **** 
   8:Core/drogui/src/sensorsTasks.c **** 
   9:Core/drogui/src/sensorsTasks.c **** mpu9250 myIMU;
  10:Core/drogui/src/sensorsTasks.c **** 
  11:Core/drogui/src/sensorsTasks.c **** filter filter_gx, filter_gy, filter_gz;
  12:Core/drogui/src/sensorsTasks.c **** filter filter_gx2, filter_gy2, filter_gz2;
  13:Core/drogui/src/sensorsTasks.c **** dNotchFilter dnotch_gx, dnotch_gy, dnotch_gz; 
  14:Core/drogui/src/sensorsTasks.c **** dNotchFilter dnotch_gx2, dnotch_gy2, dnotch_gz2;
  15:Core/drogui/src/sensorsTasks.c **** 
  16:Core/drogui/src/sensorsTasks.c **** 
  17:Core/drogui/src/sensorsTasks.c **** filter filter_ax, filter_ay, filter_az;
  18:Core/drogui/src/sensorsTasks.c **** dNotchFilter dnotch_ax, dnotch_ay, dnotch_az; 
  19:Core/drogui/src/sensorsTasks.c **** 
  20:Core/drogui/src/sensorsTasks.c **** filter filter_roll, filter_pitch, filter_yaw;
  21:Core/drogui/src/sensorsTasks.c **** float roll, pitch, yaw, ax, ay, az, gx, gy, gz, mx, my, mz, x, y, z;
  22:Core/drogui/src/sensorsTasks.c **** 
  23:Core/drogui/src/sensorsTasks.c **** 
  24:Core/drogui/src/sensorsTasks.c **** void accelTask(){   
  29              		.loc 1 24 17 view -0
  30              		.cfi_startproc
  31              		@ args = 0, pretend = 0, frame = 0
  32              		@ frame_needed = 0, uses_anonymous_args = 0
  33 0000 70B5     		push	{r4, r5, r6, lr}
  34              	.LCFI0:
ARM GAS  C:\Users\USUARIO\AppData\Local\Temp\ccxSeDYU.s 			page 2


  35              		.cfi_def_cfa_offset 16
  36              		.cfi_offset 4, -16
  37              		.cfi_offset 5, -12
  38              		.cfi_offset 6, -8
  39              		.cfi_offset 14, -4
  25:Core/drogui/src/sensorsTasks.c ****     readAcc(&myIMU);
  40              		.loc 1 25 5 view .LVU1
  41 0002 204C     		ldr	r4, .L3
  42 0004 2046     		mov	r0, r4
  43 0006 FFF7FEFF 		bl	readAcc
  44              	.LVL0:
  26:Core/drogui/src/sensorsTasks.c **** 
  27:Core/drogui/src/sensorsTasks.c ****     ax = computeFilter(&filter_ax, myIMU.ax);
  45              		.loc 1 27 5 view .LVU2
  46              		.loc 1 27 10 is_stmt 0 view .LVU3
  47 000a 94ED000A 		vldr.32	s0, [r4]
  48 000e 1E48     		ldr	r0, .L3+4
  49 0010 FFF7FEFF 		bl	computeFilter
  50              	.LVL1:
  51              		.loc 1 27 8 view .LVU4
  52 0014 1D4E     		ldr	r6, .L3+8
  53 0016 86ED000A 		vstr.32	s0, [r6]
  28:Core/drogui/src/sensorsTasks.c ****     ay = computeFilter(&filter_ay, myIMU.ay);
  54              		.loc 1 28 5 is_stmt 1 view .LVU5
  55              		.loc 1 28 10 is_stmt 0 view .LVU6
  56 001a 94ED010A 		vldr.32	s0, [r4, #4]
  57 001e 1C48     		ldr	r0, .L3+12
  58 0020 FFF7FEFF 		bl	computeFilter
  59              	.LVL2:
  60              		.loc 1 28 8 view .LVU7
  61 0024 1B4D     		ldr	r5, .L3+16
  62 0026 85ED000A 		vstr.32	s0, [r5]
  29:Core/drogui/src/sensorsTasks.c ****     az = computeFilter(&filter_az, myIMU.az);
  63              		.loc 1 29 5 is_stmt 1 view .LVU8
  64              		.loc 1 29 10 is_stmt 0 view .LVU9
  65 002a 94ED020A 		vldr.32	s0, [r4, #8]
  66 002e 1A48     		ldr	r0, .L3+20
  67 0030 FFF7FEFF 		bl	computeFilter
  68              	.LVL3:
  69              		.loc 1 29 8 view .LVU10
  70 0034 194C     		ldr	r4, .L3+24
  71 0036 84ED000A 		vstr.32	s0, [r4]
  30:Core/drogui/src/sensorsTasks.c **** 
  31:Core/drogui/src/sensorsTasks.c **** 
  32:Core/drogui/src/sensorsTasks.c ****     ax = computeDNotch(&dnotch_ax, ax);
  72              		.loc 1 32 5 is_stmt 1 view .LVU11
  73              		.loc 1 32 10 is_stmt 0 view .LVU12
  74 003a 96ED000A 		vldr.32	s0, [r6]
  75 003e 1848     		ldr	r0, .L3+28
  76 0040 FFF7FEFF 		bl	computeDNotch
  77              	.LVL4:
  78              		.loc 1 32 8 view .LVU13
  79 0044 86ED000A 		vstr.32	s0, [r6]
  33:Core/drogui/src/sensorsTasks.c ****     ay = computeDNotch(&dnotch_ay, ay);
  80              		.loc 1 33 5 is_stmt 1 view .LVU14
  81              		.loc 1 33 10 is_stmt 0 view .LVU15
  82 0048 95ED000A 		vldr.32	s0, [r5]
ARM GAS  C:\Users\USUARIO\AppData\Local\Temp\ccxSeDYU.s 			page 3


  83 004c 1548     		ldr	r0, .L3+32
  84 004e FFF7FEFF 		bl	computeDNotch
  85              	.LVL5:
  86              		.loc 1 33 8 view .LVU16
  87 0052 85ED000A 		vstr.32	s0, [r5]
  34:Core/drogui/src/sensorsTasks.c ****     az = computeDNotch(&dnotch_az, az);
  88              		.loc 1 34 5 is_stmt 1 view .LVU17
  89              		.loc 1 34 10 is_stmt 0 view .LVU18
  90 0056 94ED000A 		vldr.32	s0, [r4]
  91 005a 1348     		ldr	r0, .L3+36
  92 005c FFF7FEFF 		bl	computeDNotch
  93              	.LVL6:
  94              		.loc 1 34 8 view .LVU19
  95 0060 84ED000A 		vstr.32	s0, [r4]
  35:Core/drogui/src/sensorsTasks.c **** 
  36:Core/drogui/src/sensorsTasks.c ****     setReg(ACC_X,(float)(ax));
  96              		.loc 1 36 5 is_stmt 1 view .LVU20
  97 0064 96ED000A 		vldr.32	s0, [r6]
  98 0068 7420     		movs	r0, #116
  99 006a FFF7FEFF 		bl	setReg
 100              	.LVL7:
  37:Core/drogui/src/sensorsTasks.c ****     setReg(ACC_Y,(float)(ay));
 101              		.loc 1 37 5 view .LVU21
 102 006e 95ED000A 		vldr.32	s0, [r5]
 103 0072 7620     		movs	r0, #118
 104 0074 FFF7FEFF 		bl	setReg
 105              	.LVL8:
  38:Core/drogui/src/sensorsTasks.c ****     setReg(ACC_Z,(float)(az));
 106              		.loc 1 38 5 view .LVU22
 107 0078 94ED000A 		vldr.32	s0, [r4]
 108 007c 7820     		movs	r0, #120
 109 007e FFF7FEFF 		bl	setReg
 110              	.LVL9:
  39:Core/drogui/src/sensorsTasks.c **** }
 111              		.loc 1 39 1 is_stmt 0 view .LVU23
 112 0082 70BD     		pop	{r4, r5, r6, pc}
 113              	.L4:
 114              		.align	2
 115              	.L3:
 116 0084 00000000 		.word	.LANCHOR0
 117 0088 00000000 		.word	.LANCHOR1
 118 008c 00000000 		.word	.LANCHOR2
 119 0090 00000000 		.word	.LANCHOR3
 120 0094 00000000 		.word	.LANCHOR4
 121 0098 00000000 		.word	.LANCHOR5
 122 009c 00000000 		.word	.LANCHOR6
 123 00a0 00000000 		.word	.LANCHOR7
 124 00a4 00000000 		.word	.LANCHOR8
 125 00a8 00000000 		.word	.LANCHOR9
 126              		.cfi_endproc
 127              	.LFE177:
 129              		.section	.text.gyroTask,"ax",%progbits
 130              		.align	1
 131              		.global	gyroTask
 132              		.syntax unified
 133              		.thumb
 134              		.thumb_func
ARM GAS  C:\Users\USUARIO\AppData\Local\Temp\ccxSeDYU.s 			page 4


 135              		.fpu fpv5-sp-d16
 137              	gyroTask:
 138              	.LFB178:
  40:Core/drogui/src/sensorsTasks.c **** 
  41:Core/drogui/src/sensorsTasks.c **** char buff2[50] = "hola\n";
  42:Core/drogui/src/sensorsTasks.c **** void gyroTask(){
 139              		.loc 1 42 16 is_stmt 1 view -0
 140              		.cfi_startproc
 141              		@ args = 0, pretend = 0, frame = 0
 142              		@ frame_needed = 0, uses_anonymous_args = 0
 143 0000 70B5     		push	{r4, r5, r6, lr}
 144              	.LCFI1:
 145              		.cfi_def_cfa_offset 16
 146              		.cfi_offset 4, -16
 147              		.cfi_offset 5, -12
 148              		.cfi_offset 6, -8
 149              		.cfi_offset 14, -4
  43:Core/drogui/src/sensorsTasks.c ****     
  44:Core/drogui/src/sensorsTasks.c ****     readGyro(&myIMU);
 150              		.loc 1 44 5 view .LVU25
 151 0002 3D4D     		ldr	r5, .L7
 152 0004 2846     		mov	r0, r5
 153 0006 FFF7FEFF 		bl	readGyro
 154              	.LVL10:
  45:Core/drogui/src/sensorsTasks.c **** 
  46:Core/drogui/src/sensorsTasks.c ****     gx = computeFilter(&filter_gx, myIMU.gx);
 155              		.loc 1 46 5 view .LVU26
 156              		.loc 1 46 10 is_stmt 0 view .LVU27
 157 000a 95ED070A 		vldr.32	s0, [r5, #28]
 158 000e 3B48     		ldr	r0, .L7+4
 159 0010 FFF7FEFF 		bl	computeFilter
 160              	.LVL11:
 161              		.loc 1 46 8 view .LVU28
 162 0014 3A4E     		ldr	r6, .L7+8
 163 0016 86ED000A 		vstr.32	s0, [r6]
  47:Core/drogui/src/sensorsTasks.c ****     gy = computeFilter(&filter_gy, myIMU.gy);
 164              		.loc 1 47 5 is_stmt 1 view .LVU29
 165              		.loc 1 47 10 is_stmt 0 view .LVU30
 166 001a 95ED080A 		vldr.32	s0, [r5, #32]
 167 001e 3948     		ldr	r0, .L7+12
 168 0020 FFF7FEFF 		bl	computeFilter
 169              	.LVL12:
 170              		.loc 1 47 8 view .LVU31
 171 0024 384C     		ldr	r4, .L7+16
 172 0026 84ED000A 		vstr.32	s0, [r4]
  48:Core/drogui/src/sensorsTasks.c ****     gz = computeFilter(&filter_gz, myIMU.gz);
 173              		.loc 1 48 5 is_stmt 1 view .LVU32
 174              		.loc 1 48 10 is_stmt 0 view .LVU33
 175 002a 95ED090A 		vldr.32	s0, [r5, #36]
 176 002e 3748     		ldr	r0, .L7+20
 177 0030 FFF7FEFF 		bl	computeFilter
 178              	.LVL13:
 179              		.loc 1 48 8 view .LVU34
 180 0034 364D     		ldr	r5, .L7+24
 181 0036 85ED000A 		vstr.32	s0, [r5]
  49:Core/drogui/src/sensorsTasks.c **** 
  50:Core/drogui/src/sensorsTasks.c ****     gx = computeFilter(&filter_gx2, gx);
ARM GAS  C:\Users\USUARIO\AppData\Local\Temp\ccxSeDYU.s 			page 5


 182              		.loc 1 50 5 is_stmt 1 view .LVU35
 183              		.loc 1 50 10 is_stmt 0 view .LVU36
 184 003a 96ED000A 		vldr.32	s0, [r6]
 185 003e 3548     		ldr	r0, .L7+28
 186 0040 FFF7FEFF 		bl	computeFilter
 187              	.LVL14:
 188              		.loc 1 50 8 view .LVU37
 189 0044 86ED000A 		vstr.32	s0, [r6]
  51:Core/drogui/src/sensorsTasks.c ****     gy = computeFilter(&filter_gy2, gy);
 190              		.loc 1 51 5 is_stmt 1 view .LVU38
 191              		.loc 1 51 10 is_stmt 0 view .LVU39
 192 0048 94ED000A 		vldr.32	s0, [r4]
 193 004c 3248     		ldr	r0, .L7+32
 194 004e FFF7FEFF 		bl	computeFilter
 195              	.LVL15:
 196              		.loc 1 51 8 view .LVU40
 197 0052 84ED000A 		vstr.32	s0, [r4]
  52:Core/drogui/src/sensorsTasks.c ****     gz = computeFilter(&filter_gz2, gz);
 198              		.loc 1 52 5 is_stmt 1 view .LVU41
 199              		.loc 1 52 10 is_stmt 0 view .LVU42
 200 0056 95ED000A 		vldr.32	s0, [r5]
 201 005a 3048     		ldr	r0, .L7+36
 202 005c FFF7FEFF 		bl	computeFilter
 203              	.LVL16:
 204              		.loc 1 52 8 view .LVU43
 205 0060 85ED000A 		vstr.32	s0, [r5]
  53:Core/drogui/src/sensorsTasks.c **** 
  54:Core/drogui/src/sensorsTasks.c ****     gx = computeDNotch(&dnotch_gx, gx);
 206              		.loc 1 54 5 is_stmt 1 view .LVU44
 207              		.loc 1 54 10 is_stmt 0 view .LVU45
 208 0064 96ED000A 		vldr.32	s0, [r6]
 209 0068 2D48     		ldr	r0, .L7+40
 210 006a FFF7FEFF 		bl	computeDNotch
 211              	.LVL17:
 212              		.loc 1 54 8 view .LVU46
 213 006e 86ED000A 		vstr.32	s0, [r6]
  55:Core/drogui/src/sensorsTasks.c ****     gy = computeDNotch(&dnotch_gy, gy);
 214              		.loc 1 55 5 is_stmt 1 view .LVU47
 215              		.loc 1 55 10 is_stmt 0 view .LVU48
 216 0072 94ED000A 		vldr.32	s0, [r4]
 217 0076 2B48     		ldr	r0, .L7+44
 218 0078 FFF7FEFF 		bl	computeDNotch
 219              	.LVL18:
 220              		.loc 1 55 8 view .LVU49
 221 007c 84ED000A 		vstr.32	s0, [r4]
  56:Core/drogui/src/sensorsTasks.c ****     gz = computeDNotch(&dnotch_gz, gz);
 222              		.loc 1 56 5 is_stmt 1 view .LVU50
 223              		.loc 1 56 10 is_stmt 0 view .LVU51
 224 0080 95ED000A 		vldr.32	s0, [r5]
 225 0084 2848     		ldr	r0, .L7+48
 226 0086 FFF7FEFF 		bl	computeDNotch
 227              	.LVL19:
 228              		.loc 1 56 8 view .LVU52
 229 008a 85ED000A 		vstr.32	s0, [r5]
  57:Core/drogui/src/sensorsTasks.c **** 
  58:Core/drogui/src/sensorsTasks.c ****     gy = computeDNotch(&dnotch_gx2, gy);
 230              		.loc 1 58 5 is_stmt 1 view .LVU53
ARM GAS  C:\Users\USUARIO\AppData\Local\Temp\ccxSeDYU.s 			page 6


 231              		.loc 1 58 10 is_stmt 0 view .LVU54
 232 008e 94ED000A 		vldr.32	s0, [r4]
 233 0092 2648     		ldr	r0, .L7+52
 234 0094 FFF7FEFF 		bl	computeDNotch
 235              	.LVL20:
 236              		.loc 1 58 8 view .LVU55
 237 0098 84ED000A 		vstr.32	s0, [r4]
  59:Core/drogui/src/sensorsTasks.c ****     gy = computeDNotch(&dnotch_gy2, gy);
 238              		.loc 1 59 5 is_stmt 1 view .LVU56
 239              		.loc 1 59 10 is_stmt 0 view .LVU57
 240 009c 2448     		ldr	r0, .L7+56
 241 009e FFF7FEFF 		bl	computeDNotch
 242              	.LVL21:
 243              		.loc 1 59 8 view .LVU58
 244 00a2 84ED000A 		vstr.32	s0, [r4]
  60:Core/drogui/src/sensorsTasks.c ****     gz = computeDNotch(&dnotch_gz2, gz);
 245              		.loc 1 60 5 is_stmt 1 view .LVU59
 246              		.loc 1 60 10 is_stmt 0 view .LVU60
 247 00a6 95ED000A 		vldr.32	s0, [r5]
 248 00aa 2248     		ldr	r0, .L7+60
 249 00ac FFF7FEFF 		bl	computeDNotch
 250              	.LVL22:
 251 00b0 F0EE407A 		vmov.f32	s15, s0
 252              		.loc 1 60 8 view .LVU61
 253 00b4 85ED000A 		vstr.32	s0, [r5]
  61:Core/drogui/src/sensorsTasks.c ****     
  62:Core/drogui/src/sensorsTasks.c ****     gx /= 5;
 254              		.loc 1 62 5 is_stmt 1 view .LVU62
 255              		.loc 1 62 8 is_stmt 0 view .LVU63
 256 00b8 D6ED006A 		vldr.32	s13, [r6]
 257 00bc B1EE047A 		vmov.f32	s14, #5.0e+0
 258 00c0 86EE870A 		vdiv.f32	s0, s13, s14
 259 00c4 86ED000A 		vstr.32	s0, [r6]
  63:Core/drogui/src/sensorsTasks.c ****     gy /= 5;
 260              		.loc 1 63 5 is_stmt 1 view .LVU64
 261              		.loc 1 63 8 is_stmt 0 view .LVU65
 262 00c8 94ED006A 		vldr.32	s12, [r4]
 263 00cc C6EE076A 		vdiv.f32	s13, s12, s14
 264 00d0 C4ED006A 		vstr.32	s13, [r4]
  64:Core/drogui/src/sensorsTasks.c ****     gz /= 5; 
 265              		.loc 1 64 5 is_stmt 1 view .LVU66
 266              		.loc 1 64 8 is_stmt 0 view .LVU67
 267 00d4 C7EE876A 		vdiv.f32	s13, s15, s14
 268 00d8 C5ED006A 		vstr.32	s13, [r5]
  65:Core/drogui/src/sensorsTasks.c **** 
  66:Core/drogui/src/sensorsTasks.c **** 
  67:Core/drogui/src/sensorsTasks.c ****     setReg(GYRO_X, gx);
 269              		.loc 1 67 5 is_stmt 1 view .LVU68
 270 00dc 7C20     		movs	r0, #124
 271 00de FFF7FEFF 		bl	setReg
 272              	.LVL23:
  68:Core/drogui/src/sensorsTasks.c ****     setReg(GYRO_Y, gy);
 273              		.loc 1 68 5 view .LVU69
 274 00e2 94ED000A 		vldr.32	s0, [r4]
 275 00e6 7E20     		movs	r0, #126
 276 00e8 FFF7FEFF 		bl	setReg
 277              	.LVL24:
ARM GAS  C:\Users\USUARIO\AppData\Local\Temp\ccxSeDYU.s 			page 7


  69:Core/drogui/src/sensorsTasks.c ****     setReg(GYRO_Z, gz);
 278              		.loc 1 69 5 view .LVU70
 279 00ec 95ED000A 		vldr.32	s0, [r5]
 280 00f0 8020     		movs	r0, #128
 281 00f2 FFF7FEFF 		bl	setReg
 282              	.LVL25:
  70:Core/drogui/src/sensorsTasks.c **** }
 283              		.loc 1 70 1 is_stmt 0 view .LVU71
 284 00f6 70BD     		pop	{r4, r5, r6, pc}
 285              	.L8:
 286              		.align	2
 287              	.L7:
 288 00f8 00000000 		.word	.LANCHOR0
 289 00fc 00000000 		.word	.LANCHOR10
 290 0100 00000000 		.word	.LANCHOR11
 291 0104 00000000 		.word	.LANCHOR12
 292 0108 00000000 		.word	.LANCHOR13
 293 010c 00000000 		.word	.LANCHOR14
 294 0110 00000000 		.word	.LANCHOR15
 295 0114 00000000 		.word	.LANCHOR16
 296 0118 00000000 		.word	.LANCHOR17
 297 011c 00000000 		.word	.LANCHOR18
 298 0120 00000000 		.word	.LANCHOR19
 299 0124 00000000 		.word	.LANCHOR20
 300 0128 00000000 		.word	.LANCHOR21
 301 012c 00000000 		.word	.LANCHOR22
 302 0130 00000000 		.word	.LANCHOR23
 303 0134 00000000 		.word	.LANCHOR24
 304              		.cfi_endproc
 305              	.LFE178:
 307              		.section	.text.magTask,"ax",%progbits
 308              		.align	1
 309              		.global	magTask
 310              		.syntax unified
 311              		.thumb
 312              		.thumb_func
 313              		.fpu fpv5-sp-d16
 315              	magTask:
 316              	.LFB179:
  71:Core/drogui/src/sensorsTasks.c **** 
  72:Core/drogui/src/sensorsTasks.c **** void magTask(){
 317              		.loc 1 72 15 is_stmt 1 view -0
 318              		.cfi_startproc
 319              		@ args = 0, pretend = 0, frame = 0
 320              		@ frame_needed = 0, uses_anonymous_args = 0
 321 0000 10B5     		push	{r4, lr}
 322              	.LCFI2:
 323              		.cfi_def_cfa_offset 8
 324              		.cfi_offset 4, -8
 325              		.cfi_offset 14, -4
  73:Core/drogui/src/sensorsTasks.c ****     readMag(&myIMU);
 326              		.loc 1 73 5 view .LVU73
 327 0002 074C     		ldr	r4, .L11
 328 0004 2046     		mov	r0, r4
 329 0006 FFF7FEFF 		bl	readMag
 330              	.LVL26:
  74:Core/drogui/src/sensorsTasks.c ****     mx = myIMU.mx;
ARM GAS  C:\Users\USUARIO\AppData\Local\Temp\ccxSeDYU.s 			page 8


 331              		.loc 1 74 5 view .LVU74
 332              		.loc 1 74 15 is_stmt 0 view .LVU75
 333 000a 626B     		ldr	r2, [r4, #52]	@ float
 334              		.loc 1 74 8 view .LVU76
 335 000c 054B     		ldr	r3, .L11+4
 336 000e 1A60     		str	r2, [r3]	@ float
  75:Core/drogui/src/sensorsTasks.c ****     my = myIMU.my;
 337              		.loc 1 75 5 is_stmt 1 view .LVU77
 338              		.loc 1 75 15 is_stmt 0 view .LVU78
 339 0010 A26B     		ldr	r2, [r4, #56]	@ float
 340              		.loc 1 75 8 view .LVU79
 341 0012 054B     		ldr	r3, .L11+8
 342 0014 1A60     		str	r2, [r3]	@ float
  76:Core/drogui/src/sensorsTasks.c ****     mz = myIMU.mz;
 343              		.loc 1 76 5 is_stmt 1 view .LVU80
 344              		.loc 1 76 15 is_stmt 0 view .LVU81
 345 0016 E26B     		ldr	r2, [r4, #60]	@ float
 346              		.loc 1 76 8 view .LVU82
 347 0018 044B     		ldr	r3, .L11+12
 348 001a 1A60     		str	r2, [r3]	@ float
  77:Core/drogui/src/sensorsTasks.c **** }
 349              		.loc 1 77 1 view .LVU83
 350 001c 10BD     		pop	{r4, pc}
 351              	.L12:
 352 001e 00BF     		.align	2
 353              	.L11:
 354 0020 00000000 		.word	.LANCHOR0
 355 0024 00000000 		.word	.LANCHOR25
 356 0028 00000000 		.word	.LANCHOR26
 357 002c 00000000 		.word	.LANCHOR27
 358              		.cfi_endproc
 359              	.LFE179:
 361              		.global	__aeabi_f2d
 362              		.global	__aeabi_dadd
 363              		.global	__aeabi_d2f
 364              		.section	.text.rpyTask,"ax",%progbits
 365              		.align	1
 366              		.global	rpyTask
 367              		.syntax unified
 368              		.thumb
 369              		.thumb_func
 370              		.fpu fpv5-sp-d16
 372              	rpyTask:
 373              	.LFB180:
  78:Core/drogui/src/sensorsTasks.c **** 
  79:Core/drogui/src/sensorsTasks.c **** float Kdfilt = 0.001;
  80:Core/drogui/src/sensorsTasks.c **** void rpyTask(){
 374              		.loc 1 80 15 is_stmt 1 view -0
 375              		.cfi_startproc
 376              		@ args = 0, pretend = 0, frame = 16
 377              		@ frame_needed = 0, uses_anonymous_args = 0
 378 0000 2DE97043 		push	{r4, r5, r6, r8, r9, lr}
 379              	.LCFI3:
 380              		.cfi_def_cfa_offset 24
 381              		.cfi_offset 4, -24
 382              		.cfi_offset 5, -20
 383              		.cfi_offset 6, -16
ARM GAS  C:\Users\USUARIO\AppData\Local\Temp\ccxSeDYU.s 			page 9


 384              		.cfi_offset 8, -12
 385              		.cfi_offset 9, -8
 386              		.cfi_offset 14, -4
 387 0004 2DED088B 		vpush.64	{d8, d9, d10, d11}
 388              	.LCFI4:
 389              		.cfi_def_cfa_offset 56
 390              		.cfi_offset 80, -56
 391              		.cfi_offset 81, -52
 392              		.cfi_offset 82, -48
 393              		.cfi_offset 83, -44
 394              		.cfi_offset 84, -40
 395              		.cfi_offset 85, -36
 396              		.cfi_offset 86, -32
 397              		.cfi_offset 87, -28
 398 0008 84B0     		sub	sp, sp, #16
 399              	.LCFI5:
 400              		.cfi_def_cfa_offset 72
  81:Core/drogui/src/sensorsTasks.c ****     
  82:Core/drogui/src/sensorsTasks.c ****     float rpy[3];
 401              		.loc 1 82 5 view .LVU85
  83:Core/drogui/src/sensorsTasks.c ****     mahonyUpdate(gx*PI/360.0f, gy*PI/360.0f, gz*PI/360.0f, ax, ay, az, 0, 0, 0);
 402              		.loc 1 83 5 view .LVU86
 403              		.loc 1 83 20 is_stmt 0 view .LVU87
 404 000a 6E4B     		ldr	r3, .L15
 405 000c 93ED000A 		vldr.32	s0, [r3]
 406 0010 DFED6D7A 		vldr.32	s15, .L15+4
 407 0014 20EE270A 		vmul.f32	s0, s0, s15
 408              		.loc 1 83 34 view .LVU88
 409 0018 6C4B     		ldr	r3, .L15+8
 410 001a D3ED000A 		vldr.32	s1, [r3]
 411 001e 60EEA70A 		vmul.f32	s1, s1, s15
 412              		.loc 1 83 48 view .LVU89
 413 0022 6B4B     		ldr	r3, .L15+12
 414 0024 93ED001A 		vldr.32	s2, [r3]
 415 0028 21EE271A 		vmul.f32	s2, s2, s15
 416              		.loc 1 83 5 view .LVU90
 417 002c 9FED693A 		vldr.32	s6, .L15+16
 418 0030 DFED697A 		vldr.32	s15, .L15+20
 419 0034 B0EE434A 		vmov.f32	s8, s6
 420 0038 F0EE433A 		vmov.f32	s7, s6
 421 003c 674B     		ldr	r3, .L15+24
 422 003e D3ED002A 		vldr.32	s5, [r3]
 423 0042 674B     		ldr	r3, .L15+28
 424 0044 93ED002A 		vldr.32	s4, [r3]
 425 0048 664B     		ldr	r3, .L15+32
 426 004a D3ED001A 		vldr.32	s3, [r3]
 427 004e 81EE271A 		vdiv.f32	s2, s2, s15
 428 0052 C0EEA70A 		vdiv.f32	s1, s1, s15
 429 0056 80EE270A 		vdiv.f32	s0, s0, s15
 430 005a FFF7FEFF 		bl	mahonyUpdate
 431              	.LVL27:
  84:Core/drogui/src/sensorsTasks.c ****     getMahonyEuler(rpy);
 432              		.loc 1 84 5 is_stmt 1 view .LVU91
 433 005e 01A8     		add	r0, sp, #4
 434 0060 FFF7FEFF 		bl	getMahonyEuler
 435              	.LVL28:
  85:Core/drogui/src/sensorsTasks.c ****     //roll = rpy[0], pitch = rpy[1], yaw = rpy[2];
ARM GAS  C:\Users\USUARIO\AppData\Local\Temp\ccxSeDYU.s 			page 10


  86:Core/drogui/src/sensorsTasks.c ****     roll += fmax(fmin(Kdfilt, (rpy[0] - roll)),-Kdfilt);
 436              		.loc 1 86 5 view .LVU92
 437              		.loc 1 86 10 is_stmt 0 view .LVU93
 438 0064 604E     		ldr	r6, .L15+36
 439 0066 96ED00BA 		vldr.32	s22, [r6]
 440              		.loc 1 86 13 view .LVU94
 441 006a 604B     		ldr	r3, .L15+40
 442 006c 1C68     		ldr	r4, [r3]	@ float
 443 006e 2046     		mov	r0, r4	@ float
 444 0070 FFF7FEFF 		bl	__aeabi_f2d
 445              	.LVL29:
 446 0074 41EC190B 		vmov	d9, r0, r1
 447 0078 DDED017A 		vldr.32	s15, [sp, #4]
 448 007c 77EECB7A 		vsub.f32	s15, s15, s22
 449 0080 17EE900A 		vmov	r0, s15
 450 0084 FFF7FEFF 		bl	__aeabi_f2d
 451              	.LVL30:
 452 0088 41EC110B 		vmov	d1, r0, r1
 453 008c B0EE490A 		vmov.f32	s0, s18
 454 0090 F0EE690A 		vmov.f32	s1, s19
 455 0094 FFF7FEFF 		bl	fmin
 456              	.LVL31:
 457 0098 B0EE40AA 		vmov.f32	s20, s0
 458 009c F0EE60AA 		vmov.f32	s21, s1
 459 00a0 84F00040 		eor	r0, r4, #-2147483648
 460 00a4 FFF7FEFF 		bl	__aeabi_f2d
 461              	.LVL32:
 462 00a8 41EC180B 		vmov	d8, r0, r1
 463 00ac 41EC110B 		vmov	d1, r0, r1
 464 00b0 B0EE4A0A 		vmov.f32	s0, s20
 465 00b4 F0EE6A0A 		vmov.f32	s1, s21
 466 00b8 FFF7FEFF 		bl	fmax
 467              	.LVL33:
 468 00bc 55EC104B 		vmov	r4, r5, d0
 469              		.loc 1 86 10 view .LVU95
 470 00c0 1BEE100A 		vmov	r0, s22
 471 00c4 FFF7FEFF 		bl	__aeabi_f2d
 472              	.LVL34:
 473 00c8 2246     		mov	r2, r4
 474 00ca 2B46     		mov	r3, r5
 475 00cc FFF7FEFF 		bl	__aeabi_dadd
 476              	.LVL35:
 477 00d0 FFF7FEFF 		bl	__aeabi_d2f
 478              	.LVL36:
 479 00d4 0AEE100A 		vmov	s20, r0
 480 00d8 3060     		str	r0, [r6]	@ float
  87:Core/drogui/src/sensorsTasks.c ****     pitch += fmax(fmin(Kdfilt, (rpy[1] - pitch)),-Kdfilt);
 481              		.loc 1 87 5 is_stmt 1 view .LVU96
 482              		.loc 1 87 11 is_stmt 0 view .LVU97
 483 00da 454D     		ldr	r5, .L15+44
 484 00dc D5ED00AA 		vldr.32	s21, [r5]
 485              		.loc 1 87 14 view .LVU98
 486 00e0 DDED027A 		vldr.32	s15, [sp, #8]
 487 00e4 77EEEA7A 		vsub.f32	s15, s15, s21
 488 00e8 17EE900A 		vmov	r0, s15
 489 00ec FFF7FEFF 		bl	__aeabi_f2d
 490              	.LVL37:
ARM GAS  C:\Users\USUARIO\AppData\Local\Temp\ccxSeDYU.s 			page 11


 491 00f0 41EC110B 		vmov	d1, r0, r1
 492 00f4 B0EE490A 		vmov.f32	s0, s18
 493 00f8 F0EE690A 		vmov.f32	s1, s19
 494 00fc FFF7FEFF 		bl	fmin
 495              	.LVL38:
 496 0100 B0EE481A 		vmov.f32	s2, s16
 497 0104 F0EE681A 		vmov.f32	s3, s17
 498 0108 FFF7FEFF 		bl	fmax
 499              	.LVL39:
 500 010c 59EC108B 		vmov	r8, r9, d0
 501              		.loc 1 87 11 view .LVU99
 502 0110 1AEE900A 		vmov	r0, s21
 503 0114 FFF7FEFF 		bl	__aeabi_f2d
 504              	.LVL40:
 505 0118 4246     		mov	r2, r8
 506 011a 4B46     		mov	r3, r9
 507 011c FFF7FEFF 		bl	__aeabi_dadd
 508              	.LVL41:
 509 0120 FFF7FEFF 		bl	__aeabi_d2f
 510              	.LVL42:
 511 0124 2860     		str	r0, [r5]	@ float
  88:Core/drogui/src/sensorsTasks.c ****     yaw += fmax(fmin(Kdfilt,(rpy[2] - yaw)),-Kdfilt);
 512              		.loc 1 88 5 is_stmt 1 view .LVU100
 513              		.loc 1 88 9 is_stmt 0 view .LVU101
 514 0126 334C     		ldr	r4, .L15+48
 515 0128 D4ED00AA 		vldr.32	s21, [r4]
 516              		.loc 1 88 12 view .LVU102
 517 012c DDED037A 		vldr.32	s15, [sp, #12]
 518 0130 77EEEA7A 		vsub.f32	s15, s15, s21
 519 0134 17EE900A 		vmov	r0, s15
 520 0138 FFF7FEFF 		bl	__aeabi_f2d
 521              	.LVL43:
 522 013c 41EC110B 		vmov	d1, r0, r1
 523 0140 B0EE490A 		vmov.f32	s0, s18
 524 0144 F0EE690A 		vmov.f32	s1, s19
 525 0148 FFF7FEFF 		bl	fmin
 526              	.LVL44:
 527 014c B0EE481A 		vmov.f32	s2, s16
 528 0150 F0EE681A 		vmov.f32	s3, s17
 529 0154 FFF7FEFF 		bl	fmax
 530              	.LVL45:
 531 0158 59EC108B 		vmov	r8, r9, d0
 532              		.loc 1 88 9 view .LVU103
 533 015c 1AEE900A 		vmov	r0, s21
 534 0160 FFF7FEFF 		bl	__aeabi_f2d
 535              	.LVL46:
 536 0164 4246     		mov	r2, r8
 537 0166 4B46     		mov	r3, r9
 538 0168 FFF7FEFF 		bl	__aeabi_dadd
 539              	.LVL47:
 540 016c FFF7FEFF 		bl	__aeabi_d2f
 541              	.LVL48:
 542 0170 2060     		str	r0, [r4]	@ float
  89:Core/drogui/src/sensorsTasks.c **** 
  90:Core/drogui/src/sensorsTasks.c ****     roll = computeFilter(&filter_roll, roll);
 543              		.loc 1 90 5 is_stmt 1 view .LVU104
 544              		.loc 1 90 12 is_stmt 0 view .LVU105
ARM GAS  C:\Users\USUARIO\AppData\Local\Temp\ccxSeDYU.s 			page 12


 545 0172 B0EE4A0A 		vmov.f32	s0, s20
 546 0176 2048     		ldr	r0, .L15+52
 547 0178 FFF7FEFF 		bl	computeFilter
 548              	.LVL49:
 549              		.loc 1 90 10 view .LVU106
 550 017c 86ED000A 		vstr.32	s0, [r6]
  91:Core/drogui/src/sensorsTasks.c ****     pitch = computeFilter(&filter_pitch, pitch);
 551              		.loc 1 91 5 is_stmt 1 view .LVU107
 552              		.loc 1 91 13 is_stmt 0 view .LVU108
 553 0180 95ED000A 		vldr.32	s0, [r5]
 554 0184 1D48     		ldr	r0, .L15+56
 555 0186 FFF7FEFF 		bl	computeFilter
 556              	.LVL50:
 557              		.loc 1 91 11 view .LVU109
 558 018a 85ED000A 		vstr.32	s0, [r5]
  92:Core/drogui/src/sensorsTasks.c ****     yaw = computeFilter(&filter_yaw, yaw);
 559              		.loc 1 92 5 is_stmt 1 view .LVU110
 560              		.loc 1 92 11 is_stmt 0 view .LVU111
 561 018e 94ED000A 		vldr.32	s0, [r4]
 562 0192 1B48     		ldr	r0, .L15+60
 563 0194 FFF7FEFF 		bl	computeFilter
 564              	.LVL51:
 565              		.loc 1 92 9 view .LVU112
 566 0198 84ED000A 		vstr.32	s0, [r4]
  93:Core/drogui/src/sensorsTasks.c **** 
  94:Core/drogui/src/sensorsTasks.c ****     setReg(ROLL_VAL, roll);
 567              		.loc 1 94 5 is_stmt 1 view .LVU113
 568 019c 96ED000A 		vldr.32	s0, [r6]
 569 01a0 2E20     		movs	r0, #46
 570 01a2 FFF7FEFF 		bl	setReg
 571              	.LVL52:
  95:Core/drogui/src/sensorsTasks.c ****     setReg(PITCH_VAL, pitch);
 572              		.loc 1 95 5 view .LVU114
 573 01a6 95ED000A 		vldr.32	s0, [r5]
 574 01aa 3020     		movs	r0, #48
 575 01ac FFF7FEFF 		bl	setReg
 576              	.LVL53:
  96:Core/drogui/src/sensorsTasks.c ****     setReg(YAW_VAL, yaw);
 577              		.loc 1 96 5 view .LVU115
 578 01b0 94ED000A 		vldr.32	s0, [r4]
 579 01b4 3220     		movs	r0, #50
 580 01b6 FFF7FEFF 		bl	setReg
 581              	.LVL54:
  97:Core/drogui/src/sensorsTasks.c **** }
 582              		.loc 1 97 1 is_stmt 0 view .LVU116
 583 01ba 04B0     		add	sp, sp, #16
 584              	.LCFI6:
 585              		.cfi_def_cfa_offset 56
 586              		@ sp needed
 587 01bc BDEC088B 		vldm	sp!, {d8-d11}
 588              	.LCFI7:
 589              		.cfi_restore 86
 590              		.cfi_restore 87
 591              		.cfi_restore 84
 592              		.cfi_restore 85
 593              		.cfi_restore 82
 594              		.cfi_restore 83
ARM GAS  C:\Users\USUARIO\AppData\Local\Temp\ccxSeDYU.s 			page 13


 595              		.cfi_restore 80
 596              		.cfi_restore 81
 597              		.cfi_def_cfa_offset 24
 598 01c0 BDE87083 		pop	{r4, r5, r6, r8, r9, pc}
 599              	.L16:
 600              		.align	2
 601              	.L15:
 602 01c4 00000000 		.word	.LANCHOR11
 603 01c8 DB0F4940 		.word	1078530011
 604 01cc 00000000 		.word	.LANCHOR13
 605 01d0 00000000 		.word	.LANCHOR15
 606 01d4 00000000 		.word	0
 607 01d8 0000B443 		.word	1135869952
 608 01dc 00000000 		.word	.LANCHOR6
 609 01e0 00000000 		.word	.LANCHOR4
 610 01e4 00000000 		.word	.LANCHOR2
 611 01e8 00000000 		.word	.LANCHOR28
 612 01ec 00000000 		.word	.LANCHOR29
 613 01f0 00000000 		.word	.LANCHOR30
 614 01f4 00000000 		.word	.LANCHOR31
 615 01f8 00000000 		.word	.LANCHOR32
 616 01fc 00000000 		.word	.LANCHOR33
 617 0200 00000000 		.word	.LANCHOR34
 618              		.cfi_endproc
 619              	.LFE180:
 621              		.section	.text.initSensorsTasks,"ax",%progbits
 622              		.align	1
 623              		.global	initSensorsTasks
 624              		.syntax unified
 625              		.thumb
 626              		.thumb_func
 627              		.fpu fpv5-sp-d16
 629              	initSensorsTasks:
 630              	.LFB181:
  98:Core/drogui/src/sensorsTasks.c **** 
  99:Core/drogui/src/sensorsTasks.c **** 
 100:Core/drogui/src/sensorsTasks.c **** void initSensorsTasks(){
 631              		.loc 1 100 24 is_stmt 1 view -0
 632              		.cfi_startproc
 633              		@ args = 0, pretend = 0, frame = 0
 634              		@ frame_needed = 0, uses_anonymous_args = 0
 635 0000 2DE9F041 		push	{r4, r5, r6, r7, r8, lr}
 636              	.LCFI8:
 637              		.cfi_def_cfa_offset 24
 638              		.cfi_offset 4, -24
 639              		.cfi_offset 5, -20
 640              		.cfi_offset 6, -16
 641              		.cfi_offset 7, -12
 642              		.cfi_offset 8, -8
 643              		.cfi_offset 14, -4
 644 0004 2DED028B 		vpush.64	{d8}
 645              	.LCFI9:
 646              		.cfi_def_cfa_offset 32
 647              		.cfi_offset 80, -32
 648              		.cfi_offset 81, -28
 101:Core/drogui/src/sensorsTasks.c ****     
 102:Core/drogui/src/sensorsTasks.c ****     initMpu(&myIMU);
ARM GAS  C:\Users\USUARIO\AppData\Local\Temp\ccxSeDYU.s 			page 14


 649              		.loc 1 102 5 view .LVU118
 650 0008 734E     		ldr	r6, .L19
 651 000a 3046     		mov	r0, r6
 652 000c FFF7FEFF 		bl	initMpu
 653              	.LVL55:
 103:Core/drogui/src/sensorsTasks.c **** 
 104:Core/drogui/src/sensorsTasks.c ****     initFilter(&filter_gx, 4 , k_1_10, v_1_10);
 654              		.loc 1 104 5 view .LVU119
 655 0010 724D     		ldr	r5, .L19+4
 656 0012 734C     		ldr	r4, .L19+8
 657 0014 2B46     		mov	r3, r5
 658 0016 2246     		mov	r2, r4
 659 0018 0421     		movs	r1, #4
 660 001a 7248     		ldr	r0, .L19+12
 661 001c FFF7FEFF 		bl	initFilter
 662              	.LVL56:
 105:Core/drogui/src/sensorsTasks.c ****     initFilter(&filter_gy, 4 , k_1_10, v_1_10);
 663              		.loc 1 105 5 view .LVU120
 664 0020 2B46     		mov	r3, r5
 665 0022 2246     		mov	r2, r4
 666 0024 0421     		movs	r1, #4
 667 0026 7048     		ldr	r0, .L19+16
 668 0028 FFF7FEFF 		bl	initFilter
 669              	.LVL57:
 106:Core/drogui/src/sensorsTasks.c ****     initFilter(&filter_gz, 4 , k_1_10, v_1_10);
 670              		.loc 1 106 5 view .LVU121
 671 002c 2B46     		mov	r3, r5
 672 002e 2246     		mov	r2, r4
 673 0030 0421     		movs	r1, #4
 674 0032 6E48     		ldr	r0, .L19+20
 675 0034 FFF7FEFF 		bl	initFilter
 676              	.LVL58:
 107:Core/drogui/src/sensorsTasks.c **** 
 108:Core/drogui/src/sensorsTasks.c ****     initFilter(&filter_gx2, 5 , k_3_10, v_3_10);
 677              		.loc 1 108 5 view .LVU122
 678 0038 DFF82482 		ldr	r8, .L19+136
 679 003c 6C4F     		ldr	r7, .L19+24
 680 003e 4346     		mov	r3, r8
 681 0040 3A46     		mov	r2, r7
 682 0042 0521     		movs	r1, #5
 683 0044 6B48     		ldr	r0, .L19+28
 684 0046 FFF7FEFF 		bl	initFilter
 685              	.LVL59:
 109:Core/drogui/src/sensorsTasks.c ****     initFilter(&filter_gy2, 5 , k_3_10, v_3_10);
 686              		.loc 1 109 5 view .LVU123
 687 004a 4346     		mov	r3, r8
 688 004c 3A46     		mov	r2, r7
 689 004e 0521     		movs	r1, #5
 690 0050 6948     		ldr	r0, .L19+32
 691 0052 FFF7FEFF 		bl	initFilter
 692              	.LVL60:
 110:Core/drogui/src/sensorsTasks.c ****     initFilter(&filter_gz2, 5 , k_3_10, v_3_10);
 693              		.loc 1 110 5 view .LVU124
 694 0056 4346     		mov	r3, r8
 695 0058 3A46     		mov	r2, r7
 696 005a 0521     		movs	r1, #5
 697 005c 6748     		ldr	r0, .L19+36
ARM GAS  C:\Users\USUARIO\AppData\Local\Temp\ccxSeDYU.s 			page 15


 698 005e FFF7FEFF 		bl	initFilter
 699              	.LVL61:
 111:Core/drogui/src/sensorsTasks.c **** 
 112:Core/drogui/src/sensorsTasks.c ****     initDNotchFilter(&dnotch_gx, 64, 50, 1000, 1, 10);
 700              		.loc 1 112 5 view .LVU125
 701 0062 9FED678A 		vldr.32	s16, .L19+40
 702 0066 DFED678A 		vldr.32	s17, .L19+44
 703 006a F2EE041A 		vmov.f32	s3, #1.0e+1
 704 006e B7EE001A 		vmov.f32	s2, #1.0e+0
 705 0072 F0EE480A 		vmov.f32	s1, s16
 706 0076 B0EE680A 		vmov.f32	s0, s17
 707 007a 4021     		movs	r1, #64
 708 007c 6248     		ldr	r0, .L19+48
 709 007e FFF7FEFF 		bl	initDNotchFilter
 710              	.LVL62:
 113:Core/drogui/src/sensorsTasks.c ****     initDNotchFilter(&dnotch_gy, 64, 50, 1000, 1, 10);
 711              		.loc 1 113 5 view .LVU126
 712 0082 F2EE041A 		vmov.f32	s3, #1.0e+1
 713 0086 B7EE001A 		vmov.f32	s2, #1.0e+0
 714 008a F0EE480A 		vmov.f32	s1, s16
 715 008e B0EE680A 		vmov.f32	s0, s17
 716 0092 4021     		movs	r1, #64
 717 0094 5D48     		ldr	r0, .L19+52
 718 0096 FFF7FEFF 		bl	initDNotchFilter
 719              	.LVL63:
 114:Core/drogui/src/sensorsTasks.c ****     initDNotchFilter(&dnotch_gz, 64, 50, 1000, 1, 10);
 720              		.loc 1 114 5 view .LVU127
 721 009a F2EE041A 		vmov.f32	s3, #1.0e+1
 722 009e B7EE001A 		vmov.f32	s2, #1.0e+0
 723 00a2 F0EE480A 		vmov.f32	s1, s16
 724 00a6 B0EE680A 		vmov.f32	s0, s17
 725 00aa 4021     		movs	r1, #64
 726 00ac 5848     		ldr	r0, .L19+56
 727 00ae FFF7FEFF 		bl	initDNotchFilter
 728              	.LVL64:
 115:Core/drogui/src/sensorsTasks.c **** 
 116:Core/drogui/src/sensorsTasks.c ****     initDNotchFilter(&dnotch_gx2, 64, 50, 1000, 1, 5);
 729              		.loc 1 116 5 view .LVU128
 730 00b2 F1EE041A 		vmov.f32	s3, #5.0e+0
 731 00b6 B7EE001A 		vmov.f32	s2, #1.0e+0
 732 00ba F0EE480A 		vmov.f32	s1, s16
 733 00be B0EE680A 		vmov.f32	s0, s17
 734 00c2 4021     		movs	r1, #64
 735 00c4 5348     		ldr	r0, .L19+60
 736 00c6 FFF7FEFF 		bl	initDNotchFilter
 737              	.LVL65:
 117:Core/drogui/src/sensorsTasks.c ****     initDNotchFilter(&dnotch_gy2, 64, 50, 1000, 1, 5);
 738              		.loc 1 117 5 view .LVU129
 739 00ca F1EE041A 		vmov.f32	s3, #5.0e+0
 740 00ce B7EE001A 		vmov.f32	s2, #1.0e+0
 741 00d2 F0EE480A 		vmov.f32	s1, s16
 742 00d6 B0EE680A 		vmov.f32	s0, s17
 743 00da 4021     		movs	r1, #64
 744 00dc 4E48     		ldr	r0, .L19+64
 745 00de FFF7FEFF 		bl	initDNotchFilter
 746              	.LVL66:
 118:Core/drogui/src/sensorsTasks.c ****     initDNotchFilter(&dnotch_gz2, 64, 50, 1000, 1, 5);
ARM GAS  C:\Users\USUARIO\AppData\Local\Temp\ccxSeDYU.s 			page 16


 747              		.loc 1 118 5 view .LVU130
 748 00e2 F1EE041A 		vmov.f32	s3, #5.0e+0
 749 00e6 B7EE001A 		vmov.f32	s2, #1.0e+0
 750 00ea F0EE480A 		vmov.f32	s1, s16
 751 00ee B0EE680A 		vmov.f32	s0, s17
 752 00f2 4021     		movs	r1, #64
 753 00f4 4948     		ldr	r0, .L19+68
 754 00f6 FFF7FEFF 		bl	initDNotchFilter
 755              	.LVL67:
 119:Core/drogui/src/sensorsTasks.c **** 
 120:Core/drogui/src/sensorsTasks.c ****     initFilter(&filter_ax, 4 , k_5_100, v_5_100);
 756              		.loc 1 120 5 view .LVU131
 757 00fa DFF86881 		ldr	r8, .L19+140
 758 00fe 484F     		ldr	r7, .L19+72
 759 0100 4346     		mov	r3, r8
 760 0102 3A46     		mov	r2, r7
 761 0104 0421     		movs	r1, #4
 762 0106 4748     		ldr	r0, .L19+76
 763 0108 FFF7FEFF 		bl	initFilter
 764              	.LVL68:
 121:Core/drogui/src/sensorsTasks.c ****     initFilter(&filter_ay, 4 , k_5_100, v_5_100);
 765              		.loc 1 121 5 view .LVU132
 766 010c 4346     		mov	r3, r8
 767 010e 3A46     		mov	r2, r7
 768 0110 0421     		movs	r1, #4
 769 0112 4548     		ldr	r0, .L19+80
 770 0114 FFF7FEFF 		bl	initFilter
 771              	.LVL69:
 122:Core/drogui/src/sensorsTasks.c ****     initFilter(&filter_az, 4 , k_5_100, v_5_100);
 772              		.loc 1 122 5 view .LVU133
 773 0118 4346     		mov	r3, r8
 774 011a 3A46     		mov	r2, r7
 775 011c 0421     		movs	r1, #4
 776 011e 4348     		ldr	r0, .L19+84
 777 0120 FFF7FEFF 		bl	initFilter
 778              	.LVL70:
 123:Core/drogui/src/sensorsTasks.c **** 
 124:Core/drogui/src/sensorsTasks.c **** 
 125:Core/drogui/src/sensorsTasks.c ****     initDNotchFilter(&dnotch_ax, 64, 40, 1000, 1, 1);
 779              		.loc 1 125 5 view .LVU134
 780 0124 DFED428A 		vldr.32	s17, .L19+88
 781 0128 F7EE001A 		vmov.f32	s3, #1.0e+0
 782 012c B0EE611A 		vmov.f32	s2, s3
 783 0130 F0EE480A 		vmov.f32	s1, s16
 784 0134 B0EE680A 		vmov.f32	s0, s17
 785 0138 4021     		movs	r1, #64
 786 013a 3E48     		ldr	r0, .L19+92
 787 013c FFF7FEFF 		bl	initDNotchFilter
 788              	.LVL71:
 126:Core/drogui/src/sensorsTasks.c ****     initDNotchFilter(&dnotch_ay, 64, 40, 1000, 1, 1);
 789              		.loc 1 126 5 view .LVU135
 790 0140 F7EE001A 		vmov.f32	s3, #1.0e+0
 791 0144 B0EE611A 		vmov.f32	s2, s3
 792 0148 F0EE480A 		vmov.f32	s1, s16
 793 014c B0EE680A 		vmov.f32	s0, s17
 794 0150 4021     		movs	r1, #64
 795 0152 3948     		ldr	r0, .L19+96
ARM GAS  C:\Users\USUARIO\AppData\Local\Temp\ccxSeDYU.s 			page 17


 796 0154 FFF7FEFF 		bl	initDNotchFilter
 797              	.LVL72:
 127:Core/drogui/src/sensorsTasks.c ****     initDNotchFilter(&dnotch_az, 64, 40, 1000, 1, 1);
 798              		.loc 1 127 5 view .LVU136
 799 0158 F7EE001A 		vmov.f32	s3, #1.0e+0
 800 015c B0EE611A 		vmov.f32	s2, s3
 801 0160 F0EE480A 		vmov.f32	s1, s16
 802 0164 B0EE680A 		vmov.f32	s0, s17
 803 0168 4021     		movs	r1, #64
 804 016a 3448     		ldr	r0, .L19+100
 805 016c FFF7FEFF 		bl	initDNotchFilter
 806              	.LVL73:
 128:Core/drogui/src/sensorsTasks.c ****     
 129:Core/drogui/src/sensorsTasks.c **** 
 130:Core/drogui/src/sensorsTasks.c ****     initFilter(&filter_roll, 4, k_1_10, v_1_10);
 807              		.loc 1 130 5 view .LVU137
 808 0170 2B46     		mov	r3, r5
 809 0172 2246     		mov	r2, r4
 810 0174 0421     		movs	r1, #4
 811 0176 3248     		ldr	r0, .L19+104
 812 0178 FFF7FEFF 		bl	initFilter
 813              	.LVL74:
 131:Core/drogui/src/sensorsTasks.c ****     initFilter(&filter_pitch, 4, k_1_10, v_1_10);
 814              		.loc 1 131 5 view .LVU138
 815 017c 2B46     		mov	r3, r5
 816 017e 2246     		mov	r2, r4
 817 0180 0421     		movs	r1, #4
 818 0182 3048     		ldr	r0, .L19+108
 819 0184 FFF7FEFF 		bl	initFilter
 820              	.LVL75:
 132:Core/drogui/src/sensorsTasks.c ****     initFilter(&filter_yaw, 4, k_1_10, v_1_10);
 821              		.loc 1 132 5 view .LVU139
 822 0188 2B46     		mov	r3, r5
 823 018a 2246     		mov	r2, r4
 824 018c 0421     		movs	r1, #4
 825 018e 2E48     		ldr	r0, .L19+112
 826 0190 FFF7FEFF 		bl	initFilter
 827              	.LVL76:
 133:Core/drogui/src/sensorsTasks.c **** 
 134:Core/drogui/src/sensorsTasks.c **** 
 135:Core/drogui/src/sensorsTasks.c ****     calibrateGyro(&myIMU);
 828              		.loc 1 135 5 view .LVU140
 829 0194 3046     		mov	r0, r6
 830 0196 FFF7FEFF 		bl	calibrateGyro
 831              	.LVL77:
 136:Core/drogui/src/sensorsTasks.c ****     calibrateAccel(&myIMU);
 832              		.loc 1 136 5 view .LVU141
 833 019a 3046     		mov	r0, r6
 834 019c FFF7FEFF 		bl	calibrateAccel
 835              	.LVL78:
 137:Core/drogui/src/sensorsTasks.c ****     //calibrateMag(&myIMU);
 138:Core/drogui/src/sensorsTasks.c ****     
 139:Core/drogui/src/sensorsTasks.c ****     addTask(&gyroTask, 1000, 2);
 836              		.loc 1 139 5 view .LVU142
 837 01a0 0222     		movs	r2, #2
 838 01a2 4FF47A71 		mov	r1, #1000
 839 01a6 2948     		ldr	r0, .L19+116
ARM GAS  C:\Users\USUARIO\AppData\Local\Temp\ccxSeDYU.s 			page 18


 840 01a8 FFF7FEFF 		bl	addTask
 841              	.LVL79:
 140:Core/drogui/src/sensorsTasks.c ****     addTask(&accelTask, 1000, 3);
 842              		.loc 1 140 5 view .LVU143
 843 01ac 0322     		movs	r2, #3
 844 01ae 4FF47A71 		mov	r1, #1000
 845 01b2 2748     		ldr	r0, .L19+120
 846 01b4 FFF7FEFF 		bl	addTask
 847              	.LVL80:
 141:Core/drogui/src/sensorsTasks.c ****     addTask(&magTask, 100000, 2);
 848              		.loc 1 141 5 view .LVU144
 849 01b8 0222     		movs	r2, #2
 850 01ba 2649     		ldr	r1, .L19+124
 851 01bc 2648     		ldr	r0, .L19+128
 852 01be FFF7FEFF 		bl	addTask
 853              	.LVL81:
 142:Core/drogui/src/sensorsTasks.c ****     addTask(&rpyTask, 2000, 2);
 854              		.loc 1 142 5 view .LVU145
 855 01c2 0222     		movs	r2, #2
 856 01c4 4FF4FA61 		mov	r1, #2000
 857 01c8 2448     		ldr	r0, .L19+132
 858 01ca FFF7FEFF 		bl	addTask
 859              	.LVL82:
 143:Core/drogui/src/sensorsTasks.c **** }...
 860              		.loc 1 143 1 is_stmt 0 view .LVU146
 861 01ce BDEC028B 		vldm	sp!, {d8}
 862              	.LCFI10:
 863              		.cfi_restore 80
 864              		.cfi_restore 81
 865              		.cfi_def_cfa_offset 24
 866 01d2 BDE8F081 		pop	{r4, r5, r6, r7, r8, pc}
 867              	.L20:
 868 01d6 00BF     		.align	2
 869              	.L19:
 870 01d8 00000000 		.word	.LANCHOR0
 871 01dc 00000000 		.word	v_1_10
 872 01e0 00000000 		.word	k_1_10
 873 01e4 00000000 		.word	.LANCHOR10
 874 01e8 00000000 		.word	.LANCHOR12
 875 01ec 00000000 		.word	.LANCHOR14
 876 01f0 00000000 		.word	k_3_10
 877 01f4 00000000 		.word	.LANCHOR16
 878 01f8 00000000 		.word	.LANCHOR17
 879 01fc 00000000 		.word	.LANCHOR18
 880 0200 00007A44 		.word	1148846080
 881 0204 00004842 		.word	1112014848
 882 0208 00000000 		.word	.LANCHOR19
 883 020c 00000000 		.word	.LANCHOR20
 884 0210 00000000 		.word	.LANCHOR21
 885 0214 00000000 		.word	.LANCHOR22
 886 0218 00000000 		.word	.LANCHOR23
 887 021c 00000000 		.word	.LANCHOR24
 888 0220 00000000 		.word	k_5_100
 889 0224 00000000 		.word	.LANCHOR1
 890 0228 00000000 		.word	.LANCHOR3
 891 022c 00000000 		.word	.LANCHOR5
 892 0230 00002042 		.word	1109393408
ARM GAS  C:\Users\USUARIO\AppData\Local\Temp\ccxSeDYU.s 			page 19


 893 0234 00000000 		.word	.LANCHOR7
 894 0238 00000000 		.word	.LANCHOR8
 895 023c 00000000 		.word	.LANCHOR9
 896 0240 00000000 		.word	.LANCHOR32
 897 0244 00000000 		.word	.LANCHOR33
 898 0248 00000000 		.word	.LANCHOR34
 899 024c 00000000 		.word	gyroTask
 900 0250 00000000 		.word	accelTask
 901 0254 A0860100 		.word	100000
 902 0258 00000000 		.word	magTask
 903 025c 00000000 		.word	rpyTask
 904 0260 00000000 		.word	v_3_10
 905 0264 00000000 		.word	v_5_100
 906              		.cfi_endproc
 907              	.LFE181:
 909              		.global	Kdfilt
 910              		.global	buff2
 911              		.global	z
 912              		.global	y
 913              		.global	x
 914              		.global	mz
 915              		.global	my
 916              		.global	mx
 917              		.global	gz
 918              		.global	gy
 919              		.global	gx
 920              		.global	az
 921              		.global	ay
 922              		.global	ax
 923              		.global	yaw
 924              		.global	pitch
 925              		.global	roll
 926              		.global	filter_yaw
 927              		.global	filter_pitch
 928              		.global	filter_roll
 929              		.global	dnotch_az
 930              		.global	dnotch_ay
 931              		.global	dnotch_ax
 932              		.global	filter_az
 933              		.global	filter_ay
 934              		.global	filter_ax
 935              		.global	dnotch_gz2
 936              		.global	dnotch_gy2
 937              		.global	dnotch_gx2
 938              		.global	dnotch_gz
 939              		.global	dnotch_gy
 940              		.global	dnotch_gx
 941              		.global	filter_gz2
 942              		.global	filter_gy2
 943              		.global	filter_gx2
 944              		.global	filter_gz
 945              		.global	filter_gy
 946              		.global	filter_gx
 947              		.global	myIMU
 948              		.section	.bss.ax,"aw",%nobits
 949              		.align	2
 950              		.set	.LANCHOR2,. + 0
ARM GAS  C:\Users\USUARIO\AppData\Local\Temp\ccxSeDYU.s 			page 20


 953              	ax:
 954 0000 00000000 		.space	4
 955              		.section	.bss.ay,"aw",%nobits
 956              		.align	2
 957              		.set	.LANCHOR4,. + 0
 960              	ay:
 961 0000 00000000 		.space	4
 962              		.section	.bss.az,"aw",%nobits
 963              		.align	2
 964              		.set	.LANCHOR6,. + 0
 967              	az:
 968 0000 00000000 		.space	4
 969              		.section	.bss.dnotch_ax,"aw",%nobits
 970              		.align	2
 971              		.set	.LANCHOR7,. + 0
 974              	dnotch_ax:
 975 0000 00000000 		.space	104
 975      00000000 
 975      00000000 
 975      00000000 
 975      00000000 
 976              		.section	.bss.dnotch_ay,"aw",%nobits
 977              		.align	2
 978              		.set	.LANCHOR8,. + 0
 981              	dnotch_ay:
 982 0000 00000000 		.space	104
 982      00000000 
 982      00000000 
 982      00000000 
 982      00000000 
 983              		.section	.bss.dnotch_az,"aw",%nobits
 984              		.align	2
 985              		.set	.LANCHOR9,. + 0
 988              	dnotch_az:
 989 0000 00000000 		.space	104
 989      00000000 
 989      00000000 
 989      00000000 
 989      00000000 
 990              		.section	.bss.dnotch_gx,"aw",%nobits
 991              		.align	2
 992              		.set	.LANCHOR19,. + 0
 995              	dnotch_gx:
 996 0000 00000000 		.space	104
 996      00000000 
 996      00000000 
 996      00000000 
 996      00000000 
 997              		.section	.bss.dnotch_gx2,"aw",%nobits
 998              		.align	2
 999              		.set	.LANCHOR22,. + 0
 1002              	dnotch_gx2:
 1003 0000 00000000 		.space	104
 1003      00000000 
 1003      00000000 
 1003      00000000 
 1003      00000000 
ARM GAS  C:\Users\USUARIO\AppData\Local\Temp\ccxSeDYU.s 			page 21


 1004              		.section	.bss.dnotch_gy,"aw",%nobits
 1005              		.align	2
 1006              		.set	.LANCHOR20,. + 0
 1009              	dnotch_gy:
 1010 0000 00000000 		.space	104
 1010      00000000 
 1010      00000000 
 1010      00000000 
 1010      00000000 
 1011              		.section	.bss.dnotch_gy2,"aw",%nobits
 1012              		.align	2
 1013              		.set	.LANCHOR23,. + 0
 1016              	dnotch_gy2:
 1017 0000 00000000 		.space	104
 1017      00000000 
 1017      00000000 
 1017      00000000 
 1017      00000000 
 1018              		.section	.bss.dnotch_gz,"aw",%nobits
 1019              		.align	2
 1020              		.set	.LANCHOR21,. + 0
 1023              	dnotch_gz:
 1024 0000 00000000 		.space	104
 1024      00000000 
 1024      00000000 
 1024      00000000 
 1024      00000000 
 1025              		.section	.bss.dnotch_gz2,"aw",%nobits
 1026              		.align	2
 1027              		.set	.LANCHOR24,. + 0
 1030              	dnotch_gz2:
 1031 0000 00000000 		.space	104
 1031      00000000 
 1031      00000000 
 1031      00000000 
 1031      00000000 
 1032              		.section	.bss.filter_ax,"aw",%nobits
 1033              		.align	2
 1034              		.set	.LANCHOR1,. + 0
 1037              	filter_ax:
 1038 0000 00000000 		.space	20
 1038      00000000 
 1038      00000000 
 1038      00000000 
 1038      00000000 
 1039              		.section	.bss.filter_ay,"aw",%nobits
 1040              		.align	2
 1041              		.set	.LANCHOR3,. + 0
 1044              	filter_ay:
 1045 0000 00000000 		.space	20
 1045      00000000 
 1045      00000000 
 1045      00000000 
 1045      00000000 
 1046              		.section	.bss.filter_az,"aw",%nobits
 1047              		.align	2
 1048              		.set	.LANCHOR5,. + 0
ARM GAS  C:\Users\USUARIO\AppData\Local\Temp\ccxSeDYU.s 			page 22


 1051              	filter_az:
 1052 0000 00000000 		.space	20
 1052      00000000 
 1052      00000000 
 1052      00000000 
 1052      00000000 
 1053              		.section	.bss.filter_gx,"aw",%nobits
 1054              		.align	2
 1055              		.set	.LANCHOR10,. + 0
 1058              	filter_gx:
 1059 0000 00000000 		.space	20
 1059      00000000 
 1059      00000000 
 1059      00000000 
 1059      00000000 
 1060              		.section	.bss.filter_gx2,"aw",%nobits
 1061              		.align	2
 1062              		.set	.LANCHOR16,. + 0
 1065              	filter_gx2:
 1066 0000 00000000 		.space	20
 1066      00000000 
 1066      00000000 
 1066      00000000 
 1066      00000000 
 1067              		.section	.bss.filter_gy,"aw",%nobits
 1068              		.align	2
 1069              		.set	.LANCHOR12,. + 0
 1072              	filter_gy:
 1073 0000 00000000 		.space	20
 1073      00000000 
 1073      00000000 
 1073      00000000 
 1073      00000000 
 1074              		.section	.bss.filter_gy2,"aw",%nobits
 1075              		.align	2
 1076              		.set	.LANCHOR17,. + 0
 1079              	filter_gy2:
 1080 0000 00000000 		.space	20
 1080      00000000 
 1080      00000000 
 1080      00000000 
 1080      00000000 
 1081              		.section	.bss.filter_gz,"aw",%nobits
 1082              		.align	2
 1083              		.set	.LANCHOR14,. + 0
 1086              	filter_gz:
 1087 0000 00000000 		.space	20
 1087      00000000 
 1087      00000000 
 1087      00000000 
 1087      00000000 
 1088              		.section	.bss.filter_gz2,"aw",%nobits
 1089              		.align	2
 1090              		.set	.LANCHOR18,. + 0
 1093              	filter_gz2:
 1094 0000 00000000 		.space	20
 1094      00000000 
ARM GAS  C:\Users\USUARIO\AppData\Local\Temp\ccxSeDYU.s 			page 23


 1094      00000000 
 1094      00000000 
 1094      00000000 
 1095              		.section	.bss.filter_pitch,"aw",%nobits
 1096              		.align	2
 1097              		.set	.LANCHOR33,. + 0
 1100              	filter_pitch:
 1101 0000 00000000 		.space	20
 1101      00000000 
 1101      00000000 
 1101      00000000 
 1101      00000000 
 1102              		.section	.bss.filter_roll,"aw",%nobits
 1103              		.align	2
 1104              		.set	.LANCHOR32,. + 0
 1107              	filter_roll:
 1108 0000 00000000 		.space	20
 1108      00000000 
 1108      00000000 
 1108      00000000 
 1108      00000000 
 1109              		.section	.bss.filter_yaw,"aw",%nobits
 1110              		.align	2
 1111              		.set	.LANCHOR34,. + 0
 1114              	filter_yaw:
 1115 0000 00000000 		.space	20
 1115      00000000 
 1115      00000000 
 1115      00000000 
 1115      00000000 
 1116              		.section	.bss.gx,"aw",%nobits
 1117              		.align	2
 1118              		.set	.LANCHOR11,. + 0
 1121              	gx:
 1122 0000 00000000 		.space	4
 1123              		.section	.bss.gy,"aw",%nobits
 1124              		.align	2
 1125              		.set	.LANCHOR13,. + 0
 1128              	gy:
 1129 0000 00000000 		.space	4
 1130              		.section	.bss.gz,"aw",%nobits
 1131              		.align	2
 1132              		.set	.LANCHOR15,. + 0
 1135              	gz:
 1136 0000 00000000 		.space	4
 1137              		.section	.bss.mx,"aw",%nobits
 1138              		.align	2
 1139              		.set	.LANCHOR25,. + 0
 1142              	mx:
 1143 0000 00000000 		.space	4
 1144              		.section	.bss.my,"aw",%nobits
 1145              		.align	2
 1146              		.set	.LANCHOR26,. + 0
 1149              	my:
 1150 0000 00000000 		.space	4
 1151              		.section	.bss.myIMU,"aw",%nobits
 1152              		.align	2
ARM GAS  C:\Users\USUARIO\AppData\Local\Temp\ccxSeDYU.s 			page 24


 1153              		.set	.LANCHOR0,. + 0
 1156              	myIMU:
 1157 0000 00000000 		.space	140
 1157      00000000 
 1157      00000000 
 1157      00000000 
 1157      00000000 
 1158              		.section	.bss.mz,"aw",%nobits
 1159              		.align	2
 1160              		.set	.LANCHOR27,. + 0
 1163              	mz:
 1164 0000 00000000 		.space	4
 1165              		.section	.bss.pitch,"aw",%nobits
 1166              		.align	2
 1167              		.set	.LANCHOR30,. + 0
 1170              	pitch:
 1171 0000 00000000 		.space	4
 1172              		.section	.bss.roll,"aw",%nobits
 1173              		.align	2
 1174              		.set	.LANCHOR28,. + 0
 1177              	roll:
 1178 0000 00000000 		.space	4
 1179              		.section	.bss.x,"aw",%nobits
 1180              		.align	2
 1183              	x:
 1184 0000 00000000 		.space	4
 1185              		.section	.bss.y,"aw",%nobits
 1186              		.align	2
 1189              	y:
 1190 0000 00000000 		.space	4
 1191              		.section	.bss.yaw,"aw",%nobits
 1192              		.align	2
 1193              		.set	.LANCHOR31,. + 0
 1196              	yaw:
 1197 0000 00000000 		.space	4
 1198              		.section	.bss.z,"aw",%nobits
 1199              		.align	2
 1202              	z:
 1203 0000 00000000 		.space	4
 1204              		.section	.data.Kdfilt,"aw"
 1205              		.align	2
 1206              		.set	.LANCHOR29,. + 0
 1209              	Kdfilt:
 1210 0000 6F12833A 		.word	981668463
 1211              		.section	.data.buff2,"aw"
 1212              		.align	2
 1215              	buff2:
 1216 0000 686F6C61 		.ascii	"hola\012\000"
 1216      0A00
 1217 0006 00000000 		.space	44
 1217      00000000 
 1217      00000000 
 1217      00000000 
 1217      00000000 
 1218              		.text
 1219              	.Letext0:
 1220              		.file 2 "c:\\program files (x86)\\gnu arm embedded toolchain\\10 2020-q4-major\\arm-none-eabi\\inc
ARM GAS  C:\Users\USUARIO\AppData\Local\Temp\ccxSeDYU.s 			page 25


 1221              		.file 3 "c:\\program files (x86)\\gnu arm embedded toolchain\\10 2020-q4-major\\arm-none-eabi\\inc
 1222              		.file 4 "Drivers/CMSIS/DSP/Include/arm_math.h"
 1223              		.file 5 "Core/drogui/include/filter.h"
 1224              		.file 6 "Core/drogui/include/MPU9250.h"
 1225              		.file 7 "Core/drogui/include/utils.h"
 1226              		.file 8 "Core/drogui/include/sensorsTasks.h"
 1227              		.file 9 "Core/drogui/include/task.h"
 1228              		.file 10 "Core/drogui/include/mahony.h"
 1229              		.file 11 "c:\\program files (x86)\\gnu arm embedded toolchain\\10 2020-q4-major\\arm-none-eabi\\in
ARM GAS  C:\Users\USUARIO\AppData\Local\Temp\ccxSeDYU.s 			page 26


DEFINED SYMBOLS
                            *ABS*:00000000 sensorsTasks.c
C:\Users\USUARIO\AppData\Local\Temp\ccxSeDYU.s:18     .text.accelTask:00000000 $t
C:\Users\USUARIO\AppData\Local\Temp\ccxSeDYU.s:26     .text.accelTask:00000000 accelTask
C:\Users\USUARIO\AppData\Local\Temp\ccxSeDYU.s:116    .text.accelTask:00000084 $d
C:\Users\USUARIO\AppData\Local\Temp\ccxSeDYU.s:130    .text.gyroTask:00000000 $t
C:\Users\USUARIO\AppData\Local\Temp\ccxSeDYU.s:137    .text.gyroTask:00000000 gyroTask
C:\Users\USUARIO\AppData\Local\Temp\ccxSeDYU.s:288    .text.gyroTask:000000f8 $d
C:\Users\USUARIO\AppData\Local\Temp\ccxSeDYU.s:308    .text.magTask:00000000 $t
C:\Users\USUARIO\AppData\Local\Temp\ccxSeDYU.s:315    .text.magTask:00000000 magTask
C:\Users\USUARIO\AppData\Local\Temp\ccxSeDYU.s:354    .text.magTask:00000020 $d
C:\Users\USUARIO\AppData\Local\Temp\ccxSeDYU.s:365    .text.rpyTask:00000000 $t
C:\Users\USUARIO\AppData\Local\Temp\ccxSeDYU.s:372    .text.rpyTask:00000000 rpyTask
C:\Users\USUARIO\AppData\Local\Temp\ccxSeDYU.s:602    .text.rpyTask:000001c4 $d
C:\Users\USUARIO\AppData\Local\Temp\ccxSeDYU.s:622    .text.initSensorsTasks:00000000 $t
C:\Users\USUARIO\AppData\Local\Temp\ccxSeDYU.s:629    .text.initSensorsTasks:00000000 initSensorsTasks
C:\Users\USUARIO\AppData\Local\Temp\ccxSeDYU.s:870    .text.initSensorsTasks:000001d8 $d
C:\Users\USUARIO\AppData\Local\Temp\ccxSeDYU.s:1209   .data.Kdfilt:00000000 Kdfilt
C:\Users\USUARIO\AppData\Local\Temp\ccxSeDYU.s:1215   .data.buff2:00000000 buff2
C:\Users\USUARIO\AppData\Local\Temp\ccxSeDYU.s:1202   .bss.z:00000000 z
C:\Users\USUARIO\AppData\Local\Temp\ccxSeDYU.s:1189   .bss.y:00000000 y
C:\Users\USUARIO\AppData\Local\Temp\ccxSeDYU.s:1183   .bss.x:00000000 x
C:\Users\USUARIO\AppData\Local\Temp\ccxSeDYU.s:1163   .bss.mz:00000000 mz
C:\Users\USUARIO\AppData\Local\Temp\ccxSeDYU.s:1149   .bss.my:00000000 my
C:\Users\USUARIO\AppData\Local\Temp\ccxSeDYU.s:1142   .bss.mx:00000000 mx
C:\Users\USUARIO\AppData\Local\Temp\ccxSeDYU.s:1135   .bss.gz:00000000 gz
C:\Users\USUARIO\AppData\Local\Temp\ccxSeDYU.s:1128   .bss.gy:00000000 gy
C:\Users\USUARIO\AppData\Local\Temp\ccxSeDYU.s:1121   .bss.gx:00000000 gx
C:\Users\USUARIO\AppData\Local\Temp\ccxSeDYU.s:967    .bss.az:00000000 az
C:\Users\USUARIO\AppData\Local\Temp\ccxSeDYU.s:960    .bss.ay:00000000 ay
C:\Users\USUARIO\AppData\Local\Temp\ccxSeDYU.s:953    .bss.ax:00000000 ax
C:\Users\USUARIO\AppData\Local\Temp\ccxSeDYU.s:1196   .bss.yaw:00000000 yaw
C:\Users\USUARIO\AppData\Local\Temp\ccxSeDYU.s:1170   .bss.pitch:00000000 pitch
C:\Users\USUARIO\AppData\Local\Temp\ccxSeDYU.s:1177   .bss.roll:00000000 roll
C:\Users\USUARIO\AppData\Local\Temp\ccxSeDYU.s:1114   .bss.filter_yaw:00000000 filter_yaw
C:\Users\USUARIO\AppData\Local\Temp\ccxSeDYU.s:1100   .bss.filter_pitch:00000000 filter_pitch
C:\Users\USUARIO\AppData\Local\Temp\ccxSeDYU.s:1107   .bss.filter_roll:00000000 filter_roll
C:\Users\USUARIO\AppData\Local\Temp\ccxSeDYU.s:988    .bss.dnotch_az:00000000 dnotch_az
C:\Users\USUARIO\AppData\Local\Temp\ccxSeDYU.s:981    .bss.dnotch_ay:00000000 dnotch_ay
C:\Users\USUARIO\AppData\Local\Temp\ccxSeDYU.s:974    .bss.dnotch_ax:00000000 dnotch_ax
C:\Users\USUARIO\AppData\Local\Temp\ccxSeDYU.s:1051   .bss.filter_az:00000000 filter_az
C:\Users\USUARIO\AppData\Local\Temp\ccxSeDYU.s:1044   .bss.filter_ay:00000000 filter_ay
C:\Users\USUARIO\AppData\Local\Temp\ccxSeDYU.s:1037   .bss.filter_ax:00000000 filter_ax
C:\Users\USUARIO\AppData\Local\Temp\ccxSeDYU.s:1030   .bss.dnotch_gz2:00000000 dnotch_gz2
C:\Users\USUARIO\AppData\Local\Temp\ccxSeDYU.s:1016   .bss.dnotch_gy2:00000000 dnotch_gy2
C:\Users\USUARIO\AppData\Local\Temp\ccxSeDYU.s:1002   .bss.dnotch_gx2:00000000 dnotch_gx2
C:\Users\USUARIO\AppData\Local\Temp\ccxSeDYU.s:1023   .bss.dnotch_gz:00000000 dnotch_gz
C:\Users\USUARIO\AppData\Local\Temp\ccxSeDYU.s:1009   .bss.dnotch_gy:00000000 dnotch_gy
C:\Users\USUARIO\AppData\Local\Temp\ccxSeDYU.s:995    .bss.dnotch_gx:00000000 dnotch_gx
C:\Users\USUARIO\AppData\Local\Temp\ccxSeDYU.s:1093   .bss.filter_gz2:00000000 filter_gz2
C:\Users\USUARIO\AppData\Local\Temp\ccxSeDYU.s:1079   .bss.filter_gy2:00000000 filter_gy2
C:\Users\USUARIO\AppData\Local\Temp\ccxSeDYU.s:1065   .bss.filter_gx2:00000000 filter_gx2
C:\Users\USUARIO\AppData\Local\Temp\ccxSeDYU.s:1086   .bss.filter_gz:00000000 filter_gz
C:\Users\USUARIO\AppData\Local\Temp\ccxSeDYU.s:1072   .bss.filter_gy:00000000 filter_gy
C:\Users\USUARIO\AppData\Local\Temp\ccxSeDYU.s:1058   .bss.filter_gx:00000000 filter_gx
C:\Users\USUARIO\AppData\Local\Temp\ccxSeDYU.s:1156   .bss.myIMU:00000000 myIMU
C:\Users\USUARIO\AppData\Local\Temp\ccxSeDYU.s:949    .bss.ax:00000000 $d
ARM GAS  C:\Users\USUARIO\AppData\Local\Temp\ccxSeDYU.s 			page 27


C:\Users\USUARIO\AppData\Local\Temp\ccxSeDYU.s:956    .bss.ay:00000000 $d
C:\Users\USUARIO\AppData\Local\Temp\ccxSeDYU.s:963    .bss.az:00000000 $d
C:\Users\USUARIO\AppData\Local\Temp\ccxSeDYU.s:970    .bss.dnotch_ax:00000000 $d
C:\Users\USUARIO\AppData\Local\Temp\ccxSeDYU.s:977    .bss.dnotch_ay:00000000 $d
C:\Users\USUARIO\AppData\Local\Temp\ccxSeDYU.s:984    .bss.dnotch_az:00000000 $d
C:\Users\USUARIO\AppData\Local\Temp\ccxSeDYU.s:991    .bss.dnotch_gx:00000000 $d
C:\Users\USUARIO\AppData\Local\Temp\ccxSeDYU.s:998    .bss.dnotch_gx2:00000000 $d
C:\Users\USUARIO\AppData\Local\Temp\ccxSeDYU.s:1005   .bss.dnotch_gy:00000000 $d
C:\Users\USUARIO\AppData\Local\Temp\ccxSeDYU.s:1012   .bss.dnotch_gy2:00000000 $d
C:\Users\USUARIO\AppData\Local\Temp\ccxSeDYU.s:1019   .bss.dnotch_gz:00000000 $d
C:\Users\USUARIO\AppData\Local\Temp\ccxSeDYU.s:1026   .bss.dnotch_gz2:00000000 $d
C:\Users\USUARIO\AppData\Local\Temp\ccxSeDYU.s:1033   .bss.filter_ax:00000000 $d
C:\Users\USUARIO\AppData\Local\Temp\ccxSeDYU.s:1040   .bss.filter_ay:00000000 $d
C:\Users\USUARIO\AppData\Local\Temp\ccxSeDYU.s:1047   .bss.filter_az:00000000 $d
C:\Users\USUARIO\AppData\Local\Temp\ccxSeDYU.s:1054   .bss.filter_gx:00000000 $d
C:\Users\USUARIO\AppData\Local\Temp\ccxSeDYU.s:1061   .bss.filter_gx2:00000000 $d
C:\Users\USUARIO\AppData\Local\Temp\ccxSeDYU.s:1068   .bss.filter_gy:00000000 $d
C:\Users\USUARIO\AppData\Local\Temp\ccxSeDYU.s:1075   .bss.filter_gy2:00000000 $d
C:\Users\USUARIO\AppData\Local\Temp\ccxSeDYU.s:1082   .bss.filter_gz:00000000 $d
C:\Users\USUARIO\AppData\Local\Temp\ccxSeDYU.s:1089   .bss.filter_gz2:00000000 $d
C:\Users\USUARIO\AppData\Local\Temp\ccxSeDYU.s:1096   .bss.filter_pitch:00000000 $d
C:\Users\USUARIO\AppData\Local\Temp\ccxSeDYU.s:1103   .bss.filter_roll:00000000 $d
C:\Users\USUARIO\AppData\Local\Temp\ccxSeDYU.s:1110   .bss.filter_yaw:00000000 $d
C:\Users\USUARIO\AppData\Local\Temp\ccxSeDYU.s:1117   .bss.gx:00000000 $d
C:\Users\USUARIO\AppData\Local\Temp\ccxSeDYU.s:1124   .bss.gy:00000000 $d
C:\Users\USUARIO\AppData\Local\Temp\ccxSeDYU.s:1131   .bss.gz:00000000 $d
C:\Users\USUARIO\AppData\Local\Temp\ccxSeDYU.s:1138   .bss.mx:00000000 $d
C:\Users\USUARIO\AppData\Local\Temp\ccxSeDYU.s:1145   .bss.my:00000000 $d
C:\Users\USUARIO\AppData\Local\Temp\ccxSeDYU.s:1152   .bss.myIMU:00000000 $d
C:\Users\USUARIO\AppData\Local\Temp\ccxSeDYU.s:1159   .bss.mz:00000000 $d
C:\Users\USUARIO\AppData\Local\Temp\ccxSeDYU.s:1166   .bss.pitch:00000000 $d
C:\Users\USUARIO\AppData\Local\Temp\ccxSeDYU.s:1173   .bss.roll:00000000 $d
C:\Users\USUARIO\AppData\Local\Temp\ccxSeDYU.s:1180   .bss.x:00000000 $d
C:\Users\USUARIO\AppData\Local\Temp\ccxSeDYU.s:1186   .bss.y:00000000 $d
C:\Users\USUARIO\AppData\Local\Temp\ccxSeDYU.s:1192   .bss.yaw:00000000 $d
C:\Users\USUARIO\AppData\Local\Temp\ccxSeDYU.s:1199   .bss.z:00000000 $d
C:\Users\USUARIO\AppData\Local\Temp\ccxSeDYU.s:1205   .data.Kdfilt:00000000 $d
C:\Users\USUARIO\AppData\Local\Temp\ccxSeDYU.s:1212   .data.buff2:00000000 $d

UNDEFINED SYMBOLS
readAcc
computeFilter
computeDNotch
setReg
readGyro
readMag
__aeabi_f2d
__aeabi_dadd
__aeabi_d2f
mahonyUpdate
getMahonyEuler
fmin
fmax
initMpu
initFilter
initDNotchFilter
calibrateGyro
ARM GAS  C:\Users\USUARIO\AppData\Local\Temp\ccxSeDYU.s 			page 28


calibrateAccel
addTask
v_1_10
k_1_10
k_3_10
k_5_100
v_3_10
v_5_100
