ARM GAS  C:\Users\julit\AppData\Local\Temp\ccz9VUNc.s 			page 1


   1              		.cpu cortex-m7
   2              		.eabi_attribute 27, 1
   3              		.eabi_attribute 28, 1
   4              		.eabi_attribute 20, 1
   5              		.eabi_attribute 21, 1
   6              		.eabi_attribute 23, 3
   7              		.eabi_attribute 24, 1
   8              		.eabi_attribute 25, 1
   9              		.eabi_attribute 26, 1
  10              		.eabi_attribute 30, 1
  11              		.eabi_attribute 34, 1
  12              		.eabi_attribute 18, 4
  13              		.file	"task.c"
  14              		.text
  15              	.Ltext0:
  16              		.cfi_sections	.debug_frame
  17              		.section	.text.executeTask,"ax",%progbits
  18              		.align	1
  19              		.global	executeTask
  20              		.arch armv7e-m
  21              		.syntax unified
  22              		.thumb
  23              		.thumb_func
  24              		.fpu fpv5-sp-d16
  26              	executeTask:
  27              	.LVL0:
  28              	.LFB144:
  29              		.file 1 "Core/drogui/src/task.c"
   1:Core/drogui/src/task.c **** #include "task.h"
   2:Core/drogui/src/task.c **** #include "usart.h"
   3:Core/drogui/src/task.c **** #include "string.h"
   4:Core/drogui/src/task.c **** #include "stdio.h"
   5:Core/drogui/src/task.c **** #include <stdbool.h>
   6:Core/drogui/src/task.c **** int tasks_count = 0;
   7:Core/drogui/src/task.c **** 
   8:Core/drogui/src/task.c **** typedef struct _task{
   9:Core/drogui/src/task.c ****     uint32_t period, last_time;
  10:Core/drogui/src/task.c ****     int priority, ignored;
  11:Core/drogui/src/task.c ****     void (*function) ();
  12:Core/drogui/src/task.c **** } task;
  13:Core/drogui/src/task.c **** 
  14:Core/drogui/src/task.c **** 
  15:Core/drogui/src/task.c **** task Tasks[100]; 
  16:Core/drogui/src/task.c **** 
  17:Core/drogui/src/task.c **** 
  18:Core/drogui/src/task.c **** void executeTask(task* t){
  30              		.loc 1 18 26 view -0
  31              		.cfi_startproc
  32              		@ args = 0, pretend = 0, frame = 0
  33              		@ frame_needed = 0, uses_anonymous_args = 0
  34              		.loc 1 18 26 is_stmt 0 view .LVU1
  35 0000 08B5     		push	{r3, lr}
  36              	.LCFI0:
  37              		.cfi_def_cfa_offset 8
  38              		.cfi_offset 3, -8
  39              		.cfi_offset 14, -4
  19:Core/drogui/src/task.c ****     t->last_time = TIME;
ARM GAS  C:\Users\julit\AppData\Local\Temp\ccz9VUNc.s 			page 2


  40              		.loc 1 19 5 is_stmt 1 view .LVU2
  41              		.loc 1 19 20 is_stmt 0 view .LVU3
  42 0002 034B     		ldr	r3, .L3
  43 0004 1B68     		ldr	r3, [r3]
  44 0006 5B6A     		ldr	r3, [r3, #36]
  45              		.loc 1 19 18 view .LVU4
  46 0008 4360     		str	r3, [r0, #4]
  20:Core/drogui/src/task.c ****     t->function();
  47              		.loc 1 20 5 is_stmt 1 view .LVU5
  48              		.loc 1 20 6 is_stmt 0 view .LVU6
  49 000a 0369     		ldr	r3, [r0, #16]
  50              		.loc 1 20 5 view .LVU7
  51 000c 9847     		blx	r3
  52              	.LVL1:
  21:Core/drogui/src/task.c **** }
  53              		.loc 1 21 1 view .LVU8
  54 000e 08BD     		pop	{r3, pc}
  55              	.L4:
  56              		.align	2
  57              	.L3:
  58 0010 00000000 		.word	htim5
  59              		.cfi_endproc
  60              	.LFE144:
  62              		.section	.text.isTaskReady,"ax",%progbits
  63              		.align	1
  64              		.global	isTaskReady
  65              		.syntax unified
  66              		.thumb
  67              		.thumb_func
  68              		.fpu fpv5-sp-d16
  70              	isTaskReady:
  71              	.LVL2:
  72              	.LFB145:
  22:Core/drogui/src/task.c **** 
  23:Core/drogui/src/task.c **** bool isTaskReady(task* t){
  73              		.loc 1 23 26 is_stmt 1 view -0
  74              		.cfi_startproc
  75              		@ args = 0, pretend = 0, frame = 0
  76              		@ frame_needed = 0, uses_anonymous_args = 0
  77              		@ link register save eliminated.
  24:Core/drogui/src/task.c ****     return (TIME - (t->last_time)) > (t->period);
  78              		.loc 1 24 5 view .LVU10
  79              		.loc 1 24 13 is_stmt 0 view .LVU11
  80 0000 054B     		ldr	r3, .L6
  81 0002 1B68     		ldr	r3, [r3]
  82 0004 5B6A     		ldr	r3, [r3, #36]
  83              		.loc 1 24 22 view .LVU12
  84 0006 4268     		ldr	r2, [r0, #4]
  85              		.loc 1 24 18 view .LVU13
  86 0008 9B1A     		subs	r3, r3, r2
  87              		.loc 1 24 40 view .LVU14
  88 000a 0068     		ldr	r0, [r0]
  89              	.LVL3:
  25:Core/drogui/src/task.c **** }
  90              		.loc 1 25 1 view .LVU15
  91 000c 8342     		cmp	r3, r0
  92 000e 94BF     		ite	ls
ARM GAS  C:\Users\julit\AppData\Local\Temp\ccz9VUNc.s 			page 3


  93 0010 0020     		movls	r0, #0
  94 0012 0120     		movhi	r0, #1
  95 0014 7047     		bx	lr
  96              	.L7:
  97 0016 00BF     		.align	2
  98              	.L6:
  99 0018 00000000 		.word	htim5
 100              		.cfi_endproc
 101              	.LFE145:
 103              		.section	.text.addTask,"ax",%progbits
 104              		.align	1
 105              		.global	addTask
 106              		.syntax unified
 107              		.thumb
 108              		.thumb_func
 109              		.fpu fpv5-sp-d16
 111              	addTask:
 112              	.LVL4:
 113              	.LFB146:
  26:Core/drogui/src/task.c **** 
  27:Core/drogui/src/task.c **** void addTask(void (*f) (), uint32_t period, int priority){
 114              		.loc 1 27 58 is_stmt 1 view -0
 115              		.cfi_startproc
 116              		@ args = 0, pretend = 0, frame = 0
 117              		@ frame_needed = 0, uses_anonymous_args = 0
 118              		.loc 1 27 58 is_stmt 0 view .LVU17
 119 0000 30B5     		push	{r4, r5, lr}
 120              	.LCFI1:
 121              		.cfi_def_cfa_offset 12
 122              		.cfi_offset 4, -12
 123              		.cfi_offset 5, -8
 124              		.cfi_offset 14, -4
  28:Core/drogui/src/task.c ****     Tasks[tasks_count].period = period;
 125              		.loc 1 28 5 is_stmt 1 view .LVU18
 126              		.loc 1 28 23 is_stmt 0 view .LVU19
 127 0002 094D     		ldr	r5, .L10
 128 0004 2B68     		ldr	r3, [r5]
 129              		.loc 1 28 31 view .LVU20
 130 0006 094C     		ldr	r4, .L10+4
 131 0008 03EB830E 		add	lr, r3, r3, lsl #2
 132 000c 04EB8E0C 		add	ip, r4, lr, lsl #2
 133 0010 44F82E10 		str	r1, [r4, lr, lsl #2]
  29:Core/drogui/src/task.c ****     Tasks[tasks_count].priority = priority;
 134              		.loc 1 29 5 is_stmt 1 view .LVU21
 135              		.loc 1 29 33 is_stmt 0 view .LVU22
 136 0014 CCF80820 		str	r2, [ip, #8]
  30:Core/drogui/src/task.c ****     Tasks[tasks_count].ignored = 0;
 137              		.loc 1 30 5 is_stmt 1 view .LVU23
 138              		.loc 1 30 32 is_stmt 0 view .LVU24
 139 0018 0022     		movs	r2, #0
 140              	.LVL5:
 141              		.loc 1 30 32 view .LVU25
 142 001a CCF80C20 		str	r2, [ip, #12]
  31:Core/drogui/src/task.c ****     Tasks[tasks_count++].function = f;
 143              		.loc 1 31 5 is_stmt 1 view .LVU26
 144              		.loc 1 31 22 is_stmt 0 view .LVU27
 145 001e 5A1C     		adds	r2, r3, #1
ARM GAS  C:\Users\julit\AppData\Local\Temp\ccz9VUNc.s 			page 4


 146 0020 2A60     		str	r2, [r5]
 147              		.loc 1 31 35 view .LVU28
 148 0022 CCF81000 		str	r0, [ip, #16]
  32:Core/drogui/src/task.c **** }
 149              		.loc 1 32 1 view .LVU29
 150 0026 30BD     		pop	{r4, r5, pc}
 151              	.L11:
 152              		.align	2
 153              	.L10:
 154 0028 00000000 		.word	.LANCHOR0
 155 002c 00000000 		.word	.LANCHOR1
 156              		.cfi_endproc
 157              	.LFE146:
 159              		.section	.rodata.initRTOS.str1.4,"aMS",%progbits,1
 160              		.align	2
 161              	.LC0:
 162 0000 496E6974 		.ascii	"Init %d\011%lu;\012\000"
 162      20256409 
 162      256C753B 
 162      0A00
 163              		.section	.text.initRTOS,"ax",%progbits
 164              		.align	1
 165              		.global	initRTOS
 166              		.syntax unified
 167              		.thumb
 168              		.thumb_func
 169              		.fpu fpv5-sp-d16
 171              	initRTOS:
 172              	.LFB147:
  33:Core/drogui/src/task.c **** char buffer3[100];
  34:Core/drogui/src/task.c **** void initRTOS(){
 173              		.loc 1 34 16 is_stmt 1 view -0
 174              		.cfi_startproc
 175              		@ args = 0, pretend = 0, frame = 0
 176              		@ frame_needed = 0, uses_anonymous_args = 0
 177 0000 2DE9F041 		push	{r4, r5, r6, r7, r8, lr}
 178              	.LCFI2:
 179              		.cfi_def_cfa_offset 24
 180              		.cfi_offset 4, -24
 181              		.cfi_offset 5, -20
 182              		.cfi_offset 6, -16
 183              		.cfi_offset 7, -12
 184              		.cfi_offset 8, -8
 185              		.cfi_offset 14, -4
 186 0004 32E0     		b	.L19
 187              	.LVL6:
 188              	.L14:
 189              	.LBB2:
 190              	.LBB3:
  35:Core/drogui/src/task.c ****     while(1){
  36:Core/drogui/src/task.c ****         
  37:Core/drogui/src/task.c ****         int max_score = 0, id = -1;
  38:Core/drogui/src/task.c ****         
  39:Core/drogui/src/task.c ****         for(int i = 0; i < tasks_count; i++){
 191              		.loc 1 39 41 discriminator 2 view .LVU31
 192              		.loc 1 39 42 is_stmt 0 discriminator 2 view .LVU32
 193 0006 0134     		adds	r4, r4, #1
ARM GAS  C:\Users\julit\AppData\Local\Temp\ccz9VUNc.s 			page 5


 194              	.LVL7:
 195              	.L13:
 196              		.loc 1 39 24 is_stmt 1 discriminator 1 view .LVU33
 197              		.loc 1 39 26 is_stmt 0 discriminator 1 view .LVU34
 198 0008 2A4B     		ldr	r3, .L27
 199 000a 1B68     		ldr	r3, [r3]
 200              		.loc 1 39 9 discriminator 1 view .LVU35
 201 000c A342     		cmp	r3, r4
 202 000e 10DD     		ble	.L23
 203              	.LBB4:
  40:Core/drogui/src/task.c ****             int score = Tasks[i].priority + Tasks[i].ignored;
 204              		.loc 1 40 13 is_stmt 1 view .LVU36
 205              		.loc 1 40 33 is_stmt 0 view .LVU37
 206 0010 04EB8400 		add	r0, r4, r4, lsl #2
 207 0014 284B     		ldr	r3, .L27+4
 208 0016 03EB8000 		add	r0, r3, r0, lsl #2
 209 001a 8368     		ldr	r3, [r0, #8]
 210              		.loc 1 40 53 view .LVU38
 211 001c C768     		ldr	r7, [r0, #12]
 212              		.loc 1 40 17 view .LVU39
 213 001e 1F44     		add	r7, r7, r3
 214              	.LVL8:
  41:Core/drogui/src/task.c ****             if(isTaskReady(&Tasks[i]) && max_score < score)
 215              		.loc 1 41 13 is_stmt 1 view .LVU40
 216              		.loc 1 41 16 is_stmt 0 view .LVU41
 217 0020 FFF7FEFF 		bl	isTaskReady
 218              	.LVL9:
 219              		.loc 1 41 15 view .LVU42
 220 0024 0028     		cmp	r0, #0
 221 0026 EED0     		beq	.L14
 222              		.loc 1 41 39 discriminator 1 view .LVU43
 223 0028 BE42     		cmp	r6, r7
 224 002a ECDA     		bge	.L14
  42:Core/drogui/src/task.c ****                 max_score = score, id = i;    
 225              		.loc 1 42 39 view .LVU44
 226 002c 2546     		mov	r5, r4
 227              	.LVL10:
 228              		.loc 1 42 27 view .LVU45
 229 002e 3E46     		mov	r6, r7
 230              	.LVL11:
 231              		.loc 1 42 27 view .LVU46
 232 0030 E9E7     		b	.L14
 233              	.LVL12:
 234              	.L23:
 235              		.loc 1 42 27 view .LVU47
 236              	.LBE4:
 237              	.LBE3:
 238              	.LBB5:
  43:Core/drogui/src/task.c ****         }
  44:Core/drogui/src/task.c **** 
  45:Core/drogui/src/task.c ****         for(int i = 0; i < tasks_count; i++){
 239              		.loc 1 45 17 view .LVU48
 240 0032 0024     		movs	r4, #0
 241              	.LVL13:
 242              		.loc 1 45 17 view .LVU49
 243 0034 08E0     		b	.L16
 244              	.LVL14:
ARM GAS  C:\Users\julit\AppData\Local\Temp\ccz9VUNc.s 			page 6


 245              	.L25:
  46:Core/drogui/src/task.c ****             if(isTaskReady(&Tasks[i]) && i != id)
  47:Core/drogui/src/task.c ****                 Tasks[i].ignored++;
 246              		.loc 1 47 17 is_stmt 1 view .LVU50
 247              		.loc 1 47 25 is_stmt 0 view .LVU51
 248 0036 04EB8403 		add	r3, r4, r4, lsl #2
 249 003a 1F4A     		ldr	r2, .L27+4
 250 003c 02EB8303 		add	r3, r2, r3, lsl #2
 251 0040 DA68     		ldr	r2, [r3, #12]
 252              		.loc 1 47 33 view .LVU52
 253 0042 0132     		adds	r2, r2, #1
 254 0044 DA60     		str	r2, [r3, #12]
 255              	.L17:
  45:Core/drogui/src/task.c ****             if(isTaskReady(&Tasks[i]) && i != id)
 256              		.loc 1 45 41 is_stmt 1 discriminator 2 view .LVU53
  45:Core/drogui/src/task.c ****             if(isTaskReady(&Tasks[i]) && i != id)
 257              		.loc 1 45 42 is_stmt 0 discriminator 2 view .LVU54
 258 0046 0134     		adds	r4, r4, #1
 259              	.LVL15:
 260              	.L16:
  45:Core/drogui/src/task.c ****             if(isTaskReady(&Tasks[i]) && i != id)
 261              		.loc 1 45 24 is_stmt 1 discriminator 1 view .LVU55
  45:Core/drogui/src/task.c ****             if(isTaskReady(&Tasks[i]) && i != id)
 262              		.loc 1 45 26 is_stmt 0 discriminator 1 view .LVU56
 263 0048 1A4B     		ldr	r3, .L27
 264 004a 1B68     		ldr	r3, [r3]
  45:Core/drogui/src/task.c ****             if(isTaskReady(&Tasks[i]) && i != id)
 265              		.loc 1 45 9 discriminator 1 view .LVU57
 266 004c A342     		cmp	r3, r4
 267 004e 0BDD     		ble	.L24
  46:Core/drogui/src/task.c ****             if(isTaskReady(&Tasks[i]) && i != id)
 268              		.loc 1 46 13 is_stmt 1 view .LVU58
  46:Core/drogui/src/task.c ****             if(isTaskReady(&Tasks[i]) && i != id)
 269              		.loc 1 46 16 is_stmt 0 view .LVU59
 270 0050 04EB8403 		add	r3, r4, r4, lsl #2
 271 0054 1848     		ldr	r0, .L27+4
 272 0056 00EB8300 		add	r0, r0, r3, lsl #2
 273 005a FFF7FEFF 		bl	isTaskReady
 274              	.LVL16:
  46:Core/drogui/src/task.c ****             if(isTaskReady(&Tasks[i]) && i != id)
 275              		.loc 1 46 15 view .LVU60
 276 005e 0028     		cmp	r0, #0
 277 0060 F1D0     		beq	.L17
  46:Core/drogui/src/task.c ****             if(isTaskReady(&Tasks[i]) && i != id)
 278              		.loc 1 46 39 discriminator 1 view .LVU61
 279 0062 A542     		cmp	r5, r4
 280 0064 E7D1     		bne	.L25
 281 0066 EEE7     		b	.L17
 282              	.L24:
  46:Core/drogui/src/task.c ****             if(isTaskReady(&Tasks[i]) && i != id)
 283              		.loc 1 46 39 discriminator 1 view .LVU62
 284              	.LBE5:
  48:Core/drogui/src/task.c ****         }
  49:Core/drogui/src/task.c **** 
  50:Core/drogui/src/task.c ****         if(id >= 0){
 285              		.loc 1 50 9 is_stmt 1 view .LVU63
 286              		.loc 1 50 11 is_stmt 0 view .LVU64
ARM GAS  C:\Users\julit\AppData\Local\Temp\ccz9VUNc.s 			page 7


 287 0068 002D     		cmp	r5, #0
 288 006a 04DA     		bge	.L26
 289              	.LVL17:
 290              	.L19:
 291              		.loc 1 50 11 view .LVU65
 292              	.LBE2:
  35:Core/drogui/src/task.c ****         
 293              		.loc 1 35 5 is_stmt 1 view .LVU66
 294              	.LBB8:
  37:Core/drogui/src/task.c ****         
 295              		.loc 1 37 9 view .LVU67
  39:Core/drogui/src/task.c ****             int score = Tasks[i].priority + Tasks[i].ignored;
 296              		.loc 1 39 9 view .LVU68
 297              	.LBB6:
  39:Core/drogui/src/task.c ****             int score = Tasks[i].priority + Tasks[i].ignored;
 298              		.loc 1 39 13 view .LVU69
  39:Core/drogui/src/task.c ****             int score = Tasks[i].priority + Tasks[i].ignored;
 299              		.loc 1 39 17 is_stmt 0 view .LVU70
 300 006c 0024     		movs	r4, #0
 301              	.LBE6:
  37:Core/drogui/src/task.c ****         
 302              		.loc 1 37 28 view .LVU71
 303 006e 4FF0FF35 		mov	r5, #-1
  37:Core/drogui/src/task.c ****         
 304              		.loc 1 37 13 view .LVU72
 305 0072 2646     		mov	r6, r4
 306              	.LBB7:
  39:Core/drogui/src/task.c ****             int score = Tasks[i].priority + Tasks[i].ignored;
 307              		.loc 1 39 9 view .LVU73
 308 0074 C8E7     		b	.L13
 309              	.LVL18:
 310              	.L26:
  39:Core/drogui/src/task.c ****             int score = Tasks[i].priority + Tasks[i].ignored;
 311              		.loc 1 39 9 view .LVU74
 312              	.LBE7:
  51:Core/drogui/src/task.c ****             sprintf(buffer3, "Init %d\t%lu;\n",id,TIME - Tasks[id].last_time);
 313              		.loc 1 51 13 is_stmt 1 view .LVU75
 314              		.loc 1 51 51 is_stmt 0 view .LVU76
 315 0076 114B     		ldr	r3, .L27+8
 316 0078 1B68     		ldr	r3, [r3]
 317 007a 5A6A     		ldr	r2, [r3, #36]
 318              		.loc 1 51 67 view .LVU77
 319 007c 0E4C     		ldr	r4, .L27+4
 320              	.LVL19:
 321              		.loc 1 51 67 view .LVU78
 322 007e 05EB8506 		add	r6, r5, r5, lsl #2
 323              	.LVL20:
 324              		.loc 1 51 67 view .LVU79
 325 0082 04EB8606 		add	r6, r4, r6, lsl #2
 326 0086 7368     		ldr	r3, [r6, #4]
 327              		.loc 1 51 13 view .LVU80
 328 0088 0D4F     		ldr	r7, .L27+12
 329 008a D31A     		subs	r3, r2, r3
 330 008c 2A46     		mov	r2, r5
 331 008e 0D49     		ldr	r1, .L27+16
 332 0090 3846     		mov	r0, r7
 333 0092 FFF7FEFF 		bl	sprintf
ARM GAS  C:\Users\julit\AppData\Local\Temp\ccz9VUNc.s 			page 8


 334              	.LVL21:
  52:Core/drogui/src/task.c ****             executeTask(&Tasks[id]), Tasks[id].ignored = 0;
 335              		.loc 1 52 13 is_stmt 1 view .LVU81
 336 0096 3046     		mov	r0, r6
 337 0098 FFF7FEFF 		bl	executeTask
 338              	.LVL22:
 339              		.loc 1 52 56 is_stmt 0 view .LVU82
 340 009c 0023     		movs	r3, #0
 341 009e F360     		str	r3, [r6, #12]
  53:Core/drogui/src/task.c ****             HAL_UART_Transmit(&huart2, (uint8_t*) buffer3, strlen(buffer3), 100);
 342              		.loc 1 53 13 is_stmt 1 view .LVU83
 343              		.loc 1 53 60 is_stmt 0 view .LVU84
 344 00a0 3846     		mov	r0, r7
 345 00a2 FFF7FEFF 		bl	strlen
 346              	.LVL23:
 347              		.loc 1 53 13 view .LVU85
 348 00a6 6423     		movs	r3, #100
 349 00a8 82B2     		uxth	r2, r0
 350 00aa 3946     		mov	r1, r7
 351 00ac 0648     		ldr	r0, .L27+20
 352 00ae FFF7FEFF 		bl	HAL_UART_Transmit
 353              	.LVL24:
 354 00b2 DBE7     		b	.L19
 355              	.L28:
 356              		.align	2
 357              	.L27:
 358 00b4 00000000 		.word	.LANCHOR0
 359 00b8 00000000 		.word	.LANCHOR1
 360 00bc 00000000 		.word	htim5
 361 00c0 00000000 		.word	.LANCHOR2
 362 00c4 00000000 		.word	.LC0
 363 00c8 00000000 		.word	huart2
 364              	.LBE8:
 365              		.cfi_endproc
 366              	.LFE147:
 368              		.global	buffer3
 369              		.global	Tasks
 370              		.global	tasks_count
 371              		.section	.bss.Tasks,"aw",%nobits
 372              		.align	2
 373              		.set	.LANCHOR1,. + 0
 376              	Tasks:
 377 0000 00000000 		.space	2000
 377      00000000 
 377      00000000 
 377      00000000 
 377      00000000 
 378              		.section	.bss.buffer3,"aw",%nobits
 379              		.align	2
 380              		.set	.LANCHOR2,. + 0
 383              	buffer3:
 384 0000 00000000 		.space	100
 384      00000000 
 384      00000000 
 384      00000000 
 384      00000000 
 385              		.section	.bss.tasks_count,"aw",%nobits
ARM GAS  C:\Users\julit\AppData\Local\Temp\ccz9VUNc.s 			page 9


 386              		.align	2
 387              		.set	.LANCHOR0,. + 0
 390              	tasks_count:
 391 0000 00000000 		.space	4
 392              		.text
 393              	.Letext0:
 394              		.file 2 "c:\\program files (x86)\\gnu arm embedded toolchain\\10 2020-q4-major\\arm-none-eabi\\inc
 395              		.file 3 "c:\\program files (x86)\\gnu arm embedded toolchain\\10 2020-q4-major\\arm-none-eabi\\inc
 396              		.file 4 "Drivers/CMSIS/Device/ST/STM32F7xx/Include/stm32f746xx.h"
 397              		.file 5 "Drivers/STM32F7xx_HAL_Driver/Inc/stm32f7xx_hal_def.h"
 398              		.file 6 "Drivers/STM32F7xx_HAL_Driver/Inc/stm32f7xx_hal_dma.h"
 399              		.file 7 "Drivers/STM32F7xx_HAL_Driver/Inc/stm32f7xx_hal_tim.h"
 400              		.file 8 "Drivers/STM32F7xx_HAL_Driver/Inc/stm32f7xx_hal_uart.h"
 401              		.file 9 "Core/Inc/tim.h"
 402              		.file 10 "Core/Inc/usart.h"
 403              		.file 11 "c:\\program files (x86)\\gnu arm embedded toolchain\\10 2020-q4-major\\arm-none-eabi\\in
 404              		.file 12 "c:\\program files (x86)\\gnu arm embedded toolchain\\10 2020-q4-major\\arm-none-eabi\\in
ARM GAS  C:\Users\julit\AppData\Local\Temp\ccz9VUNc.s 			page 10

