ARM GAS  C:\Users\GUILLE~1\AppData\Local\Temp\ccIU7toj.s 			page 1


   1              		.cpu cortex-m7
   2              		.eabi_attribute 27, 1
   3              		.eabi_attribute 28, 1
   4              		.eabi_attribute 20, 1
   5              		.eabi_attribute 21, 1
   6              		.eabi_attribute 23, 3
   7              		.eabi_attribute 24, 1
   8              		.eabi_attribute 25, 1
   9              		.eabi_attribute 26, 1
  10              		.eabi_attribute 30, 1
  11              		.eabi_attribute 34, 1
  12              		.eabi_attribute 18, 4
  13              		.file	"debugTasks.c"
  14              		.text
  15              	.Ltext0:
  16              		.cfi_sections	.debug_frame
  17              		.section	.text.blinkTask,"ax",%progbits
  18              		.align	1
  19              		.global	blinkTask
  20              		.arch armv7e-m
  21              		.syntax unified
  22              		.thumb
  23              		.thumb_func
  24              		.fpu fpv5-sp-d16
  26              	blinkTask:
  27              	.LVL0:
  28              	.LFB279:
  29              		.file 1 "Core/drogui/task/src/debugTasks.c"
   1:Core/drogui/task/src/debugTasks.c **** #include "debugTasks.h"
   2:Core/drogui/task/src/debugTasks.c **** #include "utils.h"
   3:Core/drogui/task/src/debugTasks.c **** #include "serial.h"
   4:Core/drogui/task/src/debugTasks.c **** #include "sensorsTasks.h"
   5:Core/drogui/task/src/debugTasks.c **** #include "controlTasks.h"
   6:Core/drogui/task/src/debugTasks.c **** #include "task.h"
   7:Core/drogui/task/src/debugTasks.c **** #include "filter.h"
   8:Core/drogui/task/src/debugTasks.c **** #include "macros.h"
   9:Core/drogui/task/src/debugTasks.c **** 
  10:Core/drogui/task/src/debugTasks.c **** void blinkTask(void *argument){
  30              		.loc 1 10 31 view -0
  31              		.cfi_startproc
  32              		@ args = 0, pretend = 0, frame = 0
  33              		@ frame_needed = 0, uses_anonymous_args = 0
  34              		.loc 1 10 31 is_stmt 0 view .LVU1
  35 0000 10B5     		push	{r4, lr}
  36              	.LCFI0:
  37              		.cfi_def_cfa_offset 8
  38              		.cfi_offset 4, -8
  39              		.cfi_offset 14, -4
  11:Core/drogui/task/src/debugTasks.c **** 	HAL_GPIO_TogglePin(LED2_GPIO_Port, LED2_Pin);
  40              		.loc 1 11 2 is_stmt 1 view .LVU2
  41 0002 054C     		ldr	r4, .L3
  42 0004 0121     		movs	r1, #1
  43 0006 2046     		mov	r0, r4
  44              	.LVL1:
  45              		.loc 1 11 2 is_stmt 0 view .LVU3
  46 0008 FFF7FEFF 		bl	HAL_GPIO_TogglePin
  47              	.LVL2:
ARM GAS  C:\Users\GUILLE~1\AppData\Local\Temp\ccIU7toj.s 			page 2


  12:Core/drogui/task/src/debugTasks.c **** 	HAL_GPIO_TogglePin(LED1_GPIO_Port, LED1_Pin);
  48              		.loc 1 12 2 is_stmt 1 view .LVU4
  49 000c 0421     		movs	r1, #4
  50 000e 2046     		mov	r0, r4
  51 0010 FFF7FEFF 		bl	HAL_GPIO_TogglePin
  52              	.LVL3:
  13:Core/drogui/task/src/debugTasks.c **** }
  53              		.loc 1 13 1 is_stmt 0 view .LVU5
  54 0014 10BD     		pop	{r4, pc}
  55              	.L4:
  56 0016 00BF     		.align	2
  57              	.L3:
  58 0018 00100240 		.word	1073876992
  59              		.cfi_endproc
  60              	.LFE279:
  62              		.global	__aeabi_f2d
  63              		.global	__aeabi_dcmpgt
  64              		.section	.text.securityTask,"ax",%progbits
  65              		.align	1
  66              		.global	securityTask
  67              		.syntax unified
  68              		.thumb
  69              		.thumb_func
  70              		.fpu fpv5-sp-d16
  72              	securityTask:
  73              	.LFB281:
  14:Core/drogui/task/src/debugTasks.c **** 
  15:Core/drogui/task/src/debugTasks.c **** 
  16:Core/drogui/task/src/debugTasks.c **** void debugTask(void *argument){
  17:Core/drogui/task/src/debugTasks.c **** 
  18:Core/drogui/task/src/debugTasks.c **** 
  19:Core/drogui/task/src/debugTasks.c **** 	//serialPrintf(SER_DBG, "%f %f %f %f\n", xp_ref, xp,xp_ref -xp, pitch_ref);
  20:Core/drogui/task/src/debugTasks.c **** 	//serialPrintf(SER_DBG, "%f %f %f ", ax, ay, az);
  21:Core/drogui/task/src/debugTasks.c **** 	serialPrintf(SER_DBG, "%f %f %f ", gx, gy, gz);
  22:Core/drogui/task/src/debugTasks.c **** 	//serialPrintf(SER_DBG, "%f %f %f ", mx, my, mz);
  23:Core/drogui/task/src/debugTasks.c **** 	//serialPrintf(SER_DBG, "%f %f %f ", raw_roll*180/pi, raw_pitch*180/pi, raw_yaw*180/pi);
  24:Core/drogui/task/src/debugTasks.c **** 	//serialPrintf(SER_DBG, "%f %f %f %f", vx_gps, vy_gps, vx, vy);
  25:Core/drogui/task/src/debugTasks.c **** 	//serialPrintf(SER_DBG, "%f ", z*100);
  26:Core/drogui/task/src/debugTasks.c **** 	serialPrintf(SER_DBG, "\n");
  27:Core/drogui/task/src/debugTasks.c **** }
  28:Core/drogui/task/src/debugTasks.c **** 
  29:Core/drogui/task/src/debugTasks.c **** void securityTask(){
  74              		.loc 1 29 20 is_stmt 1 view -0
  75              		.cfi_startproc
  76              		@ args = 0, pretend = 0, frame = 0
  77              		@ frame_needed = 0, uses_anonymous_args = 0
  78 0000 08B5     		push	{r3, lr}
  79              	.LCFI1:
  80              		.cfi_def_cfa_offset 8
  81              		.cfi_offset 3, -8
  82              		.cfi_offset 14, -4
  30:Core/drogui/task/src/debugTasks.c **** 	if(getReg(DESC) > 0) state = DESCEND, setReg(DESC, 0);
  83              		.loc 1 30 2 view .LVU7
  84              		.loc 1 30 5 is_stmt 0 view .LVU8
  85 0002 E020     		movs	r0, #224
  86 0004 FFF7FEFF 		bl	getReg
  87              	.LVL4:
ARM GAS  C:\Users\GUILLE~1\AppData\Local\Temp\ccIU7toj.s 			page 3


  88              		.loc 1 30 4 view .LVU9
  89 0008 B5EEC00A 		vcmpe.f32	s0, #0
  90 000c F1EE10FA 		vmrs	APSR_nzcv, FPSCR
  91 0010 45DC     		bgt	.L28
  92              	.L6:
  31:Core/drogui/task/src/debugTasks.c **** 	if(getReg(STOP) > 0) state = SEC_STOP, setReg(STOP, 0);
  93              		.loc 1 31 2 is_stmt 1 view .LVU10
  94              		.loc 1 31 5 is_stmt 0 view .LVU11
  95 0012 E220     		movs	r0, #226
  96 0014 FFF7FEFF 		bl	getReg
  97              	.LVL5:
  98              		.loc 1 31 4 view .LVU12
  99 0018 B5EEC00A 		vcmpe.f32	s0, #0
 100 001c F1EE10FA 		vmrs	APSR_nzcv, FPSCR
 101 0020 46DC     		bgt	.L29
 102              	.L8:
  32:Core/drogui/task/src/debugTasks.c **** 	if(getReg(ARM) > 0){
 103              		.loc 1 32 2 is_stmt 1 view .LVU13
 104              		.loc 1 32 5 is_stmt 0 view .LVU14
 105 0022 E620     		movs	r0, #230
 106 0024 FFF7FEFF 		bl	getReg
 107              	.LVL6:
 108              		.loc 1 32 4 view .LVU15
 109 0028 B5EEC00A 		vcmpe.f32	s0, #0
 110 002c F1EE10FA 		vmrs	APSR_nzcv, FPSCR
 111 0030 08DD     		ble	.L10
  33:Core/drogui/task/src/debugTasks.c **** 		if(state == SEC_STOP) state = ARM_MOTORS;
 112              		.loc 1 33 3 is_stmt 1 view .LVU16
 113              		.loc 1 33 12 is_stmt 0 view .LVU17
 114 0032 574B     		ldr	r3, .L37+8
 115 0034 1B78     		ldrb	r3, [r3]	@ zero_extendqisi2
 116              		.loc 1 33 5 view .LVU18
 117 0036 012B     		cmp	r3, #1
 118 0038 43D0     		beq	.L30
 119              	.L12:
  34:Core/drogui/task/src/debugTasks.c **** 		setReg(ARM, 0);
 120              		.loc 1 34 3 is_stmt 1 view .LVU19
 121 003a 9FED560A 		vldr.32	s0, .L37+12
 122 003e E620     		movs	r0, #230
 123 0040 FFF7FEFF 		bl	setReg
 124              	.LVL7:
 125              	.L10:
  35:Core/drogui/task/src/debugTasks.c **** 	}
  36:Core/drogui/task/src/debugTasks.c **** 	if(getReg(START) > 0){
 126              		.loc 1 36 2 view .LVU20
 127              		.loc 1 36 5 is_stmt 0 view .LVU21
 128 0044 E420     		movs	r0, #228
 129 0046 FFF7FEFF 		bl	getReg
 130              	.LVL8:
 131              		.loc 1 36 4 view .LVU22
 132 004a B5EEC00A 		vcmpe.f32	s0, #0
 133 004e F1EE10FA 		vmrs	APSR_nzcv, FPSCR
 134 0052 08DD     		ble	.L13
  37:Core/drogui/task/src/debugTasks.c **** 		if(state == ARM_MOTORS) state = CONTROL_LOOP;
 135              		.loc 1 37 3 is_stmt 1 view .LVU23
 136              		.loc 1 37 12 is_stmt 0 view .LVU24
 137 0054 4E4B     		ldr	r3, .L37+8
ARM GAS  C:\Users\GUILLE~1\AppData\Local\Temp\ccIU7toj.s 			page 4


 138 0056 1B78     		ldrb	r3, [r3]	@ zero_extendqisi2
 139              		.loc 1 37 5 view .LVU25
 140 0058 032B     		cmp	r3, #3
 141 005a 36D0     		beq	.L31
 142              	.L15:
  38:Core/drogui/task/src/debugTasks.c **** 		setReg(START, 0);
 143              		.loc 1 38 3 is_stmt 1 view .LVU26
 144 005c 9FED4D0A 		vldr.32	s0, .L37+12
 145 0060 E420     		movs	r0, #228
 146 0062 FFF7FEFF 		bl	setReg
 147              	.LVL9:
 148              	.L13:
  39:Core/drogui/task/src/debugTasks.c **** 	}
  40:Core/drogui/task/src/debugTasks.c **** 
  41:Core/drogui/task/src/debugTasks.c **** 
  42:Core/drogui/task/src/debugTasks.c **** 	if((fabs(angle_dif(roll_ref, roll))> pi/9) || (fabs(angle_dif(pitch_ref, pitch))> pi/9)) state = S
 149              		.loc 1 42 2 view .LVU27
 150              		.loc 1 42 11 is_stmt 0 view .LVU28
 151 0066 4C4B     		ldr	r3, .L37+16
 152 0068 D3ED000A 		vldr.32	s1, [r3]
 153 006c 4B4B     		ldr	r3, .L37+20
 154 006e 93ED000A 		vldr.32	s0, [r3]
 155 0072 FFF7FEFF 		bl	angle_dif
 156              	.LVL10:
 157              		.loc 1 42 6 view .LVU29
 158 0076 F0EEC07A 		vabs.f32	s15, s0
 159 007a 17EE900A 		vmov	r0, s15
 160 007e FFF7FEFF 		bl	__aeabi_f2d
 161              	.LVL11:
 162              		.loc 1 42 4 view .LVU30
 163 0082 41A3     		adr	r3, .L37
 164 0084 D3E90023 		ldrd	r2, [r3]
 165 0088 FFF7FEFF 		bl	__aeabi_dcmpgt
 166              	.LVL12:
 167 008c 08B3     		cbz	r0, .L32
 168              	.L16:
 169              		.loc 1 42 91 is_stmt 1 discriminator 3 view .LVU31
 170              		.loc 1 42 97 is_stmt 0 discriminator 3 view .LVU32
 171 008e 404B     		ldr	r3, .L37+8
 172 0090 0122     		movs	r2, #1
 173 0092 1A70     		strb	r2, [r3]
 174              	.L17:
  43:Core/drogui/task/src/debugTasks.c **** 
  44:Core/drogui/task/src/debugTasks.c **** 
  45:Core/drogui/task/src/debugTasks.c **** 	if(state == SEC_STOP || state == DESCEND){
 175              		.loc 1 45 2 is_stmt 1 view .LVU33
 176              		.loc 1 45 23 is_stmt 0 view .LVU34
 177 0094 3E4B     		ldr	r3, .L37+8
 178 0096 1B78     		ldrb	r3, [r3]	@ zero_extendqisi2
 179              		.loc 1 45 4 view .LVU35
 180 0098 012B     		cmp	r3, #1
 181 009a 30D9     		bls	.L33
 182              	.L5:
  46:Core/drogui/task/src/debugTasks.c **** 		updatePID();
  47:Core/drogui/task/src/debugTasks.c **** 
  48:Core/drogui/task/src/debugTasks.c **** 		if(getReg(CAL_GYR_TRG) == 1) calibrateGyro(&myIMU),  setReg(CAL_GYR_TRG, 0);
  49:Core/drogui/task/src/debugTasks.c **** 		if(getReg(CAL_ACC_TRG) == 1) calibrateAccel(&myIMU), setReg(CAL_ACC_TRG, 0);
ARM GAS  C:\Users\GUILLE~1\AppData\Local\Temp\ccIU7toj.s 			page 5


  50:Core/drogui/task/src/debugTasks.c **** 		if(getReg(CAL_MAG_TRG) == 1) calibrateMag(&myIMU),   setReg(CAL_MAG_TRG, 0);
  51:Core/drogui/task/src/debugTasks.c **** 		updateBmp388Offset(&myBMP);
  52:Core/drogui/task/src/debugTasks.c **** 		calib_status = updateCalibOffset(&myIMU);
  53:Core/drogui/task/src/debugTasks.c **** 	}
  54:Core/drogui/task/src/debugTasks.c **** }
 183              		.loc 1 54 1 view .LVU36
 184 009c 08BD     		pop	{r3, pc}
 185              	.L28:
  30:Core/drogui/task/src/debugTasks.c **** 	if(getReg(STOP) > 0) state = SEC_STOP, setReg(STOP, 0);
 186              		.loc 1 30 23 is_stmt 1 discriminator 1 view .LVU37
  30:Core/drogui/task/src/debugTasks.c **** 	if(getReg(STOP) > 0) state = SEC_STOP, setReg(STOP, 0);
 187              		.loc 1 30 29 is_stmt 0 discriminator 1 view .LVU38
 188 009e 3C4B     		ldr	r3, .L37+8
 189 00a0 0022     		movs	r2, #0
 190 00a2 1A70     		strb	r2, [r3]
  30:Core/drogui/task/src/debugTasks.c **** 	if(getReg(STOP) > 0) state = SEC_STOP, setReg(STOP, 0);
 191              		.loc 1 30 40 discriminator 1 view .LVU39
 192 00a4 9FED3B0A 		vldr.32	s0, .L37+12
 193 00a8 E020     		movs	r0, #224
 194 00aa FFF7FEFF 		bl	setReg
 195              	.LVL13:
 196 00ae B0E7     		b	.L6
 197              	.L29:
  31:Core/drogui/task/src/debugTasks.c **** 	if(getReg(ARM) > 0){
 198              		.loc 1 31 23 is_stmt 1 discriminator 1 view .LVU40
  31:Core/drogui/task/src/debugTasks.c **** 	if(getReg(ARM) > 0){
 199              		.loc 1 31 29 is_stmt 0 discriminator 1 view .LVU41
 200 00b0 374B     		ldr	r3, .L37+8
 201 00b2 0122     		movs	r2, #1
 202 00b4 1A70     		strb	r2, [r3]
  31:Core/drogui/task/src/debugTasks.c **** 	if(getReg(ARM) > 0){
 203              		.loc 1 31 41 discriminator 1 view .LVU42
 204 00b6 9FED370A 		vldr.32	s0, .L37+12
 205 00ba E220     		movs	r0, #226
 206 00bc FFF7FEFF 		bl	setReg
 207              	.LVL14:
 208 00c0 AFE7     		b	.L8
 209              	.L30:
  33:Core/drogui/task/src/debugTasks.c **** 		setReg(ARM, 0);
 210              		.loc 1 33 25 is_stmt 1 discriminator 1 view .LVU43
  33:Core/drogui/task/src/debugTasks.c **** 		setReg(ARM, 0);
 211              		.loc 1 33 31 is_stmt 0 discriminator 1 view .LVU44
 212 00c2 334B     		ldr	r3, .L37+8
 213 00c4 0322     		movs	r2, #3
 214 00c6 1A70     		strb	r2, [r3]
 215 00c8 B7E7     		b	.L12
 216              	.L31:
  37:Core/drogui/task/src/debugTasks.c **** 		setReg(START, 0);
 217              		.loc 1 37 27 is_stmt 1 discriminator 1 view .LVU45
  37:Core/drogui/task/src/debugTasks.c **** 		setReg(START, 0);
 218              		.loc 1 37 33 is_stmt 0 discriminator 1 view .LVU46
 219 00ca 314B     		ldr	r3, .L37+8
 220 00cc 0422     		movs	r2, #4
 221 00ce 1A70     		strb	r2, [r3]
 222 00d0 C4E7     		b	.L15
 223              	.L32:
  42:Core/drogui/task/src/debugTasks.c **** 
ARM GAS  C:\Users\GUILLE~1\AppData\Local\Temp\ccIU7toj.s 			page 6


 224              		.loc 1 42 54 discriminator 2 view .LVU47
 225 00d2 334B     		ldr	r3, .L37+24
 226 00d4 D3ED000A 		vldr.32	s1, [r3]
 227 00d8 324B     		ldr	r3, .L37+28
 228 00da 93ED000A 		vldr.32	s0, [r3]
 229 00de FFF7FEFF 		bl	angle_dif
 230              	.LVL15:
  42:Core/drogui/task/src/debugTasks.c **** 
 231              		.loc 1 42 49 discriminator 2 view .LVU48
 232 00e2 F0EEC07A 		vabs.f32	s15, s0
 233 00e6 17EE900A 		vmov	r0, s15
 234 00ea FFF7FEFF 		bl	__aeabi_f2d
 235              	.LVL16:
  42:Core/drogui/task/src/debugTasks.c **** 
 236              		.loc 1 42 45 discriminator 2 view .LVU49
 237 00ee 26A3     		adr	r3, .L37
 238 00f0 D3E90023 		ldrd	r2, [r3]
 239 00f4 FFF7FEFF 		bl	__aeabi_dcmpgt
 240              	.LVL17:
 241 00f8 0028     		cmp	r0, #0
 242 00fa CBD0     		beq	.L17
 243 00fc C7E7     		b	.L16
 244              	.L33:
  46:Core/drogui/task/src/debugTasks.c **** 
 245              		.loc 1 46 3 is_stmt 1 view .LVU50
 246 00fe FFF7FEFF 		bl	updatePID
 247              	.LVL18:
  48:Core/drogui/task/src/debugTasks.c **** 		if(getReg(CAL_ACC_TRG) == 1) calibrateAccel(&myIMU), setReg(CAL_ACC_TRG, 0);
 248              		.loc 1 48 3 view .LVU51
  48:Core/drogui/task/src/debugTasks.c **** 		if(getReg(CAL_ACC_TRG) == 1) calibrateAccel(&myIMU), setReg(CAL_ACC_TRG, 0);
 249              		.loc 1 48 6 is_stmt 0 view .LVU52
 250 0102 0820     		movs	r0, #8
 251 0104 FFF7FEFF 		bl	getReg
 252              	.LVL19:
  48:Core/drogui/task/src/debugTasks.c **** 		if(getReg(CAL_ACC_TRG) == 1) calibrateAccel(&myIMU), setReg(CAL_ACC_TRG, 0);
 253              		.loc 1 48 5 view .LVU53
 254 0108 F7EE007A 		vmov.f32	s15, #1.0e+0
 255 010c B4EE670A 		vcmp.f32	s0, s15
 256 0110 F1EE10FA 		vmrs	APSR_nzcv, FPSCR
 257 0114 1CD0     		beq	.L34
 258              	.L20:
  49:Core/drogui/task/src/debugTasks.c **** 		if(getReg(CAL_MAG_TRG) == 1) calibrateMag(&myIMU),   setReg(CAL_MAG_TRG, 0);
 259              		.loc 1 49 3 is_stmt 1 view .LVU54
  49:Core/drogui/task/src/debugTasks.c **** 		if(getReg(CAL_MAG_TRG) == 1) calibrateMag(&myIMU),   setReg(CAL_MAG_TRG, 0);
 260              		.loc 1 49 6 is_stmt 0 view .LVU55
 261 0116 0A20     		movs	r0, #10
 262 0118 FFF7FEFF 		bl	getReg
 263              	.LVL20:
  49:Core/drogui/task/src/debugTasks.c **** 		if(getReg(CAL_MAG_TRG) == 1) calibrateMag(&myIMU),   setReg(CAL_MAG_TRG, 0);
 264              		.loc 1 49 5 view .LVU56
 265 011c F7EE007A 		vmov.f32	s15, #1.0e+0
 266 0120 B4EE670A 		vcmp.f32	s0, s15
 267 0124 F1EE10FA 		vmrs	APSR_nzcv, FPSCR
 268 0128 1BD0     		beq	.L35
 269              	.L21:
  50:Core/drogui/task/src/debugTasks.c **** 		updateBmp388Offset(&myBMP);
 270              		.loc 1 50 3 is_stmt 1 view .LVU57
ARM GAS  C:\Users\GUILLE~1\AppData\Local\Temp\ccIU7toj.s 			page 7


  50:Core/drogui/task/src/debugTasks.c **** 		updateBmp388Offset(&myBMP);
 271              		.loc 1 50 6 is_stmt 0 view .LVU58
 272 012a 0C20     		movs	r0, #12
 273 012c FFF7FEFF 		bl	getReg
 274              	.LVL21:
  50:Core/drogui/task/src/debugTasks.c **** 		updateBmp388Offset(&myBMP);
 275              		.loc 1 50 5 view .LVU59
 276 0130 F7EE007A 		vmov.f32	s15, #1.0e+0
 277 0134 B4EE670A 		vcmp.f32	s0, s15
 278 0138 F1EE10FA 		vmrs	APSR_nzcv, FPSCR
 279 013c 1AD0     		beq	.L36
 280              	.L22:
  51:Core/drogui/task/src/debugTasks.c **** 		calib_status = updateCalibOffset(&myIMU);
 281              		.loc 1 51 3 is_stmt 1 view .LVU60
 282 013e 1A48     		ldr	r0, .L37+32
 283 0140 FFF7FEFF 		bl	updateBmp388Offset
 284              	.LVL22:
  52:Core/drogui/task/src/debugTasks.c **** 	}
 285              		.loc 1 52 3 view .LVU61
  52:Core/drogui/task/src/debugTasks.c **** 	}
 286              		.loc 1 52 18 is_stmt 0 view .LVU62
 287 0144 1948     		ldr	r0, .L37+36
 288 0146 FFF7FEFF 		bl	updateCalibOffset
 289              	.LVL23:
  52:Core/drogui/task/src/debugTasks.c **** 	}
 290              		.loc 1 52 16 view .LVU63
 291 014a 194B     		ldr	r3, .L37+40
 292 014c 1860     		str	r0, [r3]
 293              		.loc 1 54 1 view .LVU64
 294 014e A5E7     		b	.L5
 295              	.L34:
  48:Core/drogui/task/src/debugTasks.c **** 		if(getReg(CAL_ACC_TRG) == 1) calibrateAccel(&myIMU), setReg(CAL_ACC_TRG, 0);
 296              		.loc 1 48 32 is_stmt 1 discriminator 1 view .LVU65
 297 0150 1648     		ldr	r0, .L37+36
 298 0152 FFF7FEFF 		bl	calibrateGyro
 299              	.LVL24:
  48:Core/drogui/task/src/debugTasks.c **** 		if(getReg(CAL_ACC_TRG) == 1) calibrateAccel(&myIMU), setReg(CAL_ACC_TRG, 0);
 300              		.loc 1 48 56 is_stmt 0 discriminator 1 view .LVU66
 301 0156 9FED0F0A 		vldr.32	s0, .L37+12
 302 015a 0820     		movs	r0, #8
 303 015c FFF7FEFF 		bl	setReg
 304              	.LVL25:
 305 0160 D9E7     		b	.L20
 306              	.L35:
  49:Core/drogui/task/src/debugTasks.c **** 		if(getReg(CAL_MAG_TRG) == 1) calibrateMag(&myIMU),   setReg(CAL_MAG_TRG, 0);
 307              		.loc 1 49 32 is_stmt 1 discriminator 1 view .LVU67
 308 0162 1248     		ldr	r0, .L37+36
 309 0164 FFF7FEFF 		bl	calibrateAccel
 310              	.LVL26:
  49:Core/drogui/task/src/debugTasks.c **** 		if(getReg(CAL_MAG_TRG) == 1) calibrateMag(&myIMU),   setReg(CAL_MAG_TRG, 0);
 311              		.loc 1 49 56 is_stmt 0 discriminator 1 view .LVU68
 312 0168 9FED0A0A 		vldr.32	s0, .L37+12
 313 016c 0A20     		movs	r0, #10
 314 016e FFF7FEFF 		bl	setReg
 315              	.LVL27:
 316 0172 DAE7     		b	.L21
 317              	.L36:
ARM GAS  C:\Users\GUILLE~1\AppData\Local\Temp\ccIU7toj.s 			page 8


  50:Core/drogui/task/src/debugTasks.c **** 		updateBmp388Offset(&myBMP);
 318              		.loc 1 50 32 is_stmt 1 discriminator 1 view .LVU69
 319 0174 0D48     		ldr	r0, .L37+36
 320 0176 FFF7FEFF 		bl	calibrateMag
 321              	.LVL28:
  50:Core/drogui/task/src/debugTasks.c **** 		updateBmp388Offset(&myBMP);
 322              		.loc 1 50 56 is_stmt 0 discriminator 1 view .LVU70
 323 017a 9FED060A 		vldr.32	s0, .L37+12
 324 017e 0C20     		movs	r0, #12
 325 0180 FFF7FEFF 		bl	setReg
 326              	.LVL29:
 327 0184 DBE7     		b	.L22
 328              	.L38:
 329 0186 00BF     		.align	3
 330              	.L37:
 331 0188 8744E74A 		.word	1256670343
 332 018c 1857D63F 		.word	1071011608
 333 0190 00000000 		.word	state
 334 0194 00000000 		.word	0
 335 0198 00000000 		.word	roll
 336 019c 00000000 		.word	roll_ref
 337 01a0 00000000 		.word	pitch
 338 01a4 00000000 		.word	pitch_ref
 339 01a8 00000000 		.word	myBMP
 340 01ac 00000000 		.word	myIMU
 341 01b0 00000000 		.word	calib_status
 342              		.cfi_endproc
 343              	.LFE281:
 345              		.section	.rodata.debugTask.str1.4,"aMS",%progbits,1
 346              		.align	2
 347              	.LC0:
 348 0000 25662025 		.ascii	"%f %f %f \000"
 348      66202566 
 348      2000
 349 000a 0000     		.align	2
 350              	.LC1:
 351 000c 0A00     		.ascii	"\012\000"
 352              		.section	.text.debugTask,"ax",%progbits
 353              		.align	1
 354              		.global	debugTask
 355              		.syntax unified
 356              		.thumb
 357              		.thumb_func
 358              		.fpu fpv5-sp-d16
 360              	debugTask:
 361              	.LVL30:
 362              	.LFB280:
  16:Core/drogui/task/src/debugTasks.c **** 
 363              		.loc 1 16 31 is_stmt 1 view -0
 364              		.cfi_startproc
 365              		@ args = 0, pretend = 0, frame = 0
 366              		@ frame_needed = 0, uses_anonymous_args = 0
  16:Core/drogui/task/src/debugTasks.c **** 
 367              		.loc 1 16 31 is_stmt 0 view .LVU72
 368 0000 70B5     		push	{r4, r5, r6, lr}
 369              	.LCFI2:
 370              		.cfi_def_cfa_offset 16
ARM GAS  C:\Users\GUILLE~1\AppData\Local\Temp\ccIU7toj.s 			page 9


 371              		.cfi_offset 4, -16
 372              		.cfi_offset 5, -12
 373              		.cfi_offset 6, -8
 374              		.cfi_offset 14, -4
 375 0002 84B0     		sub	sp, sp, #16
 376              	.LCFI3:
 377              		.cfi_def_cfa_offset 32
  21:Core/drogui/task/src/debugTasks.c **** 	//serialPrintf(SER_DBG, "%f %f %f ", mx, my, mz);
 378              		.loc 1 21 2 is_stmt 1 view .LVU73
 379 0004 0F4B     		ldr	r3, .L41
 380 0006 1868     		ldr	r0, [r3]	@ float
 381              	.LVL31:
  21:Core/drogui/task/src/debugTasks.c **** 	//serialPrintf(SER_DBG, "%f %f %f ", mx, my, mz);
 382              		.loc 1 21 2 is_stmt 0 view .LVU74
 383 0008 FFF7FEFF 		bl	__aeabi_f2d
 384              	.LVL32:
 385 000c 0446     		mov	r4, r0
 386 000e 0D46     		mov	r5, r1
 387 0010 0D4E     		ldr	r6, .L41+4
 388 0012 0E4B     		ldr	r3, .L41+8
 389 0014 1868     		ldr	r0, [r3]	@ float
 390 0016 FFF7FEFF 		bl	__aeabi_f2d
 391              	.LVL33:
 392 001a CDE90201 		strd	r0, [sp, #8]
 393 001e 0C4B     		ldr	r3, .L41+12
 394 0020 1868     		ldr	r0, [r3]	@ float
 395 0022 FFF7FEFF 		bl	__aeabi_f2d
 396              	.LVL34:
 397 0026 CDE90001 		strd	r0, [sp]
 398 002a 2246     		mov	r2, r4
 399 002c 2B46     		mov	r3, r5
 400 002e 0949     		ldr	r1, .L41+16
 401 0030 3046     		mov	r0, r6
 402 0032 FFF7FEFF 		bl	serialPrintf
 403              	.LVL35:
  26:Core/drogui/task/src/debugTasks.c **** }
 404              		.loc 1 26 2 is_stmt 1 view .LVU75
 405 0036 0849     		ldr	r1, .L41+20
 406 0038 3046     		mov	r0, r6
 407 003a FFF7FEFF 		bl	serialPrintf
 408              	.LVL36:
  27:Core/drogui/task/src/debugTasks.c **** 
 409              		.loc 1 27 1 is_stmt 0 view .LVU76
 410 003e 04B0     		add	sp, sp, #16
 411              	.LCFI4:
 412              		.cfi_def_cfa_offset 16
 413              		@ sp needed
 414 0040 70BD     		pop	{r4, r5, r6, pc}
 415              	.L42:
 416 0042 00BF     		.align	2
 417              	.L41:
 418 0044 00000000 		.word	gx
 419 0048 00000000 		.word	serial3
 420 004c 00000000 		.word	gz
 421 0050 00000000 		.word	gy
 422 0054 00000000 		.word	.LC0
 423 0058 0C000000 		.word	.LC1
ARM GAS  C:\Users\GUILLE~1\AppData\Local\Temp\ccIU7toj.s 			page 10


 424              		.cfi_endproc
 425              	.LFE280:
 427              		.section	.text.initDebug,"ax",%progbits
 428              		.align	1
 429              		.global	initDebug
 430              		.syntax unified
 431              		.thumb
 432              		.thumb_func
 433              		.fpu fpv5-sp-d16
 435              	initDebug:
 436              	.LFB282:
  55:Core/drogui/task/src/debugTasks.c **** 
  56:Core/drogui/task/src/debugTasks.c **** void initDebug(){
 437              		.loc 1 56 17 is_stmt 1 view -0
 438              		.cfi_startproc
 439              		@ args = 0, pretend = 0, frame = 0
 440              		@ frame_needed = 0, uses_anonymous_args = 0
 441 0000 10B5     		push	{r4, lr}
 442              	.LCFI5:
 443              		.cfi_def_cfa_offset 8
 444              		.cfi_offset 4, -8
 445              		.cfi_offset 14, -4
  57:Core/drogui/task/src/debugTasks.c **** 	state = SEC_STOP;
 446              		.loc 1 57 2 view .LVU78
 447              		.loc 1 57 8 is_stmt 0 view .LVU79
 448 0002 0124     		movs	r4, #1
 449 0004 064B     		ldr	r3, .L45
 450 0006 1C70     		strb	r4, [r3]
  58:Core/drogui/task/src/debugTasks.c **** 	//addTask(&debugTask, 10000, 1);
  59:Core/drogui/task/src/debugTasks.c **** 	addTask(&blinkTask, 100000, 1);
 451              		.loc 1 59 2 is_stmt 1 view .LVU80
 452 0008 2246     		mov	r2, r4
 453 000a 0649     		ldr	r1, .L45+4
 454 000c 0648     		ldr	r0, .L45+8
 455 000e FFF7FEFF 		bl	addTask
 456              	.LVL37:
  60:Core/drogui/task/src/debugTasks.c **** 	addTask(&securityTask, 1000, 1);
 457              		.loc 1 60 2 view .LVU81
 458 0012 2246     		mov	r2, r4
 459 0014 4FF47A71 		mov	r1, #1000
 460 0018 0448     		ldr	r0, .L45+12
 461 001a FFF7FEFF 		bl	addTask
 462              	.LVL38:
  61:Core/drogui/task/src/debugTasks.c **** }
 463              		.loc 1 61 1 is_stmt 0 view .LVU82
 464 001e 10BD     		pop	{r4, pc}
 465              	.L46:
 466              		.align	2
 467              	.L45:
 468 0020 00000000 		.word	state
 469 0024 A0860100 		.word	100000
 470 0028 00000000 		.word	blinkTask
 471 002c 00000000 		.word	securityTask
 472              		.cfi_endproc
 473              	.LFE282:
 475              		.text
 476              	.Letext0:
ARM GAS  C:\Users\GUILLE~1\AppData\Local\Temp\ccIU7toj.s 			page 11


 477              		.file 2 "c:\\program files (x86)\\gnu arm embedded toolchain\\10 2020-q4-major\\arm-none-eabi\\inc
 478              		.file 3 "c:\\program files (x86)\\gnu arm embedded toolchain\\10 2020-q4-major\\arm-none-eabi\\inc
 479              		.file 4 "Drivers/CMSIS/Device/ST/STM32F7xx/Include/stm32f746xx.h"
 480              		.file 5 "Core/drogui/utils/include/utils.h"
 481              		.file 6 "Core/drogui/interfaces/include/serial.h"
 482              		.file 7 "Drivers/CMSIS/DSP/Include/arm_math.h"
 483              		.file 8 "Core/drogui/math/various/include/filter.h"
 484              		.file 9 "Core/drogui/sensor/imu/include/ICM20948.h"
 485              		.file 10 "Core/drogui/sensor/press/include/BMP388.h"
 486              		.file 11 "Core/drogui/task/include/sensorsTasks.h"
 487              		.file 12 "Core/drogui/task/include/controlTasks.h"
 488              		.file 13 "Core/drogui/utils/include/task.h"
 489              		.file 14 "Drivers/STM32F7xx_HAL_Driver/Inc/stm32f7xx_hal_gpio.h"
ARM GAS  C:\Users\GUILLE~1\AppData\Local\Temp\ccIU7toj.s 			page 12

