ARM GAS  C:\Users\GUILLE~1\AppData\Local\Temp\ccHpHrHN.s 			page 1


   1              		.cpu cortex-m7
   2              		.eabi_attribute 27, 1
   3              		.eabi_attribute 28, 1
   4              		.eabi_attribute 20, 1
   5              		.eabi_attribute 21, 1
   6              		.eabi_attribute 23, 3
   7              		.eabi_attribute 24, 1
   8              		.eabi_attribute 25, 1
   9              		.eabi_attribute 26, 1
  10              		.eabi_attribute 30, 1
  11              		.eabi_attribute 34, 1
  12              		.eabi_attribute 18, 4
  13              		.file	"kalmanPV.c"
  14              		.text
  15              	.Ltext0:
  16              		.cfi_sections	.debug_frame
  17              		.section	.text.setKalmanTsImu,"ax",%progbits
  18              		.align	1
  19              		.global	setKalmanTsImu
  20              		.arch armv7e-m
  21              		.syntax unified
  22              		.thumb
  23              		.thumb_func
  24              		.fpu fpv5-sp-d16
  26              	setKalmanTsImu:
  27              	.LVL0:
  28              	.LFB279:
  29              		.file 1 "Core/drogui/math/kalman/src/kalmanPV.c"
   1:Core/drogui/math/kalman/src/kalmanPV.c **** #include "macros.h"
   2:Core/drogui/math/kalman/src/kalmanPV.c **** #ifdef KALMANPV
   3:Core/drogui/math/kalman/src/kalmanPV.c **** #include "kalmanPV.h"
   4:Core/drogui/math/kalman/src/kalmanPV.c **** 
   5:Core/drogui/math/kalman/src/kalmanPV.c **** #define GRAVITY 1
   6:Core/drogui/math/kalman/src/kalmanPV.c **** 
   7:Core/drogui/math/kalman/src/kalmanPV.c **** 
   8:Core/drogui/math/kalman/src/kalmanPV.c **** void setKalmanTsImu(kalmanPV* kpv, float ts){
  30              		.loc 1 8 45 view -0
  31              		.cfi_startproc
  32              		@ args = 0, pretend = 0, frame = 0
  33              		@ frame_needed = 0, uses_anonymous_args = 0
  34              		@ link register save eliminated.
   9:Core/drogui/math/kalman/src/kalmanPV.c **** 	kpv->Ts = ts;
  35              		.loc 1 9 2 view .LVU1
  36              		.loc 1 9 10 is_stmt 0 view .LVU2
  37 0000 80ED000A 		vstr.32	s0, [r0]
  10:Core/drogui/math/kalman/src/kalmanPV.c **** }
  38              		.loc 1 10 1 view .LVU3
  39 0004 7047     		bx	lr
  40              		.cfi_endproc
  41              	.LFE279:
  43              		.section	.text.setKalmanTsGps,"ax",%progbits
  44              		.align	1
  45              		.global	setKalmanTsGps
  46              		.syntax unified
  47              		.thumb
  48              		.thumb_func
  49              		.fpu fpv5-sp-d16
ARM GAS  C:\Users\GUILLE~1\AppData\Local\Temp\ccHpHrHN.s 			page 2


  51              	setKalmanTsGps:
  52              	.LVL1:
  53              	.LFB280:
  11:Core/drogui/math/kalman/src/kalmanPV.c **** 
  12:Core/drogui/math/kalman/src/kalmanPV.c **** void setKalmanTsGps(kalmanPV* kpv, float ts){
  54              		.loc 1 12 45 is_stmt 1 view -0
  55              		.cfi_startproc
  56              		@ args = 0, pretend = 0, frame = 0
  57              		@ frame_needed = 0, uses_anonymous_args = 0
  58              		@ link register save eliminated.
  13:Core/drogui/math/kalman/src/kalmanPV.c **** 	kpv->N = (kpv->Ts)/ts;
  59              		.loc 1 13 2 view .LVU5
  60              		.loc 1 13 15 is_stmt 0 view .LVU6
  61 0000 90ED007A 		vldr.32	s14, [r0]
  62              		.loc 1 13 20 view .LVU7
  63 0004 C7EE007A 		vdiv.f32	s15, s14, s0
  64              		.loc 1 13 9 view .LVU8
  65 0008 C0ED017A 		vstr.32	s15, [r0, #4]
  14:Core/drogui/math/kalman/src/kalmanPV.c **** }
  66              		.loc 1 14 1 view .LVU9
  67 000c 7047     		bx	lr
  68              		.cfi_endproc
  69              	.LFE280:
  71              		.section	.text.initMatGlobal,"ax",%progbits
  72              		.align	1
  73              		.global	initMatGlobal
  74              		.syntax unified
  75              		.thumb
  76              		.thumb_func
  77              		.fpu fpv5-sp-d16
  79              	initMatGlobal:
  80              	.LVL2:
  81              	.LFB281:
  15:Core/drogui/math/kalman/src/kalmanPV.c **** 
  16:Core/drogui/math/kalman/src/kalmanPV.c **** void initMatGlobal(kalmanPV* kpv){
  82              		.loc 1 16 34 is_stmt 1 view -0
  83              		.cfi_startproc
  84              		@ args = 0, pretend = 0, frame = 0
  85              		@ frame_needed = 0, uses_anonymous_args = 0
  86              		.loc 1 16 34 is_stmt 0 view .LVU11
  87 0000 70B5     		push	{r4, r5, r6, lr}
  88              	.LCFI0:
  89              		.cfi_def_cfa_offset 16
  90              		.cfi_offset 4, -16
  91              		.cfi_offset 5, -12
  92              		.cfi_offset 6, -8
  93              		.cfi_offset 14, -4
  94 0002 0546     		mov	r5, r0
  17:Core/drogui/math/kalman/src/kalmanPV.c **** 	matInit(&(kpv->Rq), 3, 3);
  95              		.loc 1 17 2 is_stmt 1 view .LVU12
  96 0004 0322     		movs	r2, #3
  97 0006 1146     		mov	r1, r2
  98 0008 3030     		adds	r0, r0, #48
  99              	.LVL3:
 100              		.loc 1 17 2 is_stmt 0 view .LVU13
 101 000a FFF7FEFF 		bl	matInit
 102              	.LVL4:
ARM GAS  C:\Users\GUILLE~1\AppData\Local\Temp\ccHpHrHN.s 			page 3


  18:Core/drogui/math/kalman/src/kalmanPV.c **** 	matInit(&(kpv->u), 3, 1);
 103              		.loc 1 18 2 is_stmt 1 view .LVU14
 104 000e 0122     		movs	r2, #1
 105 0010 0321     		movs	r1, #3
 106 0012 05F15800 		add	r0, r5, #88
 107 0016 FFF7FEFF 		bl	matInit
 108              	.LVL5:
  19:Core/drogui/math/kalman/src/kalmanPV.c **** 	matInit(&(kpv->s), 3, 1);
 109              		.loc 1 19 2 view .LVU15
 110 001a 0122     		movs	r2, #1
 111 001c 0321     		movs	r1, #3
 112 001e 05F16C00 		add	r0, r5, #108
 113 0022 FFF7FEFF 		bl	matInit
 114              	.LVL6:
  20:Core/drogui/math/kalman/src/kalmanPV.c **** 	matInit(&(kpv->p), 3, 1);
 115              		.loc 1 20 2 view .LVU16
 116 0026 0122     		movs	r2, #1
 117 0028 0321     		movs	r1, #3
 118 002a 05F10800 		add	r0, r5, #8
 119 002e FFF7FEFF 		bl	matInit
 120              	.LVL7:
  21:Core/drogui/math/kalman/src/kalmanPV.c **** 	matInit(&(kpv->v), 3, 1);
 121              		.loc 1 21 2 view .LVU17
 122 0032 0122     		movs	r2, #1
 123 0034 0321     		movs	r1, #3
 124 0036 05F11C00 		add	r0, r5, #28
 125 003a FFF7FEFF 		bl	matInit
 126              	.LVL8:
  22:Core/drogui/math/kalman/src/kalmanPV.c **** 	matInit(&(kpv->bias_p), 3, 1);
 127              		.loc 1 22 2 view .LVU18
 128 003e 0122     		movs	r2, #1
 129 0040 0321     		movs	r1, #3
 130 0042 05F1BC00 		add	r0, r5, #188
 131 0046 FFF7FEFF 		bl	matInit
 132              	.LVL9:
  23:Core/drogui/math/kalman/src/kalmanPV.c **** 	matInit(&(kpv->bias_u), 3, 1);
 133              		.loc 1 23 2 view .LVU19
 134 004a 0122     		movs	r2, #1
 135 004c 0321     		movs	r1, #3
 136 004e 05F1E400 		add	r0, r5, #228
 137 0052 FFF7FEFF 		bl	matInit
 138              	.LVL10:
  24:Core/drogui/math/kalman/src/kalmanPV.c **** 	matInit(&(kpv->bias_v), 3, 1);
 139              		.loc 1 24 2 view .LVU20
 140 0056 0122     		movs	r2, #1
 141 0058 0321     		movs	r1, #3
 142 005a 05F1D000 		add	r0, r5, #208
 143 005e FFF7FEFF 		bl	matInit
 144              	.LVL11:
  25:Core/drogui/math/kalman/src/kalmanPV.c **** 	matInit(&(kpv->ye), 4, 1);
 145              		.loc 1 25 2 view .LVU21
 146 0062 0122     		movs	r2, #1
 147 0064 0421     		movs	r1, #4
 148 0066 05F59070 		add	r0, r5, #288
 149 006a FFF7FEFF 		bl	matInit
 150              	.LVL12:
  26:Core/drogui/math/kalman/src/kalmanPV.c **** 	matInit(&(kpv->p_gps), 2, 1);
ARM GAS  C:\Users\GUILLE~1\AppData\Local\Temp\ccHpHrHN.s 			page 4


 151              		.loc 1 26 2 view .LVU22
 152 006e 0122     		movs	r2, #1
 153 0070 0221     		movs	r1, #2
 154 0072 05F5A470 		add	r0, r5, #328
 155 0076 FFF7FEFF 		bl	matInit
 156              	.LVL13:
  27:Core/drogui/math/kalman/src/kalmanPV.c **** 	matInit(&(kpv->v_gps), 2, 1);
 157              		.loc 1 27 2 view .LVU23
 158 007a 0122     		movs	r2, #1
 159 007c 0221     		movs	r1, #2
 160 007e 05F5AE70 		add	r0, r5, #348
 161 0082 FFF7FEFF 		bl	matInit
 162              	.LVL14:
  28:Core/drogui/math/kalman/src/kalmanPV.c **** 	matInit(&(kpv->KalmanGain), 9, 4);
 163              		.loc 1 28 2 view .LVU24
 164 0086 0422     		movs	r2, #4
 165 0088 0921     		movs	r1, #9
 166 008a 05F59A70 		add	r0, r5, #308
 167 008e FFF7FEFF 		bl	matInit
 168              	.LVL15:
  29:Core/drogui/math/kalman/src/kalmanPV.c **** 	matInit(&(kpv->delta), 9, 1);
 169              		.loc 1 29 2 view .LVU25
 170 0092 0122     		movs	r2, #1
 171 0094 0921     		movs	r1, #9
 172 0096 05F5B870 		add	r0, r5, #368
 173 009a FFF7FEFF 		bl	matInit
 174              	.LVL16:
  30:Core/drogui/math/kalman/src/kalmanPV.c **** 
  31:Core/drogui/math/kalman/src/kalmanPV.c **** 	matInit(&(kpv->Rc), 4, 4);
 175              		.loc 1 31 2 view .LVU26
 176 009e 05F14406 		add	r6, r5, #68
 177 00a2 0422     		movs	r2, #4
 178 00a4 1146     		mov	r1, r2
 179 00a6 3046     		mov	r0, r6
 180 00a8 FFF7FEFF 		bl	matInit
 181              	.LVL17:
  32:Core/drogui/math/kalman/src/kalmanPV.c **** 	for(int i = 0; i < 4;  i++) setMatVal(&(kpv->Rc),i,i,0.1);
 182              		.loc 1 32 2 view .LVU27
 183              	.LBB2:
 184              		.loc 1 32 6 view .LVU28
 185              		.loc 1 32 10 is_stmt 0 view .LVU29
 186 00ac 0024     		movs	r4, #0
 187              	.LVL18:
 188              	.L4:
 189              		.loc 1 32 17 is_stmt 1 discriminator 1 view .LVU30
 190              		.loc 1 32 2 is_stmt 0 discriminator 1 view .LVU31
 191 00ae 032C     		cmp	r4, #3
 192 00b0 08DC     		bgt	.L19
 193              		.loc 1 32 30 is_stmt 1 discriminator 3 view .LVU32
 194 00b2 9FED3D0A 		vldr.32	s0, .L20
 195 00b6 2246     		mov	r2, r4
 196 00b8 2146     		mov	r1, r4
 197 00ba 3046     		mov	r0, r6
 198 00bc FFF7FEFF 		bl	setMatVal
 199              	.LVL19:
 200              		.loc 1 32 25 discriminator 3 view .LVU33
 201              		.loc 1 32 26 is_stmt 0 discriminator 3 view .LVU34
ARM GAS  C:\Users\GUILLE~1\AppData\Local\Temp\ccHpHrHN.s 			page 5


 202 00c0 0134     		adds	r4, r4, #1
 203              	.LVL20:
 204              		.loc 1 32 26 discriminator 3 view .LVU35
 205 00c2 F4E7     		b	.L4
 206              	.L19:
 207              		.loc 1 32 26 discriminator 3 view .LVU36
 208              	.LBE2:
  33:Core/drogui/math/kalman/src/kalmanPV.c **** 
  34:Core/drogui/math/kalman/src/kalmanPV.c **** 	matInit(&(kpv->Q12), 6, 6);
 209              		.loc 1 34 2 is_stmt 1 view .LVU37
 210 00c4 05F58676 		add	r6, r5, #268
 211 00c8 0622     		movs	r2, #6
 212 00ca 1146     		mov	r1, r2
 213 00cc 3046     		mov	r0, r6
 214 00ce FFF7FEFF 		bl	matInit
 215              	.LVL21:
  35:Core/drogui/math/kalman/src/kalmanPV.c **** 	for(int i = 0; i < 6;  i++) setMatVal(&(kpv->Q12),i,i,0.1);
 216              		.loc 1 35 2 view .LVU38
 217              	.LBB3:
 218              		.loc 1 35 6 view .LVU39
 219              		.loc 1 35 10 is_stmt 0 view .LVU40
 220 00d2 0024     		movs	r4, #0
 221              	.LVL22:
 222              		.loc 1 35 2 view .LVU41
 223 00d4 07E0     		b	.L6
 224              	.LVL23:
 225              	.L7:
 226              		.loc 1 35 30 is_stmt 1 discriminator 3 view .LVU42
 227 00d6 9FED340A 		vldr.32	s0, .L20
 228 00da 2246     		mov	r2, r4
 229 00dc 2146     		mov	r1, r4
 230 00de 3046     		mov	r0, r6
 231 00e0 FFF7FEFF 		bl	setMatVal
 232              	.LVL24:
 233              		.loc 1 35 25 discriminator 3 view .LVU43
 234              		.loc 1 35 26 is_stmt 0 discriminator 3 view .LVU44
 235 00e4 0134     		adds	r4, r4, #1
 236              	.LVL25:
 237              	.L6:
 238              		.loc 1 35 17 is_stmt 1 discriminator 1 view .LVU45
 239              		.loc 1 35 2 is_stmt 0 discriminator 1 view .LVU46
 240 00e6 052C     		cmp	r4, #5
 241 00e8 F5DD     		ble	.L7
 242              	.LBE3:
  36:Core/drogui/math/kalman/src/kalmanPV.c **** 
  37:Core/drogui/math/kalman/src/kalmanPV.c **** 	matInit(&(kpv->Pm), 9, 9);
 243              		.loc 1 37 2 is_stmt 1 view .LVU47
 244 00ea 05F1F806 		add	r6, r5, #248
 245 00ee 0922     		movs	r2, #9
 246 00f0 1146     		mov	r1, r2
 247 00f2 3046     		mov	r0, r6
 248 00f4 FFF7FEFF 		bl	matInit
 249              	.LVL26:
  38:Core/drogui/math/kalman/src/kalmanPV.c **** 	for(int i = 0; i < 9;  i++) setMatVal(&(kpv->Pm),i,i,1);
 250              		.loc 1 38 2 view .LVU48
 251              	.LBB4:
 252              		.loc 1 38 6 view .LVU49
ARM GAS  C:\Users\GUILLE~1\AppData\Local\Temp\ccHpHrHN.s 			page 6


 253              		.loc 1 38 10 is_stmt 0 view .LVU50
 254 00f8 0024     		movs	r4, #0
 255              	.LVL27:
 256              		.loc 1 38 2 view .LVU51
 257 00fa 07E0     		b	.L8
 258              	.LVL28:
 259              	.L9:
 260              		.loc 1 38 30 is_stmt 1 discriminator 3 view .LVU52
 261 00fc B7EE000A 		vmov.f32	s0, #1.0e+0
 262 0100 2246     		mov	r2, r4
 263 0102 2146     		mov	r1, r4
 264 0104 3046     		mov	r0, r6
 265 0106 FFF7FEFF 		bl	setMatVal
 266              	.LVL29:
 267              		.loc 1 38 25 discriminator 3 view .LVU53
 268              		.loc 1 38 26 is_stmt 0 discriminator 3 view .LVU54
 269 010a 0134     		adds	r4, r4, #1
 270              	.LVL30:
 271              	.L8:
 272              		.loc 1 38 17 is_stmt 1 discriminator 1 view .LVU55
 273              		.loc 1 38 2 is_stmt 0 discriminator 1 view .LVU56
 274 010c 082C     		cmp	r4, #8
 275 010e F5DD     		ble	.L9
 276              	.LBE4:
  39:Core/drogui/math/kalman/src/kalmanPV.c **** 
  40:Core/drogui/math/kalman/src/kalmanPV.c **** 	matInit(&(kpv->Fm), 9, 9);
 277              		.loc 1 40 2 is_stmt 1 view .LVU57
 278 0110 05F18006 		add	r6, r5, #128
 279 0114 0922     		movs	r2, #9
 280 0116 1146     		mov	r1, r2
 281 0118 3046     		mov	r0, r6
 282 011a FFF7FEFF 		bl	matInit
 283              	.LVL31:
  41:Core/drogui/math/kalman/src/kalmanPV.c **** 	for(int i = 0; i < 9 ; i++) setMatVal(&(kpv->Fm), i, i, 1);
 284              		.loc 1 41 2 view .LVU58
 285              	.LBB5:
 286              		.loc 1 41 6 view .LVU59
 287              		.loc 1 41 10 is_stmt 0 view .LVU60
 288 011e 0024     		movs	r4, #0
 289              	.LVL32:
 290              		.loc 1 41 2 view .LVU61
 291 0120 07E0     		b	.L10
 292              	.LVL33:
 293              	.L11:
 294              		.loc 1 41 30 is_stmt 1 discriminator 3 view .LVU62
 295 0122 B7EE000A 		vmov.f32	s0, #1.0e+0
 296 0126 2246     		mov	r2, r4
 297 0128 2146     		mov	r1, r4
 298 012a 3046     		mov	r0, r6
 299 012c FFF7FEFF 		bl	setMatVal
 300              	.LVL34:
 301              		.loc 1 41 25 discriminator 3 view .LVU63
 302              		.loc 1 41 26 is_stmt 0 discriminator 3 view .LVU64
 303 0130 0134     		adds	r4, r4, #1
 304              	.LVL35:
 305              	.L10:
 306              		.loc 1 41 17 is_stmt 1 discriminator 1 view .LVU65
ARM GAS  C:\Users\GUILLE~1\AppData\Local\Temp\ccHpHrHN.s 			page 7


 307              		.loc 1 41 2 is_stmt 0 discriminator 1 view .LVU66
 308 0132 082C     		cmp	r4, #8
 309 0134 F5DD     		ble	.L11
 310              	.LBE5:
 311              	.LBB6:
  42:Core/drogui/math/kalman/src/kalmanPV.c **** 	for(int i = 0; i < 3; i++) setMatVal(&(kpv->Fm), i, i+3, kpv->Ts);
 312              		.loc 1 42 10 view .LVU67
 313 0136 0024     		movs	r4, #0
 314              	.LVL36:
 315              		.loc 1 42 10 view .LVU68
 316 0138 07E0     		b	.L12
 317              	.LVL37:
 318              	.L13:
 319              		.loc 1 42 29 is_stmt 1 discriminator 3 view .LVU69
 320 013a 95ED000A 		vldr.32	s0, [r5]
 321 013e E21C     		adds	r2, r4, #3
 322 0140 2146     		mov	r1, r4
 323 0142 3046     		mov	r0, r6
 324 0144 FFF7FEFF 		bl	setMatVal
 325              	.LVL38:
 326              		.loc 1 42 24 discriminator 3 view .LVU70
 327              		.loc 1 42 25 is_stmt 0 discriminator 3 view .LVU71
 328 0148 0134     		adds	r4, r4, #1
 329              	.LVL39:
 330              	.L12:
 331              		.loc 1 42 17 is_stmt 1 discriminator 1 view .LVU72
 332              		.loc 1 42 2 is_stmt 0 discriminator 1 view .LVU73
 333 014a 022C     		cmp	r4, #2
 334 014c F5DD     		ble	.L13
 335              	.LBE6:
  43:Core/drogui/math/kalman/src/kalmanPV.c **** 
  44:Core/drogui/math/kalman/src/kalmanPV.c **** 	matInit(&(kpv->Hm), 4, 9);
 336              		.loc 1 44 2 is_stmt 1 view .LVU74
 337 014e 05F1A806 		add	r6, r5, #168
 338 0152 0922     		movs	r2, #9
 339 0154 0421     		movs	r1, #4
 340 0156 3046     		mov	r0, r6
 341 0158 FFF7FEFF 		bl	matInit
 342              	.LVL40:
  45:Core/drogui/math/kalman/src/kalmanPV.c **** 	for(int i = 0; i < 2; i++) {
 343              		.loc 1 45 2 view .LVU75
 344              	.LBB7:
 345              		.loc 1 45 6 view .LVU76
 346              		.loc 1 45 10 is_stmt 0 view .LVU77
 347 015c 0024     		movs	r4, #0
 348              	.LVL41:
 349              		.loc 1 45 2 view .LVU78
 350 015e 0EE0     		b	.L14
 351              	.LVL42:
 352              	.L15:
  46:Core/drogui/math/kalman/src/kalmanPV.c **** 		setMatVal(&(kpv->Hm), i, i,1);
 353              		.loc 1 46 3 is_stmt 1 discriminator 3 view .LVU79
 354 0160 B7EE000A 		vmov.f32	s0, #1.0e+0
 355 0164 2246     		mov	r2, r4
 356 0166 2146     		mov	r1, r4
 357 0168 3046     		mov	r0, r6
 358 016a FFF7FEFF 		bl	setMatVal
ARM GAS  C:\Users\GUILLE~1\AppData\Local\Temp\ccHpHrHN.s 			page 8


 359              	.LVL43:
  47:Core/drogui/math/kalman/src/kalmanPV.c **** 		setMatVal(&(kpv->Hm), i+2, i+3,1);
 360              		.loc 1 47 3 discriminator 3 view .LVU80
 361 016e B7EE000A 		vmov.f32	s0, #1.0e+0
 362 0172 E21C     		adds	r2, r4, #3
 363 0174 A11C     		adds	r1, r4, #2
 364 0176 3046     		mov	r0, r6
 365 0178 FFF7FEFF 		bl	setMatVal
 366              	.LVL44:
  45:Core/drogui/math/kalman/src/kalmanPV.c **** 	for(int i = 0; i < 2; i++) {
 367              		.loc 1 45 24 discriminator 3 view .LVU81
  45:Core/drogui/math/kalman/src/kalmanPV.c **** 	for(int i = 0; i < 2; i++) {
 368              		.loc 1 45 25 is_stmt 0 discriminator 3 view .LVU82
 369 017c 0134     		adds	r4, r4, #1
 370              	.LVL45:
 371              	.L14:
  45:Core/drogui/math/kalman/src/kalmanPV.c **** 	for(int i = 0; i < 2; i++) {
 372              		.loc 1 45 17 is_stmt 1 discriminator 1 view .LVU83
  45:Core/drogui/math/kalman/src/kalmanPV.c **** 	for(int i = 0; i < 2; i++) {
 373              		.loc 1 45 2 is_stmt 0 discriminator 1 view .LVU84
 374 017e 012C     		cmp	r4, #1
 375 0180 EEDD     		ble	.L15
 376              	.LBE7:
  48:Core/drogui/math/kalman/src/kalmanPV.c **** 	}
  49:Core/drogui/math/kalman/src/kalmanPV.c **** 	matInit(&(kpv->Gm),9,6);
 377              		.loc 1 49 2 is_stmt 1 view .LVU85
 378 0182 9435     		adds	r5, r5, #148
 379              	.LVL46:
 380              		.loc 1 49 2 is_stmt 0 view .LVU86
 381 0184 0622     		movs	r2, #6
 382 0186 0921     		movs	r1, #9
 383 0188 2846     		mov	r0, r5
 384 018a FFF7FEFF 		bl	matInit
 385              	.LVL47:
  50:Core/drogui/math/kalman/src/kalmanPV.c **** 	for( int i = 6;  i < 9; i++ ) setMatVal(&(kpv->Gm), i, i-3,1);
 386              		.loc 1 50 2 is_stmt 1 view .LVU87
 387              	.LBB8:
 388              		.loc 1 50 7 view .LVU88
 389              		.loc 1 50 11 is_stmt 0 view .LVU89
 390 018e 0624     		movs	r4, #6
 391              	.LVL48:
 392              		.loc 1 50 2 view .LVU90
 393 0190 07E0     		b	.L16
 394              	.LVL49:
 395              	.L17:
 396              		.loc 1 50 32 is_stmt 1 discriminator 3 view .LVU91
 397 0192 B7EE000A 		vmov.f32	s0, #1.0e+0
 398 0196 E21E     		subs	r2, r4, #3
 399 0198 2146     		mov	r1, r4
 400 019a 2846     		mov	r0, r5
 401 019c FFF7FEFF 		bl	setMatVal
 402              	.LVL50:
 403              		.loc 1 50 26 discriminator 3 view .LVU92
 404              		.loc 1 50 27 is_stmt 0 discriminator 3 view .LVU93
 405 01a0 0134     		adds	r4, r4, #1
 406              	.LVL51:
 407              	.L16:
ARM GAS  C:\Users\GUILLE~1\AppData\Local\Temp\ccHpHrHN.s 			page 9


 408              		.loc 1 50 19 is_stmt 1 discriminator 1 view .LVU94
 409              		.loc 1 50 2 is_stmt 0 discriminator 1 view .LVU95
 410 01a2 082C     		cmp	r4, #8
 411 01a4 F5DD     		ble	.L17
 412              	.LBE8:
  51:Core/drogui/math/kalman/src/kalmanPV.c **** 
  52:Core/drogui/math/kalman/src/kalmanPV.c **** }
 413              		.loc 1 52 1 view .LVU96
 414 01a6 70BD     		pop	{r4, r5, r6, pc}
 415              	.LVL52:
 416              	.L21:
 417              		.loc 1 52 1 view .LVU97
 418              		.align	2
 419              	.L20:
 420 01a8 CDCCCC3D 		.word	1036831949
 421              		.cfi_endproc
 422              	.LFE281:
 424              		.global	__aeabi_f2d
 425              		.global	__aeabi_dsub
 426              		.global	__aeabi_d2f
 427              		.section	.text.kynematics,"ax",%progbits
 428              		.align	1
 429              		.global	kynematics
 430              		.syntax unified
 431              		.thumb
 432              		.thumb_func
 433              		.fpu fpv5-sp-d16
 435              	kynematics:
 436              	.LVL53:
 437              	.LFB282:
  53:Core/drogui/math/kalman/src/kalmanPV.c **** 
  54:Core/drogui/math/kalman/src/kalmanPV.c **** void kynematics(kalmanPV *kpv){
 438              		.loc 1 54 31 is_stmt 1 view -0
 439              		.cfi_startproc
 440              		@ args = 0, pretend = 0, frame = 40
 441              		@ frame_needed = 0, uses_anonymous_args = 0
 442              		.loc 1 54 31 is_stmt 0 view .LVU99
 443 0000 30B5     		push	{r4, r5, lr}
 444              	.LCFI1:
 445              		.cfi_def_cfa_offset 12
 446              		.cfi_offset 4, -12
 447              		.cfi_offset 5, -8
 448              		.cfi_offset 14, -4
 449 0002 8BB0     		sub	sp, sp, #44
 450              	.LCFI2:
 451              		.cfi_def_cfa_offset 56
 452 0004 0446     		mov	r4, r0
  55:Core/drogui/math/kalman/src/kalmanPV.c **** 	mat aux1, aux2;
 453              		.loc 1 55 2 is_stmt 1 view .LVU100
  56:Core/drogui/math/kalman/src/kalmanPV.c **** 
  57:Core/drogui/math/kalman/src/kalmanPV.c **** 	matInit(&aux1, (kpv->p).row, (kpv->p).col);
 454              		.loc 1 57 2 view .LVU101
 455 0006 C268     		ldr	r2, [r0, #12]
 456 0008 8168     		ldr	r1, [r0, #8]
 457 000a 05A8     		add	r0, sp, #20
 458              	.LVL54:
 459              		.loc 1 57 2 is_stmt 0 view .LVU102
ARM GAS  C:\Users\GUILLE~1\AppData\Local\Temp\ccHpHrHN.s 			page 10


 460 000c FFF7FEFF 		bl	matInit
 461              	.LVL55:
  58:Core/drogui/math/kalman/src/kalmanPV.c **** 	matScale(&aux1, &(kpv->v), (kpv->Ts));
 462              		.loc 1 58 2 is_stmt 1 view .LVU103
 463 0010 2546     		mov	r5, r4
 464 0012 1C35     		adds	r5, r5, #28
 465 0014 94ED000A 		vldr.32	s0, [r4]
 466 0018 2946     		mov	r1, r5
 467 001a 05A8     		add	r0, sp, #20
 468 001c FFF7FEFF 		bl	matScale
 469              	.LVL56:
  59:Core/drogui/math/kalman/src/kalmanPV.c **** 
  60:Core/drogui/math/kalman/src/kalmanPV.c **** 	matInit(&aux2, (kpv->p).row, (kpv->p).col);
 470              		.loc 1 60 2 view .LVU104
 471 0020 E268     		ldr	r2, [r4, #12]
 472 0022 A168     		ldr	r1, [r4, #8]
 473 0024 6846     		mov	r0, sp
 474 0026 FFF7FEFF 		bl	matInit
 475              	.LVL57:
  61:Core/drogui/math/kalman/src/kalmanPV.c **** 	matMult(&aux2, &(kpv->Rq), &(kpv->u));
 476              		.loc 1 61 2 view .LVU105
 477 002a 04F15802 		add	r2, r4, #88
 478 002e 04F13001 		add	r1, r4, #48
 479 0032 6846     		mov	r0, sp
 480 0034 FFF7FEFF 		bl	matMult
 481              	.LVL58:
  62:Core/drogui/math/kalman/src/kalmanPV.c **** 
  63:Core/drogui/math/kalman/src/kalmanPV.c **** 	setMatVal(&aux2, 2, 0, getMatVal(&aux2, 2, 0) - 9.81);
 482              		.loc 1 63 2 view .LVU106
 483              		.loc 1 63 25 is_stmt 0 view .LVU107
 484 0038 0022     		movs	r2, #0
 485 003a 0221     		movs	r1, #2
 486 003c 6846     		mov	r0, sp
 487 003e FFF7FEFF 		bl	getMatVal
 488              	.LVL59:
 489 0042 10EE100A 		vmov	r0, s0
 490 0046 FFF7FEFF 		bl	__aeabi_f2d
 491              	.LVL60:
 492              		.loc 1 63 48 view .LVU108
 493 004a 1BA3     		adr	r3, .L24
 494 004c D3E90023 		ldrd	r2, [r3]
 495 0050 FFF7FEFF 		bl	__aeabi_dsub
 496              	.LVL61:
 497              		.loc 1 63 2 view .LVU109
 498 0054 FFF7FEFF 		bl	__aeabi_d2f
 499              	.LVL62:
 500 0058 00EE100A 		vmov	s0, r0
 501 005c 0022     		movs	r2, #0
 502 005e 0221     		movs	r1, #2
 503 0060 6846     		mov	r0, sp
 504 0062 FFF7FEFF 		bl	setMatVal
 505              	.LVL63:
  64:Core/drogui/math/kalman/src/kalmanPV.c **** 
  65:Core/drogui/math/kalman/src/kalmanPV.c **** 	matScale(&aux2, &aux2, (kpv->Ts));
 506              		.loc 1 65 2 is_stmt 1 view .LVU110
 507 0066 94ED000A 		vldr.32	s0, [r4]
 508 006a 6946     		mov	r1, sp
ARM GAS  C:\Users\GUILLE~1\AppData\Local\Temp\ccHpHrHN.s 			page 11


 509 006c 6846     		mov	r0, sp
 510 006e FFF7FEFF 		bl	matScale
 511              	.LVL64:
  66:Core/drogui/math/kalman/src/kalmanPV.c **** 
  67:Core/drogui/math/kalman/src/kalmanPV.c **** 	matAdd(&(kpv->v), &(kpv->v), &aux2);
 512              		.loc 1 67 2 view .LVU111
 513 0072 6A46     		mov	r2, sp
 514 0074 2946     		mov	r1, r5
 515 0076 2846     		mov	r0, r5
 516 0078 FFF7FEFF 		bl	matAdd
 517              	.LVL65:
  68:Core/drogui/math/kalman/src/kalmanPV.c **** 
  69:Core/drogui/math/kalman/src/kalmanPV.c **** 	matScale(&aux2, &aux2, (kpv->Ts)/2);
 518              		.loc 1 69 2 view .LVU112
 519              		.loc 1 69 29 is_stmt 0 view .LVU113
 520 007c 2346     		mov	r3, r4
 521 007e 0834     		adds	r4, r4, #8
 522              	.LVL66:
 523              		.loc 1 69 29 view .LVU114
 524 0080 93ED000A 		vldr.32	s0, [r3]
 525              		.loc 1 69 2 view .LVU115
 526 0084 F6EE007A 		vmov.f32	s15, #5.0e-1
 527 0088 20EE270A 		vmul.f32	s0, s0, s15
 528 008c 6946     		mov	r1, sp
 529 008e 6846     		mov	r0, sp
 530 0090 FFF7FEFF 		bl	matScale
 531              	.LVL67:
  70:Core/drogui/math/kalman/src/kalmanPV.c **** 
  71:Core/drogui/math/kalman/src/kalmanPV.c **** 	matAdd(&(kpv->p), &(kpv->p), &aux1);
 532              		.loc 1 71 2 is_stmt 1 view .LVU116
 533 0094 05AA     		add	r2, sp, #20
 534 0096 2146     		mov	r1, r4
 535 0098 2046     		mov	r0, r4
 536 009a FFF7FEFF 		bl	matAdd
 537              	.LVL68:
  72:Core/drogui/math/kalman/src/kalmanPV.c **** 	matAdd(&(kpv->p), &(kpv->p), &aux2);
 538              		.loc 1 72 2 view .LVU117
 539 009e 6A46     		mov	r2, sp
 540 00a0 2146     		mov	r1, r4
 541 00a2 2046     		mov	r0, r4
 542 00a4 FFF7FEFF 		bl	matAdd
 543              	.LVL69:
  73:Core/drogui/math/kalman/src/kalmanPV.c **** 
  74:Core/drogui/math/kalman/src/kalmanPV.c **** 
  75:Core/drogui/math/kalman/src/kalmanPV.c **** 	matDestruct(&aux1);
 544              		.loc 1 75 2 view .LVU118
 545 00a8 05A8     		add	r0, sp, #20
 546 00aa FFF7FEFF 		bl	matDestruct
 547              	.LVL70:
  76:Core/drogui/math/kalman/src/kalmanPV.c **** 	matDestruct(&aux2);
 548              		.loc 1 76 2 view .LVU119
 549 00ae 6846     		mov	r0, sp
 550 00b0 FFF7FEFF 		bl	matDestruct
 551              	.LVL71:
  77:Core/drogui/math/kalman/src/kalmanPV.c **** }
 552              		.loc 1 77 1 is_stmt 0 view .LVU120
 553 00b4 0BB0     		add	sp, sp, #44
ARM GAS  C:\Users\GUILLE~1\AppData\Local\Temp\ccHpHrHN.s 			page 12


 554              	.LCFI3:
 555              		.cfi_def_cfa_offset 12
 556              		@ sp needed
 557 00b6 30BD     		pop	{r4, r5, pc}
 558              	.LVL72:
 559              	.L25:
 560              		.loc 1 77 1 view .LVU121
 561              		.align	3
 562              	.L24:
 563 00b8 1F85EB51 		.word	1374389535
 564 00bc B89E2340 		.word	1076076216
 565              		.cfi_endproc
 566              	.LFE282:
 568              		.section	.text.getMatFm,"ax",%progbits
 569              		.align	1
 570              		.global	getMatFm
 571              		.syntax unified
 572              		.thumb
 573              		.thumb_func
 574              		.fpu fpv5-sp-d16
 576              	getMatFm:
 577              	.LVL73:
 578              	.LFB283:
  78:Core/drogui/math/kalman/src/kalmanPV.c **** 
  79:Core/drogui/math/kalman/src/kalmanPV.c **** 
  80:Core/drogui/math/kalman/src/kalmanPV.c **** void getMatFm(kalmanPV *kpv){
 579              		.loc 1 80 29 is_stmt 1 view -0
 580              		.cfi_startproc
 581              		@ args = 0, pretend = 0, frame = 0
 582              		@ frame_needed = 0, uses_anonymous_args = 0
 583              		.loc 1 80 29 is_stmt 0 view .LVU123
 584 0000 70B5     		push	{r4, r5, r6, lr}
 585              	.LCFI4:
 586              		.cfi_def_cfa_offset 16
 587              		.cfi_offset 4, -16
 588              		.cfi_offset 5, -12
 589              		.cfi_offset 6, -8
 590              		.cfi_offset 14, -4
 591 0002 2DED028B 		vpush.64	{d8}
 592              	.LCFI5:
 593              		.cfi_def_cfa_offset 24
 594              		.cfi_offset 80, -24
 595              		.cfi_offset 81, -20
 596 0006 0646     		mov	r6, r0
  81:Core/drogui/math/kalman/src/kalmanPV.c **** 	for(int i = 0; i < 3; i++)
 597              		.loc 1 81 2 is_stmt 1 view .LVU124
 598              	.LBB9:
 599              		.loc 1 81 6 view .LVU125
 600              	.LVL74:
 601              		.loc 1 81 10 is_stmt 0 view .LVU126
 602 0008 0025     		movs	r5, #0
 603              		.loc 1 81 2 view .LVU127
 604 000a 13E0     		b	.L27
 605              	.LVL75:
 606              	.L28:
 607              	.LBB10:
  82:Core/drogui/math/kalman/src/kalmanPV.c **** 		for(int j = 0; j < 3; j++)
ARM GAS  C:\Users\GUILLE~1\AppData\Local\Temp\ccHpHrHN.s 			page 13


  83:Core/drogui/math/kalman/src/kalmanPV.c **** 			setMatVal(&(kpv->Fm), i + 3 ,j + 6, (kpv->Ts)*getMatVal(&(kpv->Rq), i, j));
 608              		.loc 1 83 4 is_stmt 1 discriminator 3 view .LVU128
 609              		.loc 1 83 44 is_stmt 0 discriminator 3 view .LVU129
 610 000c 3046     		mov	r0, r6
 611 000e 3030     		adds	r0, r0, #48
 612 0010 96ED008A 		vldr.32	s16, [r6]
 613              		.loc 1 83 50 discriminator 3 view .LVU130
 614 0014 2246     		mov	r2, r4
 615 0016 2946     		mov	r1, r5
 616 0018 FFF7FEFF 		bl	getMatVal
 617              	.LVL76:
 618              		.loc 1 83 4 discriminator 3 view .LVU131
 619 001c 28EE000A 		vmul.f32	s0, s16, s0
 620 0020 A21D     		adds	r2, r4, #6
 621 0022 E91C     		adds	r1, r5, #3
 622 0024 06F18000 		add	r0, r6, #128
 623 0028 FFF7FEFF 		bl	setMatVal
 624              	.LVL77:
  82:Core/drogui/math/kalman/src/kalmanPV.c **** 		for(int j = 0; j < 3; j++)
 625              		.loc 1 82 25 is_stmt 1 discriminator 3 view .LVU132
  82:Core/drogui/math/kalman/src/kalmanPV.c **** 		for(int j = 0; j < 3; j++)
 626              		.loc 1 82 26 is_stmt 0 discriminator 3 view .LVU133
 627 002c 0134     		adds	r4, r4, #1
 628              	.LVL78:
 629              	.L29:
  82:Core/drogui/math/kalman/src/kalmanPV.c **** 		for(int j = 0; j < 3; j++)
 630              		.loc 1 82 18 is_stmt 1 discriminator 1 view .LVU134
  82:Core/drogui/math/kalman/src/kalmanPV.c **** 		for(int j = 0; j < 3; j++)
 631              		.loc 1 82 3 is_stmt 0 discriminator 1 view .LVU135
 632 002e 022C     		cmp	r4, #2
 633 0030 ECDD     		ble	.L28
 634              	.LBE10:
  81:Core/drogui/math/kalman/src/kalmanPV.c **** 	for(int i = 0; i < 3; i++)
 635              		.loc 1 81 24 is_stmt 1 discriminator 2 view .LVU136
  81:Core/drogui/math/kalman/src/kalmanPV.c **** 	for(int i = 0; i < 3; i++)
 636              		.loc 1 81 25 is_stmt 0 discriminator 2 view .LVU137
 637 0032 0135     		adds	r5, r5, #1
 638              	.LVL79:
 639              	.L27:
  81:Core/drogui/math/kalman/src/kalmanPV.c **** 	for(int i = 0; i < 3; i++)
 640              		.loc 1 81 17 is_stmt 1 discriminator 1 view .LVU138
  81:Core/drogui/math/kalman/src/kalmanPV.c **** 	for(int i = 0; i < 3; i++)
 641              		.loc 1 81 2 is_stmt 0 discriminator 1 view .LVU139
 642 0034 022D     		cmp	r5, #2
 643 0036 01DC     		bgt	.L32
 644              	.LBB11:
  82:Core/drogui/math/kalman/src/kalmanPV.c **** 		for(int j = 0; j < 3; j++)
 645              		.loc 1 82 11 view .LVU140
 646 0038 0024     		movs	r4, #0
 647 003a F8E7     		b	.L29
 648              	.L32:
 649              	.LBE11:
 650              	.LBE9:
  84:Core/drogui/math/kalman/src/kalmanPV.c **** }
 651              		.loc 1 84 1 view .LVU141
 652 003c BDEC028B 		vldm	sp!, {d8}
 653              	.LCFI6:
ARM GAS  C:\Users\GUILLE~1\AppData\Local\Temp\ccHpHrHN.s 			page 14


 654              		.cfi_restore 80
 655              		.cfi_restore 81
 656              		.cfi_def_cfa_offset 16
 657 0040 70BD     		pop	{r4, r5, r6, pc}
 658              		.loc 1 84 1 view .LVU142
 659              		.cfi_endproc
 660              	.LFE283:
 662              		.section	.text.getMatGm,"ax",%progbits
 663              		.align	1
 664              		.global	getMatGm
 665              		.syntax unified
 666              		.thumb
 667              		.thumb_func
 668              		.fpu fpv5-sp-d16
 670              	getMatGm:
 671              	.LVL80:
 672              	.LFB284:
  85:Core/drogui/math/kalman/src/kalmanPV.c **** 
  86:Core/drogui/math/kalman/src/kalmanPV.c **** void getMatGm(kalmanPV *kpv){
 673              		.loc 1 86 29 is_stmt 1 view -0
 674              		.cfi_startproc
 675              		@ args = 0, pretend = 0, frame = 0
 676              		@ frame_needed = 0, uses_anonymous_args = 0
 677              		.loc 1 86 29 is_stmt 0 view .LVU144
 678 0000 70B5     		push	{r4, r5, r6, lr}
 679              	.LCFI7:
 680              		.cfi_def_cfa_offset 16
 681              		.cfi_offset 4, -16
 682              		.cfi_offset 5, -12
 683              		.cfi_offset 6, -8
 684              		.cfi_offset 14, -4
 685 0002 2DED028B 		vpush.64	{d8}
 686              	.LCFI8:
 687              		.cfi_def_cfa_offset 24
 688              		.cfi_offset 80, -24
 689              		.cfi_offset 81, -20
 690 0006 0646     		mov	r6, r0
  87:Core/drogui/math/kalman/src/kalmanPV.c **** 	for( int i = 0;  i < 3; i++ ){
 691              		.loc 1 87 2 is_stmt 1 view .LVU145
 692              	.LBB12:
 693              		.loc 1 87 7 view .LVU146
 694              	.LVL81:
 695              		.loc 1 87 11 is_stmt 0 view .LVU147
 696 0008 0025     		movs	r5, #0
 697              		.loc 1 87 2 view .LVU148
 698 000a 13E0     		b	.L34
 699              	.LVL82:
 700              	.L35:
 701              	.LBB13:
  88:Core/drogui/math/kalman/src/kalmanPV.c **** 		for( int j = 0; j < 3; j++)
  89:Core/drogui/math/kalman/src/kalmanPV.c **** 			setMatVal(&(kpv->Gm), i+3, j, (kpv->Ts)*getMatVal(&(kpv->Rq), i,j));
 702              		.loc 1 89 4 is_stmt 1 discriminator 3 view .LVU149
 703              		.loc 1 89 38 is_stmt 0 discriminator 3 view .LVU150
 704 000c 3046     		mov	r0, r6
 705 000e 3030     		adds	r0, r0, #48
 706 0010 96ED008A 		vldr.32	s16, [r6]
 707              		.loc 1 89 44 discriminator 3 view .LVU151
ARM GAS  C:\Users\GUILLE~1\AppData\Local\Temp\ccHpHrHN.s 			page 15


 708 0014 2246     		mov	r2, r4
 709 0016 2946     		mov	r1, r5
 710 0018 FFF7FEFF 		bl	getMatVal
 711              	.LVL83:
 712              		.loc 1 89 4 discriminator 3 view .LVU152
 713 001c 28EE000A 		vmul.f32	s0, s16, s0
 714 0020 2246     		mov	r2, r4
 715 0022 E91C     		adds	r1, r5, #3
 716 0024 06F19400 		add	r0, r6, #148
 717 0028 FFF7FEFF 		bl	setMatVal
 718              	.LVL84:
  88:Core/drogui/math/kalman/src/kalmanPV.c **** 		for( int j = 0; j < 3; j++)
 719              		.loc 1 88 26 is_stmt 1 discriminator 3 view .LVU153
  88:Core/drogui/math/kalman/src/kalmanPV.c **** 		for( int j = 0; j < 3; j++)
 720              		.loc 1 88 27 is_stmt 0 discriminator 3 view .LVU154
 721 002c 0134     		adds	r4, r4, #1
 722              	.LVL85:
 723              	.L36:
  88:Core/drogui/math/kalman/src/kalmanPV.c **** 		for( int j = 0; j < 3; j++)
 724              		.loc 1 88 19 is_stmt 1 discriminator 1 view .LVU155
  88:Core/drogui/math/kalman/src/kalmanPV.c **** 		for( int j = 0; j < 3; j++)
 725              		.loc 1 88 3 is_stmt 0 discriminator 1 view .LVU156
 726 002e 022C     		cmp	r4, #2
 727 0030 ECDD     		ble	.L35
 728              	.LBE13:
  87:Core/drogui/math/kalman/src/kalmanPV.c **** 	for( int i = 0;  i < 3; i++ ){
 729              		.loc 1 87 26 is_stmt 1 discriminator 2 view .LVU157
  87:Core/drogui/math/kalman/src/kalmanPV.c **** 	for( int i = 0;  i < 3; i++ ){
 730              		.loc 1 87 27 is_stmt 0 discriminator 2 view .LVU158
 731 0032 0135     		adds	r5, r5, #1
 732              	.LVL86:
 733              	.L34:
  87:Core/drogui/math/kalman/src/kalmanPV.c **** 	for( int i = 0;  i < 3; i++ ){
 734              		.loc 1 87 19 is_stmt 1 discriminator 1 view .LVU159
  87:Core/drogui/math/kalman/src/kalmanPV.c **** 	for( int i = 0;  i < 3; i++ ){
 735              		.loc 1 87 2 is_stmt 0 discriminator 1 view .LVU160
 736 0034 022D     		cmp	r5, #2
 737 0036 01DC     		bgt	.L39
 738              	.LBB14:
  88:Core/drogui/math/kalman/src/kalmanPV.c **** 		for( int j = 0; j < 3; j++)
 739              		.loc 1 88 12 view .LVU161
 740 0038 0024     		movs	r4, #0
 741 003a F8E7     		b	.L36
 742              	.L39:
 743              	.LBE14:
 744              	.LBE12:
  90:Core/drogui/math/kalman/src/kalmanPV.c **** 	}
  91:Core/drogui/math/kalman/src/kalmanPV.c **** }
 745              		.loc 1 91 1 view .LVU162
 746 003c BDEC028B 		vldm	sp!, {d8}
 747              	.LCFI9:
 748              		.cfi_restore 80
 749              		.cfi_restore 81
 750              		.cfi_def_cfa_offset 16
 751 0040 70BD     		pop	{r4, r5, r6, pc}
 752              		.loc 1 91 1 view .LVU163
 753              		.cfi_endproc
ARM GAS  C:\Users\GUILLE~1\AppData\Local\Temp\ccHpHrHN.s 			page 16


 754              	.LFE284:
 756              		.section	.text.UpdatePm,"ax",%progbits
 757              		.align	1
 758              		.global	UpdatePm
 759              		.syntax unified
 760              		.thumb
 761              		.thumb_func
 762              		.fpu fpv5-sp-d16
 764              	UpdatePm:
 765              	.LVL87:
 766              	.LFB285:
  92:Core/drogui/math/kalman/src/kalmanPV.c **** 
  93:Core/drogui/math/kalman/src/kalmanPV.c **** void UpdatePm(kalmanPV *kpv){
 767              		.loc 1 93 29 is_stmt 1 view -0
 768              		.cfi_startproc
 769              		@ args = 0, pretend = 0, frame = 104
 770              		@ frame_needed = 0, uses_anonymous_args = 0
 771              		.loc 1 93 29 is_stmt 0 view .LVU165
 772 0000 F0B5     		push	{r4, r5, r6, r7, lr}
 773              	.LCFI10:
 774              		.cfi_def_cfa_offset 20
 775              		.cfi_offset 4, -20
 776              		.cfi_offset 5, -16
 777              		.cfi_offset 6, -12
 778              		.cfi_offset 7, -8
 779              		.cfi_offset 14, -4
 780 0002 9BB0     		sub	sp, sp, #108
 781              	.LCFI11:
 782              		.cfi_def_cfa_offset 128
 783 0004 0446     		mov	r4, r0
  94:Core/drogui/math/kalman/src/kalmanPV.c **** 
  95:Core/drogui/math/kalman/src/kalmanPV.c **** 	mat aux1,aux2,aux3,aux4,aux5;
 784              		.loc 1 95 2 is_stmt 1 view .LVU166
  96:Core/drogui/math/kalman/src/kalmanPV.c **** 	matInit(&aux1, 9, 9);
 785              		.loc 1 96 2 view .LVU167
 786 0006 0922     		movs	r2, #9
 787 0008 1146     		mov	r1, r2
 788 000a 15A8     		add	r0, sp, #84
 789              	.LVL88:
 790              		.loc 1 96 2 is_stmt 0 view .LVU168
 791 000c FFF7FEFF 		bl	matInit
 792              	.LVL89:
  97:Core/drogui/math/kalman/src/kalmanPV.c **** 	matInit(&aux2, 6, 9);
 793              		.loc 1 97 2 is_stmt 1 view .LVU169
 794 0010 0922     		movs	r2, #9
 795 0012 0621     		movs	r1, #6
 796 0014 10A8     		add	r0, sp, #64
 797 0016 FFF7FEFF 		bl	matInit
 798              	.LVL90:
  98:Core/drogui/math/kalman/src/kalmanPV.c **** 	matInit(&aux3, 9, 9);
 799              		.loc 1 98 2 view .LVU170
 800 001a 0922     		movs	r2, #9
 801 001c 1146     		mov	r1, r2
 802 001e 0BA8     		add	r0, sp, #44
 803 0020 FFF7FEFF 		bl	matInit
 804              	.LVL91:
  99:Core/drogui/math/kalman/src/kalmanPV.c **** 	matInit(&aux4, 9, 9);
ARM GAS  C:\Users\GUILLE~1\AppData\Local\Temp\ccHpHrHN.s 			page 17


 805              		.loc 1 99 2 view .LVU171
 806 0024 0922     		movs	r2, #9
 807 0026 1146     		mov	r1, r2
 808 0028 06A8     		add	r0, sp, #24
 809 002a FFF7FEFF 		bl	matInit
 810              	.LVL92:
 100:Core/drogui/math/kalman/src/kalmanPV.c **** 	matInit(&aux5, 9, 6);
 811              		.loc 1 100 2 view .LVU172
 812 002e 0622     		movs	r2, #6
 813 0030 0921     		movs	r1, #9
 814 0032 01A8     		add	r0, sp, #4
 815 0034 FFF7FEFF 		bl	matInit
 816              	.LVL93:
 101:Core/drogui/math/kalman/src/kalmanPV.c **** 
 102:Core/drogui/math/kalman/src/kalmanPV.c **** 	getMatFm(kpv);
 817              		.loc 1 102 2 view .LVU173
 818 0038 2046     		mov	r0, r4
 819 003a FFF7FEFF 		bl	getMatFm
 820              	.LVL94:
 103:Core/drogui/math/kalman/src/kalmanPV.c **** 	getMatGm(kpv);
 821              		.loc 1 103 2 view .LVU174
 822 003e 2046     		mov	r0, r4
 823 0040 FFF7FEFF 		bl	getMatGm
 824              	.LVL95:
 104:Core/drogui/math/kalman/src/kalmanPV.c **** 
 105:Core/drogui/math/kalman/src/kalmanPV.c **** 	matTrans(&aux1,&(kpv->Fm));
 825              		.loc 1 105 2 view .LVU175
 826 0044 04F18007 		add	r7, r4, #128
 827 0048 3946     		mov	r1, r7
 828 004a 15A8     		add	r0, sp, #84
 829 004c FFF7FEFF 		bl	matTrans
 830              	.LVL96:
 106:Core/drogui/math/kalman/src/kalmanPV.c **** 	matTrans(&aux2,&(kpv->Gm));
 831              		.loc 1 106 2 view .LVU176
 832 0050 04F19406 		add	r6, r4, #148
 833 0054 3146     		mov	r1, r6
 834 0056 10A8     		add	r0, sp, #64
 835 0058 FFF7FEFF 		bl	matTrans
 836              	.LVL97:
 107:Core/drogui/math/kalman/src/kalmanPV.c **** 
 108:Core/drogui/math/kalman/src/kalmanPV.c **** 	matMult(&aux4,&(kpv->Fm),&(kpv->Pm));
 837              		.loc 1 108 2 view .LVU177
 838 005c 04F1F805 		add	r5, r4, #248
 839 0060 2A46     		mov	r2, r5
 840 0062 3946     		mov	r1, r7
 841 0064 06A8     		add	r0, sp, #24
 842 0066 FFF7FEFF 		bl	matMult
 843              	.LVL98:
 109:Core/drogui/math/kalman/src/kalmanPV.c **** 	matMult(&(kpv->Pm),&aux4,&aux1);
 844              		.loc 1 109 2 view .LVU178
 845 006a 15AA     		add	r2, sp, #84
 846 006c 06A9     		add	r1, sp, #24
 847 006e 2846     		mov	r0, r5
 848 0070 FFF7FEFF 		bl	matMult
 849              	.LVL99:
 110:Core/drogui/math/kalman/src/kalmanPV.c **** 
 111:Core/drogui/math/kalman/src/kalmanPV.c **** 	matMult(&aux5,&(kpv->Gm),&(kpv->Q12));
ARM GAS  C:\Users\GUILLE~1\AppData\Local\Temp\ccHpHrHN.s 			page 18


 850              		.loc 1 111 2 view .LVU179
 851 0074 04F58672 		add	r2, r4, #268
 852 0078 3146     		mov	r1, r6
 853 007a 01A8     		add	r0, sp, #4
 854 007c FFF7FEFF 		bl	matMult
 855              	.LVL100:
 112:Core/drogui/math/kalman/src/kalmanPV.c **** 	matMult(&aux3,&aux5,&aux2);
 856              		.loc 1 112 2 view .LVU180
 857 0080 10AA     		add	r2, sp, #64
 858 0082 01A9     		add	r1, sp, #4
 859 0084 0BA8     		add	r0, sp, #44
 860 0086 FFF7FEFF 		bl	matMult
 861              	.LVL101:
 113:Core/drogui/math/kalman/src/kalmanPV.c **** 	matAdd(&(kpv->Pm), &(kpv->Pm), &aux3);
 862              		.loc 1 113 2 view .LVU181
 863 008a 0BAA     		add	r2, sp, #44
 864 008c 2946     		mov	r1, r5
 865 008e 2846     		mov	r0, r5
 866 0090 FFF7FEFF 		bl	matAdd
 867              	.LVL102:
 114:Core/drogui/math/kalman/src/kalmanPV.c **** 
 115:Core/drogui/math/kalman/src/kalmanPV.c **** 	matDestruct(&aux1);
 868              		.loc 1 115 2 view .LVU182
 869 0094 15A8     		add	r0, sp, #84
 870 0096 FFF7FEFF 		bl	matDestruct
 871              	.LVL103:
 116:Core/drogui/math/kalman/src/kalmanPV.c **** 	matDestruct(&aux2);
 872              		.loc 1 116 2 view .LVU183
 873 009a 10A8     		add	r0, sp, #64
 874 009c FFF7FEFF 		bl	matDestruct
 875              	.LVL104:
 117:Core/drogui/math/kalman/src/kalmanPV.c **** 	matDestruct(&aux3);
 876              		.loc 1 117 2 view .LVU184
 877 00a0 0BA8     		add	r0, sp, #44
 878 00a2 FFF7FEFF 		bl	matDestruct
 879              	.LVL105:
 118:Core/drogui/math/kalman/src/kalmanPV.c **** 	matDestruct(&aux4);
 880              		.loc 1 118 2 view .LVU185
 881 00a6 06A8     		add	r0, sp, #24
 882 00a8 FFF7FEFF 		bl	matDestruct
 883              	.LVL106:
 119:Core/drogui/math/kalman/src/kalmanPV.c **** 	matDestruct(&aux5);
 884              		.loc 1 119 2 view .LVU186
 885 00ac 01A8     		add	r0, sp, #4
 886 00ae FFF7FEFF 		bl	matDestruct
 887              	.LVL107:
 120:Core/drogui/math/kalman/src/kalmanPV.c **** }
 888              		.loc 1 120 1 is_stmt 0 view .LVU187
 889 00b2 1BB0     		add	sp, sp, #108
 890              	.LCFI12:
 891              		.cfi_def_cfa_offset 20
 892              		@ sp needed
 893 00b4 F0BD     		pop	{r4, r5, r6, r7, pc}
 894              		.loc 1 120 1 view .LVU188
 895              		.cfi_endproc
 896              	.LFE285:
 898              		.section	.text.getKalmanGain,"ax",%progbits
ARM GAS  C:\Users\GUILLE~1\AppData\Local\Temp\ccHpHrHN.s 			page 19


 899              		.align	1
 900              		.global	getKalmanGain
 901              		.syntax unified
 902              		.thumb
 903              		.thumb_func
 904              		.fpu fpv5-sp-d16
 906              	getKalmanGain:
 907              	.LVL108:
 908              	.LFB286:
 121:Core/drogui/math/kalman/src/kalmanPV.c **** void getKalmanGain(kalmanPV *kpv){
 909              		.loc 1 121 34 is_stmt 1 view -0
 910              		.cfi_startproc
 911              		@ args = 0, pretend = 0, frame = 80
 912              		@ frame_needed = 0, uses_anonymous_args = 0
 913              		.loc 1 121 34 is_stmt 0 view .LVU190
 914 0000 30B5     		push	{r4, r5, lr}
 915              	.LCFI13:
 916              		.cfi_def_cfa_offset 12
 917              		.cfi_offset 4, -12
 918              		.cfi_offset 5, -8
 919              		.cfi_offset 14, -4
 920 0002 95B0     		sub	sp, sp, #84
 921              	.LCFI14:
 922              		.cfi_def_cfa_offset 96
 923 0004 0446     		mov	r4, r0
 122:Core/drogui/math/kalman/src/kalmanPV.c **** 
 123:Core/drogui/math/kalman/src/kalmanPV.c **** 	mat aux1, aux2, aux3,aux4;
 924              		.loc 1 123 2 is_stmt 1 view .LVU191
 124:Core/drogui/math/kalman/src/kalmanPV.c **** 
 125:Core/drogui/math/kalman/src/kalmanPV.c **** 
 126:Core/drogui/math/kalman/src/kalmanPV.c **** 	matInit(&aux1, 4, 4);
 925              		.loc 1 126 2 view .LVU192
 926 0006 0422     		movs	r2, #4
 927 0008 1146     		mov	r1, r2
 928 000a 0FA8     		add	r0, sp, #60
 929              	.LVL109:
 930              		.loc 1 126 2 is_stmt 0 view .LVU193
 931 000c FFF7FEFF 		bl	matInit
 932              	.LVL110:
 127:Core/drogui/math/kalman/src/kalmanPV.c **** 	matInit(&aux2, 9, 4);
 933              		.loc 1 127 2 is_stmt 1 view .LVU194
 934 0010 0422     		movs	r2, #4
 935 0012 0921     		movs	r1, #9
 936 0014 0AA8     		add	r0, sp, #40
 937 0016 FFF7FEFF 		bl	matInit
 938              	.LVL111:
 128:Core/drogui/math/kalman/src/kalmanPV.c **** 	matInit(&aux3, 9, 4);
 939              		.loc 1 128 2 view .LVU195
 940 001a 0422     		movs	r2, #4
 941 001c 0921     		movs	r1, #9
 942 001e 05A8     		add	r0, sp, #20
 943 0020 FFF7FEFF 		bl	matInit
 944              	.LVL112:
 129:Core/drogui/math/kalman/src/kalmanPV.c **** 	matInit(&aux4, 4, 4);
 945              		.loc 1 129 2 view .LVU196
 946 0024 0422     		movs	r2, #4
 947 0026 1146     		mov	r1, r2
ARM GAS  C:\Users\GUILLE~1\AppData\Local\Temp\ccHpHrHN.s 			page 20


 948 0028 6846     		mov	r0, sp
 949 002a FFF7FEFF 		bl	matInit
 950              	.LVL113:
 130:Core/drogui/math/kalman/src/kalmanPV.c **** 
 131:Core/drogui/math/kalman/src/kalmanPV.c **** 	matTrans(&aux3, &(kpv->Hm));
 951              		.loc 1 131 2 view .LVU197
 952 002e 04F1A805 		add	r5, r4, #168
 953 0032 2946     		mov	r1, r5
 954 0034 05A8     		add	r0, sp, #20
 955 0036 FFF7FEFF 		bl	matTrans
 956              	.LVL114:
 132:Core/drogui/math/kalman/src/kalmanPV.c **** 	matMult(&aux2, &(kpv->Pm), &aux3);
 957              		.loc 1 132 2 view .LVU198
 958 003a 05AA     		add	r2, sp, #20
 959 003c 04F1F801 		add	r1, r4, #248
 960 0040 0AA8     		add	r0, sp, #40
 961 0042 FFF7FEFF 		bl	matMult
 962              	.LVL115:
 133:Core/drogui/math/kalman/src/kalmanPV.c **** 
 134:Core/drogui/math/kalman/src/kalmanPV.c **** 	matMult(&aux1, &(kpv->Hm), &aux2);
 963              		.loc 1 134 2 view .LVU199
 964 0046 0AAA     		add	r2, sp, #40
 965 0048 2946     		mov	r1, r5
 966 004a 0FA8     		add	r0, sp, #60
 967 004c FFF7FEFF 		bl	matMult
 968              	.LVL116:
 135:Core/drogui/math/kalman/src/kalmanPV.c **** 	matAdd(&aux1, &aux1, &(kpv->Rc));
 969              		.loc 1 135 2 view .LVU200
 970 0050 04F14402 		add	r2, r4, #68
 971 0054 0FA9     		add	r1, sp, #60
 972 0056 0846     		mov	r0, r1
 973 0058 FFF7FEFF 		bl	matAdd
 974              	.LVL117:
 136:Core/drogui/math/kalman/src/kalmanPV.c **** 	matInv(&aux4, &aux1);
 975              		.loc 1 136 2 view .LVU201
 976 005c 0FA9     		add	r1, sp, #60
 977 005e 6846     		mov	r0, sp
 978 0060 FFF7FEFF 		bl	matInv
 979              	.LVL118:
 137:Core/drogui/math/kalman/src/kalmanPV.c **** 
 138:Core/drogui/math/kalman/src/kalmanPV.c **** 	matMult(&(kpv->KalmanGain), &aux2, &aux4);
 980              		.loc 1 138 2 view .LVU202
 981 0064 6A46     		mov	r2, sp
 982 0066 0AA9     		add	r1, sp, #40
 983 0068 04F59A70 		add	r0, r4, #308
 984 006c FFF7FEFF 		bl	matMult
 985              	.LVL119:
 139:Core/drogui/math/kalman/src/kalmanPV.c **** 
 140:Core/drogui/math/kalman/src/kalmanPV.c **** 	matDestruct(&aux1);
 986              		.loc 1 140 2 view .LVU203
 987 0070 0FA8     		add	r0, sp, #60
 988 0072 FFF7FEFF 		bl	matDestruct
 989              	.LVL120:
 141:Core/drogui/math/kalman/src/kalmanPV.c **** 	matDestruct(&aux2);
 990              		.loc 1 141 2 view .LVU204
 991 0076 0AA8     		add	r0, sp, #40
 992 0078 FFF7FEFF 		bl	matDestruct
ARM GAS  C:\Users\GUILLE~1\AppData\Local\Temp\ccHpHrHN.s 			page 21


 993              	.LVL121:
 142:Core/drogui/math/kalman/src/kalmanPV.c **** 	matDestruct(&aux3);
 994              		.loc 1 142 2 view .LVU205
 995 007c 05A8     		add	r0, sp, #20
 996 007e FFF7FEFF 		bl	matDestruct
 997              	.LVL122:
 143:Core/drogui/math/kalman/src/kalmanPV.c **** 	matDestruct(&aux4);
 998              		.loc 1 143 2 view .LVU206
 999 0082 6846     		mov	r0, sp
 1000 0084 FFF7FEFF 		bl	matDestruct
 1001              	.LVL123:
 144:Core/drogui/math/kalman/src/kalmanPV.c **** }
 1002              		.loc 1 144 1 is_stmt 0 view .LVU207
 1003 0088 15B0     		add	sp, sp, #84
 1004              	.LCFI15:
 1005              		.cfi_def_cfa_offset 12
 1006              		@ sp needed
 1007 008a 30BD     		pop	{r4, r5, pc}
 1008              		.loc 1 144 1 view .LVU208
 1009              		.cfi_endproc
 1010              	.LFE286:
 1012              		.section	.text.UpdatePmCovGPS,"ax",%progbits
 1013              		.align	1
 1014              		.global	UpdatePmCovGPS
 1015              		.syntax unified
 1016              		.thumb
 1017              		.thumb_func
 1018              		.fpu fpv5-sp-d16
 1020              	UpdatePmCovGPS:
 1021              	.LVL124:
 1022              	.LFB287:
 145:Core/drogui/math/kalman/src/kalmanPV.c **** 
 146:Core/drogui/math/kalman/src/kalmanPV.c **** void UpdatePmCovGPS(kalmanPV *kpv){
 1023              		.loc 1 146 35 is_stmt 1 view -0
 1024              		.cfi_startproc
 1025              		@ args = 0, pretend = 0, frame = 40
 1026              		@ frame_needed = 0, uses_anonymous_args = 0
 1027              		.loc 1 146 35 is_stmt 0 view .LVU210
 1028 0000 30B5     		push	{r4, r5, lr}
 1029              	.LCFI16:
 1030              		.cfi_def_cfa_offset 12
 1031              		.cfi_offset 4, -12
 1032              		.cfi_offset 5, -8
 1033              		.cfi_offset 14, -4
 1034 0002 8BB0     		sub	sp, sp, #44
 1035              	.LCFI17:
 1036              		.cfi_def_cfa_offset 56
 1037 0004 0546     		mov	r5, r0
 147:Core/drogui/math/kalman/src/kalmanPV.c **** 	mat aux1,aux2;
 1038              		.loc 1 147 2 is_stmt 1 view .LVU211
 148:Core/drogui/math/kalman/src/kalmanPV.c **** 	matInit(&aux1, 9, 9);
 1039              		.loc 1 148 2 view .LVU212
 1040 0006 0922     		movs	r2, #9
 1041 0008 1146     		mov	r1, r2
 1042 000a 05A8     		add	r0, sp, #20
 1043              	.LVL125:
 1044              		.loc 1 148 2 is_stmt 0 view .LVU213
ARM GAS  C:\Users\GUILLE~1\AppData\Local\Temp\ccHpHrHN.s 			page 22


 1045 000c FFF7FEFF 		bl	matInit
 1046              	.LVL126:
 149:Core/drogui/math/kalman/src/kalmanPV.c **** 	matInit(&aux2, 9, 9);
 1047              		.loc 1 149 2 is_stmt 1 view .LVU214
 1048 0010 0922     		movs	r2, #9
 1049 0012 1146     		mov	r1, r2
 1050 0014 6846     		mov	r0, sp
 1051 0016 FFF7FEFF 		bl	matInit
 1052              	.LVL127:
 150:Core/drogui/math/kalman/src/kalmanPV.c **** 	matMult(&aux1, &(kpv->KalmanGain), &(kpv->Hm));
 1053              		.loc 1 150 2 view .LVU215
 1054 001a 05F1A802 		add	r2, r5, #168
 1055 001e 05F59A71 		add	r1, r5, #308
 1056 0022 05A8     		add	r0, sp, #20
 1057 0024 FFF7FEFF 		bl	matMult
 1058              	.LVL128:
 151:Core/drogui/math/kalman/src/kalmanPV.c **** 	matScale(&aux1, &aux1, -1);
 1059              		.loc 1 151 2 view .LVU216
 1060 0028 BFEE000A 		vmov.f32	s0, #-1.0e+0
 1061 002c 05A9     		add	r1, sp, #20
 1062 002e 0846     		mov	r0, r1
 1063 0030 FFF7FEFF 		bl	matScale
 1064              	.LVL129:
 152:Core/drogui/math/kalman/src/kalmanPV.c **** 	for(int i = 0; i < 9; i++)
 1065              		.loc 1 152 2 view .LVU217
 1066              	.LBB15:
 1067              		.loc 1 152 6 view .LVU218
 1068              		.loc 1 152 10 is_stmt 0 view .LVU219
 1069 0034 0024     		movs	r4, #0
 1070              		.loc 1 152 2 view .LVU220
 1071 0036 0EE0     		b	.L45
 1072              	.LVL130:
 1073              	.L46:
 153:Core/drogui/math/kalman/src/kalmanPV.c **** 		setMatVal(&aux1, i , i, 1 + getMatVal(&aux1, i , i));
 1074              		.loc 1 153 3 is_stmt 1 discriminator 3 view .LVU221
 1075              		.loc 1 153 31 is_stmt 0 discriminator 3 view .LVU222
 1076 0038 2246     		mov	r2, r4
 1077 003a 2146     		mov	r1, r4
 1078 003c 05A8     		add	r0, sp, #20
 1079 003e FFF7FEFF 		bl	getMatVal
 1080              	.LVL131:
 1081              		.loc 1 153 3 discriminator 3 view .LVU223
 1082 0042 F7EE007A 		vmov.f32	s15, #1.0e+0
 1083 0046 30EE270A 		vadd.f32	s0, s0, s15
 1084 004a 2246     		mov	r2, r4
 1085 004c 2146     		mov	r1, r4
 1086 004e 05A8     		add	r0, sp, #20
 1087 0050 FFF7FEFF 		bl	setMatVal
 1088              	.LVL132:
 152:Core/drogui/math/kalman/src/kalmanPV.c **** 	for(int i = 0; i < 9; i++)
 1089              		.loc 1 152 24 is_stmt 1 discriminator 3 view .LVU224
 152:Core/drogui/math/kalman/src/kalmanPV.c **** 	for(int i = 0; i < 9; i++)
 1090              		.loc 1 152 25 is_stmt 0 discriminator 3 view .LVU225
 1091 0054 0134     		adds	r4, r4, #1
 1092              	.LVL133:
 1093              	.L45:
 152:Core/drogui/math/kalman/src/kalmanPV.c **** 	for(int i = 0; i < 9; i++)
ARM GAS  C:\Users\GUILLE~1\AppData\Local\Temp\ccHpHrHN.s 			page 23


 1094              		.loc 1 152 17 is_stmt 1 discriminator 1 view .LVU226
 152:Core/drogui/math/kalman/src/kalmanPV.c **** 	for(int i = 0; i < 9; i++)
 1095              		.loc 1 152 2 is_stmt 0 discriminator 1 view .LVU227
 1096 0056 082C     		cmp	r4, #8
 1097 0058 EEDD     		ble	.L46
 1098              	.LBE15:
 154:Core/drogui/math/kalman/src/kalmanPV.c **** 
 155:Core/drogui/math/kalman/src/kalmanPV.c **** 
 156:Core/drogui/math/kalman/src/kalmanPV.c **** 	matMult(&aux2, &aux1, &(kpv->Pm));
 1099              		.loc 1 156 2 is_stmt 1 view .LVU228
 1100 005a F835     		adds	r5, r5, #248
 1101              	.LVL134:
 1102              		.loc 1 156 2 is_stmt 0 view .LVU229
 1103 005c 2A46     		mov	r2, r5
 1104 005e 05A9     		add	r1, sp, #20
 1105 0060 6846     		mov	r0, sp
 1106 0062 FFF7FEFF 		bl	matMult
 1107              	.LVL135:
 157:Core/drogui/math/kalman/src/kalmanPV.c **** 	matCopy(&(kpv->Pm), &aux2);
 1108              		.loc 1 157 2 is_stmt 1 view .LVU230
 1109 0066 6946     		mov	r1, sp
 1110 0068 2846     		mov	r0, r5
 1111 006a FFF7FEFF 		bl	matCopy
 1112              	.LVL136:
 158:Core/drogui/math/kalman/src/kalmanPV.c **** 
 159:Core/drogui/math/kalman/src/kalmanPV.c **** 	matDestruct(&aux1);
 1113              		.loc 1 159 2 view .LVU231
 1114 006e 05A8     		add	r0, sp, #20
 1115 0070 FFF7FEFF 		bl	matDestruct
 1116              	.LVL137:
 160:Core/drogui/math/kalman/src/kalmanPV.c **** 	matDestruct(&aux2);
 1117              		.loc 1 160 2 view .LVU232
 1118 0074 6846     		mov	r0, sp
 1119 0076 FFF7FEFF 		bl	matDestruct
 1120              	.LVL138:
 161:Core/drogui/math/kalman/src/kalmanPV.c **** }
 1121              		.loc 1 161 1 is_stmt 0 view .LVU233
 1122 007a 0BB0     		add	sp, sp, #44
 1123              	.LCFI18:
 1124              		.cfi_def_cfa_offset 12
 1125              		@ sp needed
 1126 007c 30BD     		pop	{r4, r5, pc}
 1127              		.loc 1 161 1 view .LVU234
 1128              		.cfi_endproc
 1129              	.LFE287:
 1131              		.section	.text.getBias,"ax",%progbits
 1132              		.align	1
 1133              		.global	getBias
 1134              		.syntax unified
 1135              		.thumb
 1136              		.thumb_func
 1137              		.fpu fpv5-sp-d16
 1139              	getBias:
 1140              	.LVL139:
 1141              	.LFB288:
 162:Core/drogui/math/kalman/src/kalmanPV.c **** 
 163:Core/drogui/math/kalman/src/kalmanPV.c **** void getBias(kalmanPV *kpv){
ARM GAS  C:\Users\GUILLE~1\AppData\Local\Temp\ccHpHrHN.s 			page 24


 1142              		.loc 1 163 28 is_stmt 1 view -0
 1143              		.cfi_startproc
 1144              		@ args = 0, pretend = 0, frame = 0
 1145              		@ frame_needed = 0, uses_anonymous_args = 0
 1146              		.loc 1 163 28 is_stmt 0 view .LVU236
 1147 0000 F8B5     		push	{r3, r4, r5, r6, r7, lr}
 1148              	.LCFI19:
 1149              		.cfi_def_cfa_offset 24
 1150              		.cfi_offset 3, -24
 1151              		.cfi_offset 4, -20
 1152              		.cfi_offset 5, -16
 1153              		.cfi_offset 6, -12
 1154              		.cfi_offset 7, -8
 1155              		.cfi_offset 14, -4
 1156 0002 2DED028B 		vpush.64	{d8}
 1157              	.LCFI20:
 1158              		.cfi_def_cfa_offset 32
 1159              		.cfi_offset 80, -32
 1160              		.cfi_offset 81, -28
 1161 0006 0446     		mov	r4, r0
 164:Core/drogui/math/kalman/src/kalmanPV.c **** 
 165:Core/drogui/math/kalman/src/kalmanPV.c **** 
 166:Core/drogui/math/kalman/src/kalmanPV.c **** 	//matSubs(&ye, &p_gps,  &p);
 167:Core/drogui/math/kalman/src/kalmanPV.c **** 	setMatVal(&(kpv->ye), 0, 0, getMatVal(&(kpv->p_gps), 0, 0) - getMatVal(&(kpv->p), 0, 0));
 1162              		.loc 1 167 2 is_stmt 1 view .LVU237
 1163 0008 00F59076 		add	r6, r0, #288
 1164              		.loc 1 167 30 is_stmt 0 view .LVU238
 1165 000c 00F5A477 		add	r7, r0, #328
 1166 0010 0022     		movs	r2, #0
 1167 0012 1146     		mov	r1, r2
 1168 0014 3846     		mov	r0, r7
 1169              	.LVL140:
 1170              		.loc 1 167 30 view .LVU239
 1171 0016 FFF7FEFF 		bl	getMatVal
 1172              	.LVL141:
 1173 001a B0EE408A 		vmov.f32	s16, s0
 1174              		.loc 1 167 63 view .LVU240
 1175 001e 04F10805 		add	r5, r4, #8
 1176 0022 0022     		movs	r2, #0
 1177 0024 1146     		mov	r1, r2
 1178 0026 2846     		mov	r0, r5
 1179 0028 FFF7FEFF 		bl	getMatVal
 1180              	.LVL142:
 1181              		.loc 1 167 2 view .LVU241
 1182 002c 38EE400A 		vsub.f32	s0, s16, s0
 1183 0030 0022     		movs	r2, #0
 1184 0032 1146     		mov	r1, r2
 1185 0034 3046     		mov	r0, r6
 1186 0036 FFF7FEFF 		bl	setMatVal
 1187              	.LVL143:
 168:Core/drogui/math/kalman/src/kalmanPV.c **** 	setMatVal(&(kpv->ye), 1, 0, getMatVal(&(kpv->p_gps), 1, 0) - getMatVal(&(kpv->p), 1, 0));
 1188              		.loc 1 168 2 is_stmt 1 view .LVU242
 1189              		.loc 1 168 30 is_stmt 0 view .LVU243
 1190 003a 0022     		movs	r2, #0
 1191 003c 0121     		movs	r1, #1
 1192 003e 3846     		mov	r0, r7
 1193 0040 FFF7FEFF 		bl	getMatVal
ARM GAS  C:\Users\GUILLE~1\AppData\Local\Temp\ccHpHrHN.s 			page 25


 1194              	.LVL144:
 1195 0044 B0EE408A 		vmov.f32	s16, s0
 1196              		.loc 1 168 63 view .LVU244
 1197 0048 0022     		movs	r2, #0
 1198 004a 0121     		movs	r1, #1
 1199 004c 2846     		mov	r0, r5
 1200 004e FFF7FEFF 		bl	getMatVal
 1201              	.LVL145:
 1202              		.loc 1 168 2 view .LVU245
 1203 0052 38EE400A 		vsub.f32	s0, s16, s0
 1204 0056 0022     		movs	r2, #0
 1205 0058 0121     		movs	r1, #1
 1206 005a 3046     		mov	r0, r6
 1207 005c FFF7FEFF 		bl	setMatVal
 1208              	.LVL146:
 169:Core/drogui/math/kalman/src/kalmanPV.c **** 	setMatVal(&(kpv->ye), 2, 0, getMatVal(&(kpv->v_gps), 0, 0) - getMatVal(&(kpv->v), 0, 0));
 1209              		.loc 1 169 2 is_stmt 1 view .LVU246
 1210              		.loc 1 169 30 is_stmt 0 view .LVU247
 1211 0060 04F5AE77 		add	r7, r4, #348
 1212 0064 0022     		movs	r2, #0
 1213 0066 1146     		mov	r1, r2
 1214 0068 3846     		mov	r0, r7
 1215 006a FFF7FEFF 		bl	getMatVal
 1216              	.LVL147:
 1217 006e B0EE408A 		vmov.f32	s16, s0
 1218              		.loc 1 169 63 view .LVU248
 1219 0072 04F11C05 		add	r5, r4, #28
 1220 0076 0022     		movs	r2, #0
 1221 0078 1146     		mov	r1, r2
 1222 007a 2846     		mov	r0, r5
 1223 007c FFF7FEFF 		bl	getMatVal
 1224              	.LVL148:
 1225              		.loc 1 169 2 view .LVU249
 1226 0080 38EE400A 		vsub.f32	s0, s16, s0
 1227 0084 0022     		movs	r2, #0
 1228 0086 0221     		movs	r1, #2
 1229 0088 3046     		mov	r0, r6
 1230 008a FFF7FEFF 		bl	setMatVal
 1231              	.LVL149:
 170:Core/drogui/math/kalman/src/kalmanPV.c **** 	setMatVal(&(kpv->ye), 3, 0, getMatVal(&(kpv->v_gps), 1, 0) - getMatVal(&(kpv->v), 1, 0));
 1232              		.loc 1 170 2 is_stmt 1 view .LVU250
 1233              		.loc 1 170 30 is_stmt 0 view .LVU251
 1234 008e 0022     		movs	r2, #0
 1235 0090 0121     		movs	r1, #1
 1236 0092 3846     		mov	r0, r7
 1237 0094 FFF7FEFF 		bl	getMatVal
 1238              	.LVL150:
 1239 0098 B0EE408A 		vmov.f32	s16, s0
 1240              		.loc 1 170 63 view .LVU252
 1241 009c 0022     		movs	r2, #0
 1242 009e 0121     		movs	r1, #1
 1243 00a0 2846     		mov	r0, r5
 1244 00a2 FFF7FEFF 		bl	getMatVal
 1245              	.LVL151:
 1246              		.loc 1 170 2 view .LVU253
 1247 00a6 38EE400A 		vsub.f32	s0, s16, s0
 1248 00aa 0022     		movs	r2, #0
ARM GAS  C:\Users\GUILLE~1\AppData\Local\Temp\ccHpHrHN.s 			page 26


 1249 00ac 0321     		movs	r1, #3
 1250 00ae 3046     		mov	r0, r6
 1251 00b0 FFF7FEFF 		bl	setMatVal
 1252              	.LVL152:
 171:Core/drogui/math/kalman/src/kalmanPV.c **** 
 172:Core/drogui/math/kalman/src/kalmanPV.c **** 	matMult(&(kpv->delta), &(kpv->KalmanGain), &(kpv->ye));
 1253              		.loc 1 172 2 is_stmt 1 view .LVU254
 1254 00b4 04F5B875 		add	r5, r4, #368
 1255 00b8 3246     		mov	r2, r6
 1256 00ba 04F59A71 		add	r1, r4, #308
 1257 00be 2846     		mov	r0, r5
 1258 00c0 FFF7FEFF 		bl	matMult
 1259              	.LVL153:
 173:Core/drogui/math/kalman/src/kalmanPV.c **** 
 174:Core/drogui/math/kalman/src/kalmanPV.c **** 	setMatVal(&(kpv->delta), 6, 0, getMatVal(&(kpv->delta), 6, 0) + getMatVal(&(kpv->bias_u), 0, 0));
 1260              		.loc 1 174 2 view .LVU255
 1261              		.loc 1 174 33 is_stmt 0 view .LVU256
 1262 00c4 0022     		movs	r2, #0
 1263 00c6 0621     		movs	r1, #6
 1264 00c8 2846     		mov	r0, r5
 1265 00ca FFF7FEFF 		bl	getMatVal
 1266              	.LVL154:
 1267 00ce B0EE408A 		vmov.f32	s16, s0
 1268              		.loc 1 174 66 view .LVU257
 1269 00d2 04F1E406 		add	r6, r4, #228
 1270 00d6 0022     		movs	r2, #0
 1271 00d8 1146     		mov	r1, r2
 1272 00da 3046     		mov	r0, r6
 1273 00dc FFF7FEFF 		bl	getMatVal
 1274              	.LVL155:
 1275              		.loc 1 174 2 view .LVU258
 1276 00e0 38EE000A 		vadd.f32	s0, s16, s0
 1277 00e4 0022     		movs	r2, #0
 1278 00e6 0621     		movs	r1, #6
 1279 00e8 2846     		mov	r0, r5
 1280 00ea FFF7FEFF 		bl	setMatVal
 1281              	.LVL156:
 175:Core/drogui/math/kalman/src/kalmanPV.c **** 	setMatVal(&(kpv->delta), 7, 0, getMatVal(&(kpv->delta), 7, 0) + getMatVal(&(kpv->bias_u), 1, 0));
 1282              		.loc 1 175 2 is_stmt 1 view .LVU259
 1283              		.loc 1 175 33 is_stmt 0 view .LVU260
 1284 00ee 0022     		movs	r2, #0
 1285 00f0 0721     		movs	r1, #7
 1286 00f2 2846     		mov	r0, r5
 1287 00f4 FFF7FEFF 		bl	getMatVal
 1288              	.LVL157:
 1289 00f8 B0EE408A 		vmov.f32	s16, s0
 1290              		.loc 1 175 66 view .LVU261
 1291 00fc 0022     		movs	r2, #0
 1292 00fe 0121     		movs	r1, #1
 1293 0100 3046     		mov	r0, r6
 1294 0102 FFF7FEFF 		bl	getMatVal
 1295              	.LVL158:
 1296              		.loc 1 175 2 view .LVU262
 1297 0106 38EE000A 		vadd.f32	s0, s16, s0
 1298 010a 0022     		movs	r2, #0
 1299 010c 0721     		movs	r1, #7
 1300 010e 2846     		mov	r0, r5
ARM GAS  C:\Users\GUILLE~1\AppData\Local\Temp\ccHpHrHN.s 			page 27


 1301 0110 FFF7FEFF 		bl	setMatVal
 1302              	.LVL159:
 176:Core/drogui/math/kalman/src/kalmanPV.c **** 	setMatVal(&(kpv->delta), 8, 0, getMatVal(&(kpv->delta), 8, 0) + getMatVal(&(kpv->bias_u), 2, 0));
 1303              		.loc 1 176 2 is_stmt 1 view .LVU263
 1304              		.loc 1 176 33 is_stmt 0 view .LVU264
 1305 0114 0022     		movs	r2, #0
 1306 0116 0821     		movs	r1, #8
 1307 0118 2846     		mov	r0, r5
 1308 011a FFF7FEFF 		bl	getMatVal
 1309              	.LVL160:
 1310 011e B0EE408A 		vmov.f32	s16, s0
 1311              		.loc 1 176 66 view .LVU265
 1312 0122 0022     		movs	r2, #0
 1313 0124 0221     		movs	r1, #2
 1314 0126 3046     		mov	r0, r6
 1315 0128 FFF7FEFF 		bl	getMatVal
 1316              	.LVL161:
 1317              		.loc 1 176 2 view .LVU266
 1318 012c 38EE000A 		vadd.f32	s0, s16, s0
 1319 0130 0022     		movs	r2, #0
 1320 0132 0821     		movs	r1, #8
 1321 0134 2846     		mov	r0, r5
 1322 0136 FFF7FEFF 		bl	setMatVal
 1323              	.LVL162:
 177:Core/drogui/math/kalman/src/kalmanPV.c **** 
 178:Core/drogui/math/kalman/src/kalmanPV.c **** 	setMatVal(&(kpv->bias_p), 0, 0, getMatVal(&(kpv->delta), 0, 0));
 1324              		.loc 1 178 2 is_stmt 1 view .LVU267
 1325 013a 04F1BC06 		add	r6, r4, #188
 1326 013e 0022     		movs	r2, #0
 1327 0140 1146     		mov	r1, r2
 1328 0142 2846     		mov	r0, r5
 1329 0144 FFF7FEFF 		bl	getMatVal
 1330              	.LVL163:
 1331 0148 0022     		movs	r2, #0
 1332 014a 1146     		mov	r1, r2
 1333 014c 3046     		mov	r0, r6
 1334 014e FFF7FEFF 		bl	setMatVal
 1335              	.LVL164:
 179:Core/drogui/math/kalman/src/kalmanPV.c **** 	setMatVal(&(kpv->bias_p), 1, 0, getMatVal(&(kpv->delta), 1, 0));
 1336              		.loc 1 179 2 view .LVU268
 1337 0152 0022     		movs	r2, #0
 1338 0154 0121     		movs	r1, #1
 1339 0156 2846     		mov	r0, r5
 1340 0158 FFF7FEFF 		bl	getMatVal
 1341              	.LVL165:
 1342 015c 0022     		movs	r2, #0
 1343 015e 0121     		movs	r1, #1
 1344 0160 3046     		mov	r0, r6
 1345 0162 FFF7FEFF 		bl	setMatVal
 1346              	.LVL166:
 180:Core/drogui/math/kalman/src/kalmanPV.c **** 	setMatVal(&(kpv->bias_p), 2, 0, getMatVal(&(kpv->delta), 2, 0));
 1347              		.loc 1 180 2 view .LVU269
 1348 0166 0022     		movs	r2, #0
 1349 0168 0221     		movs	r1, #2
 1350 016a 2846     		mov	r0, r5
 1351 016c FFF7FEFF 		bl	getMatVal
 1352              	.LVL167:
ARM GAS  C:\Users\GUILLE~1\AppData\Local\Temp\ccHpHrHN.s 			page 28


 1353 0170 0022     		movs	r2, #0
 1354 0172 0221     		movs	r1, #2
 1355 0174 3046     		mov	r0, r6
 1356 0176 FFF7FEFF 		bl	setMatVal
 1357              	.LVL168:
 181:Core/drogui/math/kalman/src/kalmanPV.c **** 
 182:Core/drogui/math/kalman/src/kalmanPV.c **** 	setMatVal(&(kpv->bias_v), 0, 0, getMatVal(&(kpv->delta), 3, 0));
 1358              		.loc 1 182 2 view .LVU270
 1359 017a D034     		adds	r4, r4, #208
 1360              	.LVL169:
 1361              		.loc 1 182 2 is_stmt 0 view .LVU271
 1362 017c 0022     		movs	r2, #0
 1363 017e 0321     		movs	r1, #3
 1364 0180 2846     		mov	r0, r5
 1365 0182 FFF7FEFF 		bl	getMatVal
 1366              	.LVL170:
 1367 0186 0022     		movs	r2, #0
 1368 0188 1146     		mov	r1, r2
 1369 018a 2046     		mov	r0, r4
 1370 018c FFF7FEFF 		bl	setMatVal
 1371              	.LVL171:
 183:Core/drogui/math/kalman/src/kalmanPV.c **** 	setMatVal(&(kpv->bias_v), 1, 0, getMatVal(&(kpv->delta), 4, 0));
 1372              		.loc 1 183 2 is_stmt 1 view .LVU272
 1373 0190 0022     		movs	r2, #0
 1374 0192 0421     		movs	r1, #4
 1375 0194 2846     		mov	r0, r5
 1376 0196 FFF7FEFF 		bl	getMatVal
 1377              	.LVL172:
 1378 019a 0022     		movs	r2, #0
 1379 019c 0121     		movs	r1, #1
 1380 019e 2046     		mov	r0, r4
 1381 01a0 FFF7FEFF 		bl	setMatVal
 1382              	.LVL173:
 184:Core/drogui/math/kalman/src/kalmanPV.c **** 	setMatVal(&(kpv->bias_v), 2, 0, getMatVal(&(kpv->delta), 5, 0));
 1383              		.loc 1 184 2 view .LVU273
 1384 01a4 0022     		movs	r2, #0
 1385 01a6 0521     		movs	r1, #5
 1386 01a8 2846     		mov	r0, r5
 1387 01aa FFF7FEFF 		bl	getMatVal
 1388              	.LVL174:
 1389 01ae 0022     		movs	r2, #0
 1390 01b0 0221     		movs	r1, #2
 1391 01b2 2046     		mov	r0, r4
 1392 01b4 FFF7FEFF 		bl	setMatVal
 1393              	.LVL175:
 185:Core/drogui/math/kalman/src/kalmanPV.c **** }
 1394              		.loc 1 185 1 is_stmt 0 view .LVU274
 1395 01b8 BDEC028B 		vldm	sp!, {d8}
 1396              	.LCFI21:
 1397              		.cfi_restore 80
 1398              		.cfi_restore 81
 1399              		.cfi_def_cfa_offset 24
 1400 01bc F8BD     		pop	{r3, r4, r5, r6, r7, pc}
 1401              		.loc 1 185 1 view .LVU275
 1402              		.cfi_endproc
 1403              	.LFE288:
 1405              		.section	.text.kalmanUpdateIMU,"ax",%progbits
ARM GAS  C:\Users\GUILLE~1\AppData\Local\Temp\ccHpHrHN.s 			page 29


 1406              		.align	1
 1407              		.global	kalmanUpdateIMU
 1408              		.syntax unified
 1409              		.thumb
 1410              		.thumb_func
 1411              		.fpu fpv5-sp-d16
 1413              	kalmanUpdateIMU:
 1414              	.LVL176:
 1415              	.LFB289:
 186:Core/drogui/math/kalman/src/kalmanPV.c **** 
 187:Core/drogui/math/kalman/src/kalmanPV.c **** void kalmanUpdateIMU(kalmanPV *kpv, float ax, float ay, float az,float roll, float pitch, float yaw
 1416              		.loc 1 187 101 is_stmt 1 view -0
 1417              		.cfi_startproc
 1418              		@ args = 0, pretend = 0, frame = 0
 1419              		@ frame_needed = 0, uses_anonymous_args = 0
 1420              		.loc 1 187 101 is_stmt 0 view .LVU277
 1421 0000 38B5     		push	{r3, r4, r5, lr}
 1422              	.LCFI22:
 1423              		.cfi_def_cfa_offset 16
 1424              		.cfi_offset 3, -16
 1425              		.cfi_offset 4, -12
 1426              		.cfi_offset 5, -8
 1427              		.cfi_offset 14, -4
 1428 0002 2DED048B 		vpush.64	{d8, d9}
 1429              	.LCFI23:
 1430              		.cfi_def_cfa_offset 32
 1431              		.cfi_offset 80, -32
 1432              		.cfi_offset 81, -28
 1433              		.cfi_offset 82, -24
 1434              		.cfi_offset 83, -20
 1435 0006 0446     		mov	r4, r0
 1436 0008 B0EE409A 		vmov.f32	s18, s0
 1437 000c F0EE608A 		vmov.f32	s17, s1
 1438 0010 B0EE418A 		vmov.f32	s16, s2
 188:Core/drogui/math/kalman/src/kalmanPV.c **** 
 189:Core/drogui/math/kalman/src/kalmanPV.c **** 	rpyToR(&(kpv->Rq), roll, pitch, yaw);
 1439              		.loc 1 189 2 is_stmt 1 view .LVU278
 1440 0014 B0EE621A 		vmov.f32	s2, s5
 1441              	.LVL177:
 1442              		.loc 1 189 2 is_stmt 0 view .LVU279
 1443 0018 F0EE420A 		vmov.f32	s1, s4
 1444              	.LVL178:
 1445              		.loc 1 189 2 view .LVU280
 1446 001c B0EE610A 		vmov.f32	s0, s3
 1447              	.LVL179:
 1448              		.loc 1 189 2 view .LVU281
 1449 0020 3030     		adds	r0, r0, #48
 1450              	.LVL180:
 1451              		.loc 1 189 2 view .LVU282
 1452 0022 FFF7FEFF 		bl	rpyToR
 1453              	.LVL181:
 190:Core/drogui/math/kalman/src/kalmanPV.c **** 	setMatVal(&(kpv->u), 0, 0, ax*GRAVITY);
 1454              		.loc 1 190 2 is_stmt 1 view .LVU283
 1455 0026 04F15805 		add	r5, r4, #88
 1456 002a B0EE490A 		vmov.f32	s0, s18
 1457 002e 0022     		movs	r2, #0
 1458 0030 1146     		mov	r1, r2
ARM GAS  C:\Users\GUILLE~1\AppData\Local\Temp\ccHpHrHN.s 			page 30


 1459 0032 2846     		mov	r0, r5
 1460 0034 FFF7FEFF 		bl	setMatVal
 1461              	.LVL182:
 191:Core/drogui/math/kalman/src/kalmanPV.c **** 	setMatVal(&(kpv->u), 1, 0, ay*GRAVITY);
 1462              		.loc 1 191 2 view .LVU284
 1463 0038 B0EE680A 		vmov.f32	s0, s17
 1464 003c 0022     		movs	r2, #0
 1465 003e 0121     		movs	r1, #1
 1466 0040 2846     		mov	r0, r5
 1467 0042 FFF7FEFF 		bl	setMatVal
 1468              	.LVL183:
 192:Core/drogui/math/kalman/src/kalmanPV.c **** 	setMatVal(&(kpv->u), 2, 0, az*GRAVITY);
 1469              		.loc 1 192 2 view .LVU285
 1470 0046 B0EE480A 		vmov.f32	s0, s16
 1471 004a 0022     		movs	r2, #0
 1472 004c 0221     		movs	r1, #2
 1473 004e 2846     		mov	r0, r5
 1474 0050 FFF7FEFF 		bl	setMatVal
 1475              	.LVL184:
 193:Core/drogui/math/kalman/src/kalmanPV.c **** 	//matAdd(&u, &s, &bias_u);
 194:Core/drogui/math/kalman/src/kalmanPV.c **** 	kynematics(kpv);
 1476              		.loc 1 194 2 view .LVU286
 1477 0054 2046     		mov	r0, r4
 1478 0056 FFF7FEFF 		bl	kynematics
 1479              	.LVL185:
 195:Core/drogui/math/kalman/src/kalmanPV.c **** 	UpdatePm(kpv);
 1480              		.loc 1 195 2 view .LVU287
 1481 005a 2046     		mov	r0, r4
 1482 005c FFF7FEFF 		bl	UpdatePm
 1483              	.LVL186:
 196:Core/drogui/math/kalman/src/kalmanPV.c **** }
 1484              		.loc 1 196 1 is_stmt 0 view .LVU288
 1485 0060 BDEC048B 		vldm	sp!, {d8-d9}
 1486              	.LCFI24:
 1487              		.cfi_restore 82
 1488              		.cfi_restore 83
 1489              		.cfi_restore 80
 1490              		.cfi_restore 81
 1491              		.cfi_def_cfa_offset 16
 1492              	.LVL187:
 1493              		.loc 1 196 1 view .LVU289
 1494 0064 38BD     		pop	{r3, r4, r5, pc}
 1495              		.loc 1 196 1 view .LVU290
 1496              		.cfi_endproc
 1497              	.LFE289:
 1499              		.section	.text.kalmanUpdateGPS,"ax",%progbits
 1500              		.align	1
 1501              		.global	kalmanUpdateGPS
 1502              		.syntax unified
 1503              		.thumb
 1504              		.thumb_func
 1505              		.fpu fpv5-sp-d16
 1507              	kalmanUpdateGPS:
 1508              	.LVL188:
 1509              	.LFB290:
 197:Core/drogui/math/kalman/src/kalmanPV.c **** 
 198:Core/drogui/math/kalman/src/kalmanPV.c **** void kalmanUpdateGPS(kalmanPV *kpv,float x_gps, float y_gps, float vx_gps, float vy_gps){
ARM GAS  C:\Users\GUILLE~1\AppData\Local\Temp\ccHpHrHN.s 			page 31


 1510              		.loc 1 198 89 is_stmt 1 view -0
 1511              		.cfi_startproc
 1512              		@ args = 0, pretend = 0, frame = 0
 1513              		@ frame_needed = 0, uses_anonymous_args = 0
 1514              		.loc 1 198 89 is_stmt 0 view .LVU292
 1515 0000 38B5     		push	{r3, r4, r5, lr}
 1516              	.LCFI25:
 1517              		.cfi_def_cfa_offset 16
 1518              		.cfi_offset 3, -16
 1519              		.cfi_offset 4, -12
 1520              		.cfi_offset 5, -8
 1521              		.cfi_offset 14, -4
 1522 0002 2DED048B 		vpush.64	{d8, d9}
 1523              	.LCFI26:
 1524              		.cfi_def_cfa_offset 32
 1525              		.cfi_offset 80, -32
 1526              		.cfi_offset 81, -28
 1527              		.cfi_offset 82, -24
 1528              		.cfi_offset 83, -20
 1529 0006 0446     		mov	r4, r0
 1530 0008 B0EE609A 		vmov.f32	s18, s1
 1531 000c F0EE418A 		vmov.f32	s17, s2
 1532 0010 B0EE618A 		vmov.f32	s16, s3
 199:Core/drogui/math/kalman/src/kalmanPV.c **** 
 200:Core/drogui/math/kalman/src/kalmanPV.c **** 	setMatVal(&(kpv->p_gps), 0, 0, x_gps);
 1533              		.loc 1 200 2 is_stmt 1 view .LVU293
 1534 0014 00F5A475 		add	r5, r0, #328
 1535 0018 0022     		movs	r2, #0
 1536 001a 1146     		mov	r1, r2
 1537 001c 2846     		mov	r0, r5
 1538              	.LVL189:
 1539              		.loc 1 200 2 is_stmt 0 view .LVU294
 1540 001e FFF7FEFF 		bl	setMatVal
 1541              	.LVL190:
 201:Core/drogui/math/kalman/src/kalmanPV.c **** 	setMatVal(&(kpv->p_gps), 1, 0, y_gps);
 1542              		.loc 1 201 2 is_stmt 1 view .LVU295
 1543 0022 B0EE490A 		vmov.f32	s0, s18
 1544 0026 0022     		movs	r2, #0
 1545 0028 0121     		movs	r1, #1
 1546 002a 2846     		mov	r0, r5
 1547 002c FFF7FEFF 		bl	setMatVal
 1548              	.LVL191:
 202:Core/drogui/math/kalman/src/kalmanPV.c **** 
 203:Core/drogui/math/kalman/src/kalmanPV.c **** 	setMatVal(&(kpv->v_gps), 0, 0, vx_gps);
 1549              		.loc 1 203 2 view .LVU296
 1550 0030 04F5AE75 		add	r5, r4, #348
 1551 0034 B0EE680A 		vmov.f32	s0, s17
 1552 0038 0022     		movs	r2, #0
 1553 003a 1146     		mov	r1, r2
 1554 003c 2846     		mov	r0, r5
 1555 003e FFF7FEFF 		bl	setMatVal
 1556              	.LVL192:
 204:Core/drogui/math/kalman/src/kalmanPV.c **** 	setMatVal(&(kpv->v_gps), 1, 0, vy_gps);
 1557              		.loc 1 204 2 view .LVU297
 1558 0042 B0EE480A 		vmov.f32	s0, s16
 1559 0046 0022     		movs	r2, #0
 1560 0048 0121     		movs	r1, #1
ARM GAS  C:\Users\GUILLE~1\AppData\Local\Temp\ccHpHrHN.s 			page 32


 1561 004a 2846     		mov	r0, r5
 1562 004c FFF7FEFF 		bl	setMatVal
 1563              	.LVL193:
 205:Core/drogui/math/kalman/src/kalmanPV.c **** 
 206:Core/drogui/math/kalman/src/kalmanPV.c **** 	getKalmanGain(kpv);
 1564              		.loc 1 206 2 view .LVU298
 1565 0050 2046     		mov	r0, r4
 1566 0052 FFF7FEFF 		bl	getKalmanGain
 1567              	.LVL194:
 207:Core/drogui/math/kalman/src/kalmanPV.c **** 
 208:Core/drogui/math/kalman/src/kalmanPV.c **** 	getBias(kpv);
 1568              		.loc 1 208 2 view .LVU299
 1569 0056 2046     		mov	r0, r4
 1570 0058 FFF7FEFF 		bl	getBias
 1571              	.LVL195:
 209:Core/drogui/math/kalman/src/kalmanPV.c **** 
 210:Core/drogui/math/kalman/src/kalmanPV.c **** 	UpdatePmCovGPS(kpv);
 1572              		.loc 1 210 2 view .LVU300
 1573 005c 2046     		mov	r0, r4
 1574 005e FFF7FEFF 		bl	UpdatePmCovGPS
 1575              	.LVL196:
 211:Core/drogui/math/kalman/src/kalmanPV.c **** 
 212:Core/drogui/math/kalman/src/kalmanPV.c **** 	matAdd(&(kpv->v), &(kpv->v), &(kpv->bias_v));
 1576              		.loc 1 212 2 view .LVU301
 1577 0062 04F11C00 		add	r0, r4, #28
 1578 0066 04F1D002 		add	r2, r4, #208
 1579 006a 0146     		mov	r1, r0
 1580 006c FFF7FEFF 		bl	matAdd
 1581              	.LVL197:
 213:Core/drogui/math/kalman/src/kalmanPV.c **** 	matAdd(&(kpv->p), &(kpv->p), &(kpv->bias_p));
 1582              		.loc 1 213 2 view .LVU302
 1583 0070 04F10800 		add	r0, r4, #8
 1584 0074 04F1BC02 		add	r2, r4, #188
 1585 0078 0146     		mov	r1, r0
 1586 007a FFF7FEFF 		bl	matAdd
 1587              	.LVL198:
 214:Core/drogui/math/kalman/src/kalmanPV.c **** }
 1588              		.loc 1 214 1 is_stmt 0 view .LVU303
 1589 007e BDEC048B 		vldm	sp!, {d8-d9}
 1590              	.LCFI27:
 1591              		.cfi_restore 82
 1592              		.cfi_restore 83
 1593              		.cfi_restore 80
 1594              		.cfi_restore 81
 1595              		.cfi_def_cfa_offset 16
 1596              	.LVL199:
 1597              		.loc 1 214 1 view .LVU304
 1598 0082 38BD     		pop	{r3, r4, r5, pc}
 1599              		.loc 1 214 1 view .LVU305
 1600              		.cfi_endproc
 1601              	.LFE290:
 1603              		.section	.text.getPosition,"ax",%progbits
 1604              		.align	1
 1605              		.global	getPosition
 1606              		.syntax unified
 1607              		.thumb
 1608              		.thumb_func
ARM GAS  C:\Users\GUILLE~1\AppData\Local\Temp\ccHpHrHN.s 			page 33


 1609              		.fpu fpv5-sp-d16
 1611              	getPosition:
 1612              	.LVL200:
 1613              	.LFB291:
 215:Core/drogui/math/kalman/src/kalmanPV.c **** 
 216:Core/drogui/math/kalman/src/kalmanPV.c **** 
 217:Core/drogui/math/kalman/src/kalmanPV.c **** 
 218:Core/drogui/math/kalman/src/kalmanPV.c **** void getPosition(kalmanPV *kpv, float *x, float *y){
 1614              		.loc 1 218 52 is_stmt 1 view -0
 1615              		.cfi_startproc
 1616              		@ args = 0, pretend = 0, frame = 0
 1617              		@ frame_needed = 0, uses_anonymous_args = 0
 1618              		.loc 1 218 52 is_stmt 0 view .LVU307
 1619 0000 70B5     		push	{r4, r5, r6, lr}
 1620              	.LCFI28:
 1621              		.cfi_def_cfa_offset 16
 1622              		.cfi_offset 4, -16
 1623              		.cfi_offset 5, -12
 1624              		.cfi_offset 6, -8
 1625              		.cfi_offset 14, -4
 1626 0002 0E46     		mov	r6, r1
 1627 0004 1546     		mov	r5, r2
 219:Core/drogui/math/kalman/src/kalmanPV.c **** 	*x = getMatVal(&(kpv->p), 0, 0);
 1628              		.loc 1 219 2 is_stmt 1 view .LVU308
 1629              		.loc 1 219 7 is_stmt 0 view .LVU309
 1630 0006 00F10804 		add	r4, r0, #8
 1631 000a 0022     		movs	r2, #0
 1632              	.LVL201:
 1633              		.loc 1 219 7 view .LVU310
 1634 000c 1146     		mov	r1, r2
 1635              	.LVL202:
 1636              		.loc 1 219 7 view .LVU311
 1637 000e 2046     		mov	r0, r4
 1638              	.LVL203:
 1639              		.loc 1 219 7 view .LVU312
 1640 0010 FFF7FEFF 		bl	getMatVal
 1641              	.LVL204:
 1642              		.loc 1 219 5 view .LVU313
 1643 0014 86ED000A 		vstr.32	s0, [r6]
 220:Core/drogui/math/kalman/src/kalmanPV.c **** 	*y = getMatVal(&(kpv->p), 1, 0);
 1644              		.loc 1 220 2 is_stmt 1 view .LVU314
 1645              		.loc 1 220 7 is_stmt 0 view .LVU315
 1646 0018 0022     		movs	r2, #0
 1647 001a 0121     		movs	r1, #1
 1648 001c 2046     		mov	r0, r4
 1649 001e FFF7FEFF 		bl	getMatVal
 1650              	.LVL205:
 1651              		.loc 1 220 5 view .LVU316
 1652 0022 85ED000A 		vstr.32	s0, [r5]
 221:Core/drogui/math/kalman/src/kalmanPV.c **** }
 1653              		.loc 1 221 1 view .LVU317
 1654 0026 70BD     		pop	{r4, r5, r6, pc}
 1655              		.loc 1 221 1 view .LVU318
 1656              		.cfi_endproc
 1657              	.LFE291:
 1659              		.section	.text.getVelocity,"ax",%progbits
 1660              		.align	1
ARM GAS  C:\Users\GUILLE~1\AppData\Local\Temp\ccHpHrHN.s 			page 34


 1661              		.global	getVelocity
 1662              		.syntax unified
 1663              		.thumb
 1664              		.thumb_func
 1665              		.fpu fpv5-sp-d16
 1667              	getVelocity:
 1668              	.LVL206:
 1669              	.LFB292:
 222:Core/drogui/math/kalman/src/kalmanPV.c **** 
 223:Core/drogui/math/kalman/src/kalmanPV.c **** void getVelocity(kalmanPV *kpv, float *xp, float *yp){
 1670              		.loc 1 223 54 is_stmt 1 view -0
 1671              		.cfi_startproc
 1672              		@ args = 0, pretend = 0, frame = 0
 1673              		@ frame_needed = 0, uses_anonymous_args = 0
 1674              		.loc 1 223 54 is_stmt 0 view .LVU320
 1675 0000 70B5     		push	{r4, r5, r6, lr}
 1676              	.LCFI29:
 1677              		.cfi_def_cfa_offset 16
 1678              		.cfi_offset 4, -16
 1679              		.cfi_offset 5, -12
 1680              		.cfi_offset 6, -8
 1681              		.cfi_offset 14, -4
 1682 0002 0E46     		mov	r6, r1
 1683 0004 1546     		mov	r5, r2
 224:Core/drogui/math/kalman/src/kalmanPV.c **** 	*xp = getMatVal(&(kpv->v), 0, 0);
 1684              		.loc 1 224 2 is_stmt 1 view .LVU321
 1685              		.loc 1 224 8 is_stmt 0 view .LVU322
 1686 0006 00F11C04 		add	r4, r0, #28
 1687 000a 0022     		movs	r2, #0
 1688              	.LVL207:
 1689              		.loc 1 224 8 view .LVU323
 1690 000c 1146     		mov	r1, r2
 1691              	.LVL208:
 1692              		.loc 1 224 8 view .LVU324
 1693 000e 2046     		mov	r0, r4
 1694              	.LVL209:
 1695              		.loc 1 224 8 view .LVU325
 1696 0010 FFF7FEFF 		bl	getMatVal
 1697              	.LVL210:
 1698              		.loc 1 224 6 view .LVU326
 1699 0014 86ED000A 		vstr.32	s0, [r6]
 225:Core/drogui/math/kalman/src/kalmanPV.c **** 	*yp = getMatVal(&(kpv->v), 1, 0);
 1700              		.loc 1 225 2 is_stmt 1 view .LVU327
 1701              		.loc 1 225 8 is_stmt 0 view .LVU328
 1702 0018 0022     		movs	r2, #0
 1703 001a 0121     		movs	r1, #1
 1704 001c 2046     		mov	r0, r4
 1705 001e FFF7FEFF 		bl	getMatVal
 1706              	.LVL211:
 1707              		.loc 1 225 6 view .LVU329
 1708 0022 85ED000A 		vstr.32	s0, [r5]
 226:Core/drogui/math/kalman/src/kalmanPV.c **** }
 1709              		.loc 1 226 1 view .LVU330
 1710 0026 70BD     		pop	{r4, r5, r6, pc}
 1711              		.loc 1 226 1 view .LVU331
 1712              		.cfi_endproc
 1713              	.LFE292:
ARM GAS  C:\Users\GUILLE~1\AppData\Local\Temp\ccHpHrHN.s 			page 35


 1715              		.section	.text.clearKalman,"ax",%progbits
 1716              		.align	1
 1717              		.global	clearKalman
 1718              		.syntax unified
 1719              		.thumb
 1720              		.thumb_func
 1721              		.fpu fpv5-sp-d16
 1723              	clearKalman:
 1724              	.LVL212:
 1725              	.LFB293:
 227:Core/drogui/math/kalman/src/kalmanPV.c **** 
 228:Core/drogui/math/kalman/src/kalmanPV.c **** void clearKalman(kalmanPV *kpv){
 1726              		.loc 1 228 32 is_stmt 1 view -0
 1727              		.cfi_startproc
 1728              		@ args = 0, pretend = 0, frame = 0
 1729              		@ frame_needed = 0, uses_anonymous_args = 0
 1730              		.loc 1 228 32 is_stmt 0 view .LVU333
 1731 0000 70B5     		push	{r4, r5, r6, lr}
 1732              	.LCFI30:
 1733              		.cfi_def_cfa_offset 16
 1734              		.cfi_offset 4, -16
 1735              		.cfi_offset 5, -12
 1736              		.cfi_offset 6, -8
 1737              		.cfi_offset 14, -4
 1738 0002 2DED028B 		vpush.64	{d8}
 1739              	.LCFI31:
 1740              		.cfi_def_cfa_offset 24
 1741              		.cfi_offset 80, -24
 1742              		.cfi_offset 81, -20
 1743 0006 0646     		mov	r6, r0
 229:Core/drogui/math/kalman/src/kalmanPV.c **** 
 230:Core/drogui/math/kalman/src/kalmanPV.c **** 	for(int i = 0 ; i < 3 ; i++){
 1744              		.loc 1 230 2 is_stmt 1 view .LVU334
 1745              	.LBB16:
 1746              		.loc 1 230 6 view .LVU335
 1747              	.LVL213:
 1748              		.loc 1 230 10 is_stmt 0 view .LVU336
 1749 0008 0024     		movs	r4, #0
 1750              		.loc 1 230 2 view .LVU337
 1751 000a 22E0     		b	.L59
 1752              	.LVL214:
 1753              	.L60:
 231:Core/drogui/math/kalman/src/kalmanPV.c **** 		setMatVal(&(kpv->p), i, 0, 0);
 1754              		.loc 1 231 3 is_stmt 1 discriminator 3 view .LVU338
 1755 000c 9FED2B8A 		vldr.32	s16, .L69
 1756 0010 B0EE480A 		vmov.f32	s0, s16
 1757 0014 0022     		movs	r2, #0
 1758 0016 2146     		mov	r1, r4
 1759 0018 06F10800 		add	r0, r6, #8
 1760 001c FFF7FEFF 		bl	setMatVal
 1761              	.LVL215:
 232:Core/drogui/math/kalman/src/kalmanPV.c **** 		setMatVal(&(kpv->v), i, 0, 0);
 1762              		.loc 1 232 3 discriminator 3 view .LVU339
 1763 0020 B0EE480A 		vmov.f32	s0, s16
 1764 0024 0022     		movs	r2, #0
 1765 0026 2146     		mov	r1, r4
 1766 0028 06F11C00 		add	r0, r6, #28
ARM GAS  C:\Users\GUILLE~1\AppData\Local\Temp\ccHpHrHN.s 			page 36


 1767 002c FFF7FEFF 		bl	setMatVal
 1768              	.LVL216:
 233:Core/drogui/math/kalman/src/kalmanPV.c **** 		setMatVal(&(kpv->bias_p), i, 0, 0);
 1769              		.loc 1 233 3 discriminator 3 view .LVU340
 1770 0030 B0EE480A 		vmov.f32	s0, s16
 1771 0034 0022     		movs	r2, #0
 1772 0036 2146     		mov	r1, r4
 1773 0038 06F1BC00 		add	r0, r6, #188
 1774 003c FFF7FEFF 		bl	setMatVal
 1775              	.LVL217:
 234:Core/drogui/math/kalman/src/kalmanPV.c **** 		setMatVal(&(kpv->bias_v), i, 0, 0);
 1776              		.loc 1 234 3 discriminator 3 view .LVU341
 1777 0040 B0EE480A 		vmov.f32	s0, s16
 1778 0044 0022     		movs	r2, #0
 1779 0046 2146     		mov	r1, r4
 1780 0048 06F1D000 		add	r0, r6, #208
 1781 004c FFF7FEFF 		bl	setMatVal
 1782              	.LVL218:
 230:Core/drogui/math/kalman/src/kalmanPV.c **** 		setMatVal(&(kpv->p), i, 0, 0);
 1783              		.loc 1 230 26 discriminator 3 view .LVU342
 230:Core/drogui/math/kalman/src/kalmanPV.c **** 		setMatVal(&(kpv->p), i, 0, 0);
 1784              		.loc 1 230 27 is_stmt 0 discriminator 3 view .LVU343
 1785 0050 0134     		adds	r4, r4, #1
 1786              	.LVL219:
 1787              	.L59:
 230:Core/drogui/math/kalman/src/kalmanPV.c **** 		setMatVal(&(kpv->p), i, 0, 0);
 1788              		.loc 1 230 18 is_stmt 1 discriminator 1 view .LVU344
 230:Core/drogui/math/kalman/src/kalmanPV.c **** 		setMatVal(&(kpv->p), i, 0, 0);
 1789              		.loc 1 230 2 is_stmt 0 discriminator 1 view .LVU345
 1790 0052 022C     		cmp	r4, #2
 1791 0054 DADD     		ble	.L60
 1792              	.LBE16:
 1793              	.LBB17:
 235:Core/drogui/math/kalman/src/kalmanPV.c **** 	}
 236:Core/drogui/math/kalman/src/kalmanPV.c **** 	for(int i = 0; i < 9;  i++){
 1794              		.loc 1 236 10 view .LVU346
 1795 0056 0025     		movs	r5, #0
 1796 0058 28E0     		b	.L61
 1797              	.LVL220:
 1798              	.L62:
 1799              	.LBB18:
 237:Core/drogui/math/kalman/src/kalmanPV.c **** 		for(int j = 0; j < 9; j++) setMatVal(&(kpv->Pm), i, j, 0);
 1800              		.loc 1 237 30 is_stmt 1 discriminator 3 view .LVU347
 1801 005a 9FED180A 		vldr.32	s0, .L69
 1802 005e 2246     		mov	r2, r4
 1803 0060 2946     		mov	r1, r5
 1804 0062 06F1F800 		add	r0, r6, #248
 1805 0066 FFF7FEFF 		bl	setMatVal
 1806              	.LVL221:
 1807              		.loc 1 237 25 discriminator 3 view .LVU348
 1808              		.loc 1 237 26 is_stmt 0 discriminator 3 view .LVU349
 1809 006a 0134     		adds	r4, r4, #1
 1810              	.LVL222:
 1811              	.L65:
 1812              		.loc 1 237 18 is_stmt 1 discriminator 1 view .LVU350
 1813              		.loc 1 237 3 is_stmt 0 discriminator 1 view .LVU351
 1814 006c 082C     		cmp	r4, #8
ARM GAS  C:\Users\GUILLE~1\AppData\Local\Temp\ccHpHrHN.s 			page 37


 1815 006e F4DD     		ble	.L62
 1816              	.LBE18:
 1817              	.LBB19:
 238:Core/drogui/math/kalman/src/kalmanPV.c **** 		for(int j = 0; j < 4; j++) setMatVal(&(kpv->KalmanGain), i, j, 0);
 1818              		.loc 1 238 11 view .LVU352
 1819 0070 0024     		movs	r4, #0
 1820              	.LVL223:
 1821              		.loc 1 238 11 view .LVU353
 1822 0072 08E0     		b	.L63
 1823              	.LVL224:
 1824              	.L64:
 1825              		.loc 1 238 30 is_stmt 1 discriminator 3 view .LVU354
 1826 0074 9FED110A 		vldr.32	s0, .L69
 1827 0078 2246     		mov	r2, r4
 1828 007a 2946     		mov	r1, r5
 1829 007c 06F59A70 		add	r0, r6, #308
 1830 0080 FFF7FEFF 		bl	setMatVal
 1831              	.LVL225:
 1832              		.loc 1 238 25 discriminator 3 view .LVU355
 1833              		.loc 1 238 26 is_stmt 0 discriminator 3 view .LVU356
 1834 0084 0134     		adds	r4, r4, #1
 1835              	.LVL226:
 1836              	.L63:
 1837              		.loc 1 238 18 is_stmt 1 discriminator 1 view .LVU357
 1838              		.loc 1 238 3 is_stmt 0 discriminator 1 view .LVU358
 1839 0086 032C     		cmp	r4, #3
 1840 0088 F4DD     		ble	.L64
 1841              	.LBE19:
 239:Core/drogui/math/kalman/src/kalmanPV.c **** 
 240:Core/drogui/math/kalman/src/kalmanPV.c **** 		setMatVal(&(kpv->delta), i, 0, 0);
 1842              		.loc 1 240 3 is_stmt 1 discriminator 2 view .LVU359
 1843 008a 9FED0C0A 		vldr.32	s0, .L69
 1844 008e 0022     		movs	r2, #0
 1845 0090 2946     		mov	r1, r5
 1846 0092 06F5B870 		add	r0, r6, #368
 1847 0096 FFF7FEFF 		bl	setMatVal
 1848              	.LVL227:
 241:Core/drogui/math/kalman/src/kalmanPV.c **** 		setMatVal(&(kpv->Pm),i,i,0.1);
 1849              		.loc 1 241 3 discriminator 2 view .LVU360
 1850 009a 9FED090A 		vldr.32	s0, .L69+4
 1851 009e 2A46     		mov	r2, r5
 1852 00a0 2946     		mov	r1, r5
 1853 00a2 06F1F800 		add	r0, r6, #248
 1854 00a6 FFF7FEFF 		bl	setMatVal
 1855              	.LVL228:
 236:Core/drogui/math/kalman/src/kalmanPV.c **** 		for(int j = 0; j < 9; j++) setMatVal(&(kpv->Pm), i, j, 0);
 1856              		.loc 1 236 25 discriminator 2 view .LVU361
 236:Core/drogui/math/kalman/src/kalmanPV.c **** 		for(int j = 0; j < 9; j++) setMatVal(&(kpv->Pm), i, j, 0);
 1857              		.loc 1 236 26 is_stmt 0 discriminator 2 view .LVU362
 1858 00aa 0135     		adds	r5, r5, #1
 1859              	.LVL229:
 1860              	.L61:
 236:Core/drogui/math/kalman/src/kalmanPV.c **** 		for(int j = 0; j < 9; j++) setMatVal(&(kpv->Pm), i, j, 0);
 1861              		.loc 1 236 17 is_stmt 1 discriminator 1 view .LVU363
 236:Core/drogui/math/kalman/src/kalmanPV.c **** 		for(int j = 0; j < 9; j++) setMatVal(&(kpv->Pm), i, j, 0);
 1862              		.loc 1 236 2 is_stmt 0 discriminator 1 view .LVU364
 1863 00ac 082D     		cmp	r5, #8
ARM GAS  C:\Users\GUILLE~1\AppData\Local\Temp\ccHpHrHN.s 			page 38


 1864 00ae 01DC     		bgt	.L68
 1865              	.LBB20:
 237:Core/drogui/math/kalman/src/kalmanPV.c **** 		for(int j = 0; j < 4; j++) setMatVal(&(kpv->KalmanGain), i, j, 0);
 1866              		.loc 1 237 11 view .LVU365
 1867 00b0 0024     		movs	r4, #0
 1868 00b2 DBE7     		b	.L65
 1869              	.L68:
 1870              	.LBE20:
 1871              	.LBE17:
 242:Core/drogui/math/kalman/src/kalmanPV.c **** 	}
 243:Core/drogui/math/kalman/src/kalmanPV.c **** 
 244:Core/drogui/math/kalman/src/kalmanPV.c **** }
 1872              		.loc 1 244 1 view .LVU366
 1873 00b4 BDEC028B 		vldm	sp!, {d8}
 1874              	.LCFI32:
 1875              		.cfi_restore 80
 1876              		.cfi_restore 81
 1877              		.cfi_def_cfa_offset 16
 1878 00b8 70BD     		pop	{r4, r5, r6, pc}
 1879              	.LVL230:
 1880              	.L70:
 1881              		.loc 1 244 1 view .LVU367
 1882 00ba 00BF     		.align	2
 1883              	.L69:
 1884 00bc 00000000 		.word	0
 1885 00c0 CDCCCC3D 		.word	1036831949
 1886              		.cfi_endproc
 1887              	.LFE293:
 1889              		.text
 1890              	.Letext0:
 1891              		.file 2 "c:\\program files (x86)\\gnu arm embedded toolchain\\10 2020-q4-major\\arm-none-eabi\\inc
 1892              		.file 3 "c:\\program files (x86)\\gnu arm embedded toolchain\\10 2020-q4-major\\arm-none-eabi\\inc
 1893              		.file 4 "Drivers/CMSIS/DSP/Include/arm_math.h"
 1894              		.file 5 "Core/drogui/math/various/include/matlib.h"
 1895              		.file 6 "Core/drogui/math/kalman/include/kalmanPV.h"
ARM GAS  C:\Users\GUILLE~1\AppData\Local\Temp\ccHpHrHN.s 			page 39

