ARM GAS  C:\Users\GUILLE~1\AppData\Local\Temp\ccOgD2AT.s 			page 1


   1              		.cpu cortex-m7
   2              		.eabi_attribute 27, 1
   3              		.eabi_attribute 28, 1
   4              		.eabi_attribute 20, 1
   5              		.eabi_attribute 21, 1
   6              		.eabi_attribute 23, 3
   7              		.eabi_attribute 24, 1
   8              		.eabi_attribute 25, 1
   9              		.eabi_attribute 26, 1
  10              		.eabi_attribute 30, 1
  11              		.eabi_attribute 34, 1
  12              		.eabi_attribute 18, 4
  13              		.file	"mahony.c"
  14              		.text
  15              	.Ltext0:
  16              		.cfi_sections	.debug_frame
  17              		.section	.text.initMahony,"ax",%progbits
  18              		.align	1
  19              		.global	initMahony
  20              		.arch armv7e-m
  21              		.syntax unified
  22              		.thumb
  23              		.thumb_func
  24              		.fpu fpv5-sp-d16
  26              	initMahony:
  27              	.LVL0:
  28              	.LFB246:
  29              		.file 1 "Core/drogui/math/various/src/mahony.c"
   1:Core/drogui/math/various/src/mahony.c **** #include "mahony.h"
   2:Core/drogui/math/various/src/mahony.c **** #include <stdlib.h>
   3:Core/drogui/math/various/src/mahony.c **** #include <math.h>
   4:Core/drogui/math/various/src/mahony.c **** #include "utils.h"
   5:Core/drogui/math/various/src/mahony.c **** /*
   6:Core/drogui/math/various/src/mahony.c **** 
   7:Core/drogui/math/various/src/mahony.c **** //=================================================================================================
   8:Core/drogui/math/various/src/mahony.c **** // Definitions
   9:Core/drogui/math/various/src/mahony.c **** #define sampleFreq	500.0f			// sample frequency in Hz
  10:Core/drogui/math/various/src/mahony.c **** #define twoKpDef	(2.0f * 2.0f)	// 2 * proportional gain
  11:Core/drogui/math/various/src/mahony.c **** #define twoKiDef	(2.0f * 0.1f)	// 2 * integral gain
  12:Core/drogui/math/various/src/mahony.c **** 
  13:Core/drogui/math/various/src/mahony.c **** //=================================================================================================
  14:Core/drogui/math/various/src/mahony.c **** // Variable definitions
  15:Core/drogui/math/various/src/mahony.c **** 
  16:Core/drogui/math/various/src/mahony.c **** volatile float twoKp = twoKpDef;											// 2 * proportional gain (Kp)
  17:Core/drogui/math/various/src/mahony.c **** volatile float twoKi = twoKiDef;											// 2 * integral gain (Ki)
  18:Core/drogui/math/various/src/mahony.c **** volatile float q0 = 1.0f, q1 = 0.0f, q2 = 0.0f, q3 = 0.0f;					// quaternion of sensor frame relati
  19:Core/drogui/math/various/src/mahony.c **** volatile float integralFBx = 0.0f,  integralFBy = 0.0f, integralFBz = 0.0f;	// integral error terms
  20:Core/drogui/math/various/src/mahony.c **** 
  21:Core/drogui/math/various/src/mahony.c **** //=================================================================================================
  22:Core/drogui/math/various/src/mahony.c **** // Function declarations
  23:Core/drogui/math/various/src/mahony.c **** */
  24:Core/drogui/math/various/src/mahony.c **** float invSqrt(float x);
  25:Core/drogui/math/various/src/mahony.c **** 
  26:Core/drogui/math/various/src/mahony.c **** //=================================================================================================
  27:Core/drogui/math/various/src/mahony.c **** // Functions
  28:Core/drogui/math/various/src/mahony.c **** 
  29:Core/drogui/math/various/src/mahony.c **** //-------------------------------------------------------------------------------------------------
ARM GAS  C:\Users\GUILLE~1\AppData\Local\Temp\ccOgD2AT.s 			page 2


  30:Core/drogui/math/various/src/mahony.c **** // AHRS algorithm update
  31:Core/drogui/math/various/src/mahony.c **** 
  32:Core/drogui/math/various/src/mahony.c **** 
  33:Core/drogui/math/various/src/mahony.c **** void initMahony(mahony *m, float kp, float ki, float sampleFreq){
  30              		.loc 1 33 65 view -0
  31              		.cfi_startproc
  32              		@ args = 0, pretend = 0, frame = 0
  33              		@ frame_needed = 0, uses_anonymous_args = 0
  34              		@ link register save eliminated.
  34:Core/drogui/math/various/src/mahony.c **** 	m->integralFBx = m->integralFBy = m->integralFBz = 0;
  35              		.loc 1 34 2 view .LVU1
  36              		.loc 1 34 51 is_stmt 0 view .LVU2
  37 0000 0023     		movs	r3, #0
  38 0002 4362     		str	r3, [r0, #36]	@ float
  39              		.loc 1 34 34 view .LVU3
  40 0004 0362     		str	r3, [r0, #32]	@ float
  41              		.loc 1 34 17 view .LVU4
  42 0006 C361     		str	r3, [r0, #28]	@ float
  35:Core/drogui/math/various/src/mahony.c **** 	m->q0 = 1;
  43              		.loc 1 35 2 is_stmt 1 view .LVU5
  44              		.loc 1 35 8 is_stmt 0 view .LVU6
  45 0008 4FF07E52 		mov	r2, #1065353216
  46 000c C260     		str	r2, [r0, #12]	@ float
  36:Core/drogui/math/various/src/mahony.c **** 	m->q1 = m->q2 = m->q3 = 0;
  47              		.loc 1 36 2 is_stmt 1 view .LVU7
  48              		.loc 1 36 24 is_stmt 0 view .LVU8
  49 000e 8361     		str	r3, [r0, #24]	@ float
  50              		.loc 1 36 16 view .LVU9
  51 0010 4361     		str	r3, [r0, #20]	@ float
  52              		.loc 1 36 8 view .LVU10
  53 0012 0361     		str	r3, [r0, #16]	@ float
  37:Core/drogui/math/various/src/mahony.c **** 	m->twoKi = 2 * ki;
  54              		.loc 1 37 2 is_stmt 1 view .LVU11
  55              		.loc 1 37 15 is_stmt 0 view .LVU12
  56 0014 70EEA00A 		vadd.f32	s1, s1, s1
  57              	.LVL1:
  58              		.loc 1 37 11 view .LVU13
  59 0018 C0ED020A 		vstr.32	s1, [r0, #8]
  38:Core/drogui/math/various/src/mahony.c **** 	m->twoKp = 2 * kp;
  60              		.loc 1 38 2 is_stmt 1 view .LVU14
  61              		.loc 1 38 15 is_stmt 0 view .LVU15
  62 001c 30EE000A 		vadd.f32	s0, s0, s0
  63              	.LVL2:
  64              		.loc 1 38 11 view .LVU16
  65 0020 80ED010A 		vstr.32	s0, [r0, #4]
  39:Core/drogui/math/various/src/mahony.c **** 	m->sampleFreq = sampleFreq;
  66              		.loc 1 39 2 is_stmt 1 view .LVU17
  67              		.loc 1 39 16 is_stmt 0 view .LVU18
  68 0024 80ED001A 		vstr.32	s2, [r0]
  40:Core/drogui/math/various/src/mahony.c **** }
  69              		.loc 1 40 1 view .LVU19
  70 0028 7047     		bx	lr
  71              		.cfi_endproc
  72              	.LFE246:
  74              		.section	.text.invSqrt,"ax",%progbits
  75              		.align	1
  76              		.global	invSqrt
ARM GAS  C:\Users\GUILLE~1\AppData\Local\Temp\ccOgD2AT.s 			page 3


  77              		.syntax unified
  78              		.thumb
  79              		.thumb_func
  80              		.fpu fpv5-sp-d16
  82              	invSqrt:
  83              	.LVL3:
  84              	.LFB249:
  41:Core/drogui/math/various/src/mahony.c **** 
  42:Core/drogui/math/various/src/mahony.c **** 
  43:Core/drogui/math/various/src/mahony.c **** 
  44:Core/drogui/math/various/src/mahony.c **** void mahonyUpdate(mahony *m, float gx, float gy, float gz, float ax, float ay, float az, float mx, 
  45:Core/drogui/math/various/src/mahony.c **** 	float recipNorm;
  46:Core/drogui/math/various/src/mahony.c **** 	float q0q0, q0q1, q0q2, q0q3, q1q1, q1q2, q1q3, q2q2, q2q3, q3q3;
  47:Core/drogui/math/various/src/mahony.c **** 	float hx, hy, bx, bz;
  48:Core/drogui/math/various/src/mahony.c **** 	float halfvx, halfvy, halfvz, halfwx, halfwy, halfwz;
  49:Core/drogui/math/various/src/mahony.c **** 	float halfex, halfey, halfez;
  50:Core/drogui/math/various/src/mahony.c **** 	float qa, qb, qc;
  51:Core/drogui/math/various/src/mahony.c **** 
  52:Core/drogui/math/various/src/mahony.c **** 	// Use IMU algorithm if magnetometer measurement invalid (avoids NaN in magnetometer normalisation
  53:Core/drogui/math/various/src/mahony.c **** 	if( ((mx == 0.0f) && (my == 0.0f) && (mz == 0.0f) ) || isnan(mx) || isnan(my) || isnan(mz)) {
  54:Core/drogui/math/various/src/mahony.c **** 		mahonyUpdateIMU(m, gx, gy, gz, ax, ay, az);
  55:Core/drogui/math/various/src/mahony.c **** 		return;
  56:Core/drogui/math/various/src/mahony.c **** 	}
  57:Core/drogui/math/various/src/mahony.c **** 
  58:Core/drogui/math/various/src/mahony.c **** 	// Compute feedback only if accelerometer measurement valid (avoids NaN in accelerometer normalisa
  59:Core/drogui/math/various/src/mahony.c **** 	if(!((ax == 0.0f) && (ay == 0.0f) && (az == 0.0f))) {
  60:Core/drogui/math/various/src/mahony.c **** 
  61:Core/drogui/math/various/src/mahony.c **** 		// Normalise accelerometer measurement
  62:Core/drogui/math/various/src/mahony.c **** 		recipNorm = invSqrt(ax * ax + ay * ay + az * az);
  63:Core/drogui/math/various/src/mahony.c **** 		ax *= recipNorm;
  64:Core/drogui/math/various/src/mahony.c **** 		ay *= recipNorm;
  65:Core/drogui/math/various/src/mahony.c **** 		az *= recipNorm;
  66:Core/drogui/math/various/src/mahony.c **** 
  67:Core/drogui/math/various/src/mahony.c **** 		// Normalise magnetometer measurement
  68:Core/drogui/math/various/src/mahony.c **** 		recipNorm = invSqrt(mx * mx + my * my + mz * mz);
  69:Core/drogui/math/various/src/mahony.c **** 		mx *= recipNorm;
  70:Core/drogui/math/various/src/mahony.c **** 		my *= recipNorm;
  71:Core/drogui/math/various/src/mahony.c **** 		mz *= recipNorm;
  72:Core/drogui/math/various/src/mahony.c **** 
  73:Core/drogui/math/various/src/mahony.c **** 		// Auxiliary variables to avoid repeated arithmetic
  74:Core/drogui/math/various/src/mahony.c **** 		q0q0 = (m->q0) * (m->q0);
  75:Core/drogui/math/various/src/mahony.c **** 		q0q1 = (m->q0) * (m->q1);
  76:Core/drogui/math/various/src/mahony.c **** 		q0q2 = (m->q0) * (m->q2);
  77:Core/drogui/math/various/src/mahony.c **** 		q0q3 = (m->q0) * (m->q3);
  78:Core/drogui/math/various/src/mahony.c **** 		q1q1 = (m->q1) * (m->q1);
  79:Core/drogui/math/various/src/mahony.c **** 		q1q2 = (m->q1) * (m->q2);
  80:Core/drogui/math/various/src/mahony.c **** 		q1q3 = (m->q1) * (m->q3);
  81:Core/drogui/math/various/src/mahony.c **** 		q2q2 = (m->q2) * (m->q2);
  82:Core/drogui/math/various/src/mahony.c **** 		q2q3 = (m->q2) * (m->q3);
  83:Core/drogui/math/various/src/mahony.c **** 		q3q3 = (m->q3) * (m->q3);
  84:Core/drogui/math/various/src/mahony.c **** 
  85:Core/drogui/math/various/src/mahony.c **** 		// Reference direction of Earth's magnetic field
  86:Core/drogui/math/various/src/mahony.c **** 		hx = 2.0f * (mx * (0.5f - q2q2 - q3q3) + my * (q1q2 - q0q3) + mz * (q1q3 + q0q2));
  87:Core/drogui/math/various/src/mahony.c **** 		hy = 2.0f * (mx * (q1q2 + q0q3) + my * (0.5f - q1q1 - q3q3) + mz * (q2q3 - q0q1));
  88:Core/drogui/math/various/src/mahony.c **** 		bx = sqrt(hx * hx + hy * hy);
  89:Core/drogui/math/various/src/mahony.c **** 		bz = 2.0f * (mx * (q1q3 - q0q2) + my * (q2q3 + q0q1) + mz * (0.5f - q1q1 - q2q2));
  90:Core/drogui/math/various/src/mahony.c **** 
ARM GAS  C:\Users\GUILLE~1\AppData\Local\Temp\ccOgD2AT.s 			page 4


  91:Core/drogui/math/various/src/mahony.c **** 		// Estimated direction of gravity and magnetic field
  92:Core/drogui/math/various/src/mahony.c **** 		halfvx = q1q3 - q0q2;
  93:Core/drogui/math/various/src/mahony.c **** 		halfvy = q0q1 + q2q3;
  94:Core/drogui/math/various/src/mahony.c **** 		halfvz = q0q0 - 0.5f + q3q3;
  95:Core/drogui/math/various/src/mahony.c **** 		halfwx = bx * (0.5f - q2q2 - q3q3) + bz * (q1q3 - q0q2);
  96:Core/drogui/math/various/src/mahony.c **** 		halfwy = bx * (q1q2 - q0q3) + bz * (q0q1 + q2q3);
  97:Core/drogui/math/various/src/mahony.c **** 		halfwz = bx * (q0q2 + q1q3) + bz * (0.5f - q1q1 - q2q2);
  98:Core/drogui/math/various/src/mahony.c **** 
  99:Core/drogui/math/various/src/mahony.c **** 		// Error is sum of cross product between estimated direction and measured direction of field vect
 100:Core/drogui/math/various/src/mahony.c **** 		halfex = (ay * halfvz - az * halfvy) + (my * halfwz - mz * halfwy);
 101:Core/drogui/math/various/src/mahony.c **** 		halfey = (az * halfvx - ax * halfvz) + (mz * halfwx - mx * halfwz);
 102:Core/drogui/math/various/src/mahony.c **** 		halfez = (ax * halfvy - ay * halfvx) + (mx * halfwy - my * halfwx);
 103:Core/drogui/math/various/src/mahony.c **** 
 104:Core/drogui/math/various/src/mahony.c **** 		// Compute and apply integral feedback if enabled
 105:Core/drogui/math/various/src/mahony.c **** 		if((m->twoKi) > 0.0f) {
 106:Core/drogui/math/various/src/mahony.c **** 			(m->integralFBx) += (m->twoKi) * halfex * (1.0f / (m->sampleFreq));	// integral error scaled by 
 107:Core/drogui/math/various/src/mahony.c **** 			(m->integralFBy) += (m->twoKi) * halfey * (1.0f / (m->sampleFreq));
 108:Core/drogui/math/various/src/mahony.c **** 			(m->integralFBz) += (m->twoKi) * halfez * (1.0f / (m->sampleFreq));
 109:Core/drogui/math/various/src/mahony.c **** 			gx += (m->integralFBx);	// apply integral feedback
 110:Core/drogui/math/various/src/mahony.c **** 			gy += (m->integralFBy);
 111:Core/drogui/math/various/src/mahony.c **** 			gz += (m->integralFBz);
 112:Core/drogui/math/various/src/mahony.c **** 		}
 113:Core/drogui/math/various/src/mahony.c **** 		else {
 114:Core/drogui/math/various/src/mahony.c **** 			(m->integralFBx) = 0.0f;	// prevent integral windup
 115:Core/drogui/math/various/src/mahony.c **** 			(m->integralFBy) = 0.0f;
 116:Core/drogui/math/various/src/mahony.c **** 			(m->integralFBz) = 0.0f;
 117:Core/drogui/math/various/src/mahony.c **** 		}
 118:Core/drogui/math/various/src/mahony.c **** 
 119:Core/drogui/math/various/src/mahony.c **** 		// Apply proportional feedback
 120:Core/drogui/math/various/src/mahony.c **** 		gx += (m->twoKp) * halfex;
 121:Core/drogui/math/various/src/mahony.c **** 		gy += (m->twoKp) * halfey;
 122:Core/drogui/math/various/src/mahony.c **** 		gz += (m->twoKp) * halfez;
 123:Core/drogui/math/various/src/mahony.c **** 	}
 124:Core/drogui/math/various/src/mahony.c **** 
 125:Core/drogui/math/various/src/mahony.c **** 	// Integrate rate of change of quaternion
 126:Core/drogui/math/various/src/mahony.c **** 	gx *= (0.5f * (1.0f / (m->sampleFreq)));		// pre-multiply common factors
 127:Core/drogui/math/various/src/mahony.c **** 	gy *= (0.5f * (1.0f / (m->sampleFreq)));
 128:Core/drogui/math/various/src/mahony.c **** 	gz *= (0.5f * (1.0f / (m->sampleFreq)));
 129:Core/drogui/math/various/src/mahony.c **** 	qa = (m->q0);
 130:Core/drogui/math/various/src/mahony.c **** 	qb = (m->q1);
 131:Core/drogui/math/various/src/mahony.c **** 	qc = (m->q2);
 132:Core/drogui/math/various/src/mahony.c **** 	m -> q0 += (-qb * gx - qc * gy - m->q3 * gz);
 133:Core/drogui/math/various/src/mahony.c **** 	m -> q1 += (qa * gx + qc * gz - m->q3 * gy);
 134:Core/drogui/math/various/src/mahony.c **** 	m -> q2 += (qa * gy - qb * gz + m->q3 * gx);
 135:Core/drogui/math/various/src/mahony.c **** 	m -> q3 += (qa * gz + qb * gy - qc * gx);
 136:Core/drogui/math/various/src/mahony.c **** 
 137:Core/drogui/math/various/src/mahony.c **** 	// Normalise quaternion
 138:Core/drogui/math/various/src/mahony.c **** 	recipNorm = invSqrt((m->q0) * (m->q0) + (m->q1) * (m->q1) + (m->q2) * (m->q2) + (m->q3) * (m->q3))
 139:Core/drogui/math/various/src/mahony.c **** 	m->q0 *= recipNorm;
 140:Core/drogui/math/various/src/mahony.c **** 	m->q1 *= recipNorm;
 141:Core/drogui/math/various/src/mahony.c **** 	m->q2 *= recipNorm;
 142:Core/drogui/math/various/src/mahony.c **** 	m->q3 *= recipNorm;
 143:Core/drogui/math/various/src/mahony.c **** }
 144:Core/drogui/math/various/src/mahony.c **** 
 145:Core/drogui/math/various/src/mahony.c **** //-------------------------------------------------------------------------------------------------
 146:Core/drogui/math/various/src/mahony.c **** // IMU algorithm update
 147:Core/drogui/math/various/src/mahony.c **** 
ARM GAS  C:\Users\GUILLE~1\AppData\Local\Temp\ccOgD2AT.s 			page 5


 148:Core/drogui/math/various/src/mahony.c **** void mahonyUpdateIMU(mahony *m, float gx, float gy, float gz, float ax, float ay, float az) {
 149:Core/drogui/math/various/src/mahony.c **** 	float recipNorm;
 150:Core/drogui/math/various/src/mahony.c **** 	float halfvx, halfvy, halfvz;
 151:Core/drogui/math/various/src/mahony.c **** 	float halfex, halfey, halfez;
 152:Core/drogui/math/various/src/mahony.c **** 	float qa, qb, qc;
 153:Core/drogui/math/various/src/mahony.c **** 
 154:Core/drogui/math/various/src/mahony.c **** 	// Compute feedback only if accelerometer measurement valid (avoids NaN in accelerometer normalisa
 155:Core/drogui/math/various/src/mahony.c **** 	if(!((ax == 0.0f) && (ay == 0.0f) && (az == 0.0f))) {
 156:Core/drogui/math/various/src/mahony.c **** 
 157:Core/drogui/math/various/src/mahony.c **** 		// Normalise accelerometer measurement
 158:Core/drogui/math/various/src/mahony.c **** 		recipNorm = invSqrt(ax * ax + ay * ay + az * az);
 159:Core/drogui/math/various/src/mahony.c **** 		ax *= recipNorm;
 160:Core/drogui/math/various/src/mahony.c **** 		ay *= recipNorm;
 161:Core/drogui/math/various/src/mahony.c **** 		az *= recipNorm;
 162:Core/drogui/math/various/src/mahony.c **** 
 163:Core/drogui/math/various/src/mahony.c **** 		// Estimated direction of gravity and vector perpendicular to magnetic flux
 164:Core/drogui/math/various/src/mahony.c **** 		halfvx = (m->q1) * (m->q3) - (m->q0) * (m->q2);
 165:Core/drogui/math/various/src/mahony.c **** 		halfvy = (m->q0) * (m->q1) + (m->q2) * (m->q3);
 166:Core/drogui/math/various/src/mahony.c **** 		halfvz = (m->q0) * (m->q0) - 0.5f + (m->q3) * (m->q3);
 167:Core/drogui/math/various/src/mahony.c **** 
 168:Core/drogui/math/various/src/mahony.c **** 		// Error is sum of cross product between estimated and measured direction of gravity
 169:Core/drogui/math/various/src/mahony.c **** 		halfex = (ay * halfvz - az * halfvy);
 170:Core/drogui/math/various/src/mahony.c **** 		halfey = (az * halfvx - ax * halfvz);
 171:Core/drogui/math/various/src/mahony.c **** 		halfez = (ax * halfvy - ay * halfvx);
 172:Core/drogui/math/various/src/mahony.c **** 
 173:Core/drogui/math/various/src/mahony.c **** 		// Compute and apply integral feedback if enabled
 174:Core/drogui/math/various/src/mahony.c **** 		if((m->twoKi) > 0.0f) {
 175:Core/drogui/math/various/src/mahony.c **** 			(m->integralFBx) += (m->twoKi) * halfex * (1.0f / (m->sampleFreq));	// integral error scaled by 
 176:Core/drogui/math/various/src/mahony.c **** 			(m->integralFBy) += (m->twoKi) * halfey * (1.0f / (m->sampleFreq));
 177:Core/drogui/math/various/src/mahony.c **** 			(m->integralFBz) += (m->twoKi) * halfez * (1.0f / (m->sampleFreq));
 178:Core/drogui/math/various/src/mahony.c **** 			gx += (m->integralFBx);	// apply integral feedback
 179:Core/drogui/math/various/src/mahony.c **** 			gy += (m->integralFBy);
 180:Core/drogui/math/various/src/mahony.c **** 			gz += (m->integralFBz);
 181:Core/drogui/math/various/src/mahony.c **** 		}
 182:Core/drogui/math/various/src/mahony.c **** 		else {
 183:Core/drogui/math/various/src/mahony.c **** 			(m->integralFBx) = 0.0f;	// prevent integral windup
 184:Core/drogui/math/various/src/mahony.c **** 			(m->integralFBy) = 0.0f;
 185:Core/drogui/math/various/src/mahony.c **** 			(m->integralFBz) = 0.0f;
 186:Core/drogui/math/various/src/mahony.c **** 		}
 187:Core/drogui/math/various/src/mahony.c **** 
 188:Core/drogui/math/various/src/mahony.c **** 		// Apply proportional feedback
 189:Core/drogui/math/various/src/mahony.c **** 		gx += (m->twoKp) * halfex;
 190:Core/drogui/math/various/src/mahony.c **** 		gy += (m->twoKp) * halfey;
 191:Core/drogui/math/various/src/mahony.c **** 		gz += (m->twoKp) * halfez;
 192:Core/drogui/math/various/src/mahony.c **** 	}
 193:Core/drogui/math/various/src/mahony.c **** 
 194:Core/drogui/math/various/src/mahony.c **** 	// Integrate rate of change of quaternion
 195:Core/drogui/math/various/src/mahony.c **** 	gx *= (0.5f * (1.0f / (m->sampleFreq)));		// pre-multiply common factors
 196:Core/drogui/math/various/src/mahony.c **** 	gy *= (0.5f * (1.0f / (m->sampleFreq)));
 197:Core/drogui/math/various/src/mahony.c **** 	gz *= (0.5f * (1.0f / (m->sampleFreq)));
 198:Core/drogui/math/various/src/mahony.c **** 	qa = (m->q0);
 199:Core/drogui/math/various/src/mahony.c **** 	qb = (m->q1);
 200:Core/drogui/math/various/src/mahony.c **** 	qc = (m->q2);
 201:Core/drogui/math/various/src/mahony.c **** 	(m->q0) += (-qb * gx - qc * gy - (m->q3) * gz);
 202:Core/drogui/math/various/src/mahony.c **** 	(m->q1) += (qa * gx + qc * gz - (m->q3) * gy);
 203:Core/drogui/math/various/src/mahony.c **** 	(m->q2) += (qa * gy - qb * gz + (m->q3) * gx);
 204:Core/drogui/math/various/src/mahony.c **** 	(m->q3) += (qa * gz + qb * gy - qc * gx);
ARM GAS  C:\Users\GUILLE~1\AppData\Local\Temp\ccOgD2AT.s 			page 6


 205:Core/drogui/math/various/src/mahony.c **** 
 206:Core/drogui/math/various/src/mahony.c **** 	// Normalise quaternion
 207:Core/drogui/math/various/src/mahony.c **** 	recipNorm = invSqrt((m->q0) * (m->q0) + (m->q1) * (m->q1) + (m->q2) * (m->q2) + (m->q3) * (m->q3))
 208:Core/drogui/math/various/src/mahony.c **** 	(m->q0) *= recipNorm;
 209:Core/drogui/math/various/src/mahony.c **** 	(m->q1) *= recipNorm;
 210:Core/drogui/math/various/src/mahony.c **** 	(m->q2) *= recipNorm;
 211:Core/drogui/math/various/src/mahony.c **** 	(m->q3) *= recipNorm;
 212:Core/drogui/math/various/src/mahony.c **** }
 213:Core/drogui/math/various/src/mahony.c **** 
 214:Core/drogui/math/various/src/mahony.c **** //-------------------------------------------------------------------------------------------------
 215:Core/drogui/math/various/src/mahony.c **** // Fast inverse square-root
 216:Core/drogui/math/various/src/mahony.c **** // See: http://en.wikipedia.org/wiki/Fast_inverse_square_root
 217:Core/drogui/math/various/src/mahony.c **** 
 218:Core/drogui/math/various/src/mahony.c **** float invSqrt(float x) {
  85              		.loc 1 218 24 is_stmt 1 view -0
  86              		.cfi_startproc
  87              		@ args = 0, pretend = 0, frame = 0
  88              		@ frame_needed = 0, uses_anonymous_args = 0
  89              		@ link register save eliminated.
 219:Core/drogui/math/various/src/mahony.c **** 	float halfx = 0.5f * x;
  90              		.loc 1 219 2 view .LVU21
  91              		.loc 1 219 8 is_stmt 0 view .LVU22
  92 0000 F6EE007A 		vmov.f32	s15, #5.0e-1
  93 0004 60EE277A 		vmul.f32	s15, s0, s15
  94              	.LVL4:
 220:Core/drogui/math/various/src/mahony.c **** 	float y = x;
  95              		.loc 1 220 2 is_stmt 1 view .LVU23
 221:Core/drogui/math/various/src/mahony.c **** 	long i = *(long*)&y;
  96              		.loc 1 221 2 view .LVU24
  97              		.loc 1 221 11 is_stmt 0 view .LVU25
  98 0008 10EE103A 		vmov	r3, s0	@ int
  99              	.LVL5:
 222:Core/drogui/math/various/src/mahony.c **** 	i = 0x5f3759df - (i>>1);
 100              		.loc 1 222 2 is_stmt 1 view .LVU26
 223:Core/drogui/math/various/src/mahony.c **** 	y = *(float*)&i;
 101              		.loc 1 223 2 view .LVU27
 102              		.loc 1 223 6 is_stmt 0 view .LVU28
 103 000c 074A     		ldr	r2, .L3
 104 000e A2EB6303 		sub	r3, r2, r3, asr #1
 105              	.LVL6:
 106              		.loc 1 223 6 view .LVU29
 107 0012 07EE103A 		vmov	s14, r3	@ int
 108              	.LVL7:
 224:Core/drogui/math/various/src/mahony.c **** 	y = y * (1.5f - (halfx * y * y));
 109              		.loc 1 224 2 is_stmt 1 view .LVU30
 110              		.loc 1 224 25 is_stmt 0 view .LVU31
 111 0016 67EE277A 		vmul.f32	s15, s14, s15
 112              	.LVL8:
 113              		.loc 1 224 29 view .LVU32
 114 001a 67EE277A 		vmul.f32	s15, s14, s15
 115              		.loc 1 224 16 view .LVU33
 116 001e B7EE080A 		vmov.f32	s0, #1.5e+0
 117              	.LVL9:
 118              		.loc 1 224 16 view .LVU34
 119 0022 30EE670A 		vsub.f32	s0, s0, s15
 120              	.LVL10:
 225:Core/drogui/math/various/src/mahony.c **** 	return y;
ARM GAS  C:\Users\GUILLE~1\AppData\Local\Temp\ccOgD2AT.s 			page 7


 121              		.loc 1 225 2 is_stmt 1 view .LVU35
 226:Core/drogui/math/various/src/mahony.c **** }
 122              		.loc 1 226 1 is_stmt 0 view .LVU36
 123 0026 27EE000A 		vmul.f32	s0, s14, s0
 124 002a 7047     		bx	lr
 125              	.L4:
 126              		.align	2
 127              	.L3:
 128 002c DF59375F 		.word	1597463007
 129              		.cfi_endproc
 130              	.LFE249:
 132              		.section	.text.mahonyUpdateIMU,"ax",%progbits
 133              		.align	1
 134              		.global	mahonyUpdateIMU
 135              		.syntax unified
 136              		.thumb
 137              		.thumb_func
 138              		.fpu fpv5-sp-d16
 140              	mahonyUpdateIMU:
 141              	.LVL11:
 142              	.LFB248:
 148:Core/drogui/math/various/src/mahony.c **** 	float recipNorm;
 143              		.loc 1 148 93 is_stmt 1 view -0
 144              		.cfi_startproc
 145              		@ args = 0, pretend = 0, frame = 0
 146              		@ frame_needed = 0, uses_anonymous_args = 0
 148:Core/drogui/math/various/src/mahony.c **** 	float recipNorm;
 147              		.loc 1 148 93 is_stmt 0 view .LVU38
 148 0000 10B5     		push	{r4, lr}
 149              	.LCFI0:
 150              		.cfi_def_cfa_offset 8
 151              		.cfi_offset 4, -8
 152              		.cfi_offset 14, -4
 153 0002 2DED068B 		vpush.64	{d8, d9, d10}
 154              	.LCFI1:
 155              		.cfi_def_cfa_offset 32
 156              		.cfi_offset 80, -32
 157              		.cfi_offset 81, -28
 158              		.cfi_offset 82, -24
 159              		.cfi_offset 83, -20
 160              		.cfi_offset 84, -16
 161              		.cfi_offset 85, -12
 162 0006 0446     		mov	r4, r0
 163 0008 B0EE408A 		vmov.f32	s16, s0
 164 000c F0EE608A 		vmov.f32	s17, s1
 165 0010 B0EE41AA 		vmov.f32	s20, s2
 166 0014 F0EE61AA 		vmov.f32	s21, s3
 167 0018 F0EE429A 		vmov.f32	s19, s4
 168 001c B0EE629A 		vmov.f32	s18, s5
 149:Core/drogui/math/various/src/mahony.c **** 	float halfvx, halfvy, halfvz;
 169              		.loc 1 149 2 is_stmt 1 view .LVU39
 150:Core/drogui/math/various/src/mahony.c **** 	float halfex, halfey, halfez;
 170              		.loc 1 150 2 view .LVU40
 151:Core/drogui/math/various/src/mahony.c **** 	float qa, qb, qc;
 171              		.loc 1 151 2 view .LVU41
 152:Core/drogui/math/various/src/mahony.c **** 
 172              		.loc 1 152 2 view .LVU42
ARM GAS  C:\Users\GUILLE~1\AppData\Local\Temp\ccOgD2AT.s 			page 8


 155:Core/drogui/math/various/src/mahony.c **** 
 173              		.loc 1 155 2 view .LVU43
 155:Core/drogui/math/various/src/mahony.c **** 
 174              		.loc 1 155 11 is_stmt 0 view .LVU44
 175 0020 F5EE401A 		vcmp.f32	s3, #0
 176 0024 F1EE10FA 		vmrs	APSR_nzcv, FPSCR
 177 0028 14BF     		ite	ne
 178 002a 0123     		movne	r3, #1
 179 002c 0023     		moveq	r3, #0
 155:Core/drogui/math/various/src/mahony.c **** 
 180              		.loc 1 155 27 view .LVU45
 181 002e B5EE402A 		vcmp.f32	s4, #0
 182 0032 F1EE10FA 		vmrs	APSR_nzcv, FPSCR
 155:Core/drogui/math/various/src/mahony.c **** 
 183              		.loc 1 155 20 view .LVU46
 184 0036 18BF     		it	ne
 185 0038 43F00103 		orrne	r3, r3, #1
 155:Core/drogui/math/various/src/mahony.c **** 
 186              		.loc 1 155 4 view .LVU47
 187 003c 2BB9     		cbnz	r3, .L6
 155:Core/drogui/math/various/src/mahony.c **** 
 188              		.loc 1 155 5 discriminator 1 view .LVU48
 189 003e F5EE402A 		vcmp.f32	s5, #0
 190 0042 F1EE10FA 		vmrs	APSR_nzcv, FPSCR
 191 0046 00F0A280 		beq	.L7
 192              	.L6:
 158:Core/drogui/math/various/src/mahony.c **** 		ax *= recipNorm;
 193              		.loc 1 158 3 is_stmt 1 view .LVU49
 158:Core/drogui/math/various/src/mahony.c **** 		ax *= recipNorm;
 194              		.loc 1 158 26 is_stmt 0 view .LVU50
 195 004a 6AEEAA7A 		vmul.f32	s15, s21, s21
 158:Core/drogui/math/various/src/mahony.c **** 		ax *= recipNorm;
 196              		.loc 1 158 36 view .LVU51
 197 004e 29EEA90A 		vmul.f32	s0, s19, s19
 198              	.LVL12:
 158:Core/drogui/math/various/src/mahony.c **** 		ax *= recipNorm;
 199              		.loc 1 158 31 view .LVU52
 200 0052 77EE807A 		vadd.f32	s15, s15, s0
 158:Core/drogui/math/various/src/mahony.c **** 		ax *= recipNorm;
 201              		.loc 1 158 46 view .LVU53
 202 0056 29EE090A 		vmul.f32	s0, s18, s18
 158:Core/drogui/math/various/src/mahony.c **** 		ax *= recipNorm;
 203              		.loc 1 158 15 view .LVU54
 204 005a 37EE800A 		vadd.f32	s0, s15, s0
 205 005e FFF7FEFF 		bl	invSqrt
 206              	.LVL13:
 159:Core/drogui/math/various/src/mahony.c **** 		ay *= recipNorm;
 207              		.loc 1 159 3 is_stmt 1 view .LVU55
 159:Core/drogui/math/various/src/mahony.c **** 		ay *= recipNorm;
 208              		.loc 1 159 6 is_stmt 0 view .LVU56
 209 0062 6AEE80AA 		vmul.f32	s21, s21, s0
 210              	.LVL14:
 160:Core/drogui/math/various/src/mahony.c **** 		az *= recipNorm;
 211              		.loc 1 160 3 is_stmt 1 view .LVU57
 160:Core/drogui/math/various/src/mahony.c **** 		az *= recipNorm;
 212              		.loc 1 160 6 is_stmt 0 view .LVU58
 213 0066 69EE809A 		vmul.f32	s19, s19, s0
ARM GAS  C:\Users\GUILLE~1\AppData\Local\Temp\ccOgD2AT.s 			page 9


 214              	.LVL15:
 161:Core/drogui/math/various/src/mahony.c **** 
 215              		.loc 1 161 3 is_stmt 1 view .LVU59
 161:Core/drogui/math/various/src/mahony.c **** 
 216              		.loc 1 161 6 is_stmt 0 view .LVU60
 217 006a 29EE009A 		vmul.f32	s18, s18, s0
 218              	.LVL16:
 164:Core/drogui/math/various/src/mahony.c **** 		halfvy = (m->q0) * (m->q1) + (m->q2) * (m->q3);
 219              		.loc 1 164 3 is_stmt 1 view .LVU61
 164:Core/drogui/math/various/src/mahony.c **** 		halfvy = (m->q0) * (m->q1) + (m->q2) * (m->q3);
 220              		.loc 1 164 14 is_stmt 0 view .LVU62
 221 006e 94ED042A 		vldr.32	s4, [r4, #16]
 164:Core/drogui/math/various/src/mahony.c **** 		halfvy = (m->q0) * (m->q1) + (m->q2) * (m->q3);
 222              		.loc 1 164 24 view .LVU63
 223 0072 D4ED067A 		vldr.32	s15, [r4, #24]
 164:Core/drogui/math/various/src/mahony.c **** 		halfvy = (m->q0) * (m->q1) + (m->q2) * (m->q3);
 224              		.loc 1 164 20 view .LVU64
 225 0076 22EE272A 		vmul.f32	s4, s4, s15
 164:Core/drogui/math/various/src/mahony.c **** 		halfvy = (m->q0) * (m->q1) + (m->q2) * (m->q3);
 226              		.loc 1 164 34 view .LVU65
 227 007a D4ED037A 		vldr.32	s15, [r4, #12]
 164:Core/drogui/math/various/src/mahony.c **** 		halfvy = (m->q0) * (m->q1) + (m->q2) * (m->q3);
 228              		.loc 1 164 44 view .LVU66
 229 007e 94ED057A 		vldr.32	s14, [r4, #20]
 164:Core/drogui/math/various/src/mahony.c **** 		halfvy = (m->q0) * (m->q1) + (m->q2) * (m->q3);
 230              		.loc 1 164 40 view .LVU67
 231 0082 67EE877A 		vmul.f32	s15, s15, s14
 164:Core/drogui/math/various/src/mahony.c **** 		halfvy = (m->q0) * (m->q1) + (m->q2) * (m->q3);
 232              		.loc 1 164 10 view .LVU68
 233 0086 32EE672A 		vsub.f32	s4, s4, s15
 234              	.LVL17:
 165:Core/drogui/math/various/src/mahony.c **** 		halfvz = (m->q0) * (m->q0) - 0.5f + (m->q3) * (m->q3);
 235              		.loc 1 165 3 is_stmt 1 view .LVU69
 165:Core/drogui/math/various/src/mahony.c **** 		halfvz = (m->q0) * (m->q0) - 0.5f + (m->q3) * (m->q3);
 236              		.loc 1 165 14 is_stmt 0 view .LVU70
 237 008a D4ED031A 		vldr.32	s3, [r4, #12]
 165:Core/drogui/math/various/src/mahony.c **** 		halfvz = (m->q0) * (m->q0) - 0.5f + (m->q3) * (m->q3);
 238              		.loc 1 165 24 view .LVU71
 239 008e D4ED047A 		vldr.32	s15, [r4, #16]
 165:Core/drogui/math/various/src/mahony.c **** 		halfvz = (m->q0) * (m->q0) - 0.5f + (m->q3) * (m->q3);
 240              		.loc 1 165 20 view .LVU72
 241 0092 61EEA71A 		vmul.f32	s3, s3, s15
 165:Core/drogui/math/various/src/mahony.c **** 		halfvz = (m->q0) * (m->q0) - 0.5f + (m->q3) * (m->q3);
 242              		.loc 1 165 34 view .LVU73
 243 0096 D4ED057A 		vldr.32	s15, [r4, #20]
 165:Core/drogui/math/various/src/mahony.c **** 		halfvz = (m->q0) * (m->q0) - 0.5f + (m->q3) * (m->q3);
 244              		.loc 1 165 44 view .LVU74
 245 009a 94ED067A 		vldr.32	s14, [r4, #24]
 165:Core/drogui/math/various/src/mahony.c **** 		halfvz = (m->q0) * (m->q0) - 0.5f + (m->q3) * (m->q3);
 246              		.loc 1 165 40 view .LVU75
 247 009e 67EE877A 		vmul.f32	s15, s15, s14
 165:Core/drogui/math/various/src/mahony.c **** 		halfvz = (m->q0) * (m->q0) - 0.5f + (m->q3) * (m->q3);
 248              		.loc 1 165 10 view .LVU76
 249 00a2 71EEA71A 		vadd.f32	s3, s3, s15
 250              	.LVL18:
 166:Core/drogui/math/various/src/mahony.c **** 
 251              		.loc 1 166 3 is_stmt 1 view .LVU77
ARM GAS  C:\Users\GUILLE~1\AppData\Local\Temp\ccOgD2AT.s 			page 10


 166:Core/drogui/math/various/src/mahony.c **** 
 252              		.loc 1 166 14 is_stmt 0 view .LVU78
 253 00a6 D4ED037A 		vldr.32	s15, [r4, #12]
 166:Core/drogui/math/various/src/mahony.c **** 
 254              		.loc 1 166 24 view .LVU79
 255 00aa 94ED037A 		vldr.32	s14, [r4, #12]
 166:Core/drogui/math/various/src/mahony.c **** 
 256              		.loc 1 166 20 view .LVU80
 257 00ae 67EE877A 		vmul.f32	s15, s15, s14
 166:Core/drogui/math/various/src/mahony.c **** 
 258              		.loc 1 166 30 view .LVU81
 259 00b2 B6EE007A 		vmov.f32	s14, #5.0e-1
 260 00b6 77EEC77A 		vsub.f32	s15, s15, s14
 166:Core/drogui/math/various/src/mahony.c **** 
 261              		.loc 1 166 41 view .LVU82
 262 00ba 94ED067A 		vldr.32	s14, [r4, #24]
 166:Core/drogui/math/various/src/mahony.c **** 
 263              		.loc 1 166 51 view .LVU83
 264 00be D4ED066A 		vldr.32	s13, [r4, #24]
 166:Core/drogui/math/various/src/mahony.c **** 
 265              		.loc 1 166 47 view .LVU84
 266 00c2 27EE267A 		vmul.f32	s14, s14, s13
 166:Core/drogui/math/various/src/mahony.c **** 
 267              		.loc 1 166 10 view .LVU85
 268 00c6 77EE877A 		vadd.f32	s15, s15, s14
 269              	.LVL19:
 169:Core/drogui/math/various/src/mahony.c **** 		halfey = (az * halfvx - ax * halfvz);
 270              		.loc 1 169 3 is_stmt 1 view .LVU86
 169:Core/drogui/math/various/src/mahony.c **** 		halfey = (az * halfvx - ax * halfvz);
 271              		.loc 1 169 16 is_stmt 0 view .LVU87
 272 00ca 69EEA76A 		vmul.f32	s13, s19, s15
 169:Core/drogui/math/various/src/mahony.c **** 		halfey = (az * halfvx - ax * halfvz);
 273              		.loc 1 169 30 view .LVU88
 274 00ce 29EE217A 		vmul.f32	s14, s18, s3
 169:Core/drogui/math/various/src/mahony.c **** 		halfey = (az * halfvx - ax * halfvz);
 275              		.loc 1 169 10 view .LVU89
 276 00d2 36EEC77A 		vsub.f32	s14, s13, s14
 277              	.LVL20:
 170:Core/drogui/math/various/src/mahony.c **** 		halfez = (ax * halfvy - ay * halfvx);
 278              		.loc 1 170 3 is_stmt 1 view .LVU90
 170:Core/drogui/math/various/src/mahony.c **** 		halfez = (ax * halfvy - ay * halfvx);
 279              		.loc 1 170 16 is_stmt 0 view .LVU91
 280 00d6 29EE029A 		vmul.f32	s18, s18, s4
 281              	.LVL21:
 170:Core/drogui/math/various/src/mahony.c **** 		halfez = (ax * halfvy - ay * halfvx);
 282              		.loc 1 170 30 view .LVU92
 283 00da 6AEEA77A 		vmul.f32	s15, s21, s15
 284              	.LVL22:
 170:Core/drogui/math/various/src/mahony.c **** 		halfez = (ax * halfvy - ay * halfvx);
 285              		.loc 1 170 10 view .LVU93
 286 00de 39EE679A 		vsub.f32	s18, s18, s15
 287              	.LVL23:
 171:Core/drogui/math/various/src/mahony.c **** 
 288              		.loc 1 171 3 is_stmt 1 view .LVU94
 171:Core/drogui/math/various/src/mahony.c **** 
 289              		.loc 1 171 16 is_stmt 0 view .LVU95
 290 00e2 6AEEA1AA 		vmul.f32	s21, s21, s3
ARM GAS  C:\Users\GUILLE~1\AppData\Local\Temp\ccOgD2AT.s 			page 11


 291              	.LVL24:
 171:Core/drogui/math/various/src/mahony.c **** 
 292              		.loc 1 171 30 view .LVU96
 293 00e6 69EE829A 		vmul.f32	s19, s19, s4
 294              	.LVL25:
 171:Core/drogui/math/various/src/mahony.c **** 
 295              		.loc 1 171 10 view .LVU97
 296 00ea 7AEEE99A 		vsub.f32	s19, s21, s19
 297              	.LVL26:
 174:Core/drogui/math/various/src/mahony.c **** 			(m->integralFBx) += (m->twoKi) * halfex * (1.0f / (m->sampleFreq));	// integral error scaled by 
 298              		.loc 1 174 3 is_stmt 1 view .LVU98
 174:Core/drogui/math/various/src/mahony.c **** 			(m->integralFBx) += (m->twoKi) * halfex * (1.0f / (m->sampleFreq));	// integral error scaled by 
 299              		.loc 1 174 8 is_stmt 0 view .LVU99
 300 00ee D4ED027A 		vldr.32	s15, [r4, #8]
 174:Core/drogui/math/various/src/mahony.c **** 			(m->integralFBx) += (m->twoKi) * halfex * (1.0f / (m->sampleFreq));	// integral error scaled by 
 301              		.loc 1 174 5 view .LVU100
 302 00f2 F5EEC07A 		vcmpe.f32	s15, #0
 303 00f6 F1EE10FA 		vmrs	APSR_nzcv, FPSCR
 304 00fa 40F3DF80 		ble	.L12
 175:Core/drogui/math/various/src/mahony.c **** 			(m->integralFBy) += (m->twoKi) * halfey * (1.0f / (m->sampleFreq));
 305              		.loc 1 175 4 is_stmt 1 view .LVU101
 175:Core/drogui/math/various/src/mahony.c **** 			(m->integralFBy) += (m->twoKi) * halfey * (1.0f / (m->sampleFreq));
 306              		.loc 1 175 26 is_stmt 0 view .LVU102
 307 00fe D4ED026A 		vldr.32	s13, [r4, #8]
 175:Core/drogui/math/various/src/mahony.c **** 			(m->integralFBy) += (m->twoKi) * halfey * (1.0f / (m->sampleFreq));
 308              		.loc 1 175 35 view .LVU103
 309 0102 66EE876A 		vmul.f32	s13, s13, s14
 175:Core/drogui/math/various/src/mahony.c **** 			(m->integralFBy) += (m->twoKi) * halfey * (1.0f / (m->sampleFreq));
 310              		.loc 1 175 56 view .LVU104
 311 0106 94ED006A 		vldr.32	s12, [r4]
 175:Core/drogui/math/various/src/mahony.c **** 			(m->integralFBy) += (m->twoKi) * halfey * (1.0f / (m->sampleFreq));
 312              		.loc 1 175 52 view .LVU105
 313 010a F7EE005A 		vmov.f32	s11, #1.0e+0
 314 010e C5EE867A 		vdiv.f32	s15, s11, s12
 175:Core/drogui/math/various/src/mahony.c **** 			(m->integralFBy) += (m->twoKi) * halfey * (1.0f / (m->sampleFreq));
 315              		.loc 1 175 44 view .LVU106
 316 0112 66EEA76A 		vmul.f32	s13, s13, s15
 175:Core/drogui/math/various/src/mahony.c **** 			(m->integralFBy) += (m->twoKi) * halfey * (1.0f / (m->sampleFreq));
 317              		.loc 1 175 21 view .LVU107
 318 0116 94ED076A 		vldr.32	s12, [r4, #28]
 319 011a 76EE266A 		vadd.f32	s13, s12, s13
 320 011e C4ED076A 		vstr.32	s13, [r4, #28]
 176:Core/drogui/math/various/src/mahony.c **** 			(m->integralFBz) += (m->twoKi) * halfez * (1.0f / (m->sampleFreq));
 321              		.loc 1 176 4 is_stmt 1 view .LVU108
 176:Core/drogui/math/various/src/mahony.c **** 			(m->integralFBz) += (m->twoKi) * halfez * (1.0f / (m->sampleFreq));
 322              		.loc 1 176 26 is_stmt 0 view .LVU109
 323 0122 D4ED026A 		vldr.32	s13, [r4, #8]
 176:Core/drogui/math/various/src/mahony.c **** 			(m->integralFBz) += (m->twoKi) * halfez * (1.0f / (m->sampleFreq));
 324              		.loc 1 176 35 view .LVU110
 325 0126 66EE896A 		vmul.f32	s13, s13, s18
 176:Core/drogui/math/various/src/mahony.c **** 			(m->integralFBz) += (m->twoKi) * halfez * (1.0f / (m->sampleFreq));
 326              		.loc 1 176 44 view .LVU111
 327 012a 67EEA66A 		vmul.f32	s13, s15, s13
 176:Core/drogui/math/various/src/mahony.c **** 			(m->integralFBz) += (m->twoKi) * halfez * (1.0f / (m->sampleFreq));
 328              		.loc 1 176 21 view .LVU112
 329 012e 94ED086A 		vldr.32	s12, [r4, #32]
 330 0132 76EE266A 		vadd.f32	s13, s12, s13
ARM GAS  C:\Users\GUILLE~1\AppData\Local\Temp\ccOgD2AT.s 			page 12


 331 0136 C4ED086A 		vstr.32	s13, [r4, #32]
 177:Core/drogui/math/various/src/mahony.c **** 			gx += (m->integralFBx);	// apply integral feedback
 332              		.loc 1 177 4 is_stmt 1 view .LVU113
 177:Core/drogui/math/various/src/mahony.c **** 			gx += (m->integralFBx);	// apply integral feedback
 333              		.loc 1 177 26 is_stmt 0 view .LVU114
 334 013a D4ED026A 		vldr.32	s13, [r4, #8]
 177:Core/drogui/math/various/src/mahony.c **** 			gx += (m->integralFBx);	// apply integral feedback
 335              		.loc 1 177 35 view .LVU115
 336 013e 66EEA96A 		vmul.f32	s13, s13, s19
 177:Core/drogui/math/various/src/mahony.c **** 			gx += (m->integralFBx);	// apply integral feedback
 337              		.loc 1 177 44 view .LVU116
 338 0142 67EEA67A 		vmul.f32	s15, s15, s13
 177:Core/drogui/math/various/src/mahony.c **** 			gx += (m->integralFBx);	// apply integral feedback
 339              		.loc 1 177 21 view .LVU117
 340 0146 D4ED096A 		vldr.32	s13, [r4, #36]
 341 014a 76EEA77A 		vadd.f32	s15, s13, s15
 342 014e C4ED097A 		vstr.32	s15, [r4, #36]
 178:Core/drogui/math/various/src/mahony.c **** 			gy += (m->integralFBy);
 343              		.loc 1 178 4 is_stmt 1 view .LVU118
 178:Core/drogui/math/various/src/mahony.c **** 			gy += (m->integralFBy);
 344              		.loc 1 178 12 is_stmt 0 view .LVU119
 345 0152 D4ED077A 		vldr.32	s15, [r4, #28]
 178:Core/drogui/math/various/src/mahony.c **** 			gy += (m->integralFBy);
 346              		.loc 1 178 7 view .LVU120
 347 0156 38EE278A 		vadd.f32	s16, s16, s15
 348              	.LVL27:
 179:Core/drogui/math/various/src/mahony.c **** 			gz += (m->integralFBz);
 349              		.loc 1 179 4 is_stmt 1 view .LVU121
 179:Core/drogui/math/various/src/mahony.c **** 			gz += (m->integralFBz);
 350              		.loc 1 179 12 is_stmt 0 view .LVU122
 351 015a D4ED087A 		vldr.32	s15, [r4, #32]
 179:Core/drogui/math/various/src/mahony.c **** 			gz += (m->integralFBz);
 352              		.loc 1 179 7 view .LVU123
 353 015e 78EEA78A 		vadd.f32	s17, s17, s15
 354              	.LVL28:
 180:Core/drogui/math/various/src/mahony.c **** 		}
 355              		.loc 1 180 4 is_stmt 1 view .LVU124
 180:Core/drogui/math/various/src/mahony.c **** 		}
 356              		.loc 1 180 12 is_stmt 0 view .LVU125
 357 0162 D4ED097A 		vldr.32	s15, [r4, #36]
 180:Core/drogui/math/various/src/mahony.c **** 		}
 358              		.loc 1 180 7 view .LVU126
 359 0166 3AEE27AA 		vadd.f32	s20, s20, s15
 360              	.LVL29:
 361              	.L10:
 189:Core/drogui/math/various/src/mahony.c **** 		gy += (m->twoKp) * halfey;
 362              		.loc 1 189 3 is_stmt 1 view .LVU127
 189:Core/drogui/math/various/src/mahony.c **** 		gy += (m->twoKp) * halfey;
 363              		.loc 1 189 11 is_stmt 0 view .LVU128
 364 016a D4ED017A 		vldr.32	s15, [r4, #4]
 189:Core/drogui/math/various/src/mahony.c **** 		gy += (m->twoKp) * halfey;
 365              		.loc 1 189 20 view .LVU129
 366 016e 27EE877A 		vmul.f32	s14, s15, s14
 367              	.LVL30:
 189:Core/drogui/math/various/src/mahony.c **** 		gy += (m->twoKp) * halfey;
 368              		.loc 1 189 6 view .LVU130
 369 0172 38EE078A 		vadd.f32	s16, s16, s14
ARM GAS  C:\Users\GUILLE~1\AppData\Local\Temp\ccOgD2AT.s 			page 13


 370              	.LVL31:
 190:Core/drogui/math/various/src/mahony.c **** 		gz += (m->twoKp) * halfez;
 371              		.loc 1 190 3 is_stmt 1 view .LVU131
 190:Core/drogui/math/various/src/mahony.c **** 		gz += (m->twoKp) * halfez;
 372              		.loc 1 190 11 is_stmt 0 view .LVU132
 373 0176 D4ED017A 		vldr.32	s15, [r4, #4]
 190:Core/drogui/math/various/src/mahony.c **** 		gz += (m->twoKp) * halfez;
 374              		.loc 1 190 20 view .LVU133
 375 017a 27EE899A 		vmul.f32	s18, s15, s18
 376              	.LVL32:
 190:Core/drogui/math/various/src/mahony.c **** 		gz += (m->twoKp) * halfez;
 377              		.loc 1 190 6 view .LVU134
 378 017e 78EE898A 		vadd.f32	s17, s17, s18
 379              	.LVL33:
 191:Core/drogui/math/various/src/mahony.c **** 	}
 380              		.loc 1 191 3 is_stmt 1 view .LVU135
 191:Core/drogui/math/various/src/mahony.c **** 	}
 381              		.loc 1 191 11 is_stmt 0 view .LVU136
 382 0182 D4ED01AA 		vldr.32	s21, [r4, #4]
 191:Core/drogui/math/various/src/mahony.c **** 	}
 383              		.loc 1 191 20 view .LVU137
 384 0186 6AEEA99A 		vmul.f32	s19, s21, s19
 385              	.LVL34:
 191:Core/drogui/math/various/src/mahony.c **** 	}
 386              		.loc 1 191 6 view .LVU138
 387 018a 3AEE29AA 		vadd.f32	s20, s20, s19
 388              	.LVL35:
 389              	.L7:
 195:Core/drogui/math/various/src/mahony.c **** 	gy *= (0.5f * (1.0f / (m->sampleFreq)));
 390              		.loc 1 195 2 is_stmt 1 view .LVU139
 195:Core/drogui/math/various/src/mahony.c **** 	gy *= (0.5f * (1.0f / (m->sampleFreq)));
 391              		.loc 1 195 26 is_stmt 0 view .LVU140
 392 018e 94ED007A 		vldr.32	s14, [r4]
 195:Core/drogui/math/various/src/mahony.c **** 	gy *= (0.5f * (1.0f / (m->sampleFreq)));
 393              		.loc 1 195 22 view .LVU141
 394 0192 F7EE006A 		vmov.f32	s13, #1.0e+0
 395 0196 C6EE877A 		vdiv.f32	s15, s13, s14
 195:Core/drogui/math/various/src/mahony.c **** 	gy *= (0.5f * (1.0f / (m->sampleFreq)));
 396              		.loc 1 195 14 view .LVU142
 397 019a B6EE001A 		vmov.f32	s2, #5.0e-1
 398 019e 67EE817A 		vmul.f32	s15, s15, s2
 195:Core/drogui/math/various/src/mahony.c **** 	gy *= (0.5f * (1.0f / (m->sampleFreq)));
 399              		.loc 1 195 5 view .LVU143
 400 01a2 27EE888A 		vmul.f32	s16, s15, s16
 401              	.LVL36:
 196:Core/drogui/math/various/src/mahony.c **** 	gz *= (0.5f * (1.0f / (m->sampleFreq)));
 402              		.loc 1 196 2 is_stmt 1 view .LVU144
 196:Core/drogui/math/various/src/mahony.c **** 	gz *= (0.5f * (1.0f / (m->sampleFreq)));
 403              		.loc 1 196 5 is_stmt 0 view .LVU145
 404 01a6 67EEA88A 		vmul.f32	s17, s15, s17
 405              	.LVL37:
 197:Core/drogui/math/various/src/mahony.c **** 	qa = (m->q0);
 406              		.loc 1 197 2 is_stmt 1 view .LVU146
 197:Core/drogui/math/various/src/mahony.c **** 	qa = (m->q0);
 407              		.loc 1 197 5 is_stmt 0 view .LVU147
 408 01aa 27EE8A1A 		vmul.f32	s2, s15, s20
 409              	.LVL38:
ARM GAS  C:\Users\GUILLE~1\AppData\Local\Temp\ccOgD2AT.s 			page 14


 198:Core/drogui/math/various/src/mahony.c **** 	qb = (m->q1);
 410              		.loc 1 198 2 is_stmt 1 view .LVU148
 198:Core/drogui/math/various/src/mahony.c **** 	qb = (m->q1);
 411              		.loc 1 198 5 is_stmt 0 view .LVU149
 412 01ae D4ED036A 		vldr.32	s13, [r4, #12]
 413              	.LVL39:
 199:Core/drogui/math/various/src/mahony.c **** 	qc = (m->q2);
 414              		.loc 1 199 2 is_stmt 1 view .LVU150
 199:Core/drogui/math/various/src/mahony.c **** 	qc = (m->q2);
 415              		.loc 1 199 5 is_stmt 0 view .LVU151
 416 01b2 94ED047A 		vldr.32	s14, [r4, #16]
 417              	.LVL40:
 200:Core/drogui/math/various/src/mahony.c **** 	(m->q0) += (-qb * gx - qc * gy - (m->q3) * gz);
 418              		.loc 1 200 2 is_stmt 1 view .LVU152
 200:Core/drogui/math/various/src/mahony.c **** 	(m->q0) += (-qb * gx - qc * gy - (m->q3) * gz);
 419              		.loc 1 200 5 is_stmt 0 view .LVU153
 420 01b6 94ED050A 		vldr.32	s0, [r4, #20]
 421              	.LVL41:
 201:Core/drogui/math/various/src/mahony.c **** 	(m->q1) += (qa * gx + qc * gz - (m->q3) * gy);
 422              		.loc 1 201 2 is_stmt 1 view .LVU154
 201:Core/drogui/math/various/src/mahony.c **** 	(m->q1) += (qa * gx + qc * gz - (m->q3) * gy);
 423              		.loc 1 201 18 is_stmt 0 view .LVU155
 424 01ba 67EE487A 		vnmul.f32	s15, s14, s16
 201:Core/drogui/math/various/src/mahony.c **** 	(m->q1) += (qa * gx + qc * gz - (m->q3) * gy);
 425              		.loc 1 201 28 view .LVU156
 426 01be 28EE806A 		vmul.f32	s12, s17, s0
 201:Core/drogui/math/various/src/mahony.c **** 	(m->q1) += (qa * gx + qc * gz - (m->q3) * gy);
 427              		.loc 1 201 23 view .LVU157
 428 01c2 77EEC67A 		vsub.f32	s15, s15, s12
 201:Core/drogui/math/various/src/mahony.c **** 	(m->q1) += (qa * gx + qc * gz - (m->q3) * gy);
 429              		.loc 1 201 37 view .LVU158
 430 01c6 94ED066A 		vldr.32	s12, [r4, #24]
 201:Core/drogui/math/various/src/mahony.c **** 	(m->q1) += (qa * gx + qc * gz - (m->q3) * gy);
 431              		.loc 1 201 43 view .LVU159
 432 01ca 26EE016A 		vmul.f32	s12, s12, s2
 201:Core/drogui/math/various/src/mahony.c **** 	(m->q1) += (qa * gx + qc * gz - (m->q3) * gy);
 433              		.loc 1 201 33 view .LVU160
 434 01ce 77EEC67A 		vsub.f32	s15, s15, s12
 201:Core/drogui/math/various/src/mahony.c **** 	(m->q1) += (qa * gx + qc * gz - (m->q3) * gy);
 435              		.loc 1 201 10 view .LVU161
 436 01d2 94ED036A 		vldr.32	s12, [r4, #12]
 437 01d6 76EE277A 		vadd.f32	s15, s12, s15
 438 01da C4ED037A 		vstr.32	s15, [r4, #12]
 202:Core/drogui/math/various/src/mahony.c **** 	(m->q2) += (qa * gy - qb * gz + (m->q3) * gx);
 439              		.loc 1 202 2 is_stmt 1 view .LVU162
 202:Core/drogui/math/various/src/mahony.c **** 	(m->q2) += (qa * gy - qb * gz + (m->q3) * gx);
 440              		.loc 1 202 17 is_stmt 0 view .LVU163
 441 01de 68EE267A 		vmul.f32	s15, s16, s13
 202:Core/drogui/math/various/src/mahony.c **** 	(m->q2) += (qa * gy - qb * gz + (m->q3) * gx);
 442              		.loc 1 202 27 view .LVU164
 443 01e2 21EE006A 		vmul.f32	s12, s2, s0
 202:Core/drogui/math/various/src/mahony.c **** 	(m->q2) += (qa * gy - qb * gz + (m->q3) * gx);
 444              		.loc 1 202 22 view .LVU165
 445 01e6 77EE867A 		vadd.f32	s15, s15, s12
 202:Core/drogui/math/various/src/mahony.c **** 	(m->q2) += (qa * gy - qb * gz + (m->q3) * gx);
 446              		.loc 1 202 36 view .LVU166
 447 01ea 94ED066A 		vldr.32	s12, [r4, #24]
ARM GAS  C:\Users\GUILLE~1\AppData\Local\Temp\ccOgD2AT.s 			page 15


 202:Core/drogui/math/various/src/mahony.c **** 	(m->q2) += (qa * gy - qb * gz + (m->q3) * gx);
 448              		.loc 1 202 42 view .LVU167
 449 01ee 26EE286A 		vmul.f32	s12, s12, s17
 202:Core/drogui/math/various/src/mahony.c **** 	(m->q2) += (qa * gy - qb * gz + (m->q3) * gx);
 450              		.loc 1 202 32 view .LVU168
 451 01f2 77EEC67A 		vsub.f32	s15, s15, s12
 202:Core/drogui/math/various/src/mahony.c **** 	(m->q2) += (qa * gy - qb * gz + (m->q3) * gx);
 452              		.loc 1 202 10 view .LVU169
 453 01f6 94ED046A 		vldr.32	s12, [r4, #16]
 454 01fa 76EE277A 		vadd.f32	s15, s12, s15
 455 01fe C4ED047A 		vstr.32	s15, [r4, #16]
 203:Core/drogui/math/various/src/mahony.c **** 	(m->q3) += (qa * gz + qb * gy - qc * gx);
 456              		.loc 1 203 2 is_stmt 1 view .LVU170
 203:Core/drogui/math/various/src/mahony.c **** 	(m->q3) += (qa * gz + qb * gy - qc * gx);
 457              		.loc 1 203 17 is_stmt 0 view .LVU171
 458 0202 68EEA67A 		vmul.f32	s15, s17, s13
 203:Core/drogui/math/various/src/mahony.c **** 	(m->q3) += (qa * gz + qb * gy - qc * gx);
 459              		.loc 1 203 27 view .LVU172
 460 0206 21EE076A 		vmul.f32	s12, s2, s14
 203:Core/drogui/math/various/src/mahony.c **** 	(m->q3) += (qa * gz + qb * gy - qc * gx);
 461              		.loc 1 203 22 view .LVU173
 462 020a 77EEC67A 		vsub.f32	s15, s15, s12
 203:Core/drogui/math/various/src/mahony.c **** 	(m->q3) += (qa * gz + qb * gy - qc * gx);
 463              		.loc 1 203 36 view .LVU174
 464 020e 94ED066A 		vldr.32	s12, [r4, #24]
 203:Core/drogui/math/various/src/mahony.c **** 	(m->q3) += (qa * gz + qb * gy - qc * gx);
 465              		.loc 1 203 42 view .LVU175
 466 0212 26EE086A 		vmul.f32	s12, s12, s16
 203:Core/drogui/math/various/src/mahony.c **** 	(m->q3) += (qa * gz + qb * gy - qc * gx);
 467              		.loc 1 203 32 view .LVU176
 468 0216 77EE867A 		vadd.f32	s15, s15, s12
 203:Core/drogui/math/various/src/mahony.c **** 	(m->q3) += (qa * gz + qb * gy - qc * gx);
 469              		.loc 1 203 10 view .LVU177
 470 021a 94ED056A 		vldr.32	s12, [r4, #20]
 471 021e 76EE277A 		vadd.f32	s15, s12, s15
 472 0222 C4ED057A 		vstr.32	s15, [r4, #20]
 204:Core/drogui/math/various/src/mahony.c **** 
 473              		.loc 1 204 2 is_stmt 1 view .LVU178
 204:Core/drogui/math/various/src/mahony.c **** 
 474              		.loc 1 204 10 is_stmt 0 view .LVU179
 475 0226 D4ED067A 		vldr.32	s15, [r4, #24]
 204:Core/drogui/math/various/src/mahony.c **** 
 476              		.loc 1 204 17 view .LVU180
 477 022a 21EE261A 		vmul.f32	s2, s2, s13
 478              	.LVL42:
 204:Core/drogui/math/various/src/mahony.c **** 
 479              		.loc 1 204 27 view .LVU181
 480 022e 68EE878A 		vmul.f32	s17, s17, s14
 481              	.LVL43:
 204:Core/drogui/math/various/src/mahony.c **** 
 482              		.loc 1 204 22 view .LVU182
 483 0232 31EE281A 		vadd.f32	s2, s2, s17
 204:Core/drogui/math/various/src/mahony.c **** 
 484              		.loc 1 204 37 view .LVU183
 485 0236 28EE008A 		vmul.f32	s16, s16, s0
 486              	.LVL44:
 204:Core/drogui/math/various/src/mahony.c **** 
ARM GAS  C:\Users\GUILLE~1\AppData\Local\Temp\ccOgD2AT.s 			page 16


 487              		.loc 1 204 32 view .LVU184
 488 023a 31EE481A 		vsub.f32	s2, s2, s16
 204:Core/drogui/math/various/src/mahony.c **** 
 489              		.loc 1 204 10 view .LVU185
 490 023e 37EE811A 		vadd.f32	s2, s15, s2
 491 0242 84ED061A 		vstr.32	s2, [r4, #24]
 207:Core/drogui/math/various/src/mahony.c **** 	(m->q0) *= recipNorm;
 492              		.loc 1 207 2 is_stmt 1 view .LVU186
 207:Core/drogui/math/various/src/mahony.c **** 	(m->q0) *= recipNorm;
 493              		.loc 1 207 24 is_stmt 0 view .LVU187
 494 0246 D4ED037A 		vldr.32	s15, [r4, #12]
 207:Core/drogui/math/various/src/mahony.c **** 	(m->q0) *= recipNorm;
 495              		.loc 1 207 34 view .LVU188
 496 024a 94ED030A 		vldr.32	s0, [r4, #12]
 497              	.LVL45:
 207:Core/drogui/math/various/src/mahony.c **** 	(m->q0) *= recipNorm;
 498              		.loc 1 207 30 view .LVU189
 499 024e 67EE807A 		vmul.f32	s15, s15, s0
 207:Core/drogui/math/various/src/mahony.c **** 	(m->q0) *= recipNorm;
 500              		.loc 1 207 44 view .LVU190
 501 0252 94ED040A 		vldr.32	s0, [r4, #16]
 207:Core/drogui/math/various/src/mahony.c **** 	(m->q0) *= recipNorm;
 502              		.loc 1 207 54 view .LVU191
 503 0256 94ED047A 		vldr.32	s14, [r4, #16]
 504              	.LVL46:
 207:Core/drogui/math/various/src/mahony.c **** 	(m->q0) *= recipNorm;
 505              		.loc 1 207 50 view .LVU192
 506 025a 20EE070A 		vmul.f32	s0, s0, s14
 207:Core/drogui/math/various/src/mahony.c **** 	(m->q0) *= recipNorm;
 507              		.loc 1 207 40 view .LVU193
 508 025e 77EE807A 		vadd.f32	s15, s15, s0
 207:Core/drogui/math/various/src/mahony.c **** 	(m->q0) *= recipNorm;
 509              		.loc 1 207 64 view .LVU194
 510 0262 94ED050A 		vldr.32	s0, [r4, #20]
 207:Core/drogui/math/various/src/mahony.c **** 	(m->q0) *= recipNorm;
 511              		.loc 1 207 74 view .LVU195
 512 0266 94ED057A 		vldr.32	s14, [r4, #20]
 207:Core/drogui/math/various/src/mahony.c **** 	(m->q0) *= recipNorm;
 513              		.loc 1 207 70 view .LVU196
 514 026a 20EE070A 		vmul.f32	s0, s0, s14
 207:Core/drogui/math/various/src/mahony.c **** 	(m->q0) *= recipNorm;
 515              		.loc 1 207 60 view .LVU197
 516 026e 77EE807A 		vadd.f32	s15, s15, s0
 207:Core/drogui/math/various/src/mahony.c **** 	(m->q0) *= recipNorm;
 517              		.loc 1 207 84 view .LVU198
 518 0272 94ED060A 		vldr.32	s0, [r4, #24]
 207:Core/drogui/math/various/src/mahony.c **** 	(m->q0) *= recipNorm;
 519              		.loc 1 207 94 view .LVU199
 520 0276 94ED067A 		vldr.32	s14, [r4, #24]
 207:Core/drogui/math/various/src/mahony.c **** 	(m->q0) *= recipNorm;
 521              		.loc 1 207 90 view .LVU200
 522 027a 20EE070A 		vmul.f32	s0, s0, s14
 207:Core/drogui/math/various/src/mahony.c **** 	(m->q0) *= recipNorm;
 523              		.loc 1 207 14 view .LVU201
 524 027e 37EE800A 		vadd.f32	s0, s15, s0
 525 0282 FFF7FEFF 		bl	invSqrt
 526              	.LVL47:
ARM GAS  C:\Users\GUILLE~1\AppData\Local\Temp\ccOgD2AT.s 			page 17


 208:Core/drogui/math/various/src/mahony.c **** 	(m->q1) *= recipNorm;
 527              		.loc 1 208 2 is_stmt 1 view .LVU202
 208:Core/drogui/math/various/src/mahony.c **** 	(m->q1) *= recipNorm;
 528              		.loc 1 208 10 is_stmt 0 view .LVU203
 529 0286 D4ED037A 		vldr.32	s15, [r4, #12]
 530 028a 67EE807A 		vmul.f32	s15, s15, s0
 531 028e C4ED037A 		vstr.32	s15, [r4, #12]
 209:Core/drogui/math/various/src/mahony.c **** 	(m->q2) *= recipNorm;
 532              		.loc 1 209 2 is_stmt 1 view .LVU204
 209:Core/drogui/math/various/src/mahony.c **** 	(m->q2) *= recipNorm;
 533              		.loc 1 209 10 is_stmt 0 view .LVU205
 534 0292 D4ED047A 		vldr.32	s15, [r4, #16]
 535 0296 67EE807A 		vmul.f32	s15, s15, s0
 536 029a C4ED047A 		vstr.32	s15, [r4, #16]
 210:Core/drogui/math/various/src/mahony.c **** 	(m->q3) *= recipNorm;
 537              		.loc 1 210 2 is_stmt 1 view .LVU206
 210:Core/drogui/math/various/src/mahony.c **** 	(m->q3) *= recipNorm;
 538              		.loc 1 210 10 is_stmt 0 view .LVU207
 539 029e D4ED057A 		vldr.32	s15, [r4, #20]
 540 02a2 67EE807A 		vmul.f32	s15, s15, s0
 541 02a6 C4ED057A 		vstr.32	s15, [r4, #20]
 211:Core/drogui/math/various/src/mahony.c **** }
 542              		.loc 1 211 2 is_stmt 1 view .LVU208
 211:Core/drogui/math/various/src/mahony.c **** }
 543              		.loc 1 211 10 is_stmt 0 view .LVU209
 544 02aa D4ED067A 		vldr.32	s15, [r4, #24]
 545 02ae 27EE800A 		vmul.f32	s0, s15, s0
 546              	.LVL48:
 211:Core/drogui/math/various/src/mahony.c **** }
 547              		.loc 1 211 10 view .LVU210
 548 02b2 84ED060A 		vstr.32	s0, [r4, #24]
 212:Core/drogui/math/various/src/mahony.c **** 
 549              		.loc 1 212 1 view .LVU211
 550 02b6 BDEC068B 		vldm	sp!, {d8-d10}
 551              	.LCFI2:
 552              		.cfi_remember_state
 553              		.cfi_restore 84
 554              		.cfi_restore 85
 555              		.cfi_restore 82
 556              		.cfi_restore 83
 557              		.cfi_restore 80
 558              		.cfi_restore 81
 559              		.cfi_def_cfa_offset 8
 560 02ba 10BD     		pop	{r4, pc}
 561              	.LVL49:
 562              	.L12:
 563              	.LCFI3:
 564              		.cfi_restore_state
 183:Core/drogui/math/various/src/mahony.c **** 			(m->integralFBy) = 0.0f;
 565              		.loc 1 183 4 is_stmt 1 view .LVU212
 183:Core/drogui/math/various/src/mahony.c **** 			(m->integralFBy) = 0.0f;
 566              		.loc 1 183 21 is_stmt 0 view .LVU213
 567 02bc 0023     		movs	r3, #0
 568 02be E361     		str	r3, [r4, #28]	@ float
 184:Core/drogui/math/various/src/mahony.c **** 			(m->integralFBz) = 0.0f;
 569              		.loc 1 184 4 is_stmt 1 view .LVU214
 184:Core/drogui/math/various/src/mahony.c **** 			(m->integralFBz) = 0.0f;
ARM GAS  C:\Users\GUILLE~1\AppData\Local\Temp\ccOgD2AT.s 			page 18


 570              		.loc 1 184 21 is_stmt 0 view .LVU215
 571 02c0 2362     		str	r3, [r4, #32]	@ float
 185:Core/drogui/math/various/src/mahony.c **** 		}
 572              		.loc 1 185 4 is_stmt 1 view .LVU216
 185:Core/drogui/math/various/src/mahony.c **** 		}
 573              		.loc 1 185 21 is_stmt 0 view .LVU217
 574 02c2 6362     		str	r3, [r4, #36]	@ float
 575 02c4 51E7     		b	.L10
 576              		.cfi_endproc
 577              	.LFE248:
 579              		.global	__aeabi_f2d
 580              		.global	__aeabi_d2f
 581              		.section	.text.mahonyUpdate,"ax",%progbits
 582              		.align	1
 583              		.global	mahonyUpdate
 584              		.syntax unified
 585              		.thumb
 586              		.thumb_func
 587              		.fpu fpv5-sp-d16
 589              	mahonyUpdate:
 590              	.LVL50:
 591              	.LFB247:
  44:Core/drogui/math/various/src/mahony.c **** 	float recipNorm;
 592              		.loc 1 44 120 is_stmt 1 view -0
 593              		.cfi_startproc
 594              		@ args = 0, pretend = 0, frame = 24
 595              		@ frame_needed = 0, uses_anonymous_args = 0
  44:Core/drogui/math/various/src/mahony.c **** 	float recipNorm;
 596              		.loc 1 44 120 is_stmt 0 view .LVU219
 597 0000 10B5     		push	{r4, lr}
 598              	.LCFI4:
 599              		.cfi_def_cfa_offset 8
 600              		.cfi_offset 4, -8
 601              		.cfi_offset 14, -4
 602 0002 2DED108B 		vpush.64	{d8, d9, d10, d11, d12, d13, d14, d15}
 603              	.LCFI5:
 604              		.cfi_def_cfa_offset 72
 605              		.cfi_offset 80, -72
 606              		.cfi_offset 81, -68
 607              		.cfi_offset 82, -64
 608              		.cfi_offset 83, -60
 609              		.cfi_offset 84, -56
 610              		.cfi_offset 85, -52
 611              		.cfi_offset 86, -48
 612              		.cfi_offset 87, -44
 613              		.cfi_offset 88, -40
 614              		.cfi_offset 89, -36
 615              		.cfi_offset 90, -32
 616              		.cfi_offset 91, -28
 617              		.cfi_offset 92, -24
 618              		.cfi_offset 93, -20
 619              		.cfi_offset 94, -16
 620              		.cfi_offset 95, -12
 621 0006 86B0     		sub	sp, sp, #24
 622              	.LCFI6:
 623              		.cfi_def_cfa_offset 96
 624 0008 0446     		mov	r4, r0
ARM GAS  C:\Users\GUILLE~1\AppData\Local\Temp\ccOgD2AT.s 			page 19


 625 000a B0EE409A 		vmov.f32	s18, s0
 626 000e F0EE609A 		vmov.f32	s19, s1
 627 0012 B0EE41CA 		vmov.f32	s24, s2
 628 0016 B0EE61BA 		vmov.f32	s22, s3
 629 001a F0EE42AA 		vmov.f32	s21, s4
 630 001e F0EE62BA 		vmov.f32	s23, s5
 631 0022 F0EE438A 		vmov.f32	s17, s6
 632 0026 B0EE63AA 		vmov.f32	s20, s7
 633 002a B0EE448A 		vmov.f32	s16, s8
  45:Core/drogui/math/various/src/mahony.c **** 	float q0q0, q0q1, q0q2, q0q3, q1q1, q1q2, q1q3, q2q2, q2q3, q3q3;
 634              		.loc 1 45 2 is_stmt 1 view .LVU220
  46:Core/drogui/math/various/src/mahony.c **** 	float hx, hy, bx, bz;
 635              		.loc 1 46 2 view .LVU221
  47:Core/drogui/math/various/src/mahony.c **** 	float halfvx, halfvy, halfvz, halfwx, halfwy, halfwz;
 636              		.loc 1 47 2 view .LVU222
  48:Core/drogui/math/various/src/mahony.c **** 	float halfex, halfey, halfez;
 637              		.loc 1 48 2 view .LVU223
  49:Core/drogui/math/various/src/mahony.c **** 	float qa, qb, qc;
 638              		.loc 1 49 2 view .LVU224
  50:Core/drogui/math/various/src/mahony.c **** 
 639              		.loc 1 50 2 view .LVU225
  53:Core/drogui/math/various/src/mahony.c **** 		mahonyUpdateIMU(m, gx, gy, gz, ax, ay, az);
 640              		.loc 1 53 2 view .LVU226
  53:Core/drogui/math/various/src/mahony.c **** 		mahonyUpdateIMU(m, gx, gy, gz, ax, ay, az);
 641              		.loc 1 53 11 is_stmt 0 view .LVU227
 642 002e B5EE403A 		vcmp.f32	s6, #0
 643 0032 F1EE10FA 		vmrs	APSR_nzcv, FPSCR
 644 0036 0CBF     		ite	eq
 645 0038 0123     		moveq	r3, #1
 646 003a 0023     		movne	r3, #0
  53:Core/drogui/math/various/src/mahony.c **** 		mahonyUpdateIMU(m, gx, gy, gz, ax, ay, az);
 647              		.loc 1 53 27 view .LVU228
 648 003c F5EE403A 		vcmp.f32	s7, #0
 649 0040 F1EE10FA 		vmrs	APSR_nzcv, FPSCR
  53:Core/drogui/math/various/src/mahony.c **** 		mahonyUpdateIMU(m, gx, gy, gz, ax, ay, az);
 650              		.loc 1 53 20 view .LVU229
 651 0044 03F00103 		and	r3, r3, #1
 652 0048 18BF     		it	ne
 653 004a 0023     		movne	r3, #0
  53:Core/drogui/math/various/src/mahony.c **** 		mahonyUpdateIMU(m, gx, gy, gz, ax, ay, az);
 654              		.loc 1 53 4 view .LVU230
 655 004c 2BB1     		cbz	r3, .L15
  53:Core/drogui/math/various/src/mahony.c **** 		mahonyUpdateIMU(m, gx, gy, gz, ax, ay, az);
 656              		.loc 1 53 36 discriminator 1 view .LVU231
 657 004e B5EE404A 		vcmp.f32	s8, #0
 658 0052 F1EE10FA 		vmrs	APSR_nzcv, FPSCR
 659 0056 00F00D82 		beq	.L16
 660              	.L15:
  53:Core/drogui/math/various/src/mahony.c **** 		mahonyUpdateIMU(m, gx, gy, gz, ax, ay, az);
 661              		.loc 1 53 67 discriminator 3 view .LVU232
 662 005a F4EE4A8A 		vcmp.f32	s17, s20
 663 005e F1EE10FA 		vmrs	APSR_nzcv, FPSCR
 664 0062 80F10782 		bvs	.L16
  53:Core/drogui/math/various/src/mahony.c **** 		mahonyUpdateIMU(m, gx, gy, gz, ax, ay, az);
 665              		.loc 1 53 80 discriminator 4 view .LVU233
 666 0066 B4EE488A 		vcmp.f32	s16, s16
 667 006a F1EE10FA 		vmrs	APSR_nzcv, FPSCR
ARM GAS  C:\Users\GUILLE~1\AppData\Local\Temp\ccOgD2AT.s 			page 20


 668 006e 80F10182 		bvs	.L16
  59:Core/drogui/math/various/src/mahony.c **** 
 669              		.loc 1 59 2 is_stmt 1 view .LVU234
  59:Core/drogui/math/various/src/mahony.c **** 
 670              		.loc 1 59 11 is_stmt 0 view .LVU235
 671 0072 B5EE40BA 		vcmp.f32	s22, #0
 672 0076 F1EE10FA 		vmrs	APSR_nzcv, FPSCR
 673 007a 14BF     		ite	ne
 674 007c 0123     		movne	r3, #1
 675 007e 0023     		moveq	r3, #0
  59:Core/drogui/math/various/src/mahony.c **** 
 676              		.loc 1 59 27 view .LVU236
 677 0080 F5EE40AA 		vcmp.f32	s21, #0
 678 0084 F1EE10FA 		vmrs	APSR_nzcv, FPSCR
  59:Core/drogui/math/various/src/mahony.c **** 
 679              		.loc 1 59 20 view .LVU237
 680 0088 18BF     		it	ne
 681 008a 43F00103 		orrne	r3, r3, #1
  59:Core/drogui/math/various/src/mahony.c **** 
 682              		.loc 1 59 4 view .LVU238
 683 008e 2BB9     		cbnz	r3, .L19
  59:Core/drogui/math/various/src/mahony.c **** 
 684              		.loc 1 59 5 discriminator 1 view .LVU239
 685 0090 F5EE40BA 		vcmp.f32	s23, #0
 686 0094 F1EE10FA 		vmrs	APSR_nzcv, FPSCR
 687 0098 00F05481 		beq	.L20
 688              	.L19:
  62:Core/drogui/math/various/src/mahony.c **** 		ax *= recipNorm;
 689              		.loc 1 62 3 is_stmt 1 view .LVU240
  62:Core/drogui/math/various/src/mahony.c **** 		ax *= recipNorm;
 690              		.loc 1 62 26 is_stmt 0 view .LVU241
 691 009c 6BEE0B7A 		vmul.f32	s15, s22, s22
  62:Core/drogui/math/various/src/mahony.c **** 		ax *= recipNorm;
 692              		.loc 1 62 36 view .LVU242
 693 00a0 2AEEAA0A 		vmul.f32	s0, s21, s21
 694              	.LVL51:
  62:Core/drogui/math/various/src/mahony.c **** 		ax *= recipNorm;
 695              		.loc 1 62 31 view .LVU243
 696 00a4 77EE807A 		vadd.f32	s15, s15, s0
  62:Core/drogui/math/various/src/mahony.c **** 		ax *= recipNorm;
 697              		.loc 1 62 46 view .LVU244
 698 00a8 2BEEAB0A 		vmul.f32	s0, s23, s23
  62:Core/drogui/math/various/src/mahony.c **** 		ax *= recipNorm;
 699              		.loc 1 62 15 view .LVU245
 700 00ac 37EE800A 		vadd.f32	s0, s15, s0
 701 00b0 FFF7FEFF 		bl	invSqrt
 702              	.LVL52:
  63:Core/drogui/math/various/src/mahony.c **** 		ay *= recipNorm;
 703              		.loc 1 63 3 is_stmt 1 view .LVU246
  63:Core/drogui/math/various/src/mahony.c **** 		ay *= recipNorm;
 704              		.loc 1 63 6 is_stmt 0 view .LVU247
 705 00b4 6BEE006A 		vmul.f32	s13, s22, s0
 706 00b8 CDED026A 		vstr.32	s13, [sp, #8]
 707              	.LVL53:
  64:Core/drogui/math/various/src/mahony.c **** 		az *= recipNorm;
 708              		.loc 1 64 3 is_stmt 1 view .LVU248
  64:Core/drogui/math/various/src/mahony.c **** 		az *= recipNorm;
ARM GAS  C:\Users\GUILLE~1\AppData\Local\Temp\ccOgD2AT.s 			page 21


 709              		.loc 1 64 6 is_stmt 0 view .LVU249
 710 00bc 6AEE805A 		vmul.f32	s11, s21, s0
 711 00c0 CDED035A 		vstr.32	s11, [sp, #12]
 712              	.LVL54:
  65:Core/drogui/math/various/src/mahony.c **** 
 713              		.loc 1 65 3 is_stmt 1 view .LVU250
  65:Core/drogui/math/various/src/mahony.c **** 
 714              		.loc 1 65 6 is_stmt 0 view .LVU251
 715 00c4 2BEE805A 		vmul.f32	s10, s23, s0
 716 00c8 8DED045A 		vstr.32	s10, [sp, #16]
 717              	.LVL55:
  68:Core/drogui/math/various/src/mahony.c **** 		mx *= recipNorm;
 718              		.loc 1 68 3 is_stmt 1 view .LVU252
  68:Core/drogui/math/various/src/mahony.c **** 		mx *= recipNorm;
 719              		.loc 1 68 26 is_stmt 0 view .LVU253
 720 00cc 68EEA87A 		vmul.f32	s15, s17, s17
  68:Core/drogui/math/various/src/mahony.c **** 		mx *= recipNorm;
 721              		.loc 1 68 36 view .LVU254
 722 00d0 2AEE0A0A 		vmul.f32	s0, s20, s20
 723              	.LVL56:
  68:Core/drogui/math/various/src/mahony.c **** 		mx *= recipNorm;
 724              		.loc 1 68 31 view .LVU255
 725 00d4 77EE807A 		vadd.f32	s15, s15, s0
  68:Core/drogui/math/various/src/mahony.c **** 		mx *= recipNorm;
 726              		.loc 1 68 46 view .LVU256
 727 00d8 28EE080A 		vmul.f32	s0, s16, s16
  68:Core/drogui/math/various/src/mahony.c **** 		mx *= recipNorm;
 728              		.loc 1 68 15 view .LVU257
 729 00dc 37EE800A 		vadd.f32	s0, s15, s0
 730 00e0 FFF7FEFF 		bl	invSqrt
 731              	.LVL57:
  69:Core/drogui/math/various/src/mahony.c **** 		my *= recipNorm;
 732              		.loc 1 69 3 is_stmt 1 view .LVU258
  69:Core/drogui/math/various/src/mahony.c **** 		my *= recipNorm;
 733              		.loc 1 69 6 is_stmt 0 view .LVU259
 734 00e4 68EE808A 		vmul.f32	s17, s17, s0
 735              	.LVL58:
  70:Core/drogui/math/various/src/mahony.c **** 		mz *= recipNorm;
 736              		.loc 1 70 3 is_stmt 1 view .LVU260
  70:Core/drogui/math/various/src/mahony.c **** 		mz *= recipNorm;
 737              		.loc 1 70 6 is_stmt 0 view .LVU261
 738 00e8 2AEE00AA 		vmul.f32	s20, s20, s0
 739              	.LVL59:
  71:Core/drogui/math/various/src/mahony.c **** 
 740              		.loc 1 71 3 is_stmt 1 view .LVU262
  71:Core/drogui/math/various/src/mahony.c **** 
 741              		.loc 1 71 6 is_stmt 0 view .LVU263
 742 00ec 28EE008A 		vmul.f32	s16, s16, s0
 743              	.LVL60:
  74:Core/drogui/math/various/src/mahony.c **** 		q0q1 = (m->q0) * (m->q1);
 744              		.loc 1 74 3 is_stmt 1 view .LVU264
  74:Core/drogui/math/various/src/mahony.c **** 		q0q1 = (m->q0) * (m->q1);
 745              		.loc 1 74 12 is_stmt 0 view .LVU265
 746 00f0 94ED037A 		vldr.32	s14, [r4, #12]
  74:Core/drogui/math/various/src/mahony.c **** 		q0q1 = (m->q0) * (m->q1);
 747              		.loc 1 74 22 view .LVU266
 748 00f4 D4ED037A 		vldr.32	s15, [r4, #12]
ARM GAS  C:\Users\GUILLE~1\AppData\Local\Temp\ccOgD2AT.s 			page 22


  74:Core/drogui/math/various/src/mahony.c **** 		q0q1 = (m->q0) * (m->q1);
 749              		.loc 1 74 8 view .LVU267
 750 00f8 67EE277A 		vmul.f32	s15, s14, s15
 751 00fc CDED057A 		vstr.32	s15, [sp, #20]
 752              	.LVL61:
  75:Core/drogui/math/various/src/mahony.c **** 		q0q2 = (m->q0) * (m->q2);
 753              		.loc 1 75 3 is_stmt 1 view .LVU268
  75:Core/drogui/math/various/src/mahony.c **** 		q0q2 = (m->q0) * (m->q2);
 754              		.loc 1 75 12 is_stmt 0 view .LVU269
 755 0100 D4ED03EA 		vldr.32	s29, [r4, #12]
  75:Core/drogui/math/various/src/mahony.c **** 		q0q2 = (m->q0) * (m->q2);
 756              		.loc 1 75 22 view .LVU270
 757 0104 D4ED047A 		vldr.32	s15, [r4, #16]
 758              	.LVL62:
  75:Core/drogui/math/various/src/mahony.c **** 		q0q2 = (m->q0) * (m->q2);
 759              		.loc 1 75 8 view .LVU271
 760 0108 6EEEA7EA 		vmul.f32	s29, s29, s15
 761              	.LVL63:
  76:Core/drogui/math/various/src/mahony.c **** 		q0q3 = (m->q0) * (m->q3);
 762              		.loc 1 76 3 is_stmt 1 view .LVU272
  76:Core/drogui/math/various/src/mahony.c **** 		q0q3 = (m->q0) * (m->q3);
 763              		.loc 1 76 12 is_stmt 0 view .LVU273
 764 010c 94ED03FA 		vldr.32	s30, [r4, #12]
  76:Core/drogui/math/various/src/mahony.c **** 		q0q3 = (m->q0) * (m->q3);
 765              		.loc 1 76 22 view .LVU274
 766 0110 D4ED057A 		vldr.32	s15, [r4, #20]
  76:Core/drogui/math/various/src/mahony.c **** 		q0q3 = (m->q0) * (m->q3);
 767              		.loc 1 76 8 view .LVU275
 768 0114 2FEE27FA 		vmul.f32	s30, s30, s15
 769              	.LVL64:
  77:Core/drogui/math/various/src/mahony.c **** 		q1q1 = (m->q1) * (m->q1);
 770              		.loc 1 77 3 is_stmt 1 view .LVU276
  77:Core/drogui/math/various/src/mahony.c **** 		q1q1 = (m->q1) * (m->q1);
 771              		.loc 1 77 12 is_stmt 0 view .LVU277
 772 0118 94ED037A 		vldr.32	s14, [r4, #12]
  77:Core/drogui/math/various/src/mahony.c **** 		q1q1 = (m->q1) * (m->q1);
 773              		.loc 1 77 22 view .LVU278
 774 011c D4ED067A 		vldr.32	s15, [r4, #24]
  77:Core/drogui/math/various/src/mahony.c **** 		q1q1 = (m->q1) * (m->q1);
 775              		.loc 1 77 8 view .LVU279
 776 0120 67EE277A 		vmul.f32	s15, s14, s15
 777              	.LVL65:
  78:Core/drogui/math/various/src/mahony.c **** 		q1q2 = (m->q1) * (m->q2);
 778              		.loc 1 78 3 is_stmt 1 view .LVU280
  78:Core/drogui/math/various/src/mahony.c **** 		q1q2 = (m->q1) * (m->q2);
 779              		.loc 1 78 12 is_stmt 0 view .LVU281
 780 0124 D4ED04BA 		vldr.32	s23, [r4, #16]
  78:Core/drogui/math/various/src/mahony.c **** 		q1q2 = (m->q1) * (m->q2);
 781              		.loc 1 78 22 view .LVU282
 782 0128 94ED047A 		vldr.32	s14, [r4, #16]
  78:Core/drogui/math/various/src/mahony.c **** 		q1q2 = (m->q1) * (m->q2);
 783              		.loc 1 78 8 view .LVU283
 784 012c 6BEE87BA 		vmul.f32	s23, s23, s14
 785              	.LVL66:
  79:Core/drogui/math/various/src/mahony.c **** 		q1q3 = (m->q1) * (m->q3);
 786              		.loc 1 79 3 is_stmt 1 view .LVU284
  79:Core/drogui/math/various/src/mahony.c **** 		q1q3 = (m->q1) * (m->q3);
ARM GAS  C:\Users\GUILLE~1\AppData\Local\Temp\ccOgD2AT.s 			page 23


 787              		.loc 1 79 12 is_stmt 0 view .LVU285
 788 0130 D4ED046A 		vldr.32	s13, [r4, #16]
  79:Core/drogui/math/various/src/mahony.c **** 		q1q3 = (m->q1) * (m->q3);
 789              		.loc 1 79 22 view .LVU286
 790 0134 94ED057A 		vldr.32	s14, [r4, #20]
  79:Core/drogui/math/various/src/mahony.c **** 		q1q3 = (m->q1) * (m->q3);
 791              		.loc 1 79 8 view .LVU287
 792 0138 66EE876A 		vmul.f32	s13, s13, s14
 793              	.LVL67:
  80:Core/drogui/math/various/src/mahony.c **** 		q2q2 = (m->q2) * (m->q2);
 794              		.loc 1 80 3 is_stmt 1 view .LVU288
  80:Core/drogui/math/various/src/mahony.c **** 		q2q2 = (m->q2) * (m->q2);
 795              		.loc 1 80 12 is_stmt 0 view .LVU289
 796 013c 94ED04BA 		vldr.32	s22, [r4, #16]
  80:Core/drogui/math/various/src/mahony.c **** 		q2q2 = (m->q2) * (m->q2);
 797              		.loc 1 80 22 view .LVU290
 798 0140 94ED067A 		vldr.32	s14, [r4, #24]
  80:Core/drogui/math/various/src/mahony.c **** 		q2q2 = (m->q2) * (m->q2);
 799              		.loc 1 80 8 view .LVU291
 800 0144 2BEE07BA 		vmul.f32	s22, s22, s14
 801              	.LVL68:
  81:Core/drogui/math/various/src/mahony.c **** 		q2q3 = (m->q2) * (m->q3);
 802              		.loc 1 81 3 is_stmt 1 view .LVU292
  81:Core/drogui/math/various/src/mahony.c **** 		q2q3 = (m->q2) * (m->q3);
 803              		.loc 1 81 12 is_stmt 0 view .LVU293
 804 0148 94ED05EA 		vldr.32	s28, [r4, #20]
  81:Core/drogui/math/various/src/mahony.c **** 		q2q3 = (m->q2) * (m->q3);
 805              		.loc 1 81 22 view .LVU294
 806 014c 94ED057A 		vldr.32	s14, [r4, #20]
  81:Core/drogui/math/various/src/mahony.c **** 		q2q3 = (m->q2) * (m->q3);
 807              		.loc 1 81 8 view .LVU295
 808 0150 2EEE07EA 		vmul.f32	s28, s28, s14
 809              	.LVL69:
  82:Core/drogui/math/various/src/mahony.c **** 		q3q3 = (m->q3) * (m->q3);
 810              		.loc 1 82 3 is_stmt 1 view .LVU296
  82:Core/drogui/math/various/src/mahony.c **** 		q3q3 = (m->q3) * (m->q3);
 811              		.loc 1 82 12 is_stmt 0 view .LVU297
 812 0154 D4ED05AA 		vldr.32	s21, [r4, #20]
  82:Core/drogui/math/various/src/mahony.c **** 		q3q3 = (m->q3) * (m->q3);
 813              		.loc 1 82 22 view .LVU298
 814 0158 94ED067A 		vldr.32	s14, [r4, #24]
  82:Core/drogui/math/various/src/mahony.c **** 		q3q3 = (m->q3) * (m->q3);
 815              		.loc 1 82 8 view .LVU299
 816 015c 6AEE87AA 		vmul.f32	s21, s21, s14
 817              	.LVL70:
  83:Core/drogui/math/various/src/mahony.c **** 
 818              		.loc 1 83 3 is_stmt 1 view .LVU300
  83:Core/drogui/math/various/src/mahony.c **** 
 819              		.loc 1 83 12 is_stmt 0 view .LVU301
 820 0160 D4ED06DA 		vldr.32	s27, [r4, #24]
  83:Core/drogui/math/various/src/mahony.c **** 
 821              		.loc 1 83 22 view .LVU302
 822 0164 94ED067A 		vldr.32	s14, [r4, #24]
  83:Core/drogui/math/various/src/mahony.c **** 
 823              		.loc 1 83 8 view .LVU303
 824 0168 6DEE87DA 		vmul.f32	s27, s27, s14
 825              	.LVL71:
ARM GAS  C:\Users\GUILLE~1\AppData\Local\Temp\ccOgD2AT.s 			page 24


  86:Core/drogui/math/various/src/mahony.c **** 		hy = 2.0f * (mx * (q1q2 + q0q3) + my * (0.5f - q1q1 - q3q3) + mz * (q2q3 - q0q1));
 826              		.loc 1 86 3 is_stmt 1 view .LVU304
  86:Core/drogui/math/various/src/mahony.c **** 		hy = 2.0f * (mx * (q1q2 + q0q3) + my * (0.5f - q1q1 - q3q3) + mz * (q2q3 - q0q1));
 827              		.loc 1 86 27 is_stmt 0 view .LVU305
 828 016c F6EE00FA 		vmov.f32	s31, #5.0e-1
 829 0170 7FEECECA 		vsub.f32	s25, s31, s28
  86:Core/drogui/math/various/src/mahony.c **** 		hy = 2.0f * (mx * (q1q2 + q0q3) + my * (0.5f - q1q1 - q3q3) + mz * (q2q3 - q0q1));
 830              		.loc 1 86 34 view .LVU306
 831 0174 7CEEEDCA 		vsub.f32	s25, s25, s27
  86:Core/drogui/math/various/src/mahony.c **** 		hy = 2.0f * (mx * (q1q2 + q0q3) + my * (0.5f - q1q1 - q3q3) + mz * (q2q3 - q0q1));
 832              		.loc 1 86 19 view .LVU307
 833 0178 2CEEA87A 		vmul.f32	s14, s25, s17
  86:Core/drogui/math/various/src/mahony.c **** 		hy = 2.0f * (mx * (q1q2 + q0q3) + my * (0.5f - q1q1 - q3q3) + mz * (q2q3 - q0q1));
 834              		.loc 1 86 55 view .LVU308
 835 017c 36EEE7DA 		vsub.f32	s26, s13, s15
  86:Core/drogui/math/various/src/mahony.c **** 		hy = 2.0f * (mx * (q1q2 + q0q3) + my * (0.5f - q1q1 - q3q3) + mz * (q2q3 - q0q1));
 836              		.loc 1 86 47 view .LVU309
 837 0180 2DEE0A6A 		vmul.f32	s12, s26, s20
  86:Core/drogui/math/various/src/mahony.c **** 		hy = 2.0f * (mx * (q1q2 + q0q3) + my * (0.5f - q1q1 - q3q3) + mz * (q2q3 - q0q1));
 838              		.loc 1 86 42 view .LVU310
 839 0184 37EE067A 		vadd.f32	s14, s14, s12
  86:Core/drogui/math/various/src/mahony.c **** 		hy = 2.0f * (mx * (q1q2 + q0q3) + my * (0.5f - q1q1 - q3q3) + mz * (q2q3 - q0q1));
 840              		.loc 1 86 76 view .LVU311
 841 0188 3FEE0B6A 		vadd.f32	s12, s30, s22
  86:Core/drogui/math/various/src/mahony.c **** 		hy = 2.0f * (mx * (q1q2 + q0q3) + my * (0.5f - q1q1 - q3q3) + mz * (q2q3 - q0q1));
 842              		.loc 1 86 68 view .LVU312
 843 018c 8DED016A 		vstr.32	s12, [sp, #4]
 844 0190 26EE086A 		vmul.f32	s12, s12, s16
  86:Core/drogui/math/various/src/mahony.c **** 		hy = 2.0f * (mx * (q1q2 + q0q3) + my * (0.5f - q1q1 - q3q3) + mz * (q2q3 - q0q1));
 845              		.loc 1 86 63 view .LVU313
 846 0194 37EE067A 		vadd.f32	s14, s14, s12
  86:Core/drogui/math/various/src/mahony.c **** 		hy = 2.0f * (mx * (q1q2 + q0q3) + my * (0.5f - q1q1 - q3q3) + mz * (q2q3 - q0q1));
 847              		.loc 1 86 6 view .LVU314
 848 0198 37EE077A 		vadd.f32	s14, s14, s14
 849              	.LVL72:
  87:Core/drogui/math/various/src/mahony.c **** 		bx = sqrt(hx * hx + hy * hy);
 850              		.loc 1 87 3 is_stmt 1 view .LVU315
  87:Core/drogui/math/various/src/mahony.c **** 		bx = sqrt(hx * hx + hy * hy);
 851              		.loc 1 87 27 is_stmt 0 view .LVU316
 852 019c 77EEA67A 		vadd.f32	s15, s15, s13
 853              	.LVL73:
  87:Core/drogui/math/various/src/mahony.c **** 		bx = sqrt(hx * hx + hy * hy);
 854              		.loc 1 87 19 view .LVU317
 855 01a0 67EEA87A 		vmul.f32	s15, s15, s17
  87:Core/drogui/math/various/src/mahony.c **** 		bx = sqrt(hx * hx + hy * hy);
 856              		.loc 1 87 48 view .LVU318
 857 01a4 7FEEEBBA 		vsub.f32	s23, s31, s23
 858              	.LVL74:
  87:Core/drogui/math/various/src/mahony.c **** 		bx = sqrt(hx * hx + hy * hy);
 859              		.loc 1 87 55 view .LVU319
 860 01a8 7BEEED6A 		vsub.f32	s13, s23, s27
 861              	.LVL75:
  87:Core/drogui/math/various/src/mahony.c **** 		bx = sqrt(hx * hx + hy * hy);
 862              		.loc 1 87 40 view .LVU320
 863 01ac 66EE8A6A 		vmul.f32	s13, s13, s20
  87:Core/drogui/math/various/src/mahony.c **** 		bx = sqrt(hx * hx + hy * hy);
 864              		.loc 1 87 35 view .LVU321
ARM GAS  C:\Users\GUILLE~1\AppData\Local\Temp\ccOgD2AT.s 			page 25


 865 01b0 77EEA67A 		vadd.f32	s15, s15, s13
  87:Core/drogui/math/various/src/mahony.c **** 		bx = sqrt(hx * hx + hy * hy);
 866              		.loc 1 87 76 view .LVU322
 867 01b4 7AEEEE6A 		vsub.f32	s13, s21, s29
  87:Core/drogui/math/various/src/mahony.c **** 		bx = sqrt(hx * hx + hy * hy);
 868              		.loc 1 87 68 view .LVU323
 869 01b8 66EE886A 		vmul.f32	s13, s13, s16
  87:Core/drogui/math/various/src/mahony.c **** 		bx = sqrt(hx * hx + hy * hy);
 870              		.loc 1 87 63 view .LVU324
 871 01bc 77EEA67A 		vadd.f32	s15, s15, s13
  87:Core/drogui/math/various/src/mahony.c **** 		bx = sqrt(hx * hx + hy * hy);
 872              		.loc 1 87 6 view .LVU325
 873 01c0 77EEA77A 		vadd.f32	s15, s15, s15
 874              	.LVL76:
  88:Core/drogui/math/various/src/mahony.c **** 		bz = 2.0f * (mx * (q1q3 - q0q2) + my * (q2q3 + q0q1) + mz * (0.5f - q1q1 - q2q2));
 875              		.loc 1 88 3 is_stmt 1 view .LVU326
  88:Core/drogui/math/various/src/mahony.c **** 		bz = 2.0f * (mx * (q1q3 - q0q2) + my * (q2q3 + q0q1) + mz * (0.5f - q1q1 - q2q2));
 876              		.loc 1 88 16 is_stmt 0 view .LVU327
 877 01c4 27EE077A 		vmul.f32	s14, s14, s14
 878              	.LVL77:
  88:Core/drogui/math/various/src/mahony.c **** 		bz = 2.0f * (mx * (q1q3 - q0q2) + my * (q2q3 + q0q1) + mz * (0.5f - q1q1 - q2q2));
 879              		.loc 1 88 26 view .LVU328
 880 01c8 67EEA77A 		vmul.f32	s15, s15, s15
 881              	.LVL78:
  88:Core/drogui/math/various/src/mahony.c **** 		bz = 2.0f * (mx * (q1q3 - q0q2) + my * (q2q3 + q0q1) + mz * (0.5f - q1q1 - q2q2));
 882              		.loc 1 88 8 view .LVU329
 883 01cc 37EE277A 		vadd.f32	s14, s14, s15
 884 01d0 17EE100A 		vmov	r0, s14
 885 01d4 FFF7FEFF 		bl	__aeabi_f2d
 886              	.LVL79:
  88:Core/drogui/math/various/src/mahony.c **** 		bz = 2.0f * (mx * (q1q3 - q0q2) + my * (q2q3 + q0q1) + mz * (0.5f - q1q1 - q2q2));
 887              		.loc 1 88 8 view .LVU330
 888 01d8 41EC100B 		vmov	d0, r0, r1
 889 01dc FFF7FEFF 		bl	sqrt
 890              	.LVL80:
 891 01e0 51EC100B 		vmov	r0, r1, d0
  88:Core/drogui/math/various/src/mahony.c **** 		bz = 2.0f * (mx * (q1q3 - q0q2) + my * (q2q3 + q0q1) + mz * (0.5f - q1q1 - q2q2));
 892              		.loc 1 88 6 view .LVU331
 893 01e4 FFF7FEFF 		bl	__aeabi_d2f
 894              	.LVL81:
 895 01e8 07EE100A 		vmov	s14, r0
 896              	.LVL82:
  89:Core/drogui/math/various/src/mahony.c **** 
 897              		.loc 1 89 3 is_stmt 1 view .LVU332
  89:Core/drogui/math/various/src/mahony.c **** 
 898              		.loc 1 89 27 is_stmt 0 view .LVU333
 899 01ec 3BEE4FBA 		vsub.f32	s22, s22, s30
 900              	.LVL83:
  89:Core/drogui/math/various/src/mahony.c **** 
 901              		.loc 1 89 19 view .LVU334
 902 01f0 6BEE287A 		vmul.f32	s15, s22, s17
  89:Core/drogui/math/various/src/mahony.c **** 
 903              		.loc 1 89 48 view .LVU335
 904 01f4 7EEEAAAA 		vadd.f32	s21, s29, s21
 905              	.LVL84:
  89:Core/drogui/math/various/src/mahony.c **** 
 906              		.loc 1 89 40 view .LVU336
ARM GAS  C:\Users\GUILLE~1\AppData\Local\Temp\ccOgD2AT.s 			page 26


 907 01f8 6AEE8A6A 		vmul.f32	s13, s21, s20
  89:Core/drogui/math/various/src/mahony.c **** 
 908              		.loc 1 89 35 view .LVU337
 909 01fc 77EEA67A 		vadd.f32	s15, s15, s13
  89:Core/drogui/math/various/src/mahony.c **** 
 910              		.loc 1 89 76 view .LVU338
 911 0200 7BEECEBA 		vsub.f32	s23, s23, s28
  89:Core/drogui/math/various/src/mahony.c **** 
 912              		.loc 1 89 61 view .LVU339
 913 0204 2BEE88EA 		vmul.f32	s28, s23, s16
 914              	.LVL85:
  89:Core/drogui/math/various/src/mahony.c **** 
 915              		.loc 1 89 56 view .LVU340
 916 0208 77EE8E7A 		vadd.f32	s15, s15, s28
  89:Core/drogui/math/various/src/mahony.c **** 
 917              		.loc 1 89 6 view .LVU341
 918 020c 77EEA77A 		vadd.f32	s15, s15, s15
 919              	.LVL86:
  92:Core/drogui/math/various/src/mahony.c **** 		halfvy = q0q1 + q2q3;
 920              		.loc 1 92 3 is_stmt 1 view .LVU342
  93:Core/drogui/math/various/src/mahony.c **** 		halfvz = q0q0 - 0.5f + q3q3;
 921              		.loc 1 93 3 view .LVU343
  94:Core/drogui/math/various/src/mahony.c **** 		halfwx = bx * (0.5f - q2q2 - q3q3) + bz * (q1q3 - q0q2);
 922              		.loc 1 94 3 view .LVU344
  94:Core/drogui/math/various/src/mahony.c **** 		halfwx = bx * (0.5f - q2q2 - q3q3) + bz * (q1q3 - q0q2);
 923              		.loc 1 94 17 is_stmt 0 view .LVU345
 924 0210 DDED054A 		vldr.32	s9, [sp, #20]
 925 0214 74EEEFFA 		vsub.f32	s31, s9, s31
  94:Core/drogui/math/various/src/mahony.c **** 		halfwx = bx * (0.5f - q2q2 - q3q3) + bz * (q1q3 - q0q2);
 926              		.loc 1 94 10 view .LVU346
 927 0218 7FEEADFA 		vadd.f32	s31, s31, s27
 928              	.LVL87:
  95:Core/drogui/math/various/src/mahony.c **** 		halfwy = bx * (q1q2 - q0q3) + bz * (q0q1 + q2q3);
 929              		.loc 1 95 3 is_stmt 1 view .LVU347
  95:Core/drogui/math/various/src/mahony.c **** 		halfwy = bx * (q1q2 - q0q3) + bz * (q0q1 + q2q3);
 930              		.loc 1 95 15 is_stmt 0 view .LVU348
 931 021c 6CEE87CA 		vmul.f32	s25, s25, s14
 932              	.LVL88:
  95:Core/drogui/math/various/src/mahony.c **** 		halfwy = bx * (q1q2 - q0q3) + bz * (q0q1 + q2q3);
 933              		.loc 1 95 43 view .LVU349
 934 0220 6BEE276A 		vmul.f32	s13, s22, s15
  95:Core/drogui/math/various/src/mahony.c **** 		halfwy = bx * (q1q2 - q0q3) + bz * (q0q1 + q2q3);
 935              		.loc 1 95 10 view .LVU350
 936 0224 7CEEA6CA 		vadd.f32	s25, s25, s13
 937              	.LVL89:
  96:Core/drogui/math/various/src/mahony.c **** 		halfwz = bx * (q0q2 + q1q3) + bz * (0.5f - q1q1 - q2q2);
 938              		.loc 1 96 3 is_stmt 1 view .LVU351
  96:Core/drogui/math/various/src/mahony.c **** 		halfwz = bx * (q0q2 + q1q3) + bz * (0.5f - q1q1 - q2q2);
 939              		.loc 1 96 15 is_stmt 0 view .LVU352
 940 0228 2DEE07DA 		vmul.f32	s26, s26, s14
  96:Core/drogui/math/various/src/mahony.c **** 		halfwz = bx * (q0q2 + q1q3) + bz * (0.5f - q1q1 - q2q2);
 941              		.loc 1 96 36 view .LVU353
 942 022c 6AEEA76A 		vmul.f32	s13, s21, s15
  96:Core/drogui/math/various/src/mahony.c **** 		halfwz = bx * (q0q2 + q1q3) + bz * (0.5f - q1q1 - q2q2);
 943              		.loc 1 96 10 view .LVU354
 944 0230 3DEE26DA 		vadd.f32	s26, s26, s13
 945              	.LVL90:
ARM GAS  C:\Users\GUILLE~1\AppData\Local\Temp\ccOgD2AT.s 			page 27


  97:Core/drogui/math/various/src/mahony.c **** 
 946              		.loc 1 97 3 is_stmt 1 view .LVU355
  97:Core/drogui/math/various/src/mahony.c **** 
 947              		.loc 1 97 15 is_stmt 0 view .LVU356
 948 0234 9DED016A 		vldr.32	s12, [sp, #4]
 949 0238 26EE077A 		vmul.f32	s14, s12, s14
  97:Core/drogui/math/various/src/mahony.c **** 
 950              		.loc 1 97 36 view .LVU357
 951 023c 6BEEA77A 		vmul.f32	s15, s23, s15
 952              	.LVL91:
  97:Core/drogui/math/various/src/mahony.c **** 
 953              		.loc 1 97 10 view .LVU358
 954 0240 77EE277A 		vadd.f32	s15, s14, s15
 955              	.LVL92:
 100:Core/drogui/math/various/src/mahony.c **** 		halfey = (az * halfvx - ax * halfvz) + (mz * halfwx - mx * halfwz);
 956              		.loc 1 100 3 is_stmt 1 view .LVU359
 100:Core/drogui/math/various/src/mahony.c **** 		halfey = (az * halfvx - ax * halfvz) + (mz * halfwx - mx * halfwz);
 957              		.loc 1 100 16 is_stmt 0 view .LVU360
 958 0244 DDED035A 		vldr.32	s11, [sp, #12]
 959 0248 65EEAF6A 		vmul.f32	s13, s11, s31
 100:Core/drogui/math/various/src/mahony.c **** 		halfey = (az * halfvx - ax * halfvz) + (mz * halfwx - mx * halfwz);
 960              		.loc 1 100 30 view .LVU361
 961 024c 9DED045A 		vldr.32	s10, [sp, #16]
 962 0250 2AEE857A 		vmul.f32	s14, s21, s10
 100:Core/drogui/math/various/src/mahony.c **** 		halfey = (az * halfvx - ax * halfvz) + (mz * halfwx - mx * halfwz);
 963              		.loc 1 100 25 view .LVU362
 964 0254 76EEC76A 		vsub.f32	s13, s13, s14
 100:Core/drogui/math/various/src/mahony.c **** 		halfey = (az * halfvx - ax * halfvz) + (mz * halfwx - mx * halfwz);
 965              		.loc 1 100 46 view .LVU363
 966 0258 2AEE277A 		vmul.f32	s14, s20, s15
 100:Core/drogui/math/various/src/mahony.c **** 		halfey = (az * halfvx - ax * halfvz) + (mz * halfwx - mx * halfwz);
 967              		.loc 1 100 60 view .LVU364
 968 025c 28EE0D6A 		vmul.f32	s12, s16, s26
 100:Core/drogui/math/various/src/mahony.c **** 		halfey = (az * halfvx - ax * halfvz) + (mz * halfwx - mx * halfwz);
 969              		.loc 1 100 55 view .LVU365
 970 0260 37EE467A 		vsub.f32	s14, s14, s12
 100:Core/drogui/math/various/src/mahony.c **** 		halfey = (az * halfvx - ax * halfvz) + (mz * halfwx - mx * halfwz);
 971              		.loc 1 100 10 view .LVU366
 972 0264 36EE877A 		vadd.f32	s14, s13, s14
 973              	.LVL93:
 101:Core/drogui/math/various/src/mahony.c **** 		halfez = (ax * halfvy - ay * halfvx) + (mx * halfwy - my * halfwx);
 974              		.loc 1 101 3 is_stmt 1 view .LVU367
 101:Core/drogui/math/various/src/mahony.c **** 		halfez = (ax * halfvy - ay * halfvx) + (mx * halfwy - my * halfwx);
 975              		.loc 1 101 16 is_stmt 0 view .LVU368
 976 0268 6BEE05DA 		vmul.f32	s27, s22, s10
 977              	.LVL94:
 101:Core/drogui/math/various/src/mahony.c **** 		halfez = (ax * halfvy - ay * halfvx) + (mx * halfwy - my * halfwx);
 978              		.loc 1 101 30 view .LVU369
 979 026c DDED026A 		vldr.32	s13, [sp, #8]
 980 0270 66EEAFFA 		vmul.f32	s31, s13, s31
 981              	.LVL95:
 101:Core/drogui/math/various/src/mahony.c **** 		halfez = (ax * halfvy - ay * halfvx) + (mx * halfwy - my * halfwx);
 982              		.loc 1 101 25 view .LVU370
 983 0274 7DEEEFDA 		vsub.f32	s27, s27, s31
 101:Core/drogui/math/various/src/mahony.c **** 		halfez = (ax * halfvy - ay * halfvx) + (mx * halfwy - my * halfwx);
 984              		.loc 1 101 46 view .LVU371
 985 0278 28EE2C8A 		vmul.f32	s16, s16, s25
ARM GAS  C:\Users\GUILLE~1\AppData\Local\Temp\ccOgD2AT.s 			page 28


 986              	.LVL96:
 101:Core/drogui/math/various/src/mahony.c **** 		halfez = (ax * halfvy - ay * halfvx) + (mx * halfwy - my * halfwx);
 987              		.loc 1 101 60 view .LVU372
 988 027c 68EEA77A 		vmul.f32	s15, s17, s15
 989              	.LVL97:
 101:Core/drogui/math/various/src/mahony.c **** 		halfez = (ax * halfvy - ay * halfvx) + (mx * halfwy - my * halfwx);
 990              		.loc 1 101 55 view .LVU373
 991 0280 38EE678A 		vsub.f32	s16, s16, s15
 101:Core/drogui/math/various/src/mahony.c **** 		halfez = (ax * halfvy - ay * halfvx) + (mx * halfwy - my * halfwx);
 992              		.loc 1 101 10 view .LVU374
 993 0284 3DEE888A 		vadd.f32	s16, s27, s16
 994              	.LVL98:
 102:Core/drogui/math/various/src/mahony.c **** 
 995              		.loc 1 102 3 is_stmt 1 view .LVU375
 102:Core/drogui/math/various/src/mahony.c **** 
 996              		.loc 1 102 16 is_stmt 0 view .LVU376
 997 0288 6AEEA6AA 		vmul.f32	s21, s21, s13
 998              	.LVL99:
 102:Core/drogui/math/various/src/mahony.c **** 
 999              		.loc 1 102 30 view .LVU377
 1000 028c 2BEE25BA 		vmul.f32	s22, s22, s11
 1001              	.LVL100:
 102:Core/drogui/math/various/src/mahony.c **** 
 1002              		.loc 1 102 25 view .LVU378
 1003 0290 7AEECBAA 		vsub.f32	s21, s21, s22
 102:Core/drogui/math/various/src/mahony.c **** 
 1004              		.loc 1 102 46 view .LVU379
 1005 0294 68EE8D8A 		vmul.f32	s17, s17, s26
 1006              	.LVL101:
 102:Core/drogui/math/various/src/mahony.c **** 
 1007              		.loc 1 102 60 view .LVU380
 1008 0298 2AEE2CAA 		vmul.f32	s20, s20, s25
 1009              	.LVL102:
 102:Core/drogui/math/various/src/mahony.c **** 
 1010              		.loc 1 102 55 view .LVU381
 1011 029c 78EECA8A 		vsub.f32	s17, s17, s20
 102:Core/drogui/math/various/src/mahony.c **** 
 1012              		.loc 1 102 10 view .LVU382
 1013 02a0 7AEEA8AA 		vadd.f32	s21, s21, s17
 1014              	.LVL103:
 105:Core/drogui/math/various/src/mahony.c **** 			(m->integralFBx) += (m->twoKi) * halfex * (1.0f / (m->sampleFreq));	// integral error scaled by 
 1015              		.loc 1 105 3 is_stmt 1 view .LVU383
 105:Core/drogui/math/various/src/mahony.c **** 			(m->integralFBx) += (m->twoKi) * halfex * (1.0f / (m->sampleFreq));	// integral error scaled by 
 1016              		.loc 1 105 8 is_stmt 0 view .LVU384
 1017 02a4 D4ED027A 		vldr.32	s15, [r4, #8]
 105:Core/drogui/math/various/src/mahony.c **** 			(m->integralFBx) += (m->twoKi) * halfex * (1.0f / (m->sampleFreq));	// integral error scaled by 
 1018              		.loc 1 105 5 view .LVU385
 1019 02a8 F5EEC07A 		vcmpe.f32	s15, #0
 1020 02ac F1EE10FA 		vmrs	APSR_nzcv, FPSCR
 1021 02b0 40F3F080 		ble	.L25
 106:Core/drogui/math/various/src/mahony.c **** 			(m->integralFBy) += (m->twoKi) * halfey * (1.0f / (m->sampleFreq));
 1022              		.loc 1 106 4 is_stmt 1 view .LVU386
 106:Core/drogui/math/various/src/mahony.c **** 			(m->integralFBy) += (m->twoKi) * halfey * (1.0f / (m->sampleFreq));
 1023              		.loc 1 106 26 is_stmt 0 view .LVU387
 1024 02b4 D4ED026A 		vldr.32	s13, [r4, #8]
 106:Core/drogui/math/various/src/mahony.c **** 			(m->integralFBy) += (m->twoKi) * halfey * (1.0f / (m->sampleFreq));
 1025              		.loc 1 106 35 view .LVU388
ARM GAS  C:\Users\GUILLE~1\AppData\Local\Temp\ccOgD2AT.s 			page 29


 1026 02b8 66EE876A 		vmul.f32	s13, s13, s14
 106:Core/drogui/math/various/src/mahony.c **** 			(m->integralFBy) += (m->twoKi) * halfey * (1.0f / (m->sampleFreq));
 1027              		.loc 1 106 56 view .LVU389
 1028 02bc 94ED006A 		vldr.32	s12, [r4]
 106:Core/drogui/math/various/src/mahony.c **** 			(m->integralFBy) += (m->twoKi) * halfey * (1.0f / (m->sampleFreq));
 1029              		.loc 1 106 52 view .LVU390
 1030 02c0 F7EE005A 		vmov.f32	s11, #1.0e+0
 1031 02c4 C5EE867A 		vdiv.f32	s15, s11, s12
 106:Core/drogui/math/various/src/mahony.c **** 			(m->integralFBy) += (m->twoKi) * halfey * (1.0f / (m->sampleFreq));
 1032              		.loc 1 106 44 view .LVU391
 1033 02c8 66EEA76A 		vmul.f32	s13, s13, s15
 106:Core/drogui/math/various/src/mahony.c **** 			(m->integralFBy) += (m->twoKi) * halfey * (1.0f / (m->sampleFreq));
 1034              		.loc 1 106 21 view .LVU392
 1035 02cc 94ED076A 		vldr.32	s12, [r4, #28]
 1036 02d0 76EE266A 		vadd.f32	s13, s12, s13
 1037 02d4 C4ED076A 		vstr.32	s13, [r4, #28]
 107:Core/drogui/math/various/src/mahony.c **** 			(m->integralFBz) += (m->twoKi) * halfez * (1.0f / (m->sampleFreq));
 1038              		.loc 1 107 4 is_stmt 1 view .LVU393
 107:Core/drogui/math/various/src/mahony.c **** 			(m->integralFBz) += (m->twoKi) * halfez * (1.0f / (m->sampleFreq));
 1039              		.loc 1 107 26 is_stmt 0 view .LVU394
 1040 02d8 D4ED026A 		vldr.32	s13, [r4, #8]
 107:Core/drogui/math/various/src/mahony.c **** 			(m->integralFBz) += (m->twoKi) * halfez * (1.0f / (m->sampleFreq));
 1041              		.loc 1 107 35 view .LVU395
 1042 02dc 66EE886A 		vmul.f32	s13, s13, s16
 107:Core/drogui/math/various/src/mahony.c **** 			(m->integralFBz) += (m->twoKi) * halfez * (1.0f / (m->sampleFreq));
 1043              		.loc 1 107 44 view .LVU396
 1044 02e0 67EEA66A 		vmul.f32	s13, s15, s13
 107:Core/drogui/math/various/src/mahony.c **** 			(m->integralFBz) += (m->twoKi) * halfez * (1.0f / (m->sampleFreq));
 1045              		.loc 1 107 21 view .LVU397
 1046 02e4 94ED086A 		vldr.32	s12, [r4, #32]
 1047 02e8 76EE266A 		vadd.f32	s13, s12, s13
 1048 02ec C4ED086A 		vstr.32	s13, [r4, #32]
 108:Core/drogui/math/various/src/mahony.c **** 			gx += (m->integralFBx);	// apply integral feedback
 1049              		.loc 1 108 4 is_stmt 1 view .LVU398
 108:Core/drogui/math/various/src/mahony.c **** 			gx += (m->integralFBx);	// apply integral feedback
 1050              		.loc 1 108 26 is_stmt 0 view .LVU399
 1051 02f0 D4ED026A 		vldr.32	s13, [r4, #8]
 108:Core/drogui/math/various/src/mahony.c **** 			gx += (m->integralFBx);	// apply integral feedback
 1052              		.loc 1 108 35 view .LVU400
 1053 02f4 66EEAA6A 		vmul.f32	s13, s13, s21
 108:Core/drogui/math/various/src/mahony.c **** 			gx += (m->integralFBx);	// apply integral feedback
 1054              		.loc 1 108 44 view .LVU401
 1055 02f8 67EEA67A 		vmul.f32	s15, s15, s13
 108:Core/drogui/math/various/src/mahony.c **** 			gx += (m->integralFBx);	// apply integral feedback
 1056              		.loc 1 108 21 view .LVU402
 1057 02fc D4ED096A 		vldr.32	s13, [r4, #36]
 1058 0300 76EEA77A 		vadd.f32	s15, s13, s15
 1059 0304 C4ED097A 		vstr.32	s15, [r4, #36]
 109:Core/drogui/math/various/src/mahony.c **** 			gy += (m->integralFBy);
 1060              		.loc 1 109 4 is_stmt 1 view .LVU403
 109:Core/drogui/math/various/src/mahony.c **** 			gy += (m->integralFBy);
 1061              		.loc 1 109 12 is_stmt 0 view .LVU404
 1062 0308 D4ED077A 		vldr.32	s15, [r4, #28]
 109:Core/drogui/math/various/src/mahony.c **** 			gy += (m->integralFBy);
 1063              		.loc 1 109 7 view .LVU405
 1064 030c 39EE279A 		vadd.f32	s18, s18, s15
 1065              	.LVL104:
ARM GAS  C:\Users\GUILLE~1\AppData\Local\Temp\ccOgD2AT.s 			page 30


 110:Core/drogui/math/various/src/mahony.c **** 			gz += (m->integralFBz);
 1066              		.loc 1 110 4 is_stmt 1 view .LVU406
 110:Core/drogui/math/various/src/mahony.c **** 			gz += (m->integralFBz);
 1067              		.loc 1 110 12 is_stmt 0 view .LVU407
 1068 0310 D4ED087A 		vldr.32	s15, [r4, #32]
 110:Core/drogui/math/various/src/mahony.c **** 			gz += (m->integralFBz);
 1069              		.loc 1 110 7 view .LVU408
 1070 0314 79EEA79A 		vadd.f32	s19, s19, s15
 1071              	.LVL105:
 111:Core/drogui/math/various/src/mahony.c **** 		}
 1072              		.loc 1 111 4 is_stmt 1 view .LVU409
 111:Core/drogui/math/various/src/mahony.c **** 		}
 1073              		.loc 1 111 12 is_stmt 0 view .LVU410
 1074 0318 D4ED097A 		vldr.32	s15, [r4, #36]
 111:Core/drogui/math/various/src/mahony.c **** 		}
 1075              		.loc 1 111 7 view .LVU411
 1076 031c 3CEE27CA 		vadd.f32	s24, s24, s15
 1077              	.LVL106:
 1078              	.L23:
 120:Core/drogui/math/various/src/mahony.c **** 		gy += (m->twoKp) * halfey;
 1079              		.loc 1 120 3 is_stmt 1 view .LVU412
 120:Core/drogui/math/various/src/mahony.c **** 		gy += (m->twoKp) * halfey;
 1080              		.loc 1 120 11 is_stmt 0 view .LVU413
 1081 0320 D4ED017A 		vldr.32	s15, [r4, #4]
 120:Core/drogui/math/various/src/mahony.c **** 		gy += (m->twoKp) * halfey;
 1082              		.loc 1 120 20 view .LVU414
 1083 0324 67EE877A 		vmul.f32	s15, s15, s14
 120:Core/drogui/math/various/src/mahony.c **** 		gy += (m->twoKp) * halfey;
 1084              		.loc 1 120 6 view .LVU415
 1085 0328 39EE279A 		vadd.f32	s18, s18, s15
 1086              	.LVL107:
 121:Core/drogui/math/various/src/mahony.c **** 		gz += (m->twoKp) * halfez;
 1087              		.loc 1 121 3 is_stmt 1 view .LVU416
 121:Core/drogui/math/various/src/mahony.c **** 		gz += (m->twoKp) * halfez;
 1088              		.loc 1 121 11 is_stmt 0 view .LVU417
 1089 032c D4ED01DA 		vldr.32	s27, [r4, #4]
 121:Core/drogui/math/various/src/mahony.c **** 		gz += (m->twoKp) * halfez;
 1090              		.loc 1 121 20 view .LVU418
 1091 0330 2DEE888A 		vmul.f32	s16, s27, s16
 1092              	.LVL108:
 121:Core/drogui/math/various/src/mahony.c **** 		gz += (m->twoKp) * halfez;
 1093              		.loc 1 121 6 view .LVU419
 1094 0334 79EE889A 		vadd.f32	s19, s19, s16
 1095              	.LVL109:
 122:Core/drogui/math/various/src/mahony.c **** 	}
 1096              		.loc 1 122 3 is_stmt 1 view .LVU420
 122:Core/drogui/math/various/src/mahony.c **** 	}
 1097              		.loc 1 122 11 is_stmt 0 view .LVU421
 1098 0338 D4ED018A 		vldr.32	s17, [r4, #4]
 122:Core/drogui/math/various/src/mahony.c **** 	}
 1099              		.loc 1 122 20 view .LVU422
 1100 033c 68EEAAAA 		vmul.f32	s21, s17, s21
 1101              	.LVL110:
 122:Core/drogui/math/various/src/mahony.c **** 	}
 1102              		.loc 1 122 6 view .LVU423
 1103 0340 3CEE2ACA 		vadd.f32	s24, s24, s21
 1104              	.LVL111:
ARM GAS  C:\Users\GUILLE~1\AppData\Local\Temp\ccOgD2AT.s 			page 31


 1105              	.L20:
 126:Core/drogui/math/various/src/mahony.c **** 	gy *= (0.5f * (1.0f / (m->sampleFreq)));
 1106              		.loc 1 126 2 is_stmt 1 view .LVU424
 126:Core/drogui/math/various/src/mahony.c **** 	gy *= (0.5f * (1.0f / (m->sampleFreq)));
 1107              		.loc 1 126 26 is_stmt 0 view .LVU425
 1108 0344 D4ED007A 		vldr.32	s15, [r4]
 126:Core/drogui/math/various/src/mahony.c **** 	gy *= (0.5f * (1.0f / (m->sampleFreq)));
 1109              		.loc 1 126 22 view .LVU426
 1110 0348 B7EE007A 		vmov.f32	s14, #1.0e+0
 1111 034c 87EE271A 		vdiv.f32	s2, s14, s15
 126:Core/drogui/math/various/src/mahony.c **** 	gy *= (0.5f * (1.0f / (m->sampleFreq)));
 1112              		.loc 1 126 14 view .LVU427
 1113 0350 F6EE007A 		vmov.f32	s15, #5.0e-1
 1114 0354 21EE271A 		vmul.f32	s2, s2, s15
 126:Core/drogui/math/various/src/mahony.c **** 	gy *= (0.5f * (1.0f / (m->sampleFreq)));
 1115              		.loc 1 126 5 view .LVU428
 1116 0358 21EE099A 		vmul.f32	s18, s2, s18
 1117              	.LVL112:
 127:Core/drogui/math/various/src/mahony.c **** 	gz *= (0.5f * (1.0f / (m->sampleFreq)));
 1118              		.loc 1 127 2 is_stmt 1 view .LVU429
 127:Core/drogui/math/various/src/mahony.c **** 	gz *= (0.5f * (1.0f / (m->sampleFreq)));
 1119              		.loc 1 127 5 is_stmt 0 view .LVU430
 1120 035c 61EE299A 		vmul.f32	s19, s2, s19
 1121              	.LVL113:
 128:Core/drogui/math/various/src/mahony.c **** 	qa = (m->q0);
 1122              		.loc 1 128 2 is_stmt 1 view .LVU431
 128:Core/drogui/math/various/src/mahony.c **** 	qa = (m->q0);
 1123              		.loc 1 128 5 is_stmt 0 view .LVU432
 1124 0360 21EE0CCA 		vmul.f32	s24, s2, s24
 1125              	.LVL114:
 129:Core/drogui/math/various/src/mahony.c **** 	qb = (m->q1);
 1126              		.loc 1 129 2 is_stmt 1 view .LVU433
 129:Core/drogui/math/various/src/mahony.c **** 	qb = (m->q1);
 1127              		.loc 1 129 5 is_stmt 0 view .LVU434
 1128 0364 94ED031A 		vldr.32	s2, [r4, #12]
 1129              	.LVL115:
 130:Core/drogui/math/various/src/mahony.c **** 	qc = (m->q2);
 1130              		.loc 1 130 2 is_stmt 1 view .LVU435
 130:Core/drogui/math/various/src/mahony.c **** 	qc = (m->q2);
 1131              		.loc 1 130 5 is_stmt 0 view .LVU436
 1132 0368 94ED047A 		vldr.32	s14, [r4, #16]
 1133              	.LVL116:
 131:Core/drogui/math/various/src/mahony.c **** 	m -> q0 += (-qb * gx - qc * gy - m->q3 * gz);
 1134              		.loc 1 131 2 is_stmt 1 view .LVU437
 131:Core/drogui/math/various/src/mahony.c **** 	m -> q0 += (-qb * gx - qc * gy - m->q3 * gz);
 1135              		.loc 1 131 5 is_stmt 0 view .LVU438
 1136 036c 94ED050A 		vldr.32	s0, [r4, #20]
 1137              	.LVL117:
 132:Core/drogui/math/various/src/mahony.c **** 	m -> q1 += (qa * gx + qc * gz - m->q3 * gy);
 1138              		.loc 1 132 2 is_stmt 1 view .LVU439
 132:Core/drogui/math/various/src/mahony.c **** 	m -> q1 += (qa * gx + qc * gz - m->q3 * gy);
 1139              		.loc 1 132 18 is_stmt 0 view .LVU440
 1140 0370 67EE497A 		vnmul.f32	s15, s14, s18
 132:Core/drogui/math/various/src/mahony.c **** 	m -> q1 += (qa * gx + qc * gz - m->q3 * gy);
 1141              		.loc 1 132 28 view .LVU441
 1142 0374 69EE806A 		vmul.f32	s13, s19, s0
 132:Core/drogui/math/various/src/mahony.c **** 	m -> q1 += (qa * gx + qc * gz - m->q3 * gy);
ARM GAS  C:\Users\GUILLE~1\AppData\Local\Temp\ccOgD2AT.s 			page 32


 1143              		.loc 1 132 23 view .LVU442
 1144 0378 77EEE67A 		vsub.f32	s15, s15, s13
 132:Core/drogui/math/various/src/mahony.c **** 	m -> q1 += (qa * gx + qc * gz - m->q3 * gy);
 1145              		.loc 1 132 36 view .LVU443
 1146 037c D4ED066A 		vldr.32	s13, [r4, #24]
 132:Core/drogui/math/various/src/mahony.c **** 	m -> q1 += (qa * gx + qc * gz - m->q3 * gy);
 1147              		.loc 1 132 41 view .LVU444
 1148 0380 66EE8C6A 		vmul.f32	s13, s13, s24
 132:Core/drogui/math/various/src/mahony.c **** 	m -> q1 += (qa * gx + qc * gz - m->q3 * gy);
 1149              		.loc 1 132 33 view .LVU445
 1150 0384 77EEE67A 		vsub.f32	s15, s15, s13
 132:Core/drogui/math/various/src/mahony.c **** 	m -> q1 += (qa * gx + qc * gz - m->q3 * gy);
 1151              		.loc 1 132 10 view .LVU446
 1152 0388 D4ED036A 		vldr.32	s13, [r4, #12]
 1153 038c 76EEA77A 		vadd.f32	s15, s13, s15
 1154 0390 C4ED037A 		vstr.32	s15, [r4, #12]
 133:Core/drogui/math/various/src/mahony.c **** 	m -> q2 += (qa * gy - qb * gz + m->q3 * gx);
 1155              		.loc 1 133 2 is_stmt 1 view .LVU447
 133:Core/drogui/math/various/src/mahony.c **** 	m -> q2 += (qa * gy - qb * gz + m->q3 * gx);
 1156              		.loc 1 133 17 is_stmt 0 view .LVU448
 1157 0394 69EE017A 		vmul.f32	s15, s18, s2
 133:Core/drogui/math/various/src/mahony.c **** 	m -> q2 += (qa * gy - qb * gz + m->q3 * gx);
 1158              		.loc 1 133 27 view .LVU449
 1159 0398 6CEE006A 		vmul.f32	s13, s24, s0
 133:Core/drogui/math/various/src/mahony.c **** 	m -> q2 += (qa * gy - qb * gz + m->q3 * gx);
 1160              		.loc 1 133 22 view .LVU450
 1161 039c 77EEA67A 		vadd.f32	s15, s15, s13
 133:Core/drogui/math/various/src/mahony.c **** 	m -> q2 += (qa * gy - qb * gz + m->q3 * gx);
 1162              		.loc 1 133 35 view .LVU451
 1163 03a0 D4ED066A 		vldr.32	s13, [r4, #24]
 133:Core/drogui/math/various/src/mahony.c **** 	m -> q2 += (qa * gy - qb * gz + m->q3 * gx);
 1164              		.loc 1 133 40 view .LVU452
 1165 03a4 66EEA96A 		vmul.f32	s13, s13, s19
 133:Core/drogui/math/various/src/mahony.c **** 	m -> q2 += (qa * gy - qb * gz + m->q3 * gx);
 1166              		.loc 1 133 32 view .LVU453
 1167 03a8 77EEE67A 		vsub.f32	s15, s15, s13
 133:Core/drogui/math/various/src/mahony.c **** 	m -> q2 += (qa * gy - qb * gz + m->q3 * gx);
 1168              		.loc 1 133 10 view .LVU454
 1169 03ac D4ED046A 		vldr.32	s13, [r4, #16]
 1170 03b0 76EEA77A 		vadd.f32	s15, s13, s15
 1171 03b4 C4ED047A 		vstr.32	s15, [r4, #16]
 134:Core/drogui/math/various/src/mahony.c **** 	m -> q3 += (qa * gz + qb * gy - qc * gx);
 1172              		.loc 1 134 2 is_stmt 1 view .LVU455
 134:Core/drogui/math/various/src/mahony.c **** 	m -> q3 += (qa * gz + qb * gy - qc * gx);
 1173              		.loc 1 134 17 is_stmt 0 view .LVU456
 1174 03b8 69EE817A 		vmul.f32	s15, s19, s2
 134:Core/drogui/math/various/src/mahony.c **** 	m -> q3 += (qa * gz + qb * gy - qc * gx);
 1175              		.loc 1 134 27 view .LVU457
 1176 03bc 6CEE076A 		vmul.f32	s13, s24, s14
 134:Core/drogui/math/various/src/mahony.c **** 	m -> q3 += (qa * gz + qb * gy - qc * gx);
 1177              		.loc 1 134 22 view .LVU458
 1178 03c0 77EEE67A 		vsub.f32	s15, s15, s13
 134:Core/drogui/math/various/src/mahony.c **** 	m -> q3 += (qa * gz + qb * gy - qc * gx);
 1179              		.loc 1 134 35 view .LVU459
 1180 03c4 D4ED066A 		vldr.32	s13, [r4, #24]
 134:Core/drogui/math/various/src/mahony.c **** 	m -> q3 += (qa * gz + qb * gy - qc * gx);
 1181              		.loc 1 134 40 view .LVU460
ARM GAS  C:\Users\GUILLE~1\AppData\Local\Temp\ccOgD2AT.s 			page 33


 1182 03c8 66EE896A 		vmul.f32	s13, s13, s18
 134:Core/drogui/math/various/src/mahony.c **** 	m -> q3 += (qa * gz + qb * gy - qc * gx);
 1183              		.loc 1 134 32 view .LVU461
 1184 03cc 77EEA67A 		vadd.f32	s15, s15, s13
 134:Core/drogui/math/various/src/mahony.c **** 	m -> q3 += (qa * gz + qb * gy - qc * gx);
 1185              		.loc 1 134 10 view .LVU462
 1186 03d0 D4ED056A 		vldr.32	s13, [r4, #20]
 1187 03d4 76EEA77A 		vadd.f32	s15, s13, s15
 1188 03d8 C4ED057A 		vstr.32	s15, [r4, #20]
 135:Core/drogui/math/various/src/mahony.c **** 
 1189              		.loc 1 135 2 is_stmt 1 view .LVU463
 135:Core/drogui/math/various/src/mahony.c **** 
 1190              		.loc 1 135 10 is_stmt 0 view .LVU464
 1191 03dc D4ED067A 		vldr.32	s15, [r4, #24]
 135:Core/drogui/math/various/src/mahony.c **** 
 1192              		.loc 1 135 17 view .LVU465
 1193 03e0 2CEE01CA 		vmul.f32	s24, s24, s2
 1194              	.LVL118:
 135:Core/drogui/math/various/src/mahony.c **** 
 1195              		.loc 1 135 27 view .LVU466
 1196 03e4 69EE879A 		vmul.f32	s19, s19, s14
 1197              	.LVL119:
 135:Core/drogui/math/various/src/mahony.c **** 
 1198              		.loc 1 135 22 view .LVU467
 1199 03e8 3CEE29CA 		vadd.f32	s24, s24, s19
 135:Core/drogui/math/various/src/mahony.c **** 
 1200              		.loc 1 135 37 view .LVU468
 1201 03ec 29EE009A 		vmul.f32	s18, s18, s0
 1202              	.LVL120:
 135:Core/drogui/math/various/src/mahony.c **** 
 1203              		.loc 1 135 32 view .LVU469
 1204 03f0 3CEE49CA 		vsub.f32	s24, s24, s18
 135:Core/drogui/math/various/src/mahony.c **** 
 1205              		.loc 1 135 10 view .LVU470
 1206 03f4 37EE8CCA 		vadd.f32	s24, s15, s24
 1207 03f8 84ED06CA 		vstr.32	s24, [r4, #24]
 138:Core/drogui/math/various/src/mahony.c **** 	m->q0 *= recipNorm;
 1208              		.loc 1 138 2 is_stmt 1 view .LVU471
 138:Core/drogui/math/various/src/mahony.c **** 	m->q0 *= recipNorm;
 1209              		.loc 1 138 24 is_stmt 0 view .LVU472
 1210 03fc D4ED037A 		vldr.32	s15, [r4, #12]
 138:Core/drogui/math/various/src/mahony.c **** 	m->q0 *= recipNorm;
 1211              		.loc 1 138 34 view .LVU473
 1212 0400 94ED030A 		vldr.32	s0, [r4, #12]
 1213              	.LVL121:
 138:Core/drogui/math/various/src/mahony.c **** 	m->q0 *= recipNorm;
 1214              		.loc 1 138 30 view .LVU474
 1215 0404 67EE807A 		vmul.f32	s15, s15, s0
 138:Core/drogui/math/various/src/mahony.c **** 	m->q0 *= recipNorm;
 1216              		.loc 1 138 44 view .LVU475
 1217 0408 94ED040A 		vldr.32	s0, [r4, #16]
 138:Core/drogui/math/various/src/mahony.c **** 	m->q0 *= recipNorm;
 1218              		.loc 1 138 54 view .LVU476
 1219 040c 94ED047A 		vldr.32	s14, [r4, #16]
 1220              	.LVL122:
 138:Core/drogui/math/various/src/mahony.c **** 	m->q0 *= recipNorm;
 1221              		.loc 1 138 50 view .LVU477
ARM GAS  C:\Users\GUILLE~1\AppData\Local\Temp\ccOgD2AT.s 			page 34


 1222 0410 20EE070A 		vmul.f32	s0, s0, s14
 138:Core/drogui/math/various/src/mahony.c **** 	m->q0 *= recipNorm;
 1223              		.loc 1 138 40 view .LVU478
 1224 0414 77EE807A 		vadd.f32	s15, s15, s0
 138:Core/drogui/math/various/src/mahony.c **** 	m->q0 *= recipNorm;
 1225              		.loc 1 138 64 view .LVU479
 1226 0418 94ED050A 		vldr.32	s0, [r4, #20]
 138:Core/drogui/math/various/src/mahony.c **** 	m->q0 *= recipNorm;
 1227              		.loc 1 138 74 view .LVU480
 1228 041c 94ED057A 		vldr.32	s14, [r4, #20]
 138:Core/drogui/math/various/src/mahony.c **** 	m->q0 *= recipNorm;
 1229              		.loc 1 138 70 view .LVU481
 1230 0420 20EE070A 		vmul.f32	s0, s0, s14
 138:Core/drogui/math/various/src/mahony.c **** 	m->q0 *= recipNorm;
 1231              		.loc 1 138 60 view .LVU482
 1232 0424 77EE807A 		vadd.f32	s15, s15, s0
 138:Core/drogui/math/various/src/mahony.c **** 	m->q0 *= recipNorm;
 1233              		.loc 1 138 84 view .LVU483
 1234 0428 94ED060A 		vldr.32	s0, [r4, #24]
 138:Core/drogui/math/various/src/mahony.c **** 	m->q0 *= recipNorm;
 1235              		.loc 1 138 94 view .LVU484
 1236 042c 94ED067A 		vldr.32	s14, [r4, #24]
 138:Core/drogui/math/various/src/mahony.c **** 	m->q0 *= recipNorm;
 1237              		.loc 1 138 90 view .LVU485
 1238 0430 20EE070A 		vmul.f32	s0, s0, s14
 138:Core/drogui/math/various/src/mahony.c **** 	m->q0 *= recipNorm;
 1239              		.loc 1 138 14 view .LVU486
 1240 0434 37EE800A 		vadd.f32	s0, s15, s0
 1241 0438 FFF7FEFF 		bl	invSqrt
 1242              	.LVL123:
 139:Core/drogui/math/various/src/mahony.c **** 	m->q1 *= recipNorm;
 1243              		.loc 1 139 2 is_stmt 1 view .LVU487
 139:Core/drogui/math/various/src/mahony.c **** 	m->q1 *= recipNorm;
 1244              		.loc 1 139 8 is_stmt 0 view .LVU488
 1245 043c D4ED037A 		vldr.32	s15, [r4, #12]
 1246 0440 67EE807A 		vmul.f32	s15, s15, s0
 1247 0444 C4ED037A 		vstr.32	s15, [r4, #12]
 140:Core/drogui/math/various/src/mahony.c **** 	m->q2 *= recipNorm;
 1248              		.loc 1 140 2 is_stmt 1 view .LVU489
 140:Core/drogui/math/various/src/mahony.c **** 	m->q2 *= recipNorm;
 1249              		.loc 1 140 8 is_stmt 0 view .LVU490
 1250 0448 D4ED047A 		vldr.32	s15, [r4, #16]
 1251 044c 67EE807A 		vmul.f32	s15, s15, s0
 1252 0450 C4ED047A 		vstr.32	s15, [r4, #16]
 141:Core/drogui/math/various/src/mahony.c **** 	m->q3 *= recipNorm;
 1253              		.loc 1 141 2 is_stmt 1 view .LVU491
 141:Core/drogui/math/various/src/mahony.c **** 	m->q3 *= recipNorm;
 1254              		.loc 1 141 8 is_stmt 0 view .LVU492
 1255 0454 D4ED057A 		vldr.32	s15, [r4, #20]
 1256 0458 67EE807A 		vmul.f32	s15, s15, s0
 1257 045c C4ED057A 		vstr.32	s15, [r4, #20]
 142:Core/drogui/math/various/src/mahony.c **** }
 1258              		.loc 1 142 2 is_stmt 1 view .LVU493
 142:Core/drogui/math/various/src/mahony.c **** }
 1259              		.loc 1 142 8 is_stmt 0 view .LVU494
 1260 0460 D4ED067A 		vldr.32	s15, [r4, #24]
 1261 0464 27EE800A 		vmul.f32	s0, s15, s0
ARM GAS  C:\Users\GUILLE~1\AppData\Local\Temp\ccOgD2AT.s 			page 35


 1262              	.LVL124:
 142:Core/drogui/math/various/src/mahony.c **** }
 1263              		.loc 1 142 8 view .LVU495
 1264 0468 84ED060A 		vstr.32	s0, [r4, #24]
 1265              	.L14:
 143:Core/drogui/math/various/src/mahony.c **** 
 1266              		.loc 1 143 1 view .LVU496
 1267 046c 06B0     		add	sp, sp, #24
 1268              	.LCFI7:
 1269              		.cfi_remember_state
 1270              		.cfi_def_cfa_offset 72
 1271              		@ sp needed
 1272 046e BDEC108B 		vldm	sp!, {d8-d15}
 1273              	.LCFI8:
 1274              		.cfi_restore 94
 1275              		.cfi_restore 95
 1276              		.cfi_restore 92
 1277              		.cfi_restore 93
 1278              		.cfi_restore 90
 1279              		.cfi_restore 91
 1280              		.cfi_restore 88
 1281              		.cfi_restore 89
 1282              		.cfi_restore 86
 1283              		.cfi_restore 87
 1284              		.cfi_restore 84
 1285              		.cfi_restore 85
 1286              		.cfi_restore 82
 1287              		.cfi_restore 83
 1288              		.cfi_restore 80
 1289              		.cfi_restore 81
 1290              		.cfi_def_cfa_offset 8
 1291 0472 10BD     		pop	{r4, pc}
 1292              	.LVL125:
 1293              	.L16:
 1294              	.LCFI9:
 1295              		.cfi_restore_state
  54:Core/drogui/math/various/src/mahony.c **** 		return;
 1296              		.loc 1 54 3 is_stmt 1 view .LVU497
 1297 0474 F0EE6B2A 		vmov.f32	s5, s23
 1298              	.LVL126:
  54:Core/drogui/math/various/src/mahony.c **** 		return;
 1299              		.loc 1 54 3 is_stmt 0 view .LVU498
 1300 0478 B0EE6A2A 		vmov.f32	s4, s21
 1301              	.LVL127:
  54:Core/drogui/math/various/src/mahony.c **** 		return;
 1302              		.loc 1 54 3 view .LVU499
 1303 047c F0EE4B1A 		vmov.f32	s3, s22
 1304              	.LVL128:
  54:Core/drogui/math/various/src/mahony.c **** 		return;
 1305              		.loc 1 54 3 view .LVU500
 1306 0480 B0EE4C1A 		vmov.f32	s2, s24
 1307              	.LVL129:
  54:Core/drogui/math/various/src/mahony.c **** 		return;
 1308              		.loc 1 54 3 view .LVU501
 1309 0484 F0EE690A 		vmov.f32	s1, s19
 1310              	.LVL130:
  54:Core/drogui/math/various/src/mahony.c **** 		return;
ARM GAS  C:\Users\GUILLE~1\AppData\Local\Temp\ccOgD2AT.s 			page 36


 1311              		.loc 1 54 3 view .LVU502
 1312 0488 B0EE490A 		vmov.f32	s0, s18
 1313              	.LVL131:
  54:Core/drogui/math/various/src/mahony.c **** 		return;
 1314              		.loc 1 54 3 view .LVU503
 1315 048c 2046     		mov	r0, r4
 1316              	.LVL132:
  54:Core/drogui/math/various/src/mahony.c **** 		return;
 1317              		.loc 1 54 3 view .LVU504
 1318 048e FFF7FEFF 		bl	mahonyUpdateIMU
 1319              	.LVL133:
  55:Core/drogui/math/various/src/mahony.c **** 	}
 1320              		.loc 1 55 3 is_stmt 1 view .LVU505
 1321 0492 EBE7     		b	.L14
 1322              	.LVL134:
 1323              	.L25:
 114:Core/drogui/math/various/src/mahony.c **** 			(m->integralFBy) = 0.0f;
 1324              		.loc 1 114 4 view .LVU506
 114:Core/drogui/math/various/src/mahony.c **** 			(m->integralFBy) = 0.0f;
 1325              		.loc 1 114 21 is_stmt 0 view .LVU507
 1326 0494 0023     		movs	r3, #0
 1327 0496 E361     		str	r3, [r4, #28]	@ float
 115:Core/drogui/math/various/src/mahony.c **** 			(m->integralFBz) = 0.0f;
 1328              		.loc 1 115 4 is_stmt 1 view .LVU508
 115:Core/drogui/math/various/src/mahony.c **** 			(m->integralFBz) = 0.0f;
 1329              		.loc 1 115 21 is_stmt 0 view .LVU509
 1330 0498 2362     		str	r3, [r4, #32]	@ float
 116:Core/drogui/math/various/src/mahony.c **** 		}
 1331              		.loc 1 116 4 is_stmt 1 view .LVU510
 116:Core/drogui/math/various/src/mahony.c **** 		}
 1332              		.loc 1 116 21 is_stmt 0 view .LVU511
 1333 049a 6362     		str	r3, [r4, #36]	@ float
 1334 049c 40E7     		b	.L23
 1335              		.cfi_endproc
 1336              	.LFE247:
 1338              		.section	.text.getMahonyQuaternion,"ax",%progbits
 1339              		.align	1
 1340              		.global	getMahonyQuaternion
 1341              		.syntax unified
 1342              		.thumb
 1343              		.thumb_func
 1344              		.fpu fpv5-sp-d16
 1346              	getMahonyQuaternion:
 1347              	.LVL135:
 1348              	.LFB250:
 227:Core/drogui/math/various/src/mahony.c **** 
 228:Core/drogui/math/various/src/mahony.c **** void getMahonyQuaternion(mahony *m, float* quat){
 1349              		.loc 1 228 49 is_stmt 1 view -0
 1350              		.cfi_startproc
 1351              		@ args = 0, pretend = 0, frame = 0
 1352              		@ frame_needed = 0, uses_anonymous_args = 0
 1353              		@ link register save eliminated.
 229:Core/drogui/math/various/src/mahony.c **** 	quat[0] = (m->q0);
 1354              		.loc 1 229 2 view .LVU513
 1355              		.loc 1 229 14 is_stmt 0 view .LVU514
 1356 0000 C368     		ldr	r3, [r0, #12]	@ float
 1357              		.loc 1 229 10 view .LVU515
ARM GAS  C:\Users\GUILLE~1\AppData\Local\Temp\ccOgD2AT.s 			page 37


 1358 0002 0B60     		str	r3, [r1]	@ float
 230:Core/drogui/math/various/src/mahony.c **** 	quat[1] = (m->q1);
 1359              		.loc 1 230 2 is_stmt 1 view .LVU516
 1360              		.loc 1 230 14 is_stmt 0 view .LVU517
 1361 0004 0369     		ldr	r3, [r0, #16]	@ float
 1362              		.loc 1 230 10 view .LVU518
 1363 0006 4B60     		str	r3, [r1, #4]	@ float
 231:Core/drogui/math/various/src/mahony.c **** 	quat[2] = (m->q2);
 1364              		.loc 1 231 2 is_stmt 1 view .LVU519
 1365              		.loc 1 231 14 is_stmt 0 view .LVU520
 1366 0008 4369     		ldr	r3, [r0, #20]	@ float
 1367              		.loc 1 231 10 view .LVU521
 1368 000a 8B60     		str	r3, [r1, #8]	@ float
 232:Core/drogui/math/various/src/mahony.c **** 	quat[3] = (m->q3);
 1369              		.loc 1 232 2 is_stmt 1 view .LVU522
 1370              		.loc 1 232 14 is_stmt 0 view .LVU523
 1371 000c 8369     		ldr	r3, [r0, #24]	@ float
 1372              		.loc 1 232 10 view .LVU524
 1373 000e CB60     		str	r3, [r1, #12]	@ float
 233:Core/drogui/math/various/src/mahony.c **** }
 1374              		.loc 1 233 1 view .LVU525
 1375 0010 7047     		bx	lr
 1376              		.cfi_endproc
 1377              	.LFE250:
 1379              		.section	.text.getMahonyEuler,"ax",%progbits
 1380              		.align	1
 1381              		.global	getMahonyEuler
 1382              		.syntax unified
 1383              		.thumb
 1384              		.thumb_func
 1385              		.fpu fpv5-sp-d16
 1387              	getMahonyEuler:
 1388              	.LVL136:
 1389              	.LFB251:
 234:Core/drogui/math/various/src/mahony.c **** 
 235:Core/drogui/math/various/src/mahony.c **** 
 236:Core/drogui/math/various/src/mahony.c **** void getMahonyEuler(mahony *m, float* euler){
 1390              		.loc 1 236 45 is_stmt 1 view -0
 1391              		.cfi_startproc
 1392              		@ args = 0, pretend = 0, frame = 0
 1393              		@ frame_needed = 0, uses_anonymous_args = 0
 1394              		.loc 1 236 45 is_stmt 0 view .LVU527
 1395 0000 38B5     		push	{r3, r4, r5, lr}
 1396              	.LCFI10:
 1397              		.cfi_def_cfa_offset 16
 1398              		.cfi_offset 3, -16
 1399              		.cfi_offset 4, -12
 1400              		.cfi_offset 5, -8
 1401              		.cfi_offset 14, -4
 1402 0002 2DED048B 		vpush.64	{d8, d9}
 1403              	.LCFI11:
 1404              		.cfi_def_cfa_offset 32
 1405              		.cfi_offset 80, -32
 1406              		.cfi_offset 81, -28
 1407              		.cfi_offset 82, -24
 1408              		.cfi_offset 83, -20
 1409 0006 0446     		mov	r4, r0
ARM GAS  C:\Users\GUILLE~1\AppData\Local\Temp\ccOgD2AT.s 			page 38


 1410 0008 0D46     		mov	r5, r1
 237:Core/drogui/math/various/src/mahony.c **** 
 238:Core/drogui/math/various/src/mahony.c **** 	// roll (x-axis rotation)
 239:Core/drogui/math/various/src/mahony.c **** 	float sinr_cosp = 2 * ((m->q0) * (m->q1) + (m->q2) * (m->q3));
 1411              		.loc 1 239 2 is_stmt 1 view .LVU528
 1412              		.loc 1 239 27 is_stmt 0 view .LVU529
 1413 000a D0ED037A 		vldr.32	s15, [r0, #12]
 1414              		.loc 1 239 37 view .LVU530
 1415 000e 90ED047A 		vldr.32	s14, [r0, #16]
 1416              		.loc 1 239 33 view .LVU531
 1417 0012 67EE877A 		vmul.f32	s15, s15, s14
 1418              		.loc 1 239 47 view .LVU532
 1419 0016 90ED057A 		vldr.32	s14, [r0, #20]
 1420              		.loc 1 239 57 view .LVU533
 1421 001a D0ED066A 		vldr.32	s13, [r0, #24]
 1422              		.loc 1 239 53 view .LVU534
 1423 001e 27EE267A 		vmul.f32	s14, s14, s13
 1424              		.loc 1 239 43 view .LVU535
 1425 0022 77EE877A 		vadd.f32	s15, s15, s14
 1426              		.loc 1 239 8 view .LVU536
 1427 0026 37EEA78A 		vadd.f32	s16, s15, s15
 1428              	.LVL137:
 240:Core/drogui/math/various/src/mahony.c **** 	float cosr_cosp = 1 - 2 * ((m->q1) * (m->q1) + (m->q2) * (m->q2));
 1429              		.loc 1 240 2 is_stmt 1 view .LVU537
 1430              		.loc 1 240 31 is_stmt 0 view .LVU538
 1431 002a D0ED047A 		vldr.32	s15, [r0, #16]
 1432              		.loc 1 240 41 view .LVU539
 1433 002e 90ED047A 		vldr.32	s14, [r0, #16]
 1434              		.loc 1 240 37 view .LVU540
 1435 0032 67EE877A 		vmul.f32	s15, s15, s14
 1436              		.loc 1 240 51 view .LVU541
 1437 0036 90ED057A 		vldr.32	s14, [r0, #20]
 1438              		.loc 1 240 61 view .LVU542
 1439 003a D0ED056A 		vldr.32	s13, [r0, #20]
 1440              		.loc 1 240 57 view .LVU543
 1441 003e 27EE267A 		vmul.f32	s14, s14, s13
 1442              		.loc 1 240 47 view .LVU544
 1443 0042 77EE877A 		vadd.f32	s15, s15, s14
 1444              		.loc 1 240 26 view .LVU545
 1445 0046 77EEA77A 		vadd.f32	s15, s15, s15
 1446              		.loc 1 240 8 view .LVU546
 1447 004a F7EE008A 		vmov.f32	s17, #1.0e+0
 1448              	.LVL138:
 241:Core/drogui/math/various/src/mahony.c **** 	euler[0] = atan2(sinr_cosp, cosr_cosp);
 1449              		.loc 1 241 2 is_stmt 1 view .LVU547
 1450              		.loc 1 241 13 is_stmt 0 view .LVU548
 1451 004e 78EEE77A 		vsub.f32	s15, s17, s15
 1452              	.LVL139:
 1453              		.loc 1 241 13 view .LVU549
 1454 0052 17EE900A 		vmov	r0, s15
 1455              	.LVL140:
 1456              		.loc 1 241 13 view .LVU550
 1457 0056 FFF7FEFF 		bl	__aeabi_f2d
 1458              	.LVL141:
 1459              		.loc 1 241 13 view .LVU551
 1460 005a 41EC190B 		vmov	d9, r0, r1
 1461 005e 18EE100A 		vmov	r0, s16
ARM GAS  C:\Users\GUILLE~1\AppData\Local\Temp\ccOgD2AT.s 			page 39


 1462 0062 FFF7FEFF 		bl	__aeabi_f2d
 1463              	.LVL142:
 1464 0066 B0EE491A 		vmov.f32	s2, s18
 1465 006a F0EE691A 		vmov.f32	s3, s19
 1466 006e 41EC100B 		vmov	d0, r0, r1
 1467 0072 FFF7FEFF 		bl	atan2
 1468              	.LVL143:
 1469 0076 51EC100B 		vmov	r0, r1, d0
 1470 007a FFF7FEFF 		bl	__aeabi_d2f
 1471              	.LVL144:
 1472              		.loc 1 241 11 view .LVU552
 1473 007e 2860     		str	r0, [r5]	@ float
 242:Core/drogui/math/various/src/mahony.c **** 
 243:Core/drogui/math/various/src/mahony.c **** 	// pitch (y-axis rotation)
 244:Core/drogui/math/various/src/mahony.c **** 	float sinp = 2 * ((m->q0) * (m->q2) - (m->q3) * (m->q1));
 1474              		.loc 1 244 2 is_stmt 1 view .LVU553
 1475              		.loc 1 244 22 is_stmt 0 view .LVU554
 1476 0080 D4ED037A 		vldr.32	s15, [r4, #12]
 1477              		.loc 1 244 32 view .LVU555
 1478 0084 94ED057A 		vldr.32	s14, [r4, #20]
 1479              		.loc 1 244 28 view .LVU556
 1480 0088 67EE877A 		vmul.f32	s15, s15, s14
 1481              		.loc 1 244 42 view .LVU557
 1482 008c 94ED067A 		vldr.32	s14, [r4, #24]
 1483              		.loc 1 244 52 view .LVU558
 1484 0090 D4ED046A 		vldr.32	s13, [r4, #16]
 1485              		.loc 1 244 48 view .LVU559
 1486 0094 27EE267A 		vmul.f32	s14, s14, s13
 1487              		.loc 1 244 38 view .LVU560
 1488 0098 77EEC77A 		vsub.f32	s15, s15, s14
 1489              		.loc 1 244 8 view .LVU561
 1490 009c 77EEA77A 		vadd.f32	s15, s15, s15
 1491              	.LVL145:
 245:Core/drogui/math/various/src/mahony.c **** 	if (fabs(sinp) >= 1)
 1492              		.loc 1 245 2 is_stmt 1 view .LVU562
 1493              		.loc 1 245 6 is_stmt 0 view .LVU563
 1494 00a0 B0EEE77A 		vabs.f32	s14, s15
 1495              		.loc 1 245 5 view .LVU564
 1496 00a4 B4EEE87A 		vcmpe.f32	s14, s17
 1497 00a8 F1EE10FA 		vmrs	APSR_nzcv, FPSCR
 1498 00ac 46DB     		blt	.L37
 246:Core/drogui/math/various/src/mahony.c **** 		euler[1] = copysign(pi / 2, sinp); // use 90 degrees if out of range
 1499              		.loc 1 246 3 is_stmt 1 view .LVU565
 1500              		.loc 1 246 14 is_stmt 0 view .LVU566
 1501 00ae F5EEC07A 		vcmpe.f32	s15, #0
 1502 00b2 F1EE10FA 		vmrs	APSR_nzcv, FPSCR
 1503 00b6 3FD4     		bmi	.L40
 1504 00b8 274B     		ldr	r3, .L41
 1505              	.L31:
 1506              		.loc 1 246 12 discriminator 4 view .LVU567
 1507 00ba 6B60     		str	r3, [r5, #4]	@ float
 1508              	.LVL146:
 1509              	.L33:
 247:Core/drogui/math/various/src/mahony.c **** 	else
 248:Core/drogui/math/various/src/mahony.c **** 		euler[1] = asin(sinp);
 249:Core/drogui/math/various/src/mahony.c **** 
 250:Core/drogui/math/various/src/mahony.c **** 	// yaw (z-axis rotation)
ARM GAS  C:\Users\GUILLE~1\AppData\Local\Temp\ccOgD2AT.s 			page 40


 251:Core/drogui/math/various/src/mahony.c **** 	float siny_cosp = 2 * ((m->q0) * (m->q3) + (m->q1) * (m->q2));
 1510              		.loc 1 251 2 is_stmt 1 view .LVU568
 1511              		.loc 1 251 27 is_stmt 0 view .LVU569
 1512 00bc D4ED037A 		vldr.32	s15, [r4, #12]
 1513              		.loc 1 251 37 view .LVU570
 1514 00c0 94ED067A 		vldr.32	s14, [r4, #24]
 1515              		.loc 1 251 33 view .LVU571
 1516 00c4 67EE877A 		vmul.f32	s15, s15, s14
 1517              		.loc 1 251 47 view .LVU572
 1518 00c8 94ED047A 		vldr.32	s14, [r4, #16]
 1519              		.loc 1 251 57 view .LVU573
 1520 00cc D4ED056A 		vldr.32	s13, [r4, #20]
 1521              		.loc 1 251 53 view .LVU574
 1522 00d0 27EE267A 		vmul.f32	s14, s14, s13
 1523              		.loc 1 251 43 view .LVU575
 1524 00d4 77EE877A 		vadd.f32	s15, s15, s14
 1525              		.loc 1 251 8 view .LVU576
 1526 00d8 37EEA78A 		vadd.f32	s16, s15, s15
 1527              	.LVL147:
 252:Core/drogui/math/various/src/mahony.c **** 	float cosy_cosp = 1 - 2 * ((m->q2) * (m->q2) + (m->q3) * (m->q3));
 1528              		.loc 1 252 2 is_stmt 1 view .LVU577
 1529              		.loc 1 252 31 is_stmt 0 view .LVU578
 1530 00dc D4ED057A 		vldr.32	s15, [r4, #20]
 1531              		.loc 1 252 41 view .LVU579
 1532 00e0 94ED057A 		vldr.32	s14, [r4, #20]
 1533              		.loc 1 252 37 view .LVU580
 1534 00e4 67EE877A 		vmul.f32	s15, s15, s14
 1535              		.loc 1 252 51 view .LVU581
 1536 00e8 94ED067A 		vldr.32	s14, [r4, #24]
 1537              		.loc 1 252 61 view .LVU582
 1538 00ec D4ED066A 		vldr.32	s13, [r4, #24]
 1539              		.loc 1 252 57 view .LVU583
 1540 00f0 27EE267A 		vmul.f32	s14, s14, s13
 1541              		.loc 1 252 47 view .LVU584
 1542 00f4 77EE877A 		vadd.f32	s15, s15, s14
 1543              		.loc 1 252 26 view .LVU585
 1544 00f8 77EEA77A 		vadd.f32	s15, s15, s15
 1545              	.LVL148:
 253:Core/drogui/math/various/src/mahony.c **** 	euler[2] = atan2(siny_cosp, cosy_cosp);
 1546              		.loc 1 253 2 is_stmt 1 view .LVU586
 1547              		.loc 1 253 13 is_stmt 0 view .LVU587
 1548 00fc B7EE007A 		vmov.f32	s14, #1.0e+0
 1549 0100 77EE677A 		vsub.f32	s15, s14, s15
 1550              	.LVL149:
 1551              		.loc 1 253 13 view .LVU588
 1552 0104 17EE900A 		vmov	r0, s15
 1553 0108 FFF7FEFF 		bl	__aeabi_f2d
 1554              	.LVL150:
 1555              		.loc 1 253 13 view .LVU589
 1556 010c 41EC190B 		vmov	d9, r0, r1
 1557 0110 18EE100A 		vmov	r0, s16
 1558 0114 FFF7FEFF 		bl	__aeabi_f2d
 1559              	.LVL151:
 1560 0118 B0EE491A 		vmov.f32	s2, s18
 1561 011c F0EE691A 		vmov.f32	s3, s19
 1562 0120 41EC100B 		vmov	d0, r0, r1
 1563 0124 FFF7FEFF 		bl	atan2
ARM GAS  C:\Users\GUILLE~1\AppData\Local\Temp\ccOgD2AT.s 			page 41


 1564              	.LVL152:
 1565 0128 51EC100B 		vmov	r0, r1, d0
 1566 012c FFF7FEFF 		bl	__aeabi_d2f
 1567              	.LVL153:
 1568              		.loc 1 253 11 view .LVU590
 1569 0130 A860     		str	r0, [r5, #8]	@ float
 254:Core/drogui/math/various/src/mahony.c **** }
 1570              		.loc 1 254 1 view .LVU591
 1571 0132 BDEC048B 		vldm	sp!, {d8-d9}
 1572              	.LCFI12:
 1573              		.cfi_remember_state
 1574              		.cfi_restore 82
 1575              		.cfi_restore 83
 1576              		.cfi_restore 80
 1577              		.cfi_restore 81
 1578              		.cfi_def_cfa_offset 16
 1579              	.LVL154:
 1580              		.loc 1 254 1 view .LVU592
 1581 0136 38BD     		pop	{r3, r4, r5, pc}
 1582              	.LVL155:
 1583              	.L40:
 1584              	.LCFI13:
 1585              		.cfi_restore_state
 246:Core/drogui/math/various/src/mahony.c **** 	else
 1586              		.loc 1 246 14 view .LVU593
 1587 0138 084B     		ldr	r3, .L41+4
 1588 013a BEE7     		b	.L31
 1589              	.L37:
 248:Core/drogui/math/various/src/mahony.c **** 
 1590              		.loc 1 248 3 is_stmt 1 view .LVU594
 248:Core/drogui/math/various/src/mahony.c **** 
 1591              		.loc 1 248 14 is_stmt 0 view .LVU595
 1592 013c 17EE900A 		vmov	r0, s15
 1593 0140 FFF7FEFF 		bl	__aeabi_f2d
 1594              	.LVL156:
 248:Core/drogui/math/various/src/mahony.c **** 
 1595              		.loc 1 248 14 view .LVU596
 1596 0144 41EC100B 		vmov	d0, r0, r1
 1597 0148 FFF7FEFF 		bl	asin
 1598              	.LVL157:
 1599 014c 51EC100B 		vmov	r0, r1, d0
 1600 0150 FFF7FEFF 		bl	__aeabi_d2f
 1601              	.LVL158:
 248:Core/drogui/math/various/src/mahony.c **** 
 1602              		.loc 1 248 12 view .LVU597
 1603 0154 6860     		str	r0, [r5, #4]	@ float
 1604 0156 B1E7     		b	.L33
 1605              	.L42:
 1606              		.align	2
 1607              	.L41:
 1608 0158 DB0FC93F 		.word	1070141403
 1609 015c DB0FC9BF 		.word	-1077342245
 1610              		.cfi_endproc
 1611              	.LFE251:
 1613              		.text
 1614              	.Letext0:
 1615              		.file 2 "Core/drogui/math/various/include/mahony.h"
ARM GAS  C:\Users\GUILLE~1\AppData\Local\Temp\ccOgD2AT.s 			page 42


 1616              		.file 3 "c:\\program files (x86)\\gnu arm embedded toolchain\\10 2020-q4-major\\arm-none-eabi\\inc
ARM GAS  C:\Users\GUILLE~1\AppData\Local\Temp\ccOgD2AT.s 			page 43

