ARM GAS  C:\Users\GUILLE~1\AppData\Local\Temp\ccCbiiXg.s 			page 1


   1              		.cpu cortex-m7
   2              		.eabi_attribute 27, 1
   3              		.eabi_attribute 28, 1
   4              		.eabi_attribute 20, 1
   5              		.eabi_attribute 21, 1
   6              		.eabi_attribute 23, 3
   7              		.eabi_attribute 24, 1
   8              		.eabi_attribute 25, 1
   9              		.eabi_attribute 26, 1
  10              		.eabi_attribute 30, 1
  11              		.eabi_attribute 34, 1
  12              		.eabi_attribute 18, 4
  13              		.file	"opticalFlow.c"
  14              		.text
  15              	.Ltext0:
  16              		.cfi_sections	.debug_frame
  17              		.section	.text.crc8_dvb_s2,"ax",%progbits
  18              		.align	1
  19              		.global	crc8_dvb_s2
  20              		.arch armv7e-m
  21              		.syntax unified
  22              		.thumb
  23              		.thumb_func
  24              		.fpu fpv5-sp-d16
  26              	crc8_dvb_s2:
  27              	.LVL0:
  28              	.LFB246:
  29              		.file 1 "Core/drogui/sensor/optical/src/opticalFlow.c"
   1:Core/drogui/sensor/optical/src/opticalFlow.c **** #include "opticalFlow.h"
   2:Core/drogui/sensor/optical/src/opticalFlow.c **** #include "serial.h"
   3:Core/drogui/sensor/optical/src/opticalFlow.c **** #include "task.h"
   4:Core/drogui/sensor/optical/src/opticalFlow.c **** 
   5:Core/drogui/sensor/optical/src/opticalFlow.c **** uint8_t crc8_dvb_s2(uint8_t crc, uint8_t a){
  30              		.loc 1 5 44 view -0
  31              		.cfi_startproc
  32              		@ args = 0, pretend = 0, frame = 0
  33              		@ frame_needed = 0, uses_anonymous_args = 0
  34              		@ link register save eliminated.
   6:Core/drogui/sensor/optical/src/opticalFlow.c **** 	crc ^= a;
  35              		.loc 1 6 2 view .LVU1
  36              		.loc 1 6 6 is_stmt 0 view .LVU2
  37 0000 4840     		eors	r0, r0, r1
  38              	.LVL1:
   7:Core/drogui/sensor/optical/src/opticalFlow.c **** 	for (int ii = 0; ii < 8; ++ii) {
  39              		.loc 1 7 2 is_stmt 1 view .LVU3
  40              	.LBB2:
  41              		.loc 1 7 7 view .LVU4
  42              		.loc 1 7 11 is_stmt 0 view .LVU5
  43 0002 0023     		movs	r3, #0
  44              		.loc 1 7 2 view .LVU6
  45 0004 02E0     		b	.L2
  46              	.LVL2:
  47              	.L3:
   8:Core/drogui/sensor/optical/src/opticalFlow.c **** 		if (crc & 0x80) {
   9:Core/drogui/sensor/optical/src/opticalFlow.c **** 			crc = (crc << 1) ^ 0xD5;
  10:Core/drogui/sensor/optical/src/opticalFlow.c **** 		} else {
  11:Core/drogui/sensor/optical/src/opticalFlow.c **** 			crc = crc << 1;
ARM GAS  C:\Users\GUILLE~1\AppData\Local\Temp\ccCbiiXg.s 			page 2


  48              		.loc 1 11 4 is_stmt 1 view .LVU7
  49              		.loc 1 11 8 is_stmt 0 view .LVU8
  50 0006 4000     		lsls	r0, r0, #1
  51              	.LVL3:
  52              		.loc 1 11 8 view .LVU9
  53 0008 C0B2     		uxtb	r0, r0
  54              	.LVL4:
  55              	.L4:
   7:Core/drogui/sensor/optical/src/opticalFlow.c **** 	for (int ii = 0; ii < 8; ++ii) {
  56              		.loc 1 7 27 is_stmt 1 discriminator 2 view .LVU10
  57 000a 0133     		adds	r3, r3, #1
  58              	.LVL5:
  59              	.L2:
   7:Core/drogui/sensor/optical/src/opticalFlow.c **** 	for (int ii = 0; ii < 8; ++ii) {
  60              		.loc 1 7 19 discriminator 1 view .LVU11
   7:Core/drogui/sensor/optical/src/opticalFlow.c **** 	for (int ii = 0; ii < 8; ++ii) {
  61              		.loc 1 7 2 is_stmt 0 discriminator 1 view .LVU12
  62 000c 072B     		cmp	r3, #7
  63 000e 07DC     		bgt	.L6
   8:Core/drogui/sensor/optical/src/opticalFlow.c **** 		if (crc & 0x80) {
  64              		.loc 1 8 3 is_stmt 1 view .LVU13
   8:Core/drogui/sensor/optical/src/opticalFlow.c **** 		if (crc & 0x80) {
  65              		.loc 1 8 6 is_stmt 0 view .LVU14
  66 0010 10F0800F 		tst	r0, #128
  67 0014 F7D0     		beq	.L3
   9:Core/drogui/sensor/optical/src/opticalFlow.c **** 		} else {
  68              		.loc 1 9 4 is_stmt 1 view .LVU15
   9:Core/drogui/sensor/optical/src/opticalFlow.c **** 		} else {
  69              		.loc 1 9 15 is_stmt 0 view .LVU16
  70 0016 4000     		lsls	r0, r0, #1
  71              	.LVL6:
   9:Core/drogui/sensor/optical/src/opticalFlow.c **** 		} else {
  72              		.loc 1 9 21 view .LVU17
  73 0018 80F0D500 		eor	r0, r0, #213
   9:Core/drogui/sensor/optical/src/opticalFlow.c **** 		} else {
  74              		.loc 1 9 8 view .LVU18
  75 001c C0B2     		uxtb	r0, r0
  76              	.LVL7:
   9:Core/drogui/sensor/optical/src/opticalFlow.c **** 		} else {
  77              		.loc 1 9 8 view .LVU19
  78 001e F4E7     		b	.L4
  79              	.L6:
   9:Core/drogui/sensor/optical/src/opticalFlow.c **** 		} else {
  80              		.loc 1 9 8 view .LVU20
  81              	.LBE2:
  12:Core/drogui/sensor/optical/src/opticalFlow.c **** 		}
  13:Core/drogui/sensor/optical/src/opticalFlow.c **** 	}
  14:Core/drogui/sensor/optical/src/opticalFlow.c **** 	return crc;
  82              		.loc 1 14 2 is_stmt 1 view .LVU21
  15:Core/drogui/sensor/optical/src/opticalFlow.c **** }
  83              		.loc 1 15 1 is_stmt 0 view .LVU22
  84 0020 7047     		bx	lr
  85              		.cfi_endproc
  86              	.LFE246:
  88              		.section	.text.crc8_func,"ax",%progbits
  89              		.align	1
  90              		.global	crc8_func
ARM GAS  C:\Users\GUILLE~1\AppData\Local\Temp\ccCbiiXg.s 			page 3


  91              		.syntax unified
  92              		.thumb
  93              		.thumb_func
  94              		.fpu fpv5-sp-d16
  96              	crc8_func:
  97              	.LVL8:
  98              	.LFB247:
  16:Core/drogui/sensor/optical/src/opticalFlow.c **** 
  17:Core/drogui/sensor/optical/src/opticalFlow.c **** uint8_t crc8_func(int len, uint8_t* msg){
  99              		.loc 1 17 41 is_stmt 1 view -0
 100              		.cfi_startproc
 101              		@ args = 0, pretend = 0, frame = 0
 102              		@ frame_needed = 0, uses_anonymous_args = 0
 103              		.loc 1 17 41 is_stmt 0 view .LVU24
 104 0000 70B5     		push	{r4, r5, r6, lr}
 105              	.LCFI0:
 106              		.cfi_def_cfa_offset 16
 107              		.cfi_offset 4, -16
 108              		.cfi_offset 5, -12
 109              		.cfi_offset 6, -8
 110              		.cfi_offset 14, -4
 111 0002 0546     		mov	r5, r0
 112 0004 0E46     		mov	r6, r1
  18:Core/drogui/sensor/optical/src/opticalFlow.c **** 	uint8_t crc8 = 0;
 113              		.loc 1 18 2 is_stmt 1 view .LVU25
 114              	.LVL9:
  19:Core/drogui/sensor/optical/src/opticalFlow.c **** 	for(int i = 0; i < len; i++){
 115              		.loc 1 19 2 view .LVU26
 116              	.LBB3:
 117              		.loc 1 19 6 view .LVU27
 118              		.loc 1 19 10 is_stmt 0 view .LVU28
 119 0006 0024     		movs	r4, #0
 120              	.LBE3:
  18:Core/drogui/sensor/optical/src/opticalFlow.c **** 	uint8_t crc8 = 0;
 121              		.loc 1 18 10 view .LVU29
 122 0008 2046     		mov	r0, r4
 123              	.LVL10:
 124              	.LBB4:
 125              		.loc 1 19 2 view .LVU30
 126 000a 03E0     		b	.L8
 127              	.LVL11:
 128              	.L9:
  20:Core/drogui/sensor/optical/src/opticalFlow.c **** 		crc8 = crc8_dvb_s2(crc8, msg[i]);
 129              		.loc 1 20 3 is_stmt 1 discriminator 3 view .LVU31
 130              		.loc 1 20 10 is_stmt 0 discriminator 3 view .LVU32
 131 000c 315D     		ldrb	r1, [r6, r4]	@ zero_extendqisi2
 132 000e FFF7FEFF 		bl	crc8_dvb_s2
 133              	.LVL12:
  19:Core/drogui/sensor/optical/src/opticalFlow.c **** 	for(int i = 0; i < len; i++){
 134              		.loc 1 19 26 is_stmt 1 discriminator 3 view .LVU33
  19:Core/drogui/sensor/optical/src/opticalFlow.c **** 	for(int i = 0; i < len; i++){
 135              		.loc 1 19 27 is_stmt 0 discriminator 3 view .LVU34
 136 0012 0134     		adds	r4, r4, #1
 137              	.LVL13:
 138              	.L8:
  19:Core/drogui/sensor/optical/src/opticalFlow.c **** 	for(int i = 0; i < len; i++){
 139              		.loc 1 19 17 is_stmt 1 discriminator 1 view .LVU35
ARM GAS  C:\Users\GUILLE~1\AppData\Local\Temp\ccCbiiXg.s 			page 4


  19:Core/drogui/sensor/optical/src/opticalFlow.c **** 	for(int i = 0; i < len; i++){
 140              		.loc 1 19 2 is_stmt 0 discriminator 1 view .LVU36
 141 0014 AC42     		cmp	r4, r5
 142 0016 F9DB     		blt	.L9
 143              	.LBE4:
  21:Core/drogui/sensor/optical/src/opticalFlow.c **** 	}
  22:Core/drogui/sensor/optical/src/opticalFlow.c **** 	return crc8;
 144              		.loc 1 22 2 is_stmt 1 view .LVU37
  23:Core/drogui/sensor/optical/src/opticalFlow.c **** }
 145              		.loc 1 23 1 is_stmt 0 view .LVU38
 146 0018 70BD     		pop	{r4, r5, r6, pc}
 147              		.loc 1 23 1 view .LVU39
 148              		.cfi_endproc
 149              	.LFE247:
 151              		.section	.text.calcChecksum,"ax",%progbits
 152              		.align	1
 153              		.syntax unified
 154              		.thumb
 155              		.thumb_func
 156              		.fpu fpv5-sp-d16
 158              	calcChecksum:
 159              	.LVL14:
 160              	.LFB248:
  24:Core/drogui/sensor/optical/src/opticalFlow.c **** 
  25:Core/drogui/sensor/optical/src/opticalFlow.c **** 
  26:Core/drogui/sensor/optical/src/opticalFlow.c **** static void calcChecksum(optPacket *msg){
 161              		.loc 1 26 41 is_stmt 1 view -0
 162              		.cfi_startproc
 163              		@ args = 0, pretend = 0, frame = 0
 164              		@ frame_needed = 0, uses_anonymous_args = 0
 165              		.loc 1 26 41 is_stmt 0 view .LVU41
 166 0000 10B5     		push	{r4, lr}
 167              	.LCFI1:
 168              		.cfi_def_cfa_offset 8
 169              		.cfi_offset 4, -8
 170              		.cfi_offset 14, -4
 171 0002 0446     		mov	r4, r0
  27:Core/drogui/sensor/optical/src/opticalFlow.c **** 	msg -> chksum = crc8_func((msg -> sz)+5, msg -> chksumBuff);
 172              		.loc 1 27 2 is_stmt 1 view .LVU42
 173              		.loc 1 27 33 is_stmt 0 view .LVU43
 174 0004 B0F90200 		ldrsh	r0, [r0, #2]
 175              	.LVL15:
 176              		.loc 1 27 18 view .LVU44
 177 0008 04F16801 		add	r1, r4, #104
 178 000c 0530     		adds	r0, r0, #5
 179 000e FFF7FEFF 		bl	crc8_func
 180              	.LVL16:
 181              		.loc 1 27 16 view .LVU45
 182 0012 84F8CC00 		strb	r0, [r4, #204]
  28:Core/drogui/sensor/optical/src/opticalFlow.c **** }
 183              		.loc 1 28 1 view .LVU46
 184 0016 10BD     		pop	{r4, pc}
 185              		.loc 1 28 1 view .LVU47
 186              		.cfi_endproc
 187              	.LFE248:
 189              		.section	.text.initOptFlow,"ax",%progbits
 190              		.align	1
ARM GAS  C:\Users\GUILLE~1\AppData\Local\Temp\ccCbiiXg.s 			page 5


 191              		.global	initOptFlow
 192              		.syntax unified
 193              		.thumb
 194              		.thumb_func
 195              		.fpu fpv5-sp-d16
 197              	initOptFlow:
 198              	.LVL17:
 199              	.LFB249:
  29:Core/drogui/sensor/optical/src/opticalFlow.c **** 
  30:Core/drogui/sensor/optical/src/opticalFlow.c **** 
  31:Core/drogui/sensor/optical/src/opticalFlow.c **** 
  32:Core/drogui/sensor/optical/src/opticalFlow.c **** void initOptFlow(optFlow *of, serial* ser){
 200              		.loc 1 32 43 is_stmt 1 view -0
 201              		.cfi_startproc
 202              		@ args = 0, pretend = 0, frame = 0
 203              		@ frame_needed = 0, uses_anonymous_args = 0
 204              		.loc 1 32 43 is_stmt 0 view .LVU49
 205 0000 38B5     		push	{r3, r4, r5, lr}
 206              	.LCFI2:
 207              		.cfi_def_cfa_offset 16
 208              		.cfi_offset 3, -16
 209              		.cfi_offset 4, -12
 210              		.cfi_offset 5, -8
 211              		.cfi_offset 14, -4
 212 0002 0446     		mov	r4, r0
 213 0004 0D46     		mov	r5, r1
  33:Core/drogui/sensor/optical/src/opticalFlow.c **** 	changeBaudrate(ser, 115200);
 214              		.loc 1 33 2 is_stmt 1 view .LVU50
 215 0006 4FF4E131 		mov	r1, #115200
 216              	.LVL18:
 217              		.loc 1 33 2 is_stmt 0 view .LVU51
 218 000a 2846     		mov	r0, r5
 219              	.LVL19:
 220              		.loc 1 33 2 view .LVU52
 221 000c FFF7FEFF 		bl	changeBaudrate
 222              	.LVL20:
  34:Core/drogui/sensor/optical/src/opticalFlow.c **** 	of->off_x = 0;
 223              		.loc 1 34 2 is_stmt 1 view .LVU53
 224              		.loc 1 34 12 is_stmt 0 view .LVU54
 225 0010 0023     		movs	r3, #0
 226 0012 C4F8E030 		str	r3, [r4, #224]
  35:Core/drogui/sensor/optical/src/opticalFlow.c **** 	of->off_y = 0;
 227              		.loc 1 35 2 is_stmt 1 view .LVU55
 228              		.loc 1 35 12 is_stmt 0 view .LVU56
 229 0016 C4F8E430 		str	r3, [r4, #228]
  36:Core/drogui/sensor/optical/src/opticalFlow.c **** 	of->vel_x = 0;
 230              		.loc 1 36 2 is_stmt 1 view .LVU57
 231              		.loc 1 36 12 is_stmt 0 view .LVU58
 232 001a C4F8D830 		str	r3, [r4, #216]
  37:Core/drogui/sensor/optical/src/opticalFlow.c **** 	of->vel_y = 0;
 233              		.loc 1 37 2 is_stmt 1 view .LVU59
 234              		.loc 1 37 12 is_stmt 0 view .LVU60
 235 001e C4F8DC30 		str	r3, [r4, #220]
  38:Core/drogui/sensor/optical/src/opticalFlow.c **** 	of->dis   = 0;
 236              		.loc 1 38 2 is_stmt 1 view .LVU61
 237              		.loc 1 38 12 is_stmt 0 view .LVU62
 238 0022 C4F8E830 		str	r3, [r4, #232]
ARM GAS  C:\Users\GUILLE~1\AppData\Local\Temp\ccCbiiXg.s 			page 6


  39:Core/drogui/sensor/optical/src/opticalFlow.c **** 	of->rcv_pack.ser = ser;
 239              		.loc 1 39 2 is_stmt 1 view .LVU63
 240              		.loc 1 39 19 is_stmt 0 view .LVU64
 241 0026 C4F8D050 		str	r5, [r4, #208]
  40:Core/drogui/sensor/optical/src/opticalFlow.c **** 	of->last_tim = TIME;
 242              		.loc 1 40 2 is_stmt 1 view .LVU65
 243              		.loc 1 40 17 is_stmt 0 view .LVU66
 244 002a 044B     		ldr	r3, .L15
 245 002c 1B68     		ldr	r3, [r3]
 246 002e 5B6A     		ldr	r3, [r3, #36]
 247              		.loc 1 40 15 view .LVU67
 248 0030 C4F8EC30 		str	r3, [r4, #236]
  41:Core/drogui/sensor/optical/src/opticalFlow.c **** 	of->threshold = 1000000;
 249              		.loc 1 41 2 is_stmt 1 view .LVU68
 250              		.loc 1 41 16 is_stmt 0 view .LVU69
 251 0034 024B     		ldr	r3, .L15+4
 252 0036 C4F8F030 		str	r3, [r4, #240]
  42:Core/drogui/sensor/optical/src/opticalFlow.c **** }
 253              		.loc 1 42 1 view .LVU70
 254 003a 38BD     		pop	{r3, r4, r5, pc}
 255              	.LVL21:
 256              	.L16:
 257              		.loc 1 42 1 view .LVU71
 258              		.align	2
 259              	.L15:
 260 003c 00000000 		.word	htim5
 261 0040 40420F00 		.word	1000000
 262              		.cfi_endproc
 263              	.LFE249:
 265              		.section	.text.readOptFlow,"ax",%progbits
 266              		.align	1
 267              		.global	readOptFlow
 268              		.syntax unified
 269              		.thumb
 270              		.thumb_func
 271              		.fpu fpv5-sp-d16
 273              	readOptFlow:
 274              	.LVL22:
 275              	.LFB250:
  43:Core/drogui/sensor/optical/src/opticalFlow.c **** 
  44:Core/drogui/sensor/optical/src/opticalFlow.c **** 
  45:Core/drogui/sensor/optical/src/opticalFlow.c **** 
  46:Core/drogui/sensor/optical/src/opticalFlow.c **** 
  47:Core/drogui/sensor/optical/src/opticalFlow.c **** SENSOR_STATUS readOptFlow(optPacket *op, uint32_t timeout){
 276              		.loc 1 47 59 is_stmt 1 view -0
 277              		.cfi_startproc
 278              		@ args = 0, pretend = 0, frame = 0
 279              		@ frame_needed = 0, uses_anonymous_args = 0
 280              		.loc 1 47 59 is_stmt 0 view .LVU73
 281 0000 2DE9F843 		push	{r3, r4, r5, r6, r7, r8, r9, lr}
 282              	.LCFI3:
 283              		.cfi_def_cfa_offset 32
 284              		.cfi_offset 3, -32
 285              		.cfi_offset 4, -28
 286              		.cfi_offset 5, -24
 287              		.cfi_offset 6, -20
 288              		.cfi_offset 7, -16
ARM GAS  C:\Users\GUILLE~1\AppData\Local\Temp\ccCbiiXg.s 			page 7


 289              		.cfi_offset 8, -12
 290              		.cfi_offset 9, -8
 291              		.cfi_offset 14, -4
 292 0004 0446     		mov	r4, r0
 293 0006 0F46     		mov	r7, r1
 294 0008 4FF00009 		mov	r9, #0
  48:Core/drogui/sensor/optical/src/opticalFlow.c **** 	uint8_t sync1 = 0, sync2 = 0;
 295              		.loc 1 48 2 is_stmt 1 view .LVU74
 296              	.LVL23:
  49:Core/drogui/sensor/optical/src/opticalFlow.c **** 	uint8_t cntLSB, cntMSB;
 297              		.loc 1 49 2 view .LVU75
  50:Core/drogui/sensor/optical/src/opticalFlow.c **** 	uint8_t idMSB, idLSB;
 298              		.loc 1 50 2 view .LVU76
  51:Core/drogui/sensor/optical/src/opticalFlow.c **** 	uint8_t checksum, flag = 0;
 299              		.loc 1 51 2 view .LVU77
  52:Core/drogui/sensor/optical/src/opticalFlow.c **** 	uint32_t tim = TIME;
 300              		.loc 1 52 2 view .LVU78
 301              		.loc 1 52 17 is_stmt 0 view .LVU79
 302 000c 524B     		ldr	r3, .L37
 303 000e 1B68     		ldr	r3, [r3]
 304              		.loc 1 52 11 view .LVU80
 305 0010 D3F82480 		ldr	r8, [r3, #36]
 306              	.LVL24:
  53:Core/drogui/sensor/optical/src/opticalFlow.c **** 
  54:Core/drogui/sensor/optical/src/opticalFlow.c **** 	while(TIME - tim < timeout){
 307              		.loc 1 54 2 is_stmt 1 view .LVU81
  48:Core/drogui/sensor/optical/src/opticalFlow.c **** 	uint8_t cntLSB, cntMSB;
 308              		.loc 1 48 21 is_stmt 0 view .LVU82
 309 0014 4D46     		mov	r5, r9
  48:Core/drogui/sensor/optical/src/opticalFlow.c **** 	uint8_t cntLSB, cntMSB;
 310              		.loc 1 48 10 view .LVU83
 311 0016 4E46     		mov	r6, r9
 312              		.loc 1 54 7 view .LVU84
 313 0018 03E0     		b	.L18
 314              	.LVL25:
 315              	.L19:
  55:Core/drogui/sensor/optical/src/opticalFlow.c **** 		if(serialAvailable(op->ser)){
  56:Core/drogui/sensor/optical/src/opticalFlow.c **** 			sync1 = sync2;
  57:Core/drogui/sensor/optical/src/opticalFlow.c **** 			sync2 = serialRead(op->ser);
  58:Core/drogui/sensor/optical/src/opticalFlow.c **** 		}
  59:Core/drogui/sensor/optical/src/opticalFlow.c **** 
  60:Core/drogui/sensor/optical/src/opticalFlow.c **** 		if(sync1 == OPT_SYNCH_1 && sync2 == OPT_SYNCH_2){
 316              		.loc 1 60 3 is_stmt 1 view .LVU85
 317              		.loc 1 60 5 is_stmt 0 view .LVU86
 318 001a 242E     		cmp	r6, #36
 319 001c 08BF     		it	eq
 320 001e 582D     		cmpeq	r5, #88
 321 0020 14D0     		beq	.L20
 322              	.LVL26:
 323              	.L18:
  54:Core/drogui/sensor/optical/src/opticalFlow.c **** 		if(serialAvailable(op->ser)){
 324              		.loc 1 54 7 is_stmt 1 view .LVU87
  54:Core/drogui/sensor/optical/src/opticalFlow.c **** 		if(serialAvailable(op->ser)){
 325              		.loc 1 54 8 is_stmt 0 view .LVU88
 326 0022 4D4B     		ldr	r3, .L37
 327 0024 1B68     		ldr	r3, [r3]
 328 0026 5B6A     		ldr	r3, [r3, #36]
ARM GAS  C:\Users\GUILLE~1\AppData\Local\Temp\ccCbiiXg.s 			page 8


  54:Core/drogui/sensor/optical/src/opticalFlow.c **** 		if(serialAvailable(op->ser)){
 329              		.loc 1 54 13 view .LVU89
 330 0028 A3EB0803 		sub	r3, r3, r8
  54:Core/drogui/sensor/optical/src/opticalFlow.c **** 		if(serialAvailable(op->ser)){
 331              		.loc 1 54 7 view .LVU90
 332 002c BB42     		cmp	r3, r7
 333 002e 80F08680 		bcs	.L35
  55:Core/drogui/sensor/optical/src/opticalFlow.c **** 		if(serialAvailable(op->ser)){
 334              		.loc 1 55 3 is_stmt 1 view .LVU91
  55:Core/drogui/sensor/optical/src/opticalFlow.c **** 		if(serialAvailable(op->ser)){
 335              		.loc 1 55 6 is_stmt 0 view .LVU92
 336 0032 D4F8D000 		ldr	r0, [r4, #208]
 337 0036 FFF7FEFF 		bl	serialAvailable
 338              	.LVL27:
  55:Core/drogui/sensor/optical/src/opticalFlow.c **** 		if(serialAvailable(op->ser)){
 339              		.loc 1 55 5 view .LVU93
 340 003a 0028     		cmp	r0, #0
 341 003c EDD0     		beq	.L19
  56:Core/drogui/sensor/optical/src/opticalFlow.c **** 			sync2 = serialRead(op->ser);
 342              		.loc 1 56 4 is_stmt 1 view .LVU94
 343              	.LVL28:
  57:Core/drogui/sensor/optical/src/opticalFlow.c **** 		}
 344              		.loc 1 57 4 view .LVU95
  57:Core/drogui/sensor/optical/src/opticalFlow.c **** 		}
 345              		.loc 1 57 12 is_stmt 0 view .LVU96
 346 003e D4F8D000 		ldr	r0, [r4, #208]
 347 0042 FFF7FEFF 		bl	serialRead
 348              	.LVL29:
  56:Core/drogui/sensor/optical/src/opticalFlow.c **** 			sync2 = serialRead(op->ser);
 349              		.loc 1 56 10 view .LVU97
 350 0046 2E46     		mov	r6, r5
  57:Core/drogui/sensor/optical/src/opticalFlow.c **** 		}
 351              		.loc 1 57 12 view .LVU98
 352 0048 0546     		mov	r5, r0
 353              	.LVL30:
  57:Core/drogui/sensor/optical/src/opticalFlow.c **** 		}
 354              		.loc 1 57 12 view .LVU99
 355 004a E6E7     		b	.L19
 356              	.LVL31:
 357              	.L20:
  61:Core/drogui/sensor/optical/src/opticalFlow.c **** 
  62:Core/drogui/sensor/optical/src/opticalFlow.c **** 			while(!serialAvailable(op->ser)){};
 358              		.loc 1 62 37 is_stmt 1 discriminator 1 view .LVU100
 359              		.loc 1 62 9 discriminator 1 view .LVU101
 360              		.loc 1 62 11 is_stmt 0 discriminator 1 view .LVU102
 361 004c D4F8D000 		ldr	r0, [r4, #208]
 362 0050 FFF7FEFF 		bl	serialAvailable
 363              	.LVL32:
 364              		.loc 1 62 9 discriminator 1 view .LVU103
 365 0054 0028     		cmp	r0, #0
 366 0056 F9D0     		beq	.L20
 367              		.loc 1 62 38 is_stmt 1 discriminator 2 view .LVU104
  63:Core/drogui/sensor/optical/src/opticalFlow.c **** 			op->dir = serialRead(op->ser);
 368              		.loc 1 63 4 discriminator 2 view .LVU105
 369              		.loc 1 63 14 is_stmt 0 discriminator 2 view .LVU106
 370 0058 D4F8D000 		ldr	r0, [r4, #208]
 371 005c FFF7FEFF 		bl	serialRead
ARM GAS  C:\Users\GUILLE~1\AppData\Local\Temp\ccCbiiXg.s 			page 9


 372              	.LVL33:
 373              		.loc 1 63 12 discriminator 2 view .LVU107
 374 0060 84F8CD00 		strb	r0, [r4, #205]
  64:Core/drogui/sensor/optical/src/opticalFlow.c **** 
  65:Core/drogui/sensor/optical/src/opticalFlow.c **** 			while(!serialAvailable(op->ser)){};
 375              		.loc 1 65 4 is_stmt 1 discriminator 2 view .LVU108
 376              	.L21:
 377              		.loc 1 65 37 discriminator 1 view .LVU109
 378              		.loc 1 65 9 discriminator 1 view .LVU110
 379              		.loc 1 65 11 is_stmt 0 discriminator 1 view .LVU111
 380 0064 D4F8D000 		ldr	r0, [r4, #208]
 381 0068 FFF7FEFF 		bl	serialAvailable
 382              	.LVL34:
 383              		.loc 1 65 9 discriminator 1 view .LVU112
 384 006c 0028     		cmp	r0, #0
 385 006e F9D0     		beq	.L21
 386              		.loc 1 65 38 is_stmt 1 discriminator 2 view .LVU113
  66:Core/drogui/sensor/optical/src/opticalFlow.c **** 			op->chksumBuff[0] = op->flag = serialRead(op->ser);
 387              		.loc 1 66 4 discriminator 2 view .LVU114
 388              		.loc 1 66 35 is_stmt 0 discriminator 2 view .LVU115
 389 0070 D4F8D000 		ldr	r0, [r4, #208]
 390 0074 FFF7FEFF 		bl	serialRead
 391              	.LVL35:
 392              		.loc 1 66 33 discriminator 2 view .LVU116
 393 0078 84F8CE00 		strb	r0, [r4, #206]
 394              		.loc 1 66 22 discriminator 2 view .LVU117
 395 007c 84F86800 		strb	r0, [r4, #104]
  67:Core/drogui/sensor/optical/src/opticalFlow.c **** 
  68:Core/drogui/sensor/optical/src/opticalFlow.c **** 			while(!serialAvailable(op->ser)){};
 396              		.loc 1 68 4 is_stmt 1 discriminator 2 view .LVU118
 397              	.L22:
 398              		.loc 1 68 37 discriminator 1 view .LVU119
 399              		.loc 1 68 9 discriminator 1 view .LVU120
 400              		.loc 1 68 11 is_stmt 0 discriminator 1 view .LVU121
 401 0080 D4F8D000 		ldr	r0, [r4, #208]
 402 0084 FFF7FEFF 		bl	serialAvailable
 403              	.LVL36:
 404              		.loc 1 68 9 discriminator 1 view .LVU122
 405 0088 0028     		cmp	r0, #0
 406 008a F9D0     		beq	.L22
 407              		.loc 1 68 38 is_stmt 1 discriminator 2 view .LVU123
  69:Core/drogui/sensor/optical/src/opticalFlow.c **** 			op->chksumBuff[1] = idLSB = serialRead(op->ser);
 408              		.loc 1 69 4 discriminator 2 view .LVU124
 409              		.loc 1 69 32 is_stmt 0 discriminator 2 view .LVU125
 410 008c D4F8D000 		ldr	r0, [r4, #208]
 411 0090 FFF7FEFF 		bl	serialRead
 412              	.LVL37:
 413 0094 0546     		mov	r5, r0
 414              	.LVL38:
 415              		.loc 1 69 22 discriminator 2 view .LVU126
 416 0096 84F86900 		strb	r0, [r4, #105]
  70:Core/drogui/sensor/optical/src/opticalFlow.c **** 			while(!serialAvailable(op->ser)){};
 417              		.loc 1 70 4 is_stmt 1 discriminator 2 view .LVU127
 418              	.LVL39:
 419              	.L23:
 420              		.loc 1 70 37 discriminator 1 view .LVU128
 421              		.loc 1 70 9 discriminator 1 view .LVU129
ARM GAS  C:\Users\GUILLE~1\AppData\Local\Temp\ccCbiiXg.s 			page 10


 422              		.loc 1 70 11 is_stmt 0 discriminator 1 view .LVU130
 423 009a D4F8D000 		ldr	r0, [r4, #208]
 424 009e FFF7FEFF 		bl	serialAvailable
 425              	.LVL40:
 426              		.loc 1 70 9 discriminator 1 view .LVU131
 427 00a2 0028     		cmp	r0, #0
 428 00a4 F9D0     		beq	.L23
 429              		.loc 1 70 38 is_stmt 1 discriminator 2 view .LVU132
  71:Core/drogui/sensor/optical/src/opticalFlow.c **** 			op->chksumBuff[2] = idMSB = serialRead(op->ser);
 430              		.loc 1 71 4 discriminator 2 view .LVU133
 431              		.loc 1 71 32 is_stmt 0 discriminator 2 view .LVU134
 432 00a6 D4F8D000 		ldr	r0, [r4, #208]
 433 00aa FFF7FEFF 		bl	serialRead
 434              	.LVL41:
 435              		.loc 1 71 22 discriminator 2 view .LVU135
 436 00ae 84F86A00 		strb	r0, [r4, #106]
  72:Core/drogui/sensor/optical/src/opticalFlow.c **** 
  73:Core/drogui/sensor/optical/src/opticalFlow.c **** 			op->type = (uint16_t) (idMSB << 8) | (idLSB & 0xFF);
 437              		.loc 1 73 4 is_stmt 1 discriminator 2 view .LVU136
 438              		.loc 1 73 39 is_stmt 0 discriminator 2 view .LVU137
 439 00b2 45EA0025 		orr	r5, r5, r0, lsl #8
 440              		.loc 1 73 13 discriminator 2 view .LVU138
 441 00b6 2580     		strh	r5, [r4]	@ movhi
  74:Core/drogui/sensor/optical/src/opticalFlow.c **** 
  75:Core/drogui/sensor/optical/src/opticalFlow.c **** 			while(!serialAvailable(op->ser));
 442              		.loc 1 75 4 is_stmt 1 discriminator 2 view .LVU139
 443              	.LVL42:
 444              	.L24:
 445              		.loc 1 75 36 discriminator 1 view .LVU140
 446              		.loc 1 75 9 discriminator 1 view .LVU141
 447              		.loc 1 75 11 is_stmt 0 discriminator 1 view .LVU142
 448 00b8 D4F8D000 		ldr	r0, [r4, #208]
 449 00bc FFF7FEFF 		bl	serialAvailable
 450              	.LVL43:
 451              		.loc 1 75 9 discriminator 1 view .LVU143
 452 00c0 0028     		cmp	r0, #0
 453 00c2 F9D0     		beq	.L24
  76:Core/drogui/sensor/optical/src/opticalFlow.c **** 			op->chksumBuff[3] = cntLSB = serialRead(op->ser);
 454              		.loc 1 76 4 is_stmt 1 view .LVU144
 455              		.loc 1 76 33 is_stmt 0 view .LVU145
 456 00c4 D4F8D000 		ldr	r0, [r4, #208]
 457 00c8 FFF7FEFF 		bl	serialRead
 458              	.LVL44:
 459 00cc 0546     		mov	r5, r0
 460              	.LVL45:
 461              		.loc 1 76 22 view .LVU146
 462 00ce 84F86B00 		strb	r0, [r4, #107]
  77:Core/drogui/sensor/optical/src/opticalFlow.c **** 			while(!serialAvailable(op->ser));
 463              		.loc 1 77 4 is_stmt 1 view .LVU147
 464              	.LVL46:
 465              	.L25:
 466              		.loc 1 77 36 discriminator 1 view .LVU148
 467              		.loc 1 77 9 discriminator 1 view .LVU149
 468              		.loc 1 77 11 is_stmt 0 discriminator 1 view .LVU150
 469 00d2 D4F8D000 		ldr	r0, [r4, #208]
 470 00d6 FFF7FEFF 		bl	serialAvailable
 471              	.LVL47:
ARM GAS  C:\Users\GUILLE~1\AppData\Local\Temp\ccCbiiXg.s 			page 11


 472              		.loc 1 77 9 discriminator 1 view .LVU151
 473 00da 0028     		cmp	r0, #0
 474 00dc F9D0     		beq	.L25
  78:Core/drogui/sensor/optical/src/opticalFlow.c **** 			op->chksumBuff[4] = cntMSB = serialRead(op->ser);
 475              		.loc 1 78 4 is_stmt 1 view .LVU152
 476              		.loc 1 78 33 is_stmt 0 view .LVU153
 477 00de D4F8D000 		ldr	r0, [r4, #208]
 478 00e2 FFF7FEFF 		bl	serialRead
 479              	.LVL48:
 480              		.loc 1 78 22 view .LVU154
 481 00e6 84F86C00 		strb	r0, [r4, #108]
  79:Core/drogui/sensor/optical/src/opticalFlow.c **** 
  80:Core/drogui/sensor/optical/src/opticalFlow.c **** 			op->sz = (uint16_t) (cntMSB << 8) | (cntLSB & 0xFF);
 482              		.loc 1 80 4 is_stmt 1 view .LVU155
 483              		.loc 1 80 38 is_stmt 0 view .LVU156
 484 00ea 45EA0025 		orr	r5, r5, r0, lsl #8
 485              		.loc 1 80 11 view .LVU157
 486 00ee 6580     		strh	r5, [r4, #2]	@ movhi
  81:Core/drogui/sensor/optical/src/opticalFlow.c **** 
  82:Core/drogui/sensor/optical/src/opticalFlow.c **** 
  83:Core/drogui/sensor/optical/src/opticalFlow.c **** 			for(int i = 0; i < op->sz ; i++){
 487              		.loc 1 83 4 is_stmt 1 view .LVU158
 488              	.LBB5:
 489              		.loc 1 83 8 view .LVU159
 490              	.LVL49:
 491              		.loc 1 83 12 is_stmt 0 view .LVU160
 492 00f0 0025     		movs	r5, #0
 493              		.loc 1 83 4 view .LVU161
 494 00f2 10E0     		b	.L26
 495              	.LVL50:
 496              	.L27:
  84:Core/drogui/sensor/optical/src/opticalFlow.c **** 				while(!serialAvailable(op->ser));
 497              		.loc 1 84 37 is_stmt 1 discriminator 1 view .LVU162
 498              		.loc 1 84 10 discriminator 1 view .LVU163
 499              		.loc 1 84 12 is_stmt 0 discriminator 1 view .LVU164
 500 00f4 D4F8D000 		ldr	r0, [r4, #208]
 501 00f8 FFF7FEFF 		bl	serialAvailable
 502              	.LVL51:
 503              		.loc 1 84 10 discriminator 1 view .LVU165
 504 00fc 0028     		cmp	r0, #0
 505 00fe F9D0     		beq	.L27
  85:Core/drogui/sensor/optical/src/opticalFlow.c **** 				op->chksumBuff[5+i] = op->payload[i] = serialRead(op->ser);
 506              		.loc 1 85 5 is_stmt 1 discriminator 2 view .LVU166
 507              		.loc 1 85 44 is_stmt 0 discriminator 2 view .LVU167
 508 0100 D4F8D000 		ldr	r0, [r4, #208]
 509 0104 FFF7FEFF 		bl	serialRead
 510              	.LVL52:
 511              		.loc 1 85 42 discriminator 2 view .LVU168
 512 0108 6319     		adds	r3, r4, r5
 513 010a 1871     		strb	r0, [r3, #4]
 514              		.loc 1 85 21 discriminator 2 view .LVU169
 515 010c 6B1D     		adds	r3, r5, #5
 516              		.loc 1 85 25 discriminator 2 view .LVU170
 517 010e 2344     		add	r3, r3, r4
 518 0110 83F86800 		strb	r0, [r3, #104]
  83:Core/drogui/sensor/optical/src/opticalFlow.c **** 				while(!serialAvailable(op->ser));
 519              		.loc 1 83 32 is_stmt 1 discriminator 2 view .LVU171
ARM GAS  C:\Users\GUILLE~1\AppData\Local\Temp\ccCbiiXg.s 			page 12


  83:Core/drogui/sensor/optical/src/opticalFlow.c **** 				while(!serialAvailable(op->ser));
 520              		.loc 1 83 33 is_stmt 0 discriminator 2 view .LVU172
 521 0114 0135     		adds	r5, r5, #1
 522              	.LVL53:
 523              	.L26:
  83:Core/drogui/sensor/optical/src/opticalFlow.c **** 				while(!serialAvailable(op->ser));
 524              		.loc 1 83 19 is_stmt 1 discriminator 1 view .LVU173
  83:Core/drogui/sensor/optical/src/opticalFlow.c **** 				while(!serialAvailable(op->ser));
 525              		.loc 1 83 25 is_stmt 0 discriminator 1 view .LVU174
 526 0116 B4F90230 		ldrsh	r3, [r4, #2]
  83:Core/drogui/sensor/optical/src/opticalFlow.c **** 				while(!serialAvailable(op->ser));
 527              		.loc 1 83 4 discriminator 1 view .LVU175
 528 011a AB42     		cmp	r3, r5
 529 011c EADC     		bgt	.L27
 530              	.L28:
 531              	.LBE5:
  86:Core/drogui/sensor/optical/src/opticalFlow.c **** 			}
  87:Core/drogui/sensor/optical/src/opticalFlow.c **** 
  88:Core/drogui/sensor/optical/src/opticalFlow.c **** 			while(!serialAvailable(op->ser));
 532              		.loc 1 88 36 is_stmt 1 discriminator 1 view .LVU176
 533              		.loc 1 88 9 discriminator 1 view .LVU177
 534              		.loc 1 88 11 is_stmt 0 discriminator 1 view .LVU178
 535 011e D4F8D000 		ldr	r0, [r4, #208]
 536 0122 FFF7FEFF 		bl	serialAvailable
 537              	.LVL54:
 538              		.loc 1 88 9 discriminator 1 view .LVU179
 539 0126 0028     		cmp	r0, #0
 540 0128 F9D0     		beq	.L28
  89:Core/drogui/sensor/optical/src/opticalFlow.c **** 			checksum = serialRead(op->ser);
 541              		.loc 1 89 4 is_stmt 1 view .LVU180
 542              		.loc 1 89 15 is_stmt 0 view .LVU181
 543 012a D4F8D000 		ldr	r0, [r4, #208]
 544 012e FFF7FEFF 		bl	serialRead
 545              	.LVL55:
 546 0132 8146     		mov	r9, r0
 547              	.LVL56:
  90:Core/drogui/sensor/optical/src/opticalFlow.c **** 
  91:Core/drogui/sensor/optical/src/opticalFlow.c **** 			calcChecksum(op);
 548              		.loc 1 91 4 is_stmt 1 view .LVU182
 549 0134 2046     		mov	r0, r4
 550 0136 FFF7FEFF 		bl	calcChecksum
 551              	.LVL57:
  92:Core/drogui/sensor/optical/src/opticalFlow.c **** 			flag = 1;
 552              		.loc 1 92 4 view .LVU183
  93:Core/drogui/sensor/optical/src/opticalFlow.c **** 		}
  94:Core/drogui/sensor/optical/src/opticalFlow.c **** 
  95:Core/drogui/sensor/optical/src/opticalFlow.c **** 		if(flag == 1) break;
 553              		.loc 1 95 3 view .LVU184
  92:Core/drogui/sensor/optical/src/opticalFlow.c **** 			flag = 1;
 554              		.loc 1 92 9 is_stmt 0 view .LVU185
 555 013a 0123     		movs	r3, #1
 556 013c 00E0     		b	.L29
 557              	.LVL58:
 558              	.L35:
  92:Core/drogui/sensor/optical/src/opticalFlow.c **** 			flag = 1;
 559              		.loc 1 92 9 view .LVU186
 560 013e 0023     		movs	r3, #0
ARM GAS  C:\Users\GUILLE~1\AppData\Local\Temp\ccCbiiXg.s 			page 13


 561              	.LVL59:
 562              	.L29:
  96:Core/drogui/sensor/optical/src/opticalFlow.c **** 
  97:Core/drogui/sensor/optical/src/opticalFlow.c **** 	}
  98:Core/drogui/sensor/optical/src/opticalFlow.c **** 
  99:Core/drogui/sensor/optical/src/opticalFlow.c **** 	if(flag == 0) return TIMEOUT;
 563              		.loc 1 99 2 is_stmt 1 view .LVU187
 564              		.loc 1 99 4 is_stmt 0 view .LVU188
 565 0140 43B1     		cbz	r3, .L32
 100:Core/drogui/sensor/optical/src/opticalFlow.c **** 	if(op->chksum == checksum) return OK;
 566              		.loc 1 100 2 is_stmt 1 view .LVU189
 567              		.loc 1 100 7 is_stmt 0 view .LVU190
 568 0142 94F8CC30 		ldrb	r3, [r4, #204]	@ zero_extendqisi2
 569              	.LVL60:
 570              		.loc 1 100 4 view .LVU191
 571 0146 4B45     		cmp	r3, r9
 572 0148 02D0     		beq	.L36
 101:Core/drogui/sensor/optical/src/opticalFlow.c **** 	else return WRG_CHKSUM;
 573              		.loc 1 101 14 view .LVU192
 574 014a 0420     		movs	r0, #4
 575              	.L31:
 102:Core/drogui/sensor/optical/src/opticalFlow.c **** }
 576              		.loc 1 102 1 view .LVU193
 577 014c BDE8F883 		pop	{r3, r4, r5, r6, r7, r8, r9, pc}
 578              	.LVL61:
 579              	.L36:
 100:Core/drogui/sensor/optical/src/opticalFlow.c **** 	if(op->chksum == checksum) return OK;
 580              		.loc 1 100 36 view .LVU194
 581 0150 0320     		movs	r0, #3
 582 0152 FBE7     		b	.L31
 583              	.LVL62:
 584              	.L32:
  99:Core/drogui/sensor/optical/src/opticalFlow.c **** 	if(op->chksum == checksum) return OK;
 585              		.loc 1 99 23 view .LVU195
 586 0154 0120     		movs	r0, #1
 587 0156 F9E7     		b	.L31
 588              	.L38:
 589              		.align	2
 590              	.L37:
 591 0158 00000000 		.word	htim5
 592              		.cfi_endproc
 593              	.LFE250:
 595              		.section	.text.readFlowRange,"ax",%progbits
 596              		.align	1
 597              		.global	readFlowRange
 598              		.syntax unified
 599              		.thumb
 600              		.thumb_func
 601              		.fpu fpv5-sp-d16
 603              	readFlowRange:
 604              	.LVL63:
 605              	.LFB251:
 103:Core/drogui/sensor/optical/src/opticalFlow.c **** 
 104:Core/drogui/sensor/optical/src/opticalFlow.c **** SENSOR_STATUS readFlowRange(optFlow *of, OPT_VAR *var){
 606              		.loc 1 104 55 is_stmt 1 view -0
 607              		.cfi_startproc
 608              		@ args = 0, pretend = 0, frame = 0
ARM GAS  C:\Users\GUILLE~1\AppData\Local\Temp\ccCbiiXg.s 			page 14


 609              		@ frame_needed = 0, uses_anonymous_args = 0
 610              		.loc 1 104 55 is_stmt 0 view .LVU197
 611 0000 70B5     		push	{r4, r5, r6, lr}
 612              	.LCFI4:
 613              		.cfi_def_cfa_offset 16
 614              		.cfi_offset 4, -16
 615              		.cfi_offset 5, -12
 616              		.cfi_offset 6, -8
 617              		.cfi_offset 14, -4
 618 0002 0446     		mov	r4, r0
 619 0004 0E46     		mov	r6, r1
 105:Core/drogui/sensor/optical/src/opticalFlow.c **** 	if(serialAvailable(of->rcv_pack.ser)){
 620              		.loc 1 105 2 is_stmt 1 view .LVU198
 621              		.loc 1 105 5 is_stmt 0 view .LVU199
 622 0006 D0F8D000 		ldr	r0, [r0, #208]
 623              	.LVL64:
 624              		.loc 1 105 5 view .LVU200
 625 000a FFF7FEFF 		bl	serialAvailable
 626              	.LVL65:
 627              		.loc 1 105 4 view .LVU201
 628 000e 60B9     		cbnz	r0, .L54
 106:Core/drogui/sensor/optical/src/opticalFlow.c **** 		int ret = readOptFlow(&(of->rcv_pack), 1000);
 107:Core/drogui/sensor/optical/src/opticalFlow.c **** 		serialFlush(of->rcv_pack.ser);
 108:Core/drogui/sensor/optical/src/opticalFlow.c **** 
 109:Core/drogui/sensor/optical/src/opticalFlow.c **** 		if( ret != OK) {
 110:Core/drogui/sensor/optical/src/opticalFlow.c **** 			if(TIME - of->last_tim > of->threshold) return CRASHED;
 111:Core/drogui/sensor/optical/src/opticalFlow.c **** 			return ret;
 112:Core/drogui/sensor/optical/src/opticalFlow.c **** 		}
 113:Core/drogui/sensor/optical/src/opticalFlow.c **** 
 114:Core/drogui/sensor/optical/src/opticalFlow.c **** 		if(of->rcv_pack.type == OPT_FLOW){
 115:Core/drogui/sensor/optical/src/opticalFlow.c **** 
 116:Core/drogui/sensor/optical/src/opticalFlow.c **** 			of -> q_vel = (of->rcv_pack).payload[0];
 117:Core/drogui/sensor/optical/src/opticalFlow.c **** 			of->vel_x = 0, of->vel_y = 0;
 118:Core/drogui/sensor/optical/src/opticalFlow.c **** 			for(int i = 3 ; i >= 0 ; i--)
 119:Core/drogui/sensor/optical/src/opticalFlow.c **** 				of->vel_x = (of->vel_x << 8) | (of->rcv_pack).payload[1+i];
 120:Core/drogui/sensor/optical/src/opticalFlow.c **** 
 121:Core/drogui/sensor/optical/src/opticalFlow.c **** 			for(int i = 3 ; i >= 0 ; i--)
 122:Core/drogui/sensor/optical/src/opticalFlow.c **** 				of->vel_y = (of->vel_y << 8) | (of->rcv_pack).payload[5+i];
 123:Core/drogui/sensor/optical/src/opticalFlow.c **** 
 124:Core/drogui/sensor/optical/src/opticalFlow.c **** 			*var = OPT_VEL;
 125:Core/drogui/sensor/optical/src/opticalFlow.c **** 			of -> last_tim = TIME;
 126:Core/drogui/sensor/optical/src/opticalFlow.c **** 			return OK;
 127:Core/drogui/sensor/optical/src/opticalFlow.c **** 		}
 128:Core/drogui/sensor/optical/src/opticalFlow.c **** 		else if(of->rcv_pack.type == RNG_FNDR){
 129:Core/drogui/sensor/optical/src/opticalFlow.c **** 			of->q_rng = (of->rcv_pack).payload[0];
 130:Core/drogui/sensor/optical/src/opticalFlow.c **** 			of->dis = 0;
 131:Core/drogui/sensor/optical/src/opticalFlow.c **** 			for(int i = 3 ; i >= 0 ; i--)
 132:Core/drogui/sensor/optical/src/opticalFlow.c **** 				of->dis = (of->dis << 8) | (of->rcv_pack).payload[1+i];
 133:Core/drogui/sensor/optical/src/opticalFlow.c **** 
 134:Core/drogui/sensor/optical/src/opticalFlow.c **** 			*var = OPT_RNG;
 135:Core/drogui/sensor/optical/src/opticalFlow.c **** 			of -> last_tim = TIME;
 136:Core/drogui/sensor/optical/src/opticalFlow.c **** 			return OK;
 137:Core/drogui/sensor/optical/src/opticalFlow.c **** 		}
 138:Core/drogui/sensor/optical/src/opticalFlow.c **** 		else{
 139:Core/drogui/sensor/optical/src/opticalFlow.c **** 			if(TIME - of->last_tim > of -> threshold) return CRASHED;
 140:Core/drogui/sensor/optical/src/opticalFlow.c **** 			return WRG_ID;
 141:Core/drogui/sensor/optical/src/opticalFlow.c **** 		}
ARM GAS  C:\Users\GUILLE~1\AppData\Local\Temp\ccCbiiXg.s 			page 15


 142:Core/drogui/sensor/optical/src/opticalFlow.c **** 	}
 143:Core/drogui/sensor/optical/src/opticalFlow.c **** 	if(TIME - of->last_tim > of -> threshold) return CRASHED;
 629              		.loc 1 143 2 is_stmt 1 view .LVU202
 630              		.loc 1 143 5 is_stmt 0 view .LVU203
 631 0010 434B     		ldr	r3, .L59
 632 0012 1B68     		ldr	r3, [r3]
 633 0014 5B6A     		ldr	r3, [r3, #36]
 634              		.loc 1 143 14 view .LVU204
 635 0016 D4F8EC20 		ldr	r2, [r4, #236]
 636              		.loc 1 143 10 view .LVU205
 637 001a 9B1A     		subs	r3, r3, r2
 638              		.loc 1 143 30 view .LVU206
 639 001c D4F8F020 		ldr	r2, [r4, #240]
 640              		.loc 1 143 4 view .LVU207
 641 0020 9342     		cmp	r3, r2
 642 0022 7AD8     		bhi	.L52
 144:Core/drogui/sensor/optical/src/opticalFlow.c **** 	return NO_DATA;
 643              		.loc 1 144 9 view .LVU208
 644 0024 0025     		movs	r5, #0
 645              	.L42:
 145:Core/drogui/sensor/optical/src/opticalFlow.c **** }
 646              		.loc 1 145 1 view .LVU209
 647 0026 2846     		mov	r0, r5
 648 0028 70BD     		pop	{r4, r5, r6, pc}
 649              	.LVL66:
 650              	.L54:
 651              	.LBB6:
 106:Core/drogui/sensor/optical/src/opticalFlow.c **** 		int ret = readOptFlow(&(of->rcv_pack), 1000);
 652              		.loc 1 106 3 is_stmt 1 view .LVU210
 106:Core/drogui/sensor/optical/src/opticalFlow.c **** 		int ret = readOptFlow(&(of->rcv_pack), 1000);
 653              		.loc 1 106 13 is_stmt 0 view .LVU211
 654 002a 4FF47A71 		mov	r1, #1000
 655 002e 2046     		mov	r0, r4
 656 0030 FFF7FEFF 		bl	readOptFlow
 657              	.LVL67:
 658 0034 0546     		mov	r5, r0
 659              	.LVL68:
 107:Core/drogui/sensor/optical/src/opticalFlow.c **** 
 660              		.loc 1 107 3 is_stmt 1 view .LVU212
 661 0036 D4F8D000 		ldr	r0, [r4, #208]
 662 003a FFF7FEFF 		bl	serialFlush
 663              	.LVL69:
 109:Core/drogui/sensor/optical/src/opticalFlow.c **** 			if(TIME - of->last_tim > of->threshold) return CRASHED;
 664              		.loc 1 109 3 view .LVU213
 109:Core/drogui/sensor/optical/src/opticalFlow.c **** 			if(TIME - of->last_tim > of->threshold) return CRASHED;
 665              		.loc 1 109 5 is_stmt 0 view .LVU214
 666 003e 032D     		cmp	r5, #3
 667 0040 0BD0     		beq	.L41
 110:Core/drogui/sensor/optical/src/opticalFlow.c **** 			return ret;
 668              		.loc 1 110 4 is_stmt 1 view .LVU215
 110:Core/drogui/sensor/optical/src/opticalFlow.c **** 			return ret;
 669              		.loc 1 110 7 is_stmt 0 view .LVU216
 670 0042 374B     		ldr	r3, .L59
 671 0044 1B68     		ldr	r3, [r3]
 672 0046 5B6A     		ldr	r3, [r3, #36]
 110:Core/drogui/sensor/optical/src/opticalFlow.c **** 			return ret;
 673              		.loc 1 110 16 view .LVU217
ARM GAS  C:\Users\GUILLE~1\AppData\Local\Temp\ccCbiiXg.s 			page 16


 674 0048 D4F8EC20 		ldr	r2, [r4, #236]
 110:Core/drogui/sensor/optical/src/opticalFlow.c **** 			return ret;
 675              		.loc 1 110 12 view .LVU218
 676 004c 9B1A     		subs	r3, r3, r2
 110:Core/drogui/sensor/optical/src/opticalFlow.c **** 			return ret;
 677              		.loc 1 110 31 view .LVU219
 678 004e D4F8F020 		ldr	r2, [r4, #240]
 110:Core/drogui/sensor/optical/src/opticalFlow.c **** 			return ret;
 679              		.loc 1 110 6 view .LVU220
 680 0052 9342     		cmp	r3, r2
 681 0054 E7D9     		bls	.L42
 110:Core/drogui/sensor/optical/src/opticalFlow.c **** 			return ret;
 682              		.loc 1 110 51 view .LVU221
 683 0056 0525     		movs	r5, #5
 684              	.LVL70:
 110:Core/drogui/sensor/optical/src/opticalFlow.c **** 			return ret;
 685              		.loc 1 110 51 view .LVU222
 686 0058 E5E7     		b	.L42
 687              	.LVL71:
 688              	.L41:
 114:Core/drogui/sensor/optical/src/opticalFlow.c **** 
 689              		.loc 1 114 3 is_stmt 1 view .LVU223
 114:Core/drogui/sensor/optical/src/opticalFlow.c **** 
 690              		.loc 1 114 18 is_stmt 0 view .LVU224
 691 005a B4F90030 		ldrsh	r3, [r4]
 114:Core/drogui/sensor/optical/src/opticalFlow.c **** 
 692              		.loc 1 114 5 view .LVU225
 693 005e 41F60272 		movw	r2, #7938
 694 0062 9342     		cmp	r3, r2
 695 0064 0FD0     		beq	.L55
 128:Core/drogui/sensor/optical/src/opticalFlow.c **** 			of->q_rng = (of->rcv_pack).payload[0];
 696              		.loc 1 128 8 is_stmt 1 view .LVU226
 128:Core/drogui/sensor/optical/src/opticalFlow.c **** 			of->q_rng = (of->rcv_pack).payload[0];
 697              		.loc 1 128 10 is_stmt 0 view .LVU227
 698 0066 41F60172 		movw	r2, #7937
 699 006a 9342     		cmp	r3, r2
 700 006c 37D0     		beq	.L56
 139:Core/drogui/sensor/optical/src/opticalFlow.c **** 			return WRG_ID;
 701              		.loc 1 139 4 is_stmt 1 view .LVU228
 139:Core/drogui/sensor/optical/src/opticalFlow.c **** 			return WRG_ID;
 702              		.loc 1 139 7 is_stmt 0 view .LVU229
 703 006e 2C4B     		ldr	r3, .L59
 704 0070 1B68     		ldr	r3, [r3]
 705 0072 5B6A     		ldr	r3, [r3, #36]
 139:Core/drogui/sensor/optical/src/opticalFlow.c **** 			return WRG_ID;
 706              		.loc 1 139 16 view .LVU230
 707 0074 D4F8EC20 		ldr	r2, [r4, #236]
 139:Core/drogui/sensor/optical/src/opticalFlow.c **** 			return WRG_ID;
 708              		.loc 1 139 12 view .LVU231
 709 0078 9B1A     		subs	r3, r3, r2
 139:Core/drogui/sensor/optical/src/opticalFlow.c **** 			return WRG_ID;
 710              		.loc 1 139 32 view .LVU232
 711 007a D4F8F020 		ldr	r2, [r4, #240]
 139:Core/drogui/sensor/optical/src/opticalFlow.c **** 			return WRG_ID;
 712              		.loc 1 139 6 view .LVU233
 713 007e 9342     		cmp	r3, r2
 714 0080 49D9     		bls	.L51
ARM GAS  C:\Users\GUILLE~1\AppData\Local\Temp\ccCbiiXg.s 			page 17


 139:Core/drogui/sensor/optical/src/opticalFlow.c **** 			return WRG_ID;
 715              		.loc 1 139 53 view .LVU234
 716 0082 0525     		movs	r5, #5
 717              	.LVL72:
 139:Core/drogui/sensor/optical/src/opticalFlow.c **** 			return WRG_ID;
 718              		.loc 1 139 53 view .LVU235
 719 0084 CFE7     		b	.L42
 720              	.LVL73:
 721              	.L55:
 116:Core/drogui/sensor/optical/src/opticalFlow.c **** 			of->vel_x = 0, of->vel_y = 0;
 722              		.loc 1 116 4 is_stmt 1 view .LVU236
 116:Core/drogui/sensor/optical/src/opticalFlow.c **** 			of->vel_x = 0, of->vel_y = 0;
 723              		.loc 1 116 40 is_stmt 0 view .LVU237
 724 0086 2379     		ldrb	r3, [r4, #4]	@ zero_extendqisi2
 116:Core/drogui/sensor/optical/src/opticalFlow.c **** 			of->vel_x = 0, of->vel_y = 0;
 725              		.loc 1 116 16 view .LVU238
 726 0088 84F8D430 		strb	r3, [r4, #212]
 117:Core/drogui/sensor/optical/src/opticalFlow.c **** 			for(int i = 3 ; i >= 0 ; i--)
 727              		.loc 1 117 4 is_stmt 1 view .LVU239
 117:Core/drogui/sensor/optical/src/opticalFlow.c **** 			for(int i = 3 ; i >= 0 ; i--)
 728              		.loc 1 117 14 is_stmt 0 view .LVU240
 729 008c 0023     		movs	r3, #0
 730 008e C4F8D830 		str	r3, [r4, #216]
 117:Core/drogui/sensor/optical/src/opticalFlow.c **** 			for(int i = 3 ; i >= 0 ; i--)
 731              		.loc 1 117 29 view .LVU241
 732 0092 C4F8DC30 		str	r3, [r4, #220]
 118:Core/drogui/sensor/optical/src/opticalFlow.c **** 				of->vel_x = (of->vel_x << 8) | (of->rcv_pack).payload[1+i];
 733              		.loc 1 118 4 is_stmt 1 view .LVU242
 734              	.LBB7:
 118:Core/drogui/sensor/optical/src/opticalFlow.c **** 				of->vel_x = (of->vel_x << 8) | (of->rcv_pack).payload[1+i];
 735              		.loc 1 118 8 view .LVU243
 736              	.LVL74:
 118:Core/drogui/sensor/optical/src/opticalFlow.c **** 				of->vel_x = (of->vel_x << 8) | (of->rcv_pack).payload[1+i];
 737              		.loc 1 118 12 is_stmt 0 view .LVU244
 738 0096 0323     		movs	r3, #3
 739              	.LVL75:
 740              	.L44:
 118:Core/drogui/sensor/optical/src/opticalFlow.c **** 				of->vel_x = (of->vel_x << 8) | (of->rcv_pack).payload[1+i];
 741              		.loc 1 118 20 is_stmt 1 discriminator 1 view .LVU245
 118:Core/drogui/sensor/optical/src/opticalFlow.c **** 				of->vel_x = (of->vel_x << 8) | (of->rcv_pack).payload[1+i];
 742              		.loc 1 118 4 is_stmt 0 discriminator 1 view .LVU246
 743 0098 002B     		cmp	r3, #0
 744 009a 0ADB     		blt	.L57
 119:Core/drogui/sensor/optical/src/opticalFlow.c **** 
 745              		.loc 1 119 5 is_stmt 1 discriminator 3 view .LVU247
 119:Core/drogui/sensor/optical/src/opticalFlow.c **** 
 746              		.loc 1 119 20 is_stmt 0 discriminator 3 view .LVU248
 747 009c D4F8D800 		ldr	r0, [r4, #216]
 119:Core/drogui/sensor/optical/src/opticalFlow.c **** 
 748              		.loc 1 119 60 discriminator 3 view .LVU249
 749 00a0 591C     		adds	r1, r3, #1
 119:Core/drogui/sensor/optical/src/opticalFlow.c **** 
 750              		.loc 1 119 58 discriminator 3 view .LVU250
 751 00a2 2144     		add	r1, r1, r4
 752 00a4 0A79     		ldrb	r2, [r1, #4]	@ zero_extendqisi2
 119:Core/drogui/sensor/optical/src/opticalFlow.c **** 
 753              		.loc 1 119 34 discriminator 3 view .LVU251
ARM GAS  C:\Users\GUILLE~1\AppData\Local\Temp\ccCbiiXg.s 			page 18


 754 00a6 42EA0022 		orr	r2, r2, r0, lsl #8
 119:Core/drogui/sensor/optical/src/opticalFlow.c **** 
 755              		.loc 1 119 15 discriminator 3 view .LVU252
 756 00aa C4F8D820 		str	r2, [r4, #216]
 118:Core/drogui/sensor/optical/src/opticalFlow.c **** 				of->vel_x = (of->vel_x << 8) | (of->rcv_pack).payload[1+i];
 757              		.loc 1 118 29 is_stmt 1 discriminator 3 view .LVU253
 118:Core/drogui/sensor/optical/src/opticalFlow.c **** 				of->vel_x = (of->vel_x << 8) | (of->rcv_pack).payload[1+i];
 758              		.loc 1 118 30 is_stmt 0 discriminator 3 view .LVU254
 759 00ae 013B     		subs	r3, r3, #1
 760              	.LVL76:
 118:Core/drogui/sensor/optical/src/opticalFlow.c **** 				of->vel_x = (of->vel_x << 8) | (of->rcv_pack).payload[1+i];
 761              		.loc 1 118 30 discriminator 3 view .LVU255
 762 00b0 F2E7     		b	.L44
 763              	.L57:
 118:Core/drogui/sensor/optical/src/opticalFlow.c **** 				of->vel_x = (of->vel_x << 8) | (of->rcv_pack).payload[1+i];
 764              		.loc 1 118 30 discriminator 3 view .LVU256
 765              	.LBE7:
 766              	.LBB8:
 121:Core/drogui/sensor/optical/src/opticalFlow.c **** 				of->vel_y = (of->vel_y << 8) | (of->rcv_pack).payload[5+i];
 767              		.loc 1 121 12 view .LVU257
 768 00b2 0323     		movs	r3, #3
 769              	.LVL77:
 770              	.L46:
 121:Core/drogui/sensor/optical/src/opticalFlow.c **** 				of->vel_y = (of->vel_y << 8) | (of->rcv_pack).payload[5+i];
 771              		.loc 1 121 20 is_stmt 1 discriminator 1 view .LVU258
 121:Core/drogui/sensor/optical/src/opticalFlow.c **** 				of->vel_y = (of->vel_y << 8) | (of->rcv_pack).payload[5+i];
 772              		.loc 1 121 4 is_stmt 0 discriminator 1 view .LVU259
 773 00b4 002B     		cmp	r3, #0
 774 00b6 0ADB     		blt	.L58
 122:Core/drogui/sensor/optical/src/opticalFlow.c **** 
 775              		.loc 1 122 5 is_stmt 1 discriminator 3 view .LVU260
 122:Core/drogui/sensor/optical/src/opticalFlow.c **** 
 776              		.loc 1 122 20 is_stmt 0 discriminator 3 view .LVU261
 777 00b8 D4F8DC00 		ldr	r0, [r4, #220]
 122:Core/drogui/sensor/optical/src/opticalFlow.c **** 
 778              		.loc 1 122 60 discriminator 3 view .LVU262
 779 00bc 591D     		adds	r1, r3, #5
 122:Core/drogui/sensor/optical/src/opticalFlow.c **** 
 780              		.loc 1 122 58 discriminator 3 view .LVU263
 781 00be 2144     		add	r1, r1, r4
 782 00c0 0A79     		ldrb	r2, [r1, #4]	@ zero_extendqisi2
 122:Core/drogui/sensor/optical/src/opticalFlow.c **** 
 783              		.loc 1 122 34 discriminator 3 view .LVU264
 784 00c2 42EA0022 		orr	r2, r2, r0, lsl #8
 122:Core/drogui/sensor/optical/src/opticalFlow.c **** 
 785              		.loc 1 122 15 discriminator 3 view .LVU265
 786 00c6 C4F8DC20 		str	r2, [r4, #220]
 121:Core/drogui/sensor/optical/src/opticalFlow.c **** 				of->vel_y = (of->vel_y << 8) | (of->rcv_pack).payload[5+i];
 787              		.loc 1 121 29 is_stmt 1 discriminator 3 view .LVU266
 121:Core/drogui/sensor/optical/src/opticalFlow.c **** 				of->vel_y = (of->vel_y << 8) | (of->rcv_pack).payload[5+i];
 788              		.loc 1 121 30 is_stmt 0 discriminator 3 view .LVU267
 789 00ca 013B     		subs	r3, r3, #1
 790              	.LVL78:
 121:Core/drogui/sensor/optical/src/opticalFlow.c **** 				of->vel_y = (of->vel_y << 8) | (of->rcv_pack).payload[5+i];
 791              		.loc 1 121 30 discriminator 3 view .LVU268
 792 00cc F2E7     		b	.L46
 793              	.L58:
ARM GAS  C:\Users\GUILLE~1\AppData\Local\Temp\ccCbiiXg.s 			page 19


 121:Core/drogui/sensor/optical/src/opticalFlow.c **** 				of->vel_y = (of->vel_y << 8) | (of->rcv_pack).payload[5+i];
 794              		.loc 1 121 30 discriminator 3 view .LVU269
 795              	.LBE8:
 124:Core/drogui/sensor/optical/src/opticalFlow.c **** 			of -> last_tim = TIME;
 796              		.loc 1 124 4 is_stmt 1 view .LVU270
 124:Core/drogui/sensor/optical/src/opticalFlow.c **** 			of -> last_tim = TIME;
 797              		.loc 1 124 9 is_stmt 0 view .LVU271
 798 00ce 0023     		movs	r3, #0
 799              	.LVL79:
 124:Core/drogui/sensor/optical/src/opticalFlow.c **** 			of -> last_tim = TIME;
 800              		.loc 1 124 9 view .LVU272
 801 00d0 3370     		strb	r3, [r6]
 125:Core/drogui/sensor/optical/src/opticalFlow.c **** 			return OK;
 802              		.loc 1 125 4 is_stmt 1 view .LVU273
 125:Core/drogui/sensor/optical/src/opticalFlow.c **** 			return OK;
 803              		.loc 1 125 21 is_stmt 0 view .LVU274
 804 00d2 134B     		ldr	r3, .L59
 805 00d4 1B68     		ldr	r3, [r3]
 806 00d6 5B6A     		ldr	r3, [r3, #36]
 125:Core/drogui/sensor/optical/src/opticalFlow.c **** 			return OK;
 807              		.loc 1 125 19 view .LVU275
 808 00d8 C4F8EC30 		str	r3, [r4, #236]
 126:Core/drogui/sensor/optical/src/opticalFlow.c **** 		}
 809              		.loc 1 126 4 is_stmt 1 view .LVU276
 126:Core/drogui/sensor/optical/src/opticalFlow.c **** 		}
 810              		.loc 1 126 11 is_stmt 0 view .LVU277
 811 00dc A3E7     		b	.L42
 812              	.L56:
 129:Core/drogui/sensor/optical/src/opticalFlow.c **** 			of->dis = 0;
 813              		.loc 1 129 4 is_stmt 1 view .LVU278
 129:Core/drogui/sensor/optical/src/opticalFlow.c **** 			of->dis = 0;
 814              		.loc 1 129 38 is_stmt 0 view .LVU279
 815 00de 2379     		ldrb	r3, [r4, #4]	@ zero_extendqisi2
 129:Core/drogui/sensor/optical/src/opticalFlow.c **** 			of->dis = 0;
 816              		.loc 1 129 14 view .LVU280
 817 00e0 84F8D530 		strb	r3, [r4, #213]
 130:Core/drogui/sensor/optical/src/opticalFlow.c **** 			for(int i = 3 ; i >= 0 ; i--)
 818              		.loc 1 130 4 is_stmt 1 view .LVU281
 130:Core/drogui/sensor/optical/src/opticalFlow.c **** 			for(int i = 3 ; i >= 0 ; i--)
 819              		.loc 1 130 12 is_stmt 0 view .LVU282
 820 00e4 0023     		movs	r3, #0
 821 00e6 C4F8E830 		str	r3, [r4, #232]
 131:Core/drogui/sensor/optical/src/opticalFlow.c **** 				of->dis = (of->dis << 8) | (of->rcv_pack).payload[1+i];
 822              		.loc 1 131 4 is_stmt 1 view .LVU283
 823              	.LBB9:
 131:Core/drogui/sensor/optical/src/opticalFlow.c **** 				of->dis = (of->dis << 8) | (of->rcv_pack).payload[1+i];
 824              		.loc 1 131 8 view .LVU284
 825              	.LVL80:
 131:Core/drogui/sensor/optical/src/opticalFlow.c **** 				of->dis = (of->dis << 8) | (of->rcv_pack).payload[1+i];
 826              		.loc 1 131 12 is_stmt 0 view .LVU285
 827 00ea 0323     		movs	r3, #3
 131:Core/drogui/sensor/optical/src/opticalFlow.c **** 				of->dis = (of->dis << 8) | (of->rcv_pack).payload[1+i];
 828              		.loc 1 131 4 view .LVU286
 829 00ec 09E0     		b	.L49
 830              	.LVL81:
 831              	.L50:
 132:Core/drogui/sensor/optical/src/opticalFlow.c **** 
ARM GAS  C:\Users\GUILLE~1\AppData\Local\Temp\ccCbiiXg.s 			page 20


 832              		.loc 1 132 5 is_stmt 1 discriminator 3 view .LVU287
 132:Core/drogui/sensor/optical/src/opticalFlow.c **** 
 833              		.loc 1 132 18 is_stmt 0 discriminator 3 view .LVU288
 834 00ee D4F8E800 		ldr	r0, [r4, #232]
 132:Core/drogui/sensor/optical/src/opticalFlow.c **** 
 835              		.loc 1 132 56 discriminator 3 view .LVU289
 836 00f2 591C     		adds	r1, r3, #1
 132:Core/drogui/sensor/optical/src/opticalFlow.c **** 
 837              		.loc 1 132 54 discriminator 3 view .LVU290
 838 00f4 2144     		add	r1, r1, r4
 839 00f6 0A79     		ldrb	r2, [r1, #4]	@ zero_extendqisi2
 132:Core/drogui/sensor/optical/src/opticalFlow.c **** 
 840              		.loc 1 132 30 discriminator 3 view .LVU291
 841 00f8 42EA0022 		orr	r2, r2, r0, lsl #8
 132:Core/drogui/sensor/optical/src/opticalFlow.c **** 
 842              		.loc 1 132 13 discriminator 3 view .LVU292
 843 00fc C4F8E820 		str	r2, [r4, #232]
 131:Core/drogui/sensor/optical/src/opticalFlow.c **** 				of->dis = (of->dis << 8) | (of->rcv_pack).payload[1+i];
 844              		.loc 1 131 29 is_stmt 1 discriminator 3 view .LVU293
 131:Core/drogui/sensor/optical/src/opticalFlow.c **** 				of->dis = (of->dis << 8) | (of->rcv_pack).payload[1+i];
 845              		.loc 1 131 30 is_stmt 0 discriminator 3 view .LVU294
 846 0100 013B     		subs	r3, r3, #1
 847              	.LVL82:
 848              	.L49:
 131:Core/drogui/sensor/optical/src/opticalFlow.c **** 				of->dis = (of->dis << 8) | (of->rcv_pack).payload[1+i];
 849              		.loc 1 131 20 is_stmt 1 discriminator 1 view .LVU295
 131:Core/drogui/sensor/optical/src/opticalFlow.c **** 				of->dis = (of->dis << 8) | (of->rcv_pack).payload[1+i];
 850              		.loc 1 131 4 is_stmt 0 discriminator 1 view .LVU296
 851 0102 002B     		cmp	r3, #0
 852 0104 F3DA     		bge	.L50
 853              	.LBE9:
 134:Core/drogui/sensor/optical/src/opticalFlow.c **** 			of -> last_tim = TIME;
 854              		.loc 1 134 4 is_stmt 1 view .LVU297
 134:Core/drogui/sensor/optical/src/opticalFlow.c **** 			of -> last_tim = TIME;
 855              		.loc 1 134 9 is_stmt 0 view .LVU298
 856 0106 0123     		movs	r3, #1
 857              	.LVL83:
 134:Core/drogui/sensor/optical/src/opticalFlow.c **** 			of -> last_tim = TIME;
 858              		.loc 1 134 9 view .LVU299
 859 0108 3370     		strb	r3, [r6]
 135:Core/drogui/sensor/optical/src/opticalFlow.c **** 			return OK;
 860              		.loc 1 135 4 is_stmt 1 view .LVU300
 135:Core/drogui/sensor/optical/src/opticalFlow.c **** 			return OK;
 861              		.loc 1 135 21 is_stmt 0 view .LVU301
 862 010a 054B     		ldr	r3, .L59
 863 010c 1B68     		ldr	r3, [r3]
 864 010e 5B6A     		ldr	r3, [r3, #36]
 135:Core/drogui/sensor/optical/src/opticalFlow.c **** 			return OK;
 865              		.loc 1 135 19 view .LVU302
 866 0110 C4F8EC30 		str	r3, [r4, #236]
 136:Core/drogui/sensor/optical/src/opticalFlow.c **** 		}
 867              		.loc 1 136 4 is_stmt 1 view .LVU303
 136:Core/drogui/sensor/optical/src/opticalFlow.c **** 		}
 868              		.loc 1 136 11 is_stmt 0 view .LVU304
 869 0114 87E7     		b	.L42
 870              	.L51:
 140:Core/drogui/sensor/optical/src/opticalFlow.c **** 		}
ARM GAS  C:\Users\GUILLE~1\AppData\Local\Temp\ccCbiiXg.s 			page 21


 871              		.loc 1 140 11 view .LVU305
 872 0116 0225     		movs	r5, #2
 873              	.LVL84:
 140:Core/drogui/sensor/optical/src/opticalFlow.c **** 		}
 874              		.loc 1 140 11 view .LVU306
 875 0118 85E7     		b	.L42
 876              	.L52:
 140:Core/drogui/sensor/optical/src/opticalFlow.c **** 		}
 877              		.loc 1 140 11 view .LVU307
 878              	.LBE6:
 143:Core/drogui/sensor/optical/src/opticalFlow.c **** 	return NO_DATA;
 879              		.loc 1 143 51 view .LVU308
 880 011a 0525     		movs	r5, #5
 881 011c 83E7     		b	.L42
 882              	.L60:
 883 011e 00BF     		.align	2
 884              	.L59:
 885 0120 00000000 		.word	htim5
 886              		.cfi_endproc
 887              	.LFE251:
 889              		.text
 890              	.Letext0:
 891              		.file 2 "c:\\program files (x86)\\gnu arm embedded toolchain\\10 2020-q4-major\\arm-none-eabi\\inc
 892              		.file 3 "c:\\program files (x86)\\gnu arm embedded toolchain\\10 2020-q4-major\\arm-none-eabi\\inc
 893              		.file 4 "Drivers/CMSIS/Device/ST/STM32F7xx/Include/stm32f746xx.h"
 894              		.file 5 "Drivers/STM32F7xx_HAL_Driver/Inc/stm32f7xx_hal_def.h"
 895              		.file 6 "Drivers/STM32F7xx_HAL_Driver/Inc/stm32f7xx_hal_dma.h"
 896              		.file 7 "Drivers/STM32F7xx_HAL_Driver/Inc/stm32f7xx_hal_tim.h"
 897              		.file 8 "Core/drogui/utils/include/utils.h"
 898              		.file 9 "Core/drogui/interfaces/include/serial.h"
 899              		.file 10 "Core/drogui/sensor/optical/include/opticalFlow.h"
 900              		.file 11 "Core/Inc/tim.h"
ARM GAS  C:\Users\GUILLE~1\AppData\Local\Temp\ccCbiiXg.s 			page 22

