ARM GAS  C:\Users\GUILLE~1\AppData\Local\Temp\cc7FSVBd.s 			page 1


   1              		.cpu cortex-m7
   2              		.eabi_attribute 27, 1
   3              		.eabi_attribute 28, 1
   4              		.eabi_attribute 20, 1
   5              		.eabi_attribute 21, 1
   6              		.eabi_attribute 23, 3
   7              		.eabi_attribute 24, 1
   8              		.eabi_attribute 25, 1
   9              		.eabi_attribute 26, 1
  10              		.eabi_attribute 30, 1
  11              		.eabi_attribute 34, 1
  12              		.eabi_attribute 18, 4
  13              		.file	"SAM_M8Q.c"
  14              		.text
  15              	.Ltext0:
  16              		.cfi_sections	.debug_frame
  17              		.section	.text.calcChecksum,"ax",%progbits
  18              		.align	1
  19              		.arch armv7e-m
  20              		.syntax unified
  21              		.thumb
  22              		.thumb_func
  23              		.fpu fpv5-sp-d16
  25              	calcChecksum:
  26              	.LVL0:
  27              	.LFB246:
  28              		.file 1 "Core/drogui/sensor/gps/src/SAM_M8Q.c"
   1:Core/drogui/sensor/gps/src/SAM_M8Q.c **** #include "macros.h"
   2:Core/drogui/sensor/gps/src/SAM_M8Q.c **** 
   3:Core/drogui/sensor/gps/src/SAM_M8Q.c **** #ifdef SAM_M8Q
   4:Core/drogui/sensor/gps/src/SAM_M8Q.c **** 
   5:Core/drogui/sensor/gps/src/SAM_M8Q.c **** #include "SAM_M8Q.h"
   6:Core/drogui/sensor/gps/src/SAM_M8Q.c **** #include "serial.h"
   7:Core/drogui/sensor/gps/src/SAM_M8Q.c **** #include "task.h"
   8:Core/drogui/sensor/gps/src/SAM_M8Q.c **** #include "macros.h"
   9:Core/drogui/sensor/gps/src/SAM_M8Q.c **** 
  10:Core/drogui/sensor/gps/src/SAM_M8Q.c **** 
  11:Core/drogui/sensor/gps/src/SAM_M8Q.c **** // https://www.u-blox.com/en/ubx-viewer/view/u-blox8-M8_ReceiverDescrProtSpec_UBX-13003221?url=http
  12:Core/drogui/sensor/gps/src/SAM_M8Q.c **** static uint8_t defaultCfgPort[20] = { 1, 0, 0, 0, 0xC0, 8, 0, 0, 0x00, 0x08, 0x07, 0, 7, 0, 1, 0, 0
  13:Core/drogui/sensor/gps/src/SAM_M8Q.c **** 
  14:Core/drogui/sensor/gps/src/SAM_M8Q.c **** // https://www.u-blox.com/en/ubx-viewer/view/u-blox8-M8_ReceiverDescrProtSpec_UBX-13003221?url=http
  15:Core/drogui/sensor/gps/src/SAM_M8Q.c **** //uint8_t defeultCfgRate[6]  = { 0xF4, 1, 1, 0, 1, 0 };
  16:Core/drogui/sensor/gps/src/SAM_M8Q.c **** static uint8_t defaultCfgRate[6]  = { 0x7D, 0, 1, 0, 1, 0 }; // 8hz
  17:Core/drogui/sensor/gps/src/SAM_M8Q.c **** 
  18:Core/drogui/sensor/gps/src/SAM_M8Q.c **** //https://www.u-blox.com/en/ubx-viewer/view/u-blox8-M8_ReceiverDescrProtSpec_UBX-13003221?url=https
  19:Core/drogui/sensor/gps/src/SAM_M8Q.c **** static uint8_t defaultCfgMsg[3]   = {UBX_CLASS_NAV, UBX_NAV_PVT, 1};
  20:Core/drogui/sensor/gps/src/SAM_M8Q.c **** 
  21:Core/drogui/sensor/gps/src/SAM_M8Q.c **** static void calcChecksum(ubxPacket *msg){
  29              		.loc 1 21 41 view -0
  30              		.cfi_startproc
  31              		@ args = 0, pretend = 0, frame = 0
  32              		@ frame_needed = 0, uses_anonymous_args = 0
  33              		@ link register save eliminated.
  22:Core/drogui/sensor/gps/src/SAM_M8Q.c **** 
  23:Core/drogui/sensor/gps/src/SAM_M8Q.c **** 	msg->checksumA = 0;
  34              		.loc 1 23 2 view .LVU1
  35              		.loc 1 23 17 is_stmt 0 view .LVU2
ARM GAS  C:\Users\GUILLE~1\AppData\Local\Temp\cc7FSVBd.s 			page 2


  36 0000 0022     		movs	r2, #0
  37 0002 80F8FA21 		strb	r2, [r0, #506]
  24:Core/drogui/sensor/gps/src/SAM_M8Q.c **** 	msg->checksumB = 0;
  38              		.loc 1 24 2 is_stmt 1 view .LVU3
  39              		.loc 1 24 17 is_stmt 0 view .LVU4
  40 0006 80F8FB21 		strb	r2, [r0, #507]
  25:Core/drogui/sensor/gps/src/SAM_M8Q.c **** 
  26:Core/drogui/sensor/gps/src/SAM_M8Q.c **** 	msg->checksumA += msg->cls;
  41              		.loc 1 26 2 is_stmt 1 view .LVU5
  42              		.loc 1 26 23 is_stmt 0 view .LVU6
  43 000a 0178     		ldrb	r1, [r0]	@ zero_extendqisi2
  44              		.loc 1 26 17 view .LVU7
  45 000c 80F8FA11 		strb	r1, [r0, #506]
  27:Core/drogui/sensor/gps/src/SAM_M8Q.c **** 	msg->checksumB += msg->checksumA;
  46              		.loc 1 27 2 is_stmt 1 view .LVU8
  47              		.loc 1 27 17 is_stmt 0 view .LVU9
  48 0010 80F8FB11 		strb	r1, [r0, #507]
  28:Core/drogui/sensor/gps/src/SAM_M8Q.c **** 
  29:Core/drogui/sensor/gps/src/SAM_M8Q.c **** 	msg->checksumA += msg->id;
  49              		.loc 1 29 2 is_stmt 1 view .LVU10
  50              		.loc 1 29 23 is_stmt 0 view .LVU11
  51 0014 4378     		ldrb	r3, [r0, #1]	@ zero_extendqisi2
  52              		.loc 1 29 17 view .LVU12
  53 0016 0B44     		add	r3, r3, r1
  54 0018 DBB2     		uxtb	r3, r3
  55 001a 80F8FA31 		strb	r3, [r0, #506]
  30:Core/drogui/sensor/gps/src/SAM_M8Q.c **** 	msg->checksumB += msg->checksumA;
  56              		.loc 1 30 2 is_stmt 1 view .LVU13
  57              		.loc 1 30 17 is_stmt 0 view .LVU14
  58 001e 1944     		add	r1, r1, r3
  59 0020 C9B2     		uxtb	r1, r1
  60 0022 80F8FB11 		strb	r1, [r0, #507]
  31:Core/drogui/sensor/gps/src/SAM_M8Q.c **** 
  32:Core/drogui/sensor/gps/src/SAM_M8Q.c **** 	msg->checksumA += (msg->len & 0xFF);
  61              		.loc 1 32 2 is_stmt 1 view .LVU15
  62              		.loc 1 32 24 is_stmt 0 view .LVU16
  63 0026 B0F802C0 		ldrh	ip, [r0, #2]
  64              		.loc 1 32 17 view .LVU17
  65 002a 6344     		add	r3, r3, ip
  66 002c DBB2     		uxtb	r3, r3
  67 002e 80F8FA31 		strb	r3, [r0, #506]
  33:Core/drogui/sensor/gps/src/SAM_M8Q.c **** 	msg->checksumB += msg->checksumA;
  68              		.loc 1 33 2 is_stmt 1 view .LVU18
  69              		.loc 1 33 17 is_stmt 0 view .LVU19
  70 0032 1944     		add	r1, r1, r3
  71 0034 C9B2     		uxtb	r1, r1
  72 0036 80F8FB11 		strb	r1, [r0, #507]
  34:Core/drogui/sensor/gps/src/SAM_M8Q.c **** 
  35:Core/drogui/sensor/gps/src/SAM_M8Q.c **** 	msg->checksumA += (msg->len >> 8);
  73              		.loc 1 35 2 is_stmt 1 view .LVU20
  74              		.loc 1 35 17 is_stmt 0 view .LVU21
  75 003a 03EB1C23 		add	r3, r3, ip, lsr #8
  76 003e DBB2     		uxtb	r3, r3
  77 0040 80F8FA31 		strb	r3, [r0, #506]
  36:Core/drogui/sensor/gps/src/SAM_M8Q.c **** 	msg->checksumB += msg->checksumA;
  78              		.loc 1 36 2 is_stmt 1 view .LVU22
  79              		.loc 1 36 17 is_stmt 0 view .LVU23
ARM GAS  C:\Users\GUILLE~1\AppData\Local\Temp\cc7FSVBd.s 			page 3


  80 0044 0B44     		add	r3, r3, r1
  81 0046 80F8FB31 		strb	r3, [r0, #507]
  37:Core/drogui/sensor/gps/src/SAM_M8Q.c **** 
  38:Core/drogui/sensor/gps/src/SAM_M8Q.c **** 	for (uint16_t i = 0; i < msg->len; i++)
  82              		.loc 1 38 2 is_stmt 1 view .LVU24
  83              	.LBB2:
  84              		.loc 1 38 7 view .LVU25
  85              	.LVL1:
  86              		.loc 1 38 2 is_stmt 0 view .LVU26
  87 004a 0EE0     		b	.L2
  88              	.LVL2:
  89              	.L3:
  39:Core/drogui/sensor/gps/src/SAM_M8Q.c **** 	{
  40:Core/drogui/sensor/gps/src/SAM_M8Q.c **** 		msg->checksumA += msg->payload[i];
  90              		.loc 1 40 3 is_stmt 1 discriminator 3 view .LVU27
  91              		.loc 1 40 33 is_stmt 0 discriminator 3 view .LVU28
  92 004c 8318     		adds	r3, r0, r2
  93 004e 9B79     		ldrb	r3, [r3, #6]	@ zero_extendqisi2
  94              		.loc 1 40 18 discriminator 3 view .LVU29
  95 0050 90F8FA11 		ldrb	r1, [r0, #506]	@ zero_extendqisi2
  96 0054 0B44     		add	r3, r3, r1
  97 0056 DBB2     		uxtb	r3, r3
  98 0058 80F8FA31 		strb	r3, [r0, #506]
  41:Core/drogui/sensor/gps/src/SAM_M8Q.c **** 		msg->checksumB += msg->checksumA;
  99              		.loc 1 41 3 is_stmt 1 discriminator 3 view .LVU30
 100              		.loc 1 41 18 is_stmt 0 discriminator 3 view .LVU31
 101 005c 90F8FB11 		ldrb	r1, [r0, #507]	@ zero_extendqisi2
 102 0060 0B44     		add	r3, r3, r1
 103 0062 80F8FB31 		strb	r3, [r0, #507]
  38:Core/drogui/sensor/gps/src/SAM_M8Q.c **** 	{
 104              		.loc 1 38 37 is_stmt 1 discriminator 3 view .LVU32
  38:Core/drogui/sensor/gps/src/SAM_M8Q.c **** 	{
 105              		.loc 1 38 38 is_stmt 0 discriminator 3 view .LVU33
 106 0066 0132     		adds	r2, r2, #1
 107              	.LVL3:
  38:Core/drogui/sensor/gps/src/SAM_M8Q.c **** 	{
 108              		.loc 1 38 38 discriminator 3 view .LVU34
 109 0068 92B2     		uxth	r2, r2
 110              	.LVL4:
 111              	.L2:
  38:Core/drogui/sensor/gps/src/SAM_M8Q.c **** 	{
 112              		.loc 1 38 23 is_stmt 1 discriminator 1 view .LVU35
  38:Core/drogui/sensor/gps/src/SAM_M8Q.c **** 	{
 113              		.loc 1 38 2 is_stmt 0 discriminator 1 view .LVU36
 114 006a 9445     		cmp	ip, r2
 115 006c EED8     		bhi	.L3
 116              	.LBE2:
  42:Core/drogui/sensor/gps/src/SAM_M8Q.c **** 	}
  43:Core/drogui/sensor/gps/src/SAM_M8Q.c **** }
 117              		.loc 1 43 1 view .LVU37
 118 006e 7047     		bx	lr
 119              		.cfi_endproc
 120              	.LFE246:
 122              		.section	.text.sendSerialCommand,"ax",%progbits
 123              		.align	1
 124              		.syntax unified
 125              		.thumb
ARM GAS  C:\Users\GUILLE~1\AppData\Local\Temp\cc7FSVBd.s 			page 4


 126              		.thumb_func
 127              		.fpu fpv5-sp-d16
 129              	sendSerialCommand:
 130              	.LVL5:
 131              	.LFB247:
  44:Core/drogui/sensor/gps/src/SAM_M8Q.c **** 
  45:Core/drogui/sensor/gps/src/SAM_M8Q.c **** static void sendSerialCommand(ubxPacket *outgoingUBX)
  46:Core/drogui/sensor/gps/src/SAM_M8Q.c **** {
 132              		.loc 1 46 1 is_stmt 1 view -0
 133              		.cfi_startproc
 134              		@ args = 0, pretend = 0, frame = 0
 135              		@ frame_needed = 0, uses_anonymous_args = 0
 136              		.loc 1 46 1 is_stmt 0 view .LVU39
 137 0000 38B5     		push	{r3, r4, r5, lr}
 138              	.LCFI0:
 139              		.cfi_def_cfa_offset 16
 140              		.cfi_offset 3, -16
 141              		.cfi_offset 4, -12
 142              		.cfi_offset 5, -8
 143              		.cfi_offset 14, -4
 144 0002 0446     		mov	r4, r0
  47:Core/drogui/sensor/gps/src/SAM_M8Q.c **** 	//Write header bytes
  48:Core/drogui/sensor/gps/src/SAM_M8Q.c **** 	serialWrite(outgoingUBX->ser, UBX_SYNCH_1); //μ - oh ublox, you're funny. I will call you micro-b
 145              		.loc 1 48 2 is_stmt 1 view .LVU40
 146 0004 B521     		movs	r1, #181
 147 0006 D0F8FC01 		ldr	r0, [r0, #508]
 148              	.LVL6:
 149              		.loc 1 48 2 is_stmt 0 view .LVU41
 150 000a FFF7FEFF 		bl	serialWrite
 151              	.LVL7:
  49:Core/drogui/sensor/gps/src/SAM_M8Q.c **** 	serialWrite(outgoingUBX->ser, UBX_SYNCH_2); //b
 152              		.loc 1 49 2 is_stmt 1 view .LVU42
 153 000e 6221     		movs	r1, #98
 154 0010 D4F8FC01 		ldr	r0, [r4, #508]
 155 0014 FFF7FEFF 		bl	serialWrite
 156              	.LVL8:
  50:Core/drogui/sensor/gps/src/SAM_M8Q.c **** 	serialWrite(outgoingUBX->ser, outgoingUBX->cls);
 157              		.loc 1 50 2 view .LVU43
 158 0018 2178     		ldrb	r1, [r4]	@ zero_extendqisi2
 159 001a D4F8FC01 		ldr	r0, [r4, #508]
 160 001e FFF7FEFF 		bl	serialWrite
 161              	.LVL9:
  51:Core/drogui/sensor/gps/src/SAM_M8Q.c **** 	serialWrite(outgoingUBX->ser, outgoingUBX->id);
 162              		.loc 1 51 2 view .LVU44
 163 0022 6178     		ldrb	r1, [r4, #1]	@ zero_extendqisi2
 164 0024 D4F8FC01 		ldr	r0, [r4, #508]
 165 0028 FFF7FEFF 		bl	serialWrite
 166              	.LVL10:
  52:Core/drogui/sensor/gps/src/SAM_M8Q.c **** 	serialWrite(outgoingUBX->ser, outgoingUBX->len & 0xFF); //LSB
 167              		.loc 1 52 2 view .LVU45
 168 002c A178     		ldrb	r1, [r4, #2]	@ zero_extendqisi2
 169 002e D4F8FC01 		ldr	r0, [r4, #508]
 170 0032 FFF7FEFF 		bl	serialWrite
 171              	.LVL11:
  53:Core/drogui/sensor/gps/src/SAM_M8Q.c **** 	serialWrite(outgoingUBX->ser, outgoingUBX->len >> 8);   //MSB
 172              		.loc 1 53 2 view .LVU46
 173              		.loc 1 53 43 is_stmt 0 view .LVU47
ARM GAS  C:\Users\GUILLE~1\AppData\Local\Temp\cc7FSVBd.s 			page 5


 174 0036 6188     		ldrh	r1, [r4, #2]
 175              		.loc 1 53 2 view .LVU48
 176 0038 090A     		lsrs	r1, r1, #8
 177 003a D4F8FC01 		ldr	r0, [r4, #508]
 178 003e FFF7FEFF 		bl	serialWrite
 179              	.LVL12:
  54:Core/drogui/sensor/gps/src/SAM_M8Q.c **** 
  55:Core/drogui/sensor/gps/src/SAM_M8Q.c **** 	//Write payload.
  56:Core/drogui/sensor/gps/src/SAM_M8Q.c **** 	for (int i = 0; i < outgoingUBX->len; i++)
 180              		.loc 1 56 2 is_stmt 1 view .LVU49
 181              	.LBB3:
 182              		.loc 1 56 7 view .LVU50
 183              		.loc 1 56 11 is_stmt 0 view .LVU51
 184 0042 0025     		movs	r5, #0
 185              		.loc 1 56 2 view .LVU52
 186 0044 06E0     		b	.L5
 187              	.LVL13:
 188              	.L6:
  57:Core/drogui/sensor/gps/src/SAM_M8Q.c **** 	{
  58:Core/drogui/sensor/gps/src/SAM_M8Q.c **** 		serialWrite(outgoingUBX->ser, outgoingUBX->payload[i]);
 189              		.loc 1 58 3 is_stmt 1 discriminator 3 view .LVU53
 190              		.loc 1 58 53 is_stmt 0 discriminator 3 view .LVU54
 191 0046 6319     		adds	r3, r4, r5
 192              		.loc 1 58 3 discriminator 3 view .LVU55
 193 0048 9979     		ldrb	r1, [r3, #6]	@ zero_extendqisi2
 194 004a D4F8FC01 		ldr	r0, [r4, #508]
 195 004e FFF7FEFF 		bl	serialWrite
 196              	.LVL14:
  56:Core/drogui/sensor/gps/src/SAM_M8Q.c **** 	{
 197              		.loc 1 56 40 is_stmt 1 discriminator 3 view .LVU56
  56:Core/drogui/sensor/gps/src/SAM_M8Q.c **** 	{
 198              		.loc 1 56 41 is_stmt 0 discriminator 3 view .LVU57
 199 0052 0135     		adds	r5, r5, #1
 200              	.LVL15:
 201              	.L5:
  56:Core/drogui/sensor/gps/src/SAM_M8Q.c **** 	{
 202              		.loc 1 56 18 is_stmt 1 discriminator 1 view .LVU58
  56:Core/drogui/sensor/gps/src/SAM_M8Q.c **** 	{
 203              		.loc 1 56 33 is_stmt 0 discriminator 1 view .LVU59
 204 0054 6388     		ldrh	r3, [r4, #2]
  56:Core/drogui/sensor/gps/src/SAM_M8Q.c **** 	{
 205              		.loc 1 56 2 discriminator 1 view .LVU60
 206 0056 AB42     		cmp	r3, r5
 207 0058 F5DC     		bgt	.L6
 208              	.LBE3:
  59:Core/drogui/sensor/gps/src/SAM_M8Q.c **** 	}
  60:Core/drogui/sensor/gps/src/SAM_M8Q.c **** 
  61:Core/drogui/sensor/gps/src/SAM_M8Q.c **** 	//Write checksum
  62:Core/drogui/sensor/gps/src/SAM_M8Q.c **** 	serialWrite(outgoingUBX->ser, outgoingUBX->checksumA);
 209              		.loc 1 62 2 is_stmt 1 view .LVU61
 210 005a 94F8FA11 		ldrb	r1, [r4, #506]	@ zero_extendqisi2
 211 005e D4F8FC01 		ldr	r0, [r4, #508]
 212 0062 FFF7FEFF 		bl	serialWrite
 213              	.LVL16:
  63:Core/drogui/sensor/gps/src/SAM_M8Q.c **** 	serialWrite(outgoingUBX->ser, outgoingUBX->checksumB);
 214              		.loc 1 63 2 view .LVU62
 215 0066 94F8FB11 		ldrb	r1, [r4, #507]	@ zero_extendqisi2
ARM GAS  C:\Users\GUILLE~1\AppData\Local\Temp\cc7FSVBd.s 			page 6


 216 006a D4F8FC01 		ldr	r0, [r4, #508]
 217 006e FFF7FEFF 		bl	serialWrite
 218              	.LVL17:
  64:Core/drogui/sensor/gps/src/SAM_M8Q.c **** }
 219              		.loc 1 64 1 is_stmt 0 view .LVU63
 220 0072 38BD     		pop	{r3, r4, r5, pc}
 221              		.loc 1 64 1 view .LVU64
 222              		.cfi_endproc
 223              	.LFE247:
 225              		.section	.text.sndUBX,"ax",%progbits
 226              		.align	1
 227              		.syntax unified
 228              		.thumb
 229              		.thumb_func
 230              		.fpu fpv5-sp-d16
 232              	sndUBX:
 233              	.LVL18:
 234              	.LFB249:
  65:Core/drogui/sensor/gps/src/SAM_M8Q.c **** 
  66:Core/drogui/sensor/gps/src/SAM_M8Q.c **** static SENSOR_STATUS readPacket(ubxPacket *mp, uint32_t timeout){
  67:Core/drogui/sensor/gps/src/SAM_M8Q.c **** 	uint8_t sync1 = 0, sync2 = 0, cntLSB, cntMSB;
  68:Core/drogui/sensor/gps/src/SAM_M8Q.c **** 	uint8_t checksumA, checksumB, flag = 0;
  69:Core/drogui/sensor/gps/src/SAM_M8Q.c **** 	uint32_t tim = TIME;
  70:Core/drogui/sensor/gps/src/SAM_M8Q.c **** 	while(TIME - tim < timeout){
  71:Core/drogui/sensor/gps/src/SAM_M8Q.c **** 		if(serialAvailable(mp->ser)){
  72:Core/drogui/sensor/gps/src/SAM_M8Q.c **** 			sync1 = sync2;
  73:Core/drogui/sensor/gps/src/SAM_M8Q.c **** 			sync2 = serialRead(mp->ser);
  74:Core/drogui/sensor/gps/src/SAM_M8Q.c **** 		}
  75:Core/drogui/sensor/gps/src/SAM_M8Q.c **** 
  76:Core/drogui/sensor/gps/src/SAM_M8Q.c **** 		if(sync1 == UBX_SYNCH_1 && sync2 == UBX_SYNCH_2){
  77:Core/drogui/sensor/gps/src/SAM_M8Q.c **** 			while(!serialAvailable(mp->ser));
  78:Core/drogui/sensor/gps/src/SAM_M8Q.c **** 			mp->cls = serialRead(mp->ser);
  79:Core/drogui/sensor/gps/src/SAM_M8Q.c **** 			while(!serialAvailable(mp->ser));
  80:Core/drogui/sensor/gps/src/SAM_M8Q.c **** 			mp->id = serialRead(mp->ser);
  81:Core/drogui/sensor/gps/src/SAM_M8Q.c **** 
  82:Core/drogui/sensor/gps/src/SAM_M8Q.c **** 			while(!serialAvailable(mp->ser));
  83:Core/drogui/sensor/gps/src/SAM_M8Q.c **** 			cntLSB = serialRead(mp->ser);
  84:Core/drogui/sensor/gps/src/SAM_M8Q.c **** 			while(!serialAvailable(mp->ser));
  85:Core/drogui/sensor/gps/src/SAM_M8Q.c **** 			cntMSB = serialRead(mp->ser);
  86:Core/drogui/sensor/gps/src/SAM_M8Q.c **** 
  87:Core/drogui/sensor/gps/src/SAM_M8Q.c **** 			mp->len = (uint16_t) (cntMSB << 8) | (cntLSB & 0xFF);
  88:Core/drogui/sensor/gps/src/SAM_M8Q.c **** 
  89:Core/drogui/sensor/gps/src/SAM_M8Q.c **** 			for(int i = 0; i < mp->len ; i++){
  90:Core/drogui/sensor/gps/src/SAM_M8Q.c **** 				while(!serialAvailable(mp->ser));
  91:Core/drogui/sensor/gps/src/SAM_M8Q.c **** 				mp->payload[i] = serialRead(mp->ser);
  92:Core/drogui/sensor/gps/src/SAM_M8Q.c **** 			}
  93:Core/drogui/sensor/gps/src/SAM_M8Q.c **** 
  94:Core/drogui/sensor/gps/src/SAM_M8Q.c **** 			while(!serialAvailable(mp->ser));
  95:Core/drogui/sensor/gps/src/SAM_M8Q.c **** 			checksumA = serialRead(mp->ser);
  96:Core/drogui/sensor/gps/src/SAM_M8Q.c **** 
  97:Core/drogui/sensor/gps/src/SAM_M8Q.c **** 			while(!serialAvailable(mp->ser));
  98:Core/drogui/sensor/gps/src/SAM_M8Q.c **** 			checksumB = serialRead(mp->ser);
  99:Core/drogui/sensor/gps/src/SAM_M8Q.c **** 
 100:Core/drogui/sensor/gps/src/SAM_M8Q.c **** 			calcChecksum(mp);
 101:Core/drogui/sensor/gps/src/SAM_M8Q.c **** 			flag = 1;
 102:Core/drogui/sensor/gps/src/SAM_M8Q.c **** 		}
 103:Core/drogui/sensor/gps/src/SAM_M8Q.c **** 
ARM GAS  C:\Users\GUILLE~1\AppData\Local\Temp\cc7FSVBd.s 			page 7


 104:Core/drogui/sensor/gps/src/SAM_M8Q.c **** 		if(flag == 1) break;
 105:Core/drogui/sensor/gps/src/SAM_M8Q.c **** 
 106:Core/drogui/sensor/gps/src/SAM_M8Q.c **** 	}
 107:Core/drogui/sensor/gps/src/SAM_M8Q.c **** 
 108:Core/drogui/sensor/gps/src/SAM_M8Q.c **** 	if(flag == 0) return TIMEOUT;
 109:Core/drogui/sensor/gps/src/SAM_M8Q.c **** 	if((mp->checksumA == checksumA) && (mp->checksumB == checksumB)) return OK;
 110:Core/drogui/sensor/gps/src/SAM_M8Q.c **** 	else return WRG_CHKSUM;
 111:Core/drogui/sensor/gps/src/SAM_M8Q.c **** }
 112:Core/drogui/sensor/gps/src/SAM_M8Q.c **** 
 113:Core/drogui/sensor/gps/src/SAM_M8Q.c **** 
 114:Core/drogui/sensor/gps/src/SAM_M8Q.c **** static void sndUBX(ubxPacket *mp, uint8_t class, uint8_t id,uint8_t len, uint8_t *array){
 235              		.loc 1 114 89 is_stmt 1 view -0
 236              		.cfi_startproc
 237              		@ args = 4, pretend = 0, frame = 0
 238              		@ frame_needed = 0, uses_anonymous_args = 0
 239              		.loc 1 114 89 is_stmt 0 view .LVU66
 240 0000 10B5     		push	{r4, lr}
 241              	.LCFI1:
 242              		.cfi_def_cfa_offset 8
 243              		.cfi_offset 4, -8
 244              		.cfi_offset 14, -4
 245 0002 0446     		mov	r4, r0
 246 0004 0298     		ldr	r0, [sp, #8]
 247              	.LVL19:
 115:Core/drogui/sensor/gps/src/SAM_M8Q.c **** 	mp->cls = class;
 248              		.loc 1 115 2 is_stmt 1 view .LVU67
 249              		.loc 1 115 10 is_stmt 0 view .LVU68
 250 0006 2170     		strb	r1, [r4]
 116:Core/drogui/sensor/gps/src/SAM_M8Q.c **** 	mp->id  = id;
 251              		.loc 1 116 2 is_stmt 1 view .LVU69
 252              		.loc 1 116 10 is_stmt 0 view .LVU70
 253 0008 6270     		strb	r2, [r4, #1]
 117:Core/drogui/sensor/gps/src/SAM_M8Q.c **** 	mp->len = len;
 254              		.loc 1 117 2 is_stmt 1 view .LVU71
 255              		.loc 1 117 10 is_stmt 0 view .LVU72
 256 000a 6380     		strh	r3, [r4, #2]	@ movhi
 118:Core/drogui/sensor/gps/src/SAM_M8Q.c **** 	for( int i = 0; i < len; i++ ) mp->payload[i] = array[i];
 257              		.loc 1 118 2 is_stmt 1 view .LVU73
 258              	.LBB4:
 259              		.loc 1 118 7 view .LVU74
 260              	.LVL20:
 261              		.loc 1 118 11 is_stmt 0 view .LVU75
 262 000c 0022     		movs	r2, #0
 263              	.LVL21:
 264              		.loc 1 118 2 view .LVU76
 265 000e 05E0     		b	.L9
 266              	.LVL22:
 267              	.L10:
 268              		.loc 1 118 33 is_stmt 1 discriminator 3 view .LVU77
 269              		.loc 1 118 55 is_stmt 0 discriminator 3 view .LVU78
 270 0010 10F802C0 		ldrb	ip, [r0, r2]	@ zero_extendqisi2
 271              		.loc 1 118 48 discriminator 3 view .LVU79
 272 0014 A118     		adds	r1, r4, r2
 273 0016 81F806C0 		strb	ip, [r1, #6]
 274              		.loc 1 118 27 is_stmt 1 discriminator 3 view .LVU80
 275              		.loc 1 118 28 is_stmt 0 discriminator 3 view .LVU81
 276 001a 0132     		adds	r2, r2, #1
ARM GAS  C:\Users\GUILLE~1\AppData\Local\Temp\cc7FSVBd.s 			page 8


 277              	.LVL23:
 278              	.L9:
 279              		.loc 1 118 18 is_stmt 1 discriminator 1 view .LVU82
 280              		.loc 1 118 2 is_stmt 0 discriminator 1 view .LVU83
 281 001c 9342     		cmp	r3, r2
 282 001e F7DC     		bgt	.L10
 283              	.LBE4:
 119:Core/drogui/sensor/gps/src/SAM_M8Q.c **** 	calcChecksum(mp);
 284              		.loc 1 119 2 is_stmt 1 view .LVU84
 285 0020 2046     		mov	r0, r4
 286 0022 FFF7FEFF 		bl	calcChecksum
 287              	.LVL24:
 120:Core/drogui/sensor/gps/src/SAM_M8Q.c **** 	sendSerialCommand(mp);
 288              		.loc 1 120 2 view .LVU85
 289 0026 2046     		mov	r0, r4
 290 0028 FFF7FEFF 		bl	sendSerialCommand
 291              	.LVL25:
 121:Core/drogui/sensor/gps/src/SAM_M8Q.c **** }
 292              		.loc 1 121 1 is_stmt 0 view .LVU86
 293 002c 10BD     		pop	{r4, pc}
 294              		.loc 1 121 1 view .LVU87
 295              		.cfi_endproc
 296              	.LFE249:
 298              		.section	.text.readPacket,"ax",%progbits
 299              		.align	1
 300              		.syntax unified
 301              		.thumb
 302              		.thumb_func
 303              		.fpu fpv5-sp-d16
 305              	readPacket:
 306              	.LVL26:
 307              	.LFB248:
  66:Core/drogui/sensor/gps/src/SAM_M8Q.c **** 	uint8_t sync1 = 0, sync2 = 0, cntLSB, cntMSB;
 308              		.loc 1 66 65 is_stmt 1 view -0
 309              		.cfi_startproc
 310              		@ args = 0, pretend = 0, frame = 0
 311              		@ frame_needed = 0, uses_anonymous_args = 0
  66:Core/drogui/sensor/gps/src/SAM_M8Q.c **** 	uint8_t sync1 = 0, sync2 = 0, cntLSB, cntMSB;
 312              		.loc 1 66 65 is_stmt 0 view .LVU89
 313 0000 2DE9F84F 		push	{r3, r4, r5, r6, r7, r8, r9, r10, fp, lr}
 314              	.LCFI2:
 315              		.cfi_def_cfa_offset 40
 316              		.cfi_offset 3, -40
 317              		.cfi_offset 4, -36
 318              		.cfi_offset 5, -32
 319              		.cfi_offset 6, -28
 320              		.cfi_offset 7, -24
 321              		.cfi_offset 8, -20
 322              		.cfi_offset 9, -16
 323              		.cfi_offset 10, -12
 324              		.cfi_offset 11, -8
 325              		.cfi_offset 14, -4
 326 0004 0446     		mov	r4, r0
 327 0006 8846     		mov	r8, r1
 328 0008 4FF0000A 		mov	r10, #0
 329 000c D346     		mov	fp, r10
  67:Core/drogui/sensor/gps/src/SAM_M8Q.c **** 	uint8_t checksumA, checksumB, flag = 0;
ARM GAS  C:\Users\GUILLE~1\AppData\Local\Temp\cc7FSVBd.s 			page 9


 330              		.loc 1 67 2 is_stmt 1 view .LVU90
 331              	.LVL27:
  68:Core/drogui/sensor/gps/src/SAM_M8Q.c **** 	uint32_t tim = TIME;
 332              		.loc 1 68 2 view .LVU91
  69:Core/drogui/sensor/gps/src/SAM_M8Q.c **** 	while(TIME - tim < timeout){
 333              		.loc 1 69 2 view .LVU92
  69:Core/drogui/sensor/gps/src/SAM_M8Q.c **** 	while(TIME - tim < timeout){
 334              		.loc 1 69 17 is_stmt 0 view .LVU93
 335 000e 484B     		ldr	r3, .L31
 336 0010 1B68     		ldr	r3, [r3]
  69:Core/drogui/sensor/gps/src/SAM_M8Q.c **** 	while(TIME - tim < timeout){
 337              		.loc 1 69 11 view .LVU94
 338 0012 D3F82490 		ldr	r9, [r3, #36]
 339              	.LVL28:
  70:Core/drogui/sensor/gps/src/SAM_M8Q.c **** 		if(serialAvailable(mp->ser)){
 340              		.loc 1 70 2 is_stmt 1 view .LVU95
  68:Core/drogui/sensor/gps/src/SAM_M8Q.c **** 	uint32_t tim = TIME;
 341              		.loc 1 68 32 is_stmt 0 view .LVU96
 342 0016 5546     		mov	r5, r10
  67:Core/drogui/sensor/gps/src/SAM_M8Q.c **** 	uint8_t checksumA, checksumB, flag = 0;
 343              		.loc 1 67 21 view .LVU97
 344 0018 5646     		mov	r6, r10
  67:Core/drogui/sensor/gps/src/SAM_M8Q.c **** 	uint8_t checksumA, checksumB, flag = 0;
 345              		.loc 1 67 10 view .LVU98
 346 001a 5746     		mov	r7, r10
  70:Core/drogui/sensor/gps/src/SAM_M8Q.c **** 		if(serialAvailable(mp->ser)){
 347              		.loc 1 70 7 view .LVU99
 348 001c 05E0     		b	.L13
 349              	.LVL29:
 350              	.L14:
  76:Core/drogui/sensor/gps/src/SAM_M8Q.c **** 			while(!serialAvailable(mp->ser));
 351              		.loc 1 76 3 is_stmt 1 view .LVU100
  76:Core/drogui/sensor/gps/src/SAM_M8Q.c **** 			while(!serialAvailable(mp->ser));
 352              		.loc 1 76 5 is_stmt 0 view .LVU101
 353 001e B52F     		cmp	r7, #181
 354 0020 08BF     		it	eq
 355 0022 622E     		cmpeq	r6, #98
 356 0024 15D0     		beq	.L16
 357              	.LVL30:
 358              	.L15:
 104:Core/drogui/sensor/gps/src/SAM_M8Q.c **** 
 359              		.loc 1 104 3 is_stmt 1 view .LVU102
 104:Core/drogui/sensor/gps/src/SAM_M8Q.c **** 
 360              		.loc 1 104 5 is_stmt 0 view .LVU103
 361 0026 002D     		cmp	r5, #0
 362 0028 6FD1     		bne	.L24
 363              	.LVL31:
 364              	.L13:
  70:Core/drogui/sensor/gps/src/SAM_M8Q.c **** 		if(serialAvailable(mp->ser)){
 365              		.loc 1 70 7 is_stmt 1 view .LVU104
  70:Core/drogui/sensor/gps/src/SAM_M8Q.c **** 		if(serialAvailable(mp->ser)){
 366              		.loc 1 70 8 is_stmt 0 view .LVU105
 367 002a 414B     		ldr	r3, .L31
 368 002c 1B68     		ldr	r3, [r3]
 369 002e 5B6A     		ldr	r3, [r3, #36]
  70:Core/drogui/sensor/gps/src/SAM_M8Q.c **** 		if(serialAvailable(mp->ser)){
 370              		.loc 1 70 13 view .LVU106
ARM GAS  C:\Users\GUILLE~1\AppData\Local\Temp\cc7FSVBd.s 			page 10


 371 0030 A3EB0903 		sub	r3, r3, r9
  70:Core/drogui/sensor/gps/src/SAM_M8Q.c **** 		if(serialAvailable(mp->ser)){
 372              		.loc 1 70 7 view .LVU107
 373 0034 4345     		cmp	r3, r8
 374 0036 68D2     		bcs	.L24
  71:Core/drogui/sensor/gps/src/SAM_M8Q.c **** 			sync1 = sync2;
 375              		.loc 1 71 3 is_stmt 1 view .LVU108
  71:Core/drogui/sensor/gps/src/SAM_M8Q.c **** 			sync1 = sync2;
 376              		.loc 1 71 6 is_stmt 0 view .LVU109
 377 0038 D4F8FC01 		ldr	r0, [r4, #508]
 378 003c FFF7FEFF 		bl	serialAvailable
 379              	.LVL32:
  71:Core/drogui/sensor/gps/src/SAM_M8Q.c **** 			sync1 = sync2;
 380              		.loc 1 71 5 view .LVU110
 381 0040 0028     		cmp	r0, #0
 382 0042 ECD0     		beq	.L14
  72:Core/drogui/sensor/gps/src/SAM_M8Q.c **** 			sync2 = serialRead(mp->ser);
 383              		.loc 1 72 4 is_stmt 1 view .LVU111
 384              	.LVL33:
  73:Core/drogui/sensor/gps/src/SAM_M8Q.c **** 		}
 385              		.loc 1 73 4 view .LVU112
  73:Core/drogui/sensor/gps/src/SAM_M8Q.c **** 		}
 386              		.loc 1 73 12 is_stmt 0 view .LVU113
 387 0044 D4F8FC01 		ldr	r0, [r4, #508]
 388 0048 FFF7FEFF 		bl	serialRead
 389              	.LVL34:
  72:Core/drogui/sensor/gps/src/SAM_M8Q.c **** 			sync2 = serialRead(mp->ser);
 390              		.loc 1 72 10 view .LVU114
 391 004c 3746     		mov	r7, r6
  73:Core/drogui/sensor/gps/src/SAM_M8Q.c **** 		}
 392              		.loc 1 73 12 view .LVU115
 393 004e 0646     		mov	r6, r0
 394              	.LVL35:
  73:Core/drogui/sensor/gps/src/SAM_M8Q.c **** 		}
 395              		.loc 1 73 12 view .LVU116
 396 0050 E5E7     		b	.L14
 397              	.LVL36:
 398              	.L16:
  77:Core/drogui/sensor/gps/src/SAM_M8Q.c **** 			mp->cls = serialRead(mp->ser);
 399              		.loc 1 77 36 is_stmt 1 discriminator 1 view .LVU117
  77:Core/drogui/sensor/gps/src/SAM_M8Q.c **** 			mp->cls = serialRead(mp->ser);
 400              		.loc 1 77 9 discriminator 1 view .LVU118
  77:Core/drogui/sensor/gps/src/SAM_M8Q.c **** 			mp->cls = serialRead(mp->ser);
 401              		.loc 1 77 11 is_stmt 0 discriminator 1 view .LVU119
 402 0052 D4F8FC01 		ldr	r0, [r4, #508]
 403 0056 FFF7FEFF 		bl	serialAvailable
 404              	.LVL37:
  77:Core/drogui/sensor/gps/src/SAM_M8Q.c **** 			mp->cls = serialRead(mp->ser);
 405              		.loc 1 77 9 discriminator 1 view .LVU120
 406 005a 0028     		cmp	r0, #0
 407 005c F9D0     		beq	.L16
  78:Core/drogui/sensor/gps/src/SAM_M8Q.c **** 			while(!serialAvailable(mp->ser));
 408              		.loc 1 78 4 is_stmt 1 view .LVU121
  78:Core/drogui/sensor/gps/src/SAM_M8Q.c **** 			while(!serialAvailable(mp->ser));
 409              		.loc 1 78 14 is_stmt 0 view .LVU122
 410 005e D4F8FC01 		ldr	r0, [r4, #508]
 411 0062 FFF7FEFF 		bl	serialRead
ARM GAS  C:\Users\GUILLE~1\AppData\Local\Temp\cc7FSVBd.s 			page 11


 412              	.LVL38:
  78:Core/drogui/sensor/gps/src/SAM_M8Q.c **** 			while(!serialAvailable(mp->ser));
 413              		.loc 1 78 12 view .LVU123
 414 0066 2070     		strb	r0, [r4]
  79:Core/drogui/sensor/gps/src/SAM_M8Q.c **** 			mp->id = serialRead(mp->ser);
 415              		.loc 1 79 4 is_stmt 1 view .LVU124
 416              	.L17:
  79:Core/drogui/sensor/gps/src/SAM_M8Q.c **** 			mp->id = serialRead(mp->ser);
 417              		.loc 1 79 36 discriminator 1 view .LVU125
  79:Core/drogui/sensor/gps/src/SAM_M8Q.c **** 			mp->id = serialRead(mp->ser);
 418              		.loc 1 79 9 discriminator 1 view .LVU126
  79:Core/drogui/sensor/gps/src/SAM_M8Q.c **** 			mp->id = serialRead(mp->ser);
 419              		.loc 1 79 11 is_stmt 0 discriminator 1 view .LVU127
 420 0068 D4F8FC01 		ldr	r0, [r4, #508]
 421 006c FFF7FEFF 		bl	serialAvailable
 422              	.LVL39:
  79:Core/drogui/sensor/gps/src/SAM_M8Q.c **** 			mp->id = serialRead(mp->ser);
 423              		.loc 1 79 9 discriminator 1 view .LVU128
 424 0070 0028     		cmp	r0, #0
 425 0072 F9D0     		beq	.L17
  80:Core/drogui/sensor/gps/src/SAM_M8Q.c **** 
 426              		.loc 1 80 4 is_stmt 1 view .LVU129
  80:Core/drogui/sensor/gps/src/SAM_M8Q.c **** 
 427              		.loc 1 80 13 is_stmt 0 view .LVU130
 428 0074 D4F8FC01 		ldr	r0, [r4, #508]
 429 0078 FFF7FEFF 		bl	serialRead
 430              	.LVL40:
  80:Core/drogui/sensor/gps/src/SAM_M8Q.c **** 
 431              		.loc 1 80 11 view .LVU131
 432 007c 6070     		strb	r0, [r4, #1]
  82:Core/drogui/sensor/gps/src/SAM_M8Q.c **** 			cntLSB = serialRead(mp->ser);
 433              		.loc 1 82 4 is_stmt 1 view .LVU132
 434              	.L18:
  82:Core/drogui/sensor/gps/src/SAM_M8Q.c **** 			cntLSB = serialRead(mp->ser);
 435              		.loc 1 82 36 discriminator 1 view .LVU133
  82:Core/drogui/sensor/gps/src/SAM_M8Q.c **** 			cntLSB = serialRead(mp->ser);
 436              		.loc 1 82 9 discriminator 1 view .LVU134
  82:Core/drogui/sensor/gps/src/SAM_M8Q.c **** 			cntLSB = serialRead(mp->ser);
 437              		.loc 1 82 11 is_stmt 0 discriminator 1 view .LVU135
 438 007e D4F8FC01 		ldr	r0, [r4, #508]
 439 0082 FFF7FEFF 		bl	serialAvailable
 440              	.LVL41:
  82:Core/drogui/sensor/gps/src/SAM_M8Q.c **** 			cntLSB = serialRead(mp->ser);
 441              		.loc 1 82 9 discriminator 1 view .LVU136
 442 0086 0028     		cmp	r0, #0
 443 0088 F9D0     		beq	.L18
  83:Core/drogui/sensor/gps/src/SAM_M8Q.c **** 			while(!serialAvailable(mp->ser));
 444              		.loc 1 83 4 is_stmt 1 view .LVU137
  83:Core/drogui/sensor/gps/src/SAM_M8Q.c **** 			while(!serialAvailable(mp->ser));
 445              		.loc 1 83 13 is_stmt 0 view .LVU138
 446 008a D4F8FC01 		ldr	r0, [r4, #508]
 447 008e FFF7FEFF 		bl	serialRead
 448              	.LVL42:
 449 0092 0546     		mov	r5, r0
 450              	.LVL43:
  84:Core/drogui/sensor/gps/src/SAM_M8Q.c **** 			cntMSB = serialRead(mp->ser);
 451              		.loc 1 84 4 is_stmt 1 view .LVU139
ARM GAS  C:\Users\GUILLE~1\AppData\Local\Temp\cc7FSVBd.s 			page 12


 452              	.L19:
  84:Core/drogui/sensor/gps/src/SAM_M8Q.c **** 			cntMSB = serialRead(mp->ser);
 453              		.loc 1 84 36 discriminator 1 view .LVU140
  84:Core/drogui/sensor/gps/src/SAM_M8Q.c **** 			cntMSB = serialRead(mp->ser);
 454              		.loc 1 84 9 discriminator 1 view .LVU141
  84:Core/drogui/sensor/gps/src/SAM_M8Q.c **** 			cntMSB = serialRead(mp->ser);
 455              		.loc 1 84 11 is_stmt 0 discriminator 1 view .LVU142
 456 0094 D4F8FC01 		ldr	r0, [r4, #508]
 457 0098 FFF7FEFF 		bl	serialAvailable
 458              	.LVL44:
  84:Core/drogui/sensor/gps/src/SAM_M8Q.c **** 			cntMSB = serialRead(mp->ser);
 459              		.loc 1 84 9 discriminator 1 view .LVU143
 460 009c 0028     		cmp	r0, #0
 461 009e F9D0     		beq	.L19
  85:Core/drogui/sensor/gps/src/SAM_M8Q.c **** 
 462              		.loc 1 85 4 is_stmt 1 view .LVU144
  85:Core/drogui/sensor/gps/src/SAM_M8Q.c **** 
 463              		.loc 1 85 13 is_stmt 0 view .LVU145
 464 00a0 D4F8FC01 		ldr	r0, [r4, #508]
 465 00a4 FFF7FEFF 		bl	serialRead
 466              	.LVL45:
  87:Core/drogui/sensor/gps/src/SAM_M8Q.c **** 
 467              		.loc 1 87 4 is_stmt 1 view .LVU146
  87:Core/drogui/sensor/gps/src/SAM_M8Q.c **** 
 468              		.loc 1 87 14 is_stmt 0 view .LVU147
 469 00a8 0302     		lsls	r3, r0, #8
 470 00aa 9BB2     		uxth	r3, r3
  87:Core/drogui/sensor/gps/src/SAM_M8Q.c **** 
 471              		.loc 1 87 39 view .LVU148
 472 00ac 2B43     		orrs	r3, r3, r5
  87:Core/drogui/sensor/gps/src/SAM_M8Q.c **** 
 473              		.loc 1 87 12 view .LVU149
 474 00ae 6380     		strh	r3, [r4, #2]	@ movhi
  89:Core/drogui/sensor/gps/src/SAM_M8Q.c **** 				while(!serialAvailable(mp->ser));
 475              		.loc 1 89 4 is_stmt 1 view .LVU150
 476              	.LBB5:
  89:Core/drogui/sensor/gps/src/SAM_M8Q.c **** 				while(!serialAvailable(mp->ser));
 477              		.loc 1 89 8 view .LVU151
 478              	.LVL46:
  89:Core/drogui/sensor/gps/src/SAM_M8Q.c **** 				while(!serialAvailable(mp->ser));
 479              		.loc 1 89 12 is_stmt 0 view .LVU152
 480 00b0 0025     		movs	r5, #0
 481              	.LVL47:
  89:Core/drogui/sensor/gps/src/SAM_M8Q.c **** 				while(!serialAvailable(mp->ser));
 482              		.loc 1 89 4 view .LVU153
 483 00b2 0CE0     		b	.L20
 484              	.LVL48:
 485              	.L21:
  90:Core/drogui/sensor/gps/src/SAM_M8Q.c **** 				mp->payload[i] = serialRead(mp->ser);
 486              		.loc 1 90 37 is_stmt 1 discriminator 1 view .LVU154
  90:Core/drogui/sensor/gps/src/SAM_M8Q.c **** 				mp->payload[i] = serialRead(mp->ser);
 487              		.loc 1 90 10 discriminator 1 view .LVU155
  90:Core/drogui/sensor/gps/src/SAM_M8Q.c **** 				mp->payload[i] = serialRead(mp->ser);
 488              		.loc 1 90 12 is_stmt 0 discriminator 1 view .LVU156
 489 00b4 D4F8FC01 		ldr	r0, [r4, #508]
 490 00b8 FFF7FEFF 		bl	serialAvailable
 491              	.LVL49:
ARM GAS  C:\Users\GUILLE~1\AppData\Local\Temp\cc7FSVBd.s 			page 13


  90:Core/drogui/sensor/gps/src/SAM_M8Q.c **** 				mp->payload[i] = serialRead(mp->ser);
 492              		.loc 1 90 10 discriminator 1 view .LVU157
 493 00bc 0028     		cmp	r0, #0
 494 00be F9D0     		beq	.L21
  91:Core/drogui/sensor/gps/src/SAM_M8Q.c **** 			}
 495              		.loc 1 91 5 is_stmt 1 discriminator 2 view .LVU158
  91:Core/drogui/sensor/gps/src/SAM_M8Q.c **** 			}
 496              		.loc 1 91 22 is_stmt 0 discriminator 2 view .LVU159
 497 00c0 D4F8FC01 		ldr	r0, [r4, #508]
 498 00c4 FFF7FEFF 		bl	serialRead
 499              	.LVL50:
  91:Core/drogui/sensor/gps/src/SAM_M8Q.c **** 			}
 500              		.loc 1 91 20 discriminator 2 view .LVU160
 501 00c8 6319     		adds	r3, r4, r5
 502 00ca 9871     		strb	r0, [r3, #6]
  89:Core/drogui/sensor/gps/src/SAM_M8Q.c **** 				while(!serialAvailable(mp->ser));
 503              		.loc 1 89 33 is_stmt 1 discriminator 2 view .LVU161
  89:Core/drogui/sensor/gps/src/SAM_M8Q.c **** 				while(!serialAvailable(mp->ser));
 504              		.loc 1 89 34 is_stmt 0 discriminator 2 view .LVU162
 505 00cc 0135     		adds	r5, r5, #1
 506              	.LVL51:
 507              	.L20:
  89:Core/drogui/sensor/gps/src/SAM_M8Q.c **** 				while(!serialAvailable(mp->ser));
 508              		.loc 1 89 19 is_stmt 1 discriminator 1 view .LVU163
  89:Core/drogui/sensor/gps/src/SAM_M8Q.c **** 				while(!serialAvailable(mp->ser));
 509              		.loc 1 89 25 is_stmt 0 discriminator 1 view .LVU164
 510 00ce 6388     		ldrh	r3, [r4, #2]
  89:Core/drogui/sensor/gps/src/SAM_M8Q.c **** 				while(!serialAvailable(mp->ser));
 511              		.loc 1 89 4 discriminator 1 view .LVU165
 512 00d0 AB42     		cmp	r3, r5
 513 00d2 EFDC     		bgt	.L21
 514              	.L22:
 515              	.LBE5:
  94:Core/drogui/sensor/gps/src/SAM_M8Q.c **** 			checksumA = serialRead(mp->ser);
 516              		.loc 1 94 36 is_stmt 1 discriminator 1 view .LVU166
  94:Core/drogui/sensor/gps/src/SAM_M8Q.c **** 			checksumA = serialRead(mp->ser);
 517              		.loc 1 94 9 discriminator 1 view .LVU167
  94:Core/drogui/sensor/gps/src/SAM_M8Q.c **** 			checksumA = serialRead(mp->ser);
 518              		.loc 1 94 11 is_stmt 0 discriminator 1 view .LVU168
 519 00d4 D4F8FC01 		ldr	r0, [r4, #508]
 520 00d8 FFF7FEFF 		bl	serialAvailable
 521              	.LVL52:
  94:Core/drogui/sensor/gps/src/SAM_M8Q.c **** 			checksumA = serialRead(mp->ser);
 522              		.loc 1 94 9 discriminator 1 view .LVU169
 523 00dc 0028     		cmp	r0, #0
 524 00de F9D0     		beq	.L22
  95:Core/drogui/sensor/gps/src/SAM_M8Q.c **** 
 525              		.loc 1 95 4 is_stmt 1 view .LVU170
  95:Core/drogui/sensor/gps/src/SAM_M8Q.c **** 
 526              		.loc 1 95 16 is_stmt 0 view .LVU171
 527 00e0 D4F8FC01 		ldr	r0, [r4, #508]
 528 00e4 FFF7FEFF 		bl	serialRead
 529              	.LVL53:
 530 00e8 8246     		mov	r10, r0
 531              	.LVL54:
  97:Core/drogui/sensor/gps/src/SAM_M8Q.c **** 			checksumB = serialRead(mp->ser);
 532              		.loc 1 97 4 is_stmt 1 view .LVU172
ARM GAS  C:\Users\GUILLE~1\AppData\Local\Temp\cc7FSVBd.s 			page 14


 533              	.L23:
  97:Core/drogui/sensor/gps/src/SAM_M8Q.c **** 			checksumB = serialRead(mp->ser);
 534              		.loc 1 97 36 discriminator 1 view .LVU173
  97:Core/drogui/sensor/gps/src/SAM_M8Q.c **** 			checksumB = serialRead(mp->ser);
 535              		.loc 1 97 9 discriminator 1 view .LVU174
  97:Core/drogui/sensor/gps/src/SAM_M8Q.c **** 			checksumB = serialRead(mp->ser);
 536              		.loc 1 97 11 is_stmt 0 discriminator 1 view .LVU175
 537 00ea D4F8FC01 		ldr	r0, [r4, #508]
 538 00ee FFF7FEFF 		bl	serialAvailable
 539              	.LVL55:
  97:Core/drogui/sensor/gps/src/SAM_M8Q.c **** 			checksumB = serialRead(mp->ser);
 540              		.loc 1 97 9 discriminator 1 view .LVU176
 541 00f2 0028     		cmp	r0, #0
 542 00f4 F9D0     		beq	.L23
  98:Core/drogui/sensor/gps/src/SAM_M8Q.c **** 
 543              		.loc 1 98 4 is_stmt 1 view .LVU177
  98:Core/drogui/sensor/gps/src/SAM_M8Q.c **** 
 544              		.loc 1 98 16 is_stmt 0 view .LVU178
 545 00f6 D4F8FC01 		ldr	r0, [r4, #508]
 546 00fa FFF7FEFF 		bl	serialRead
 547              	.LVL56:
 548 00fe 8346     		mov	fp, r0
 549              	.LVL57:
 100:Core/drogui/sensor/gps/src/SAM_M8Q.c **** 			flag = 1;
 550              		.loc 1 100 4 is_stmt 1 view .LVU179
 551 0100 2046     		mov	r0, r4
 552 0102 FFF7FEFF 		bl	calcChecksum
 553              	.LVL58:
 101:Core/drogui/sensor/gps/src/SAM_M8Q.c **** 		}
 554              		.loc 1 101 4 view .LVU180
 101:Core/drogui/sensor/gps/src/SAM_M8Q.c **** 		}
 555              		.loc 1 101 9 is_stmt 0 view .LVU181
 556 0106 0125     		movs	r5, #1
 557              	.LVL59:
 101:Core/drogui/sensor/gps/src/SAM_M8Q.c **** 		}
 558              		.loc 1 101 9 view .LVU182
 559 0108 8DE7     		b	.L15
 560              	.LVL60:
 561              	.L24:
 108:Core/drogui/sensor/gps/src/SAM_M8Q.c **** 	if((mp->checksumA == checksumA) && (mp->checksumB == checksumB)) return OK;
 562              		.loc 1 108 2 is_stmt 1 view .LVU183
 108:Core/drogui/sensor/gps/src/SAM_M8Q.c **** 	if((mp->checksumA == checksumA) && (mp->checksumB == checksumB)) return OK;
 563              		.loc 1 108 4 is_stmt 0 view .LVU184
 564 010a 4DB1     		cbz	r5, .L27
 109:Core/drogui/sensor/gps/src/SAM_M8Q.c **** 	else return WRG_CHKSUM;
 565              		.loc 1 109 2 is_stmt 1 view .LVU185
 109:Core/drogui/sensor/gps/src/SAM_M8Q.c **** 	else return WRG_CHKSUM;
 566              		.loc 1 109 8 is_stmt 0 view .LVU186
 567 010c 94F8FA31 		ldrb	r3, [r4, #506]	@ zero_extendqisi2
 109:Core/drogui/sensor/gps/src/SAM_M8Q.c **** 	else return WRG_CHKSUM;
 568              		.loc 1 109 4 view .LVU187
 569 0110 5345     		cmp	r3, r10
 570 0112 08D1     		bne	.L28
 109:Core/drogui/sensor/gps/src/SAM_M8Q.c **** 	else return WRG_CHKSUM;
 571              		.loc 1 109 40 discriminator 1 view .LVU188
 572 0114 94F8FB31 		ldrb	r3, [r4, #507]	@ zero_extendqisi2
 109:Core/drogui/sensor/gps/src/SAM_M8Q.c **** 	else return WRG_CHKSUM;
ARM GAS  C:\Users\GUILLE~1\AppData\Local\Temp\cc7FSVBd.s 			page 15


 573              		.loc 1 109 34 discriminator 1 view .LVU189
 574 0118 5B45     		cmp	r3, fp
 575 011a 06D0     		beq	.L29
 110:Core/drogui/sensor/gps/src/SAM_M8Q.c **** }
 576              		.loc 1 110 14 view .LVU190
 577 011c 0420     		movs	r0, #4
 578 011e 00E0     		b	.L26
 579              	.L27:
 108:Core/drogui/sensor/gps/src/SAM_M8Q.c **** 	if((mp->checksumA == checksumA) && (mp->checksumB == checksumB)) return OK;
 580              		.loc 1 108 23 view .LVU191
 581 0120 0120     		movs	r0, #1
 582              	.L26:
 111:Core/drogui/sensor/gps/src/SAM_M8Q.c **** 
 583              		.loc 1 111 1 view .LVU192
 584 0122 BDE8F88F 		pop	{r3, r4, r5, r6, r7, r8, r9, r10, fp, pc}
 585              	.LVL61:
 586              	.L28:
 110:Core/drogui/sensor/gps/src/SAM_M8Q.c **** }
 587              		.loc 1 110 14 view .LVU193
 588 0126 0420     		movs	r0, #4
 589 0128 FBE7     		b	.L26
 590              	.L29:
 109:Core/drogui/sensor/gps/src/SAM_M8Q.c **** 	else return WRG_CHKSUM;
 591              		.loc 1 109 74 view .LVU194
 592 012a 0320     		movs	r0, #3
 593 012c F9E7     		b	.L26
 594              	.L32:
 595 012e 00BF     		.align	2
 596              	.L31:
 597 0130 00000000 		.word	htim5
 598              		.cfi_endproc
 599              	.LFE248:
 601              		.section	.text.initGPS,"ax",%progbits
 602              		.align	1
 603              		.global	initGPS
 604              		.syntax unified
 605              		.thumb
 606              		.thumb_func
 607              		.fpu fpv5-sp-d16
 609              	initGPS:
 610              	.LVL62:
 611              	.LFB250:
 122:Core/drogui/sensor/gps/src/SAM_M8Q.c **** 
 123:Core/drogui/sensor/gps/src/SAM_M8Q.c **** SENSOR_STATUS initGPS(m8q *mg, serial* ser){
 612              		.loc 1 123 44 is_stmt 1 view -0
 613              		.cfi_startproc
 614              		@ args = 0, pretend = 0, frame = 0
 615              		@ frame_needed = 0, uses_anonymous_args = 0
 616              		.loc 1 123 44 is_stmt 0 view .LVU196
 617 0000 70B5     		push	{r4, r5, r6, lr}
 618              	.LCFI3:
 619              		.cfi_def_cfa_offset 16
 620              		.cfi_offset 4, -16
 621              		.cfi_offset 5, -12
 622              		.cfi_offset 6, -8
 623              		.cfi_offset 14, -4
 624 0002 82B0     		sub	sp, sp, #8
ARM GAS  C:\Users\GUILLE~1\AppData\Local\Temp\cc7FSVBd.s 			page 16


 625              	.LCFI4:
 626              		.cfi_def_cfa_offset 24
 627 0004 0446     		mov	r4, r0
 628 0006 0846     		mov	r0, r1
 629              	.LVL63:
 124:Core/drogui/sensor/gps/src/SAM_M8Q.c **** 	SENSOR_STATUS ret;
 630              		.loc 1 124 2 is_stmt 1 view .LVU197
 125:Core/drogui/sensor/gps/src/SAM_M8Q.c **** 
 126:Core/drogui/sensor/gps/src/SAM_M8Q.c **** 	mg->last_tim = TIME;
 631              		.loc 1 126 2 view .LVU198
 632              		.loc 1 126 17 is_stmt 0 view .LVU199
 633 0008 294B     		ldr	r3, .L37
 634 000a 1B68     		ldr	r3, [r3]
 635 000c 5B6A     		ldr	r3, [r3, #36]
 636              		.loc 1 126 15 view .LVU200
 637 000e C4F81C34 		str	r3, [r4, #1052]
 127:Core/drogui/sensor/gps/src/SAM_M8Q.c **** 	mg->threshold = 2000000;
 638              		.loc 1 127 2 is_stmt 1 view .LVU201
 639              		.loc 1 127 16 is_stmt 0 view .LVU202
 640 0012 284B     		ldr	r3, .L37+4
 641 0014 C4F81834 		str	r3, [r4, #1048]
 128:Core/drogui/sensor/gps/src/SAM_M8Q.c **** 
 129:Core/drogui/sensor/gps/src/SAM_M8Q.c **** 	mg->rcv_pack.ser = ser;
 642              		.loc 1 129 2 is_stmt 1 view .LVU203
 643              		.loc 1 129 19 is_stmt 0 view .LVU204
 644 0018 C4F8FC13 		str	r1, [r4, #1020]
 130:Core/drogui/sensor/gps/src/SAM_M8Q.c **** 	mg->snd_pack.ser = ser;
 645              		.loc 1 130 2 is_stmt 1 view .LVU205
 646              		.loc 1 130 19 is_stmt 0 view .LVU206
 647 001c C4F8FC11 		str	r1, [r4, #508]
 131:Core/drogui/sensor/gps/src/SAM_M8Q.c **** 
 132:Core/drogui/sensor/gps/src/SAM_M8Q.c **** 	changeBaudrate(mg->rcv_pack.ser,9600);
 648              		.loc 1 132 2 is_stmt 1 view .LVU207
 649 0020 4FF41651 		mov	r1, #9600
 650              	.LVL64:
 651              		.loc 1 132 2 is_stmt 0 view .LVU208
 652 0024 FFF7FEFF 		bl	changeBaudrate
 653              	.LVL65:
 133:Core/drogui/sensor/gps/src/SAM_M8Q.c **** 
 134:Core/drogui/sensor/gps/src/SAM_M8Q.c **** 	HAL_Delay(1000);
 654              		.loc 1 134 2 is_stmt 1 view .LVU209
 655 0028 4FF47A70 		mov	r0, #1000
 656 002c FFF7FEFF 		bl	HAL_Delay
 657              	.LVL66:
 135:Core/drogui/sensor/gps/src/SAM_M8Q.c **** 	sndUBX(&(mg->snd_pack), UBX_CLASS_CFG, UBX_CFG_PRT, 20, defaultCfgPort);
 658              		.loc 1 135 2 view .LVU210
 659 0030 214B     		ldr	r3, .L37+8
 660 0032 0093     		str	r3, [sp]
 661 0034 1423     		movs	r3, #20
 662 0036 0022     		movs	r2, #0
 663 0038 0621     		movs	r1, #6
 664 003a 2046     		mov	r0, r4
 665 003c FFF7FEFF 		bl	sndUBX
 666              	.LVL67:
 136:Core/drogui/sensor/gps/src/SAM_M8Q.c **** 
 137:Core/drogui/sensor/gps/src/SAM_M8Q.c **** 	HAL_Delay(100);
 667              		.loc 1 137 2 view .LVU211
ARM GAS  C:\Users\GUILLE~1\AppData\Local\Temp\cc7FSVBd.s 			page 17


 668 0040 6420     		movs	r0, #100
 669 0042 FFF7FEFF 		bl	HAL_Delay
 670              	.LVL68:
 138:Core/drogui/sensor/gps/src/SAM_M8Q.c **** 	changeBaudrate(mg->rcv_pack.ser,460800);
 671              		.loc 1 138 2 view .LVU212
 672 0046 4FF4E121 		mov	r1, #460800
 673 004a D4F8FC03 		ldr	r0, [r4, #1020]
 674 004e FFF7FEFF 		bl	changeBaudrate
 675              	.LVL69:
 139:Core/drogui/sensor/gps/src/SAM_M8Q.c **** 	HAL_Delay(100);
 676              		.loc 1 139 2 view .LVU213
 677 0052 6420     		movs	r0, #100
 678 0054 FFF7FEFF 		bl	HAL_Delay
 679              	.LVL70:
 140:Core/drogui/sensor/gps/src/SAM_M8Q.c **** 
 141:Core/drogui/sensor/gps/src/SAM_M8Q.c **** 	sndUBX(&(mg->snd_pack), UBX_CLASS_CFG, UBX_CFG_RATE, 6, defaultCfgRate);
 680              		.loc 1 141 2 view .LVU214
 681 0058 184B     		ldr	r3, .L37+12
 682 005a 0093     		str	r3, [sp]
 683 005c 0623     		movs	r3, #6
 684 005e 0822     		movs	r2, #8
 685 0060 1946     		mov	r1, r3
 686 0062 2046     		mov	r0, r4
 687 0064 FFF7FEFF 		bl	sndUBX
 688              	.LVL71:
 142:Core/drogui/sensor/gps/src/SAM_M8Q.c **** 
 143:Core/drogui/sensor/gps/src/SAM_M8Q.c **** 	ret = readPacket(&(mg->rcv_pack), 10000);
 689              		.loc 1 143 2 view .LVU215
 690              		.loc 1 143 8 is_stmt 0 view .LVU216
 691 0068 04F50076 		add	r6, r4, #512
 692 006c 42F21071 		movw	r1, #10000
 693 0070 3046     		mov	r0, r6
 694 0072 FFF7FEFF 		bl	readPacket
 695              	.LVL72:
 696 0076 0546     		mov	r5, r0
 697              	.LVL73:
 144:Core/drogui/sensor/gps/src/SAM_M8Q.c **** 	if(ret != OK) return ret;
 698              		.loc 1 144 2 is_stmt 1 view .LVU217
 699              		.loc 1 144 4 is_stmt 0 view .LVU218
 700 0078 0328     		cmp	r0, #3
 701 007a 02D0     		beq	.L36
 702              	.LVL74:
 703              	.L34:
 145:Core/drogui/sensor/gps/src/SAM_M8Q.c **** 
 146:Core/drogui/sensor/gps/src/SAM_M8Q.c **** 	sndUBX(&(mg->snd_pack), UBX_CLASS_CFG, UBX_CFG_MSG, 3, defaultCfgMsg);
 147:Core/drogui/sensor/gps/src/SAM_M8Q.c **** 
 148:Core/drogui/sensor/gps/src/SAM_M8Q.c **** 	ret = readPacket(&(mg->rcv_pack), 10000);
 149:Core/drogui/sensor/gps/src/SAM_M8Q.c **** 	if(ret != OK) return ret;
 150:Core/drogui/sensor/gps/src/SAM_M8Q.c **** 
 151:Core/drogui/sensor/gps/src/SAM_M8Q.c **** 	HAL_Delay(100);
 152:Core/drogui/sensor/gps/src/SAM_M8Q.c **** 
 153:Core/drogui/sensor/gps/src/SAM_M8Q.c **** 	mg->cnt = 0;
 154:Core/drogui/sensor/gps/src/SAM_M8Q.c **** 	return OK;
 155:Core/drogui/sensor/gps/src/SAM_M8Q.c **** }
 704              		.loc 1 155 1 view .LVU219
 705 007c 2846     		mov	r0, r5
 706 007e 02B0     		add	sp, sp, #8
ARM GAS  C:\Users\GUILLE~1\AppData\Local\Temp\cc7FSVBd.s 			page 18


 707              	.LCFI5:
 708              		.cfi_remember_state
 709              		.cfi_def_cfa_offset 16
 710              		@ sp needed
 711 0080 70BD     		pop	{r4, r5, r6, pc}
 712              	.LVL75:
 713              	.L36:
 714              	.LCFI6:
 715              		.cfi_restore_state
 146:Core/drogui/sensor/gps/src/SAM_M8Q.c **** 
 716              		.loc 1 146 2 is_stmt 1 view .LVU220
 717 0082 0F4B     		ldr	r3, .L37+16
 718 0084 0093     		str	r3, [sp]
 719 0086 0323     		movs	r3, #3
 720 0088 0122     		movs	r2, #1
 721 008a 0621     		movs	r1, #6
 722 008c 2046     		mov	r0, r4
 723              	.LVL76:
 146:Core/drogui/sensor/gps/src/SAM_M8Q.c **** 
 724              		.loc 1 146 2 is_stmt 0 view .LVU221
 725 008e FFF7FEFF 		bl	sndUBX
 726              	.LVL77:
 148:Core/drogui/sensor/gps/src/SAM_M8Q.c **** 	if(ret != OK) return ret;
 727              		.loc 1 148 2 is_stmt 1 view .LVU222
 148:Core/drogui/sensor/gps/src/SAM_M8Q.c **** 	if(ret != OK) return ret;
 728              		.loc 1 148 8 is_stmt 0 view .LVU223
 729 0092 42F21071 		movw	r1, #10000
 730 0096 3046     		mov	r0, r6
 731 0098 FFF7FEFF 		bl	readPacket
 732              	.LVL78:
 733 009c 0546     		mov	r5, r0
 734              	.LVL79:
 149:Core/drogui/sensor/gps/src/SAM_M8Q.c **** 
 735              		.loc 1 149 2 is_stmt 1 view .LVU224
 149:Core/drogui/sensor/gps/src/SAM_M8Q.c **** 
 736              		.loc 1 149 4 is_stmt 0 view .LVU225
 737 009e 0328     		cmp	r0, #3
 738 00a0 ECD1     		bne	.L34
 151:Core/drogui/sensor/gps/src/SAM_M8Q.c **** 
 739              		.loc 1 151 2 is_stmt 1 view .LVU226
 740 00a2 6420     		movs	r0, #100
 741              	.LVL80:
 151:Core/drogui/sensor/gps/src/SAM_M8Q.c **** 
 742              		.loc 1 151 2 is_stmt 0 view .LVU227
 743 00a4 FFF7FEFF 		bl	HAL_Delay
 744              	.LVL81:
 153:Core/drogui/sensor/gps/src/SAM_M8Q.c **** 	return OK;
 745              		.loc 1 153 2 is_stmt 1 view .LVU228
 153:Core/drogui/sensor/gps/src/SAM_M8Q.c **** 	return OK;
 746              		.loc 1 153 10 is_stmt 0 view .LVU229
 747 00a8 0023     		movs	r3, #0
 748 00aa C4F82034 		str	r3, [r4, #1056]
 154:Core/drogui/sensor/gps/src/SAM_M8Q.c **** }
 749              		.loc 1 154 2 is_stmt 1 view .LVU230
 154:Core/drogui/sensor/gps/src/SAM_M8Q.c **** }
 750              		.loc 1 154 9 is_stmt 0 view .LVU231
 751 00ae E5E7     		b	.L34
ARM GAS  C:\Users\GUILLE~1\AppData\Local\Temp\cc7FSVBd.s 			page 19


 752              	.L38:
 753              		.align	2
 754              	.L37:
 755 00b0 00000000 		.word	htim5
 756 00b4 80841E00 		.word	2000000
 757 00b8 00000000 		.word	.LANCHOR0
 758 00bc 00000000 		.word	.LANCHOR1
 759 00c0 00000000 		.word	.LANCHOR2
 760              		.cfi_endproc
 761              	.LFE250:
 763              		.section	.text.readGPS,"ax",%progbits
 764              		.align	1
 765              		.global	readGPS
 766              		.syntax unified
 767              		.thumb
 768              		.thumb_func
 769              		.fpu fpv5-sp-d16
 771              	readGPS:
 772              	.LVL82:
 773              	.LFB252:
 156:Core/drogui/sensor/gps/src/SAM_M8Q.c **** 
 157:Core/drogui/sensor/gps/src/SAM_M8Q.c **** 
 158:Core/drogui/sensor/gps/src/SAM_M8Q.c **** 
 159:Core/drogui/sensor/gps/src/SAM_M8Q.c **** static void printPacket(ubxPacket *mp){
 160:Core/drogui/sensor/gps/src/SAM_M8Q.c **** 	serialPrintf(mp->ser,"Class:\t %d \tID:\t %d \tlen:\t %d \n", mp->cls, mp->id, mp->len);
 161:Core/drogui/sensor/gps/src/SAM_M8Q.c **** 
 162:Core/drogui/sensor/gps/src/SAM_M8Q.c **** 	for( int i = 0; i < mp->len ; i++)
 163:Core/drogui/sensor/gps/src/SAM_M8Q.c **** 		serialPrintf(mp->ser,"%x ", mp->payload[i]);
 164:Core/drogui/sensor/gps/src/SAM_M8Q.c **** 	serialPrint(mp->ser,"\n");
 165:Core/drogui/sensor/gps/src/SAM_M8Q.c **** }
 166:Core/drogui/sensor/gps/src/SAM_M8Q.c **** 
 167:Core/drogui/sensor/gps/src/SAM_M8Q.c **** 
 168:Core/drogui/sensor/gps/src/SAM_M8Q.c **** SENSOR_STATUS readGPS(m8q *mg){
 774              		.loc 1 168 31 is_stmt 1 view -0
 775              		.cfi_startproc
 776              		@ args = 0, pretend = 0, frame = 0
 777              		@ frame_needed = 0, uses_anonymous_args = 0
 778              		.loc 1 168 31 is_stmt 0 view .LVU233
 779 0000 10B5     		push	{r4, lr}
 780              	.LCFI7:
 781              		.cfi_def_cfa_offset 8
 782              		.cfi_offset 4, -8
 783              		.cfi_offset 14, -4
 784 0002 0446     		mov	r4, r0
 169:Core/drogui/sensor/gps/src/SAM_M8Q.c **** 	if(serialAvailable(mg->rcv_pack.ser)){
 785              		.loc 1 169 2 is_stmt 1 view .LVU234
 786              		.loc 1 169 5 is_stmt 0 view .LVU235
 787 0004 D0F8FC03 		ldr	r0, [r0, #1020]
 788              	.LVL83:
 789              		.loc 1 169 5 view .LVU236
 790 0008 FFF7FEFF 		bl	serialAvailable
 791              	.LVL84:
 792              		.loc 1 169 4 view .LVU237
 793 000c 58B9     		cbnz	r0, .L55
 170:Core/drogui/sensor/gps/src/SAM_M8Q.c **** 		int ret = readPacket(&(mg->rcv_pack), 1000);
 171:Core/drogui/sensor/gps/src/SAM_M8Q.c **** 		//serialFlush();
 172:Core/drogui/sensor/gps/src/SAM_M8Q.c **** 
ARM GAS  C:\Users\GUILLE~1\AppData\Local\Temp\cc7FSVBd.s 			page 20


 173:Core/drogui/sensor/gps/src/SAM_M8Q.c **** 		if( ret != OK){
 174:Core/drogui/sensor/gps/src/SAM_M8Q.c **** 			if(  TIME - mg->last_tim > mg->threshold )  return CRASHED;
 175:Core/drogui/sensor/gps/src/SAM_M8Q.c **** 			return ret;
 176:Core/drogui/sensor/gps/src/SAM_M8Q.c **** 		}
 177:Core/drogui/sensor/gps/src/SAM_M8Q.c **** 
 178:Core/drogui/sensor/gps/src/SAM_M8Q.c **** 		if(mg->rcv_pack.cls == 1 && mg->rcv_pack.id == 7){
 179:Core/drogui/sensor/gps/src/SAM_M8Q.c **** 
 180:Core/drogui/sensor/gps/src/SAM_M8Q.c **** 			mg->latitude = 0, mg->longitud = 0;
 181:Core/drogui/sensor/gps/src/SAM_M8Q.c **** 			for(int i = 0 ; i < 4 ; i++)
 182:Core/drogui/sensor/gps/src/SAM_M8Q.c **** 				mg->latitude = (mg->latitude << 8) | (mg->rcv_pack.payload[31-i]);
 183:Core/drogui/sensor/gps/src/SAM_M8Q.c **** 			for(int i = 0 ; i < 4 ; i++)
 184:Core/drogui/sensor/gps/src/SAM_M8Q.c **** 				mg->longitud = (mg->longitud << 8) | (mg->rcv_pack.payload[27-i]);
 185:Core/drogui/sensor/gps/src/SAM_M8Q.c **** 
 186:Core/drogui/sensor/gps/src/SAM_M8Q.c **** 			mg->north_vel = 0, mg->east_vel = 0;
 187:Core/drogui/sensor/gps/src/SAM_M8Q.c **** 			for(int i = 0 ; i < 4 ; i++)
 188:Core/drogui/sensor/gps/src/SAM_M8Q.c **** 				mg->north_vel = (mg->north_vel << 8) | (mg->rcv_pack.payload[51-i]);
 189:Core/drogui/sensor/gps/src/SAM_M8Q.c **** 			for(int i = 0 ; i < 4 ; i++)
 190:Core/drogui/sensor/gps/src/SAM_M8Q.c **** 				mg->east_vel = (mg->east_vel << 8) | (mg->rcv_pack.payload[55-i]);
 191:Core/drogui/sensor/gps/src/SAM_M8Q.c **** 
 192:Core/drogui/sensor/gps/src/SAM_M8Q.c **** 			mg->last_tim = TIME;
 193:Core/drogui/sensor/gps/src/SAM_M8Q.c **** 			return OK;
 194:Core/drogui/sensor/gps/src/SAM_M8Q.c **** 		}
 195:Core/drogui/sensor/gps/src/SAM_M8Q.c **** 		else{
 196:Core/drogui/sensor/gps/src/SAM_M8Q.c **** 			if(  TIME - mg->last_tim > mg->threshold )  return CRASHED;
 197:Core/drogui/sensor/gps/src/SAM_M8Q.c **** 			return WRG_ID;
 198:Core/drogui/sensor/gps/src/SAM_M8Q.c **** 		}
 199:Core/drogui/sensor/gps/src/SAM_M8Q.c **** 	}
 200:Core/drogui/sensor/gps/src/SAM_M8Q.c **** 	if(  TIME - mg->last_tim > mg->threshold )  return CRASHED;
 794              		.loc 1 200 2 is_stmt 1 view .LVU238
 795              		.loc 1 200 7 is_stmt 0 view .LVU239
 796 000e 424B     		ldr	r3, .L61
 797 0010 1B68     		ldr	r3, [r3]
 798 0012 5B6A     		ldr	r3, [r3, #36]
 799              		.loc 1 200 16 view .LVU240
 800 0014 D4F81C24 		ldr	r2, [r4, #1052]
 801              		.loc 1 200 12 view .LVU241
 802 0018 9B1A     		subs	r3, r3, r2
 803              		.loc 1 200 31 view .LVU242
 804 001a D4F81824 		ldr	r2, [r4, #1048]
 805              		.loc 1 200 4 view .LVU243
 806 001e 9342     		cmp	r3, r2
 807 0020 77D8     		bhi	.L53
 201:Core/drogui/sensor/gps/src/SAM_M8Q.c **** 	return NO_DATA;
 808              		.loc 1 201 9 view .LVU244
 809 0022 0020     		movs	r0, #0
 810              	.L42:
 202:Core/drogui/sensor/gps/src/SAM_M8Q.c **** }
 811              		.loc 1 202 1 view .LVU245
 812 0024 10BD     		pop	{r4, pc}
 813              	.LVL85:
 814              	.L55:
 815              	.LBB6:
 170:Core/drogui/sensor/gps/src/SAM_M8Q.c **** 		int ret = readPacket(&(mg->rcv_pack), 1000);
 816              		.loc 1 170 3 is_stmt 1 view .LVU246
 170:Core/drogui/sensor/gps/src/SAM_M8Q.c **** 		int ret = readPacket(&(mg->rcv_pack), 1000);
 817              		.loc 1 170 13 is_stmt 0 view .LVU247
 818 0026 4FF47A71 		mov	r1, #1000
ARM GAS  C:\Users\GUILLE~1\AppData\Local\Temp\cc7FSVBd.s 			page 21


 819 002a 04F50070 		add	r0, r4, #512
 820 002e FFF7FEFF 		bl	readPacket
 821              	.LVL86:
 173:Core/drogui/sensor/gps/src/SAM_M8Q.c **** 			if(  TIME - mg->last_tim > mg->threshold )  return CRASHED;
 822              		.loc 1 173 3 is_stmt 1 view .LVU248
 173:Core/drogui/sensor/gps/src/SAM_M8Q.c **** 			if(  TIME - mg->last_tim > mg->threshold )  return CRASHED;
 823              		.loc 1 173 5 is_stmt 0 view .LVU249
 824 0032 0328     		cmp	r0, #3
 825 0034 0BD0     		beq	.L41
 174:Core/drogui/sensor/gps/src/SAM_M8Q.c **** 			return ret;
 826              		.loc 1 174 4 is_stmt 1 view .LVU250
 174:Core/drogui/sensor/gps/src/SAM_M8Q.c **** 			return ret;
 827              		.loc 1 174 9 is_stmt 0 view .LVU251
 828 0036 384B     		ldr	r3, .L61
 829 0038 1B68     		ldr	r3, [r3]
 830 003a 5B6A     		ldr	r3, [r3, #36]
 174:Core/drogui/sensor/gps/src/SAM_M8Q.c **** 			return ret;
 831              		.loc 1 174 18 view .LVU252
 832 003c D4F81C24 		ldr	r2, [r4, #1052]
 174:Core/drogui/sensor/gps/src/SAM_M8Q.c **** 			return ret;
 833              		.loc 1 174 14 view .LVU253
 834 0040 9B1A     		subs	r3, r3, r2
 174:Core/drogui/sensor/gps/src/SAM_M8Q.c **** 			return ret;
 835              		.loc 1 174 33 view .LVU254
 836 0042 D4F81824 		ldr	r2, [r4, #1048]
 174:Core/drogui/sensor/gps/src/SAM_M8Q.c **** 			return ret;
 837              		.loc 1 174 6 view .LVU255
 838 0046 9342     		cmp	r3, r2
 839 0048 ECD9     		bls	.L42
 174:Core/drogui/sensor/gps/src/SAM_M8Q.c **** 			return ret;
 840              		.loc 1 174 55 view .LVU256
 841 004a 0520     		movs	r0, #5
 842              	.LVL87:
 174:Core/drogui/sensor/gps/src/SAM_M8Q.c **** 			return ret;
 843              		.loc 1 174 55 view .LVU257
 844 004c EAE7     		b	.L42
 845              	.LVL88:
 846              	.L41:
 178:Core/drogui/sensor/gps/src/SAM_M8Q.c **** 
 847              		.loc 1 178 3 is_stmt 1 view .LVU258
 178:Core/drogui/sensor/gps/src/SAM_M8Q.c **** 
 848              		.loc 1 178 28 is_stmt 0 view .LVU259
 849 004e B4F80022 		ldrh	r2, [r4, #512]
 178:Core/drogui/sensor/gps/src/SAM_M8Q.c **** 
 850              		.loc 1 178 5 view .LVU260
 851 0052 40F20173 		movw	r3, #1793
 852 0056 9A42     		cmp	r2, r3
 853 0058 0BD0     		beq	.L56
 196:Core/drogui/sensor/gps/src/SAM_M8Q.c **** 			return WRG_ID;
 854              		.loc 1 196 4 is_stmt 1 view .LVU261
 196:Core/drogui/sensor/gps/src/SAM_M8Q.c **** 			return WRG_ID;
 855              		.loc 1 196 9 is_stmt 0 view .LVU262
 856 005a 2F4B     		ldr	r3, .L61
 857 005c 1B68     		ldr	r3, [r3]
 858 005e 5B6A     		ldr	r3, [r3, #36]
 196:Core/drogui/sensor/gps/src/SAM_M8Q.c **** 			return WRG_ID;
 859              		.loc 1 196 18 view .LVU263
ARM GAS  C:\Users\GUILLE~1\AppData\Local\Temp\cc7FSVBd.s 			page 22


 860 0060 D4F81C24 		ldr	r2, [r4, #1052]
 196:Core/drogui/sensor/gps/src/SAM_M8Q.c **** 			return WRG_ID;
 861              		.loc 1 196 14 view .LVU264
 862 0064 9B1A     		subs	r3, r3, r2
 196:Core/drogui/sensor/gps/src/SAM_M8Q.c **** 			return WRG_ID;
 863              		.loc 1 196 33 view .LVU265
 864 0066 D4F81824 		ldr	r2, [r4, #1048]
 196:Core/drogui/sensor/gps/src/SAM_M8Q.c **** 			return WRG_ID;
 865              		.loc 1 196 6 view .LVU266
 866 006a 9342     		cmp	r3, r2
 867 006c 4FD9     		bls	.L52
 196:Core/drogui/sensor/gps/src/SAM_M8Q.c **** 			return WRG_ID;
 868              		.loc 1 196 55 view .LVU267
 869 006e 0520     		movs	r0, #5
 870              	.LVL89:
 196:Core/drogui/sensor/gps/src/SAM_M8Q.c **** 			return WRG_ID;
 871              		.loc 1 196 55 view .LVU268
 872 0070 D8E7     		b	.L42
 873              	.LVL90:
 874              	.L56:
 180:Core/drogui/sensor/gps/src/SAM_M8Q.c **** 			for(int i = 0 ; i < 4 ; i++)
 875              		.loc 1 180 4 is_stmt 1 view .LVU269
 180:Core/drogui/sensor/gps/src/SAM_M8Q.c **** 			for(int i = 0 ; i < 4 ; i++)
 876              		.loc 1 180 17 is_stmt 0 view .LVU270
 877 0072 0023     		movs	r3, #0
 878 0074 C4F80034 		str	r3, [r4, #1024]
 180:Core/drogui/sensor/gps/src/SAM_M8Q.c **** 			for(int i = 0 ; i < 4 ; i++)
 879              		.loc 1 180 35 view .LVU271
 880 0078 C4F80434 		str	r3, [r4, #1028]
 181:Core/drogui/sensor/gps/src/SAM_M8Q.c **** 				mg->latitude = (mg->latitude << 8) | (mg->rcv_pack.payload[31-i]);
 881              		.loc 1 181 4 is_stmt 1 view .LVU272
 882              	.LBB7:
 181:Core/drogui/sensor/gps/src/SAM_M8Q.c **** 				mg->latitude = (mg->latitude << 8) | (mg->rcv_pack.payload[31-i]);
 883              		.loc 1 181 8 view .LVU273
 884              	.LVL91:
 885              	.L44:
 181:Core/drogui/sensor/gps/src/SAM_M8Q.c **** 				mg->latitude = (mg->latitude << 8) | (mg->rcv_pack.payload[31-i]);
 886              		.loc 1 181 20 discriminator 1 view .LVU274
 181:Core/drogui/sensor/gps/src/SAM_M8Q.c **** 				mg->latitude = (mg->latitude << 8) | (mg->rcv_pack.payload[31-i]);
 887              		.loc 1 181 4 is_stmt 0 discriminator 1 view .LVU275
 888 007c 032B     		cmp	r3, #3
 889 007e 0CDC     		bgt	.L57
 182:Core/drogui/sensor/gps/src/SAM_M8Q.c **** 			for(int i = 0 ; i < 4 ; i++)
 890              		.loc 1 182 5 is_stmt 1 discriminator 3 view .LVU276
 182:Core/drogui/sensor/gps/src/SAM_M8Q.c **** 			for(int i = 0 ; i < 4 ; i++)
 891              		.loc 1 182 66 is_stmt 0 discriminator 3 view .LVU277
 892 0080 C3F11F01 		rsb	r1, r3, #31
 182:Core/drogui/sensor/gps/src/SAM_M8Q.c **** 			for(int i = 0 ; i < 4 ; i++)
 893              		.loc 1 182 63 discriminator 3 view .LVU278
 894 0084 2144     		add	r1, r1, r4
 895 0086 91F80622 		ldrb	r2, [r1, #518]	@ zero_extendqisi2
 182:Core/drogui/sensor/gps/src/SAM_M8Q.c **** 			for(int i = 0 ; i < 4 ; i++)
 896              		.loc 1 182 40 discriminator 3 view .LVU279
 897 008a D4F80014 		ldr	r1, [r4, #1024]
 898 008e 42EA0122 		orr	r2, r2, r1, lsl #8
 182:Core/drogui/sensor/gps/src/SAM_M8Q.c **** 			for(int i = 0 ; i < 4 ; i++)
 899              		.loc 1 182 18 discriminator 3 view .LVU280
ARM GAS  C:\Users\GUILLE~1\AppData\Local\Temp\cc7FSVBd.s 			page 23


 900 0092 C4F80024 		str	r2, [r4, #1024]
 181:Core/drogui/sensor/gps/src/SAM_M8Q.c **** 				mg->latitude = (mg->latitude << 8) | (mg->rcv_pack.payload[31-i]);
 901              		.loc 1 181 28 is_stmt 1 discriminator 3 view .LVU281
 181:Core/drogui/sensor/gps/src/SAM_M8Q.c **** 				mg->latitude = (mg->latitude << 8) | (mg->rcv_pack.payload[31-i]);
 902              		.loc 1 181 29 is_stmt 0 discriminator 3 view .LVU282
 903 0096 0133     		adds	r3, r3, #1
 904              	.LVL92:
 181:Core/drogui/sensor/gps/src/SAM_M8Q.c **** 				mg->latitude = (mg->latitude << 8) | (mg->rcv_pack.payload[31-i]);
 905              		.loc 1 181 29 discriminator 3 view .LVU283
 906 0098 F0E7     		b	.L44
 907              	.L57:
 181:Core/drogui/sensor/gps/src/SAM_M8Q.c **** 				mg->latitude = (mg->latitude << 8) | (mg->rcv_pack.payload[31-i]);
 908              		.loc 1 181 29 discriminator 3 view .LVU284
 909              	.LBE7:
 910              	.LBB8:
 183:Core/drogui/sensor/gps/src/SAM_M8Q.c **** 				mg->longitud = (mg->longitud << 8) | (mg->rcv_pack.payload[27-i]);
 911              		.loc 1 183 12 view .LVU285
 912 009a 0023     		movs	r3, #0
 913              	.LVL93:
 914              	.L46:
 183:Core/drogui/sensor/gps/src/SAM_M8Q.c **** 				mg->longitud = (mg->longitud << 8) | (mg->rcv_pack.payload[27-i]);
 915              		.loc 1 183 20 is_stmt 1 discriminator 1 view .LVU286
 183:Core/drogui/sensor/gps/src/SAM_M8Q.c **** 				mg->longitud = (mg->longitud << 8) | (mg->rcv_pack.payload[27-i]);
 916              		.loc 1 183 4 is_stmt 0 discriminator 1 view .LVU287
 917 009c 032B     		cmp	r3, #3
 918 009e 0CDC     		bgt	.L58
 184:Core/drogui/sensor/gps/src/SAM_M8Q.c **** 
 919              		.loc 1 184 5 is_stmt 1 discriminator 3 view .LVU288
 184:Core/drogui/sensor/gps/src/SAM_M8Q.c **** 
 920              		.loc 1 184 66 is_stmt 0 discriminator 3 view .LVU289
 921 00a0 C3F11B01 		rsb	r1, r3, #27
 184:Core/drogui/sensor/gps/src/SAM_M8Q.c **** 
 922              		.loc 1 184 63 discriminator 3 view .LVU290
 923 00a4 2144     		add	r1, r1, r4
 924 00a6 91F80622 		ldrb	r2, [r1, #518]	@ zero_extendqisi2
 184:Core/drogui/sensor/gps/src/SAM_M8Q.c **** 
 925              		.loc 1 184 40 discriminator 3 view .LVU291
 926 00aa D4F80414 		ldr	r1, [r4, #1028]
 927 00ae 42EA0122 		orr	r2, r2, r1, lsl #8
 184:Core/drogui/sensor/gps/src/SAM_M8Q.c **** 
 928              		.loc 1 184 18 discriminator 3 view .LVU292
 929 00b2 C4F80424 		str	r2, [r4, #1028]
 183:Core/drogui/sensor/gps/src/SAM_M8Q.c **** 				mg->longitud = (mg->longitud << 8) | (mg->rcv_pack.payload[27-i]);
 930              		.loc 1 183 28 is_stmt 1 discriminator 3 view .LVU293
 183:Core/drogui/sensor/gps/src/SAM_M8Q.c **** 				mg->longitud = (mg->longitud << 8) | (mg->rcv_pack.payload[27-i]);
 931              		.loc 1 183 29 is_stmt 0 discriminator 3 view .LVU294
 932 00b6 0133     		adds	r3, r3, #1
 933              	.LVL94:
 183:Core/drogui/sensor/gps/src/SAM_M8Q.c **** 				mg->longitud = (mg->longitud << 8) | (mg->rcv_pack.payload[27-i]);
 934              		.loc 1 183 29 discriminator 3 view .LVU295
 935 00b8 F0E7     		b	.L46
 936              	.L58:
 183:Core/drogui/sensor/gps/src/SAM_M8Q.c **** 				mg->longitud = (mg->longitud << 8) | (mg->rcv_pack.payload[27-i]);
 937              		.loc 1 183 29 discriminator 3 view .LVU296
 938              	.LBE8:
 186:Core/drogui/sensor/gps/src/SAM_M8Q.c **** 			for(int i = 0 ; i < 4 ; i++)
 939              		.loc 1 186 4 is_stmt 1 view .LVU297
ARM GAS  C:\Users\GUILLE~1\AppData\Local\Temp\cc7FSVBd.s 			page 24


 186:Core/drogui/sensor/gps/src/SAM_M8Q.c **** 			for(int i = 0 ; i < 4 ; i++)
 940              		.loc 1 186 18 is_stmt 0 view .LVU298
 941 00ba 0023     		movs	r3, #0
 942              	.LVL95:
 186:Core/drogui/sensor/gps/src/SAM_M8Q.c **** 			for(int i = 0 ; i < 4 ; i++)
 943              		.loc 1 186 18 view .LVU299
 944 00bc C4F80834 		str	r3, [r4, #1032]
 186:Core/drogui/sensor/gps/src/SAM_M8Q.c **** 			for(int i = 0 ; i < 4 ; i++)
 945              		.loc 1 186 36 view .LVU300
 946 00c0 C4F80C34 		str	r3, [r4, #1036]
 187:Core/drogui/sensor/gps/src/SAM_M8Q.c **** 				mg->north_vel = (mg->north_vel << 8) | (mg->rcv_pack.payload[51-i]);
 947              		.loc 1 187 4 is_stmt 1 view .LVU301
 948              	.LBB9:
 187:Core/drogui/sensor/gps/src/SAM_M8Q.c **** 				mg->north_vel = (mg->north_vel << 8) | (mg->rcv_pack.payload[51-i]);
 949              		.loc 1 187 8 view .LVU302
 950              	.LVL96:
 951              	.L48:
 187:Core/drogui/sensor/gps/src/SAM_M8Q.c **** 				mg->north_vel = (mg->north_vel << 8) | (mg->rcv_pack.payload[51-i]);
 952              		.loc 1 187 20 discriminator 1 view .LVU303
 187:Core/drogui/sensor/gps/src/SAM_M8Q.c **** 				mg->north_vel = (mg->north_vel << 8) | (mg->rcv_pack.payload[51-i]);
 953              		.loc 1 187 4 is_stmt 0 discriminator 1 view .LVU304
 954 00c4 032B     		cmp	r3, #3
 955 00c6 0CDC     		bgt	.L59
 188:Core/drogui/sensor/gps/src/SAM_M8Q.c **** 			for(int i = 0 ; i < 4 ; i++)
 956              		.loc 1 188 5 is_stmt 1 discriminator 3 view .LVU305
 188:Core/drogui/sensor/gps/src/SAM_M8Q.c **** 			for(int i = 0 ; i < 4 ; i++)
 957              		.loc 1 188 68 is_stmt 0 discriminator 3 view .LVU306
 958 00c8 C3F13301 		rsb	r1, r3, #51
 188:Core/drogui/sensor/gps/src/SAM_M8Q.c **** 			for(int i = 0 ; i < 4 ; i++)
 959              		.loc 1 188 65 discriminator 3 view .LVU307
 960 00cc 2144     		add	r1, r1, r4
 961 00ce 91F80622 		ldrb	r2, [r1, #518]	@ zero_extendqisi2
 188:Core/drogui/sensor/gps/src/SAM_M8Q.c **** 			for(int i = 0 ; i < 4 ; i++)
 962              		.loc 1 188 42 discriminator 3 view .LVU308
 963 00d2 D4F80814 		ldr	r1, [r4, #1032]
 964 00d6 42EA0122 		orr	r2, r2, r1, lsl #8
 188:Core/drogui/sensor/gps/src/SAM_M8Q.c **** 			for(int i = 0 ; i < 4 ; i++)
 965              		.loc 1 188 19 discriminator 3 view .LVU309
 966 00da C4F80824 		str	r2, [r4, #1032]
 187:Core/drogui/sensor/gps/src/SAM_M8Q.c **** 				mg->north_vel = (mg->north_vel << 8) | (mg->rcv_pack.payload[51-i]);
 967              		.loc 1 187 28 is_stmt 1 discriminator 3 view .LVU310
 187:Core/drogui/sensor/gps/src/SAM_M8Q.c **** 				mg->north_vel = (mg->north_vel << 8) | (mg->rcv_pack.payload[51-i]);
 968              		.loc 1 187 29 is_stmt 0 discriminator 3 view .LVU311
 969 00de 0133     		adds	r3, r3, #1
 970              	.LVL97:
 187:Core/drogui/sensor/gps/src/SAM_M8Q.c **** 				mg->north_vel = (mg->north_vel << 8) | (mg->rcv_pack.payload[51-i]);
 971              		.loc 1 187 29 discriminator 3 view .LVU312
 972 00e0 F0E7     		b	.L48
 973              	.L59:
 187:Core/drogui/sensor/gps/src/SAM_M8Q.c **** 				mg->north_vel = (mg->north_vel << 8) | (mg->rcv_pack.payload[51-i]);
 974              		.loc 1 187 29 discriminator 3 view .LVU313
 975              	.LBE9:
 976              	.LBB10:
 189:Core/drogui/sensor/gps/src/SAM_M8Q.c **** 				mg->east_vel = (mg->east_vel << 8) | (mg->rcv_pack.payload[55-i]);
 977              		.loc 1 189 12 view .LVU314
 978 00e2 0023     		movs	r3, #0
 979              	.LVL98:
ARM GAS  C:\Users\GUILLE~1\AppData\Local\Temp\cc7FSVBd.s 			page 25


 980              	.L50:
 189:Core/drogui/sensor/gps/src/SAM_M8Q.c **** 				mg->east_vel = (mg->east_vel << 8) | (mg->rcv_pack.payload[55-i]);
 981              		.loc 1 189 20 is_stmt 1 discriminator 1 view .LVU315
 189:Core/drogui/sensor/gps/src/SAM_M8Q.c **** 				mg->east_vel = (mg->east_vel << 8) | (mg->rcv_pack.payload[55-i]);
 982              		.loc 1 189 4 is_stmt 0 discriminator 1 view .LVU316
 983 00e4 032B     		cmp	r3, #3
 984 00e6 0CDC     		bgt	.L60
 190:Core/drogui/sensor/gps/src/SAM_M8Q.c **** 
 985              		.loc 1 190 5 is_stmt 1 discriminator 3 view .LVU317
 190:Core/drogui/sensor/gps/src/SAM_M8Q.c **** 
 986              		.loc 1 190 66 is_stmt 0 discriminator 3 view .LVU318
 987 00e8 C3F13701 		rsb	r1, r3, #55
 190:Core/drogui/sensor/gps/src/SAM_M8Q.c **** 
 988              		.loc 1 190 63 discriminator 3 view .LVU319
 989 00ec 2144     		add	r1, r1, r4
 990 00ee 91F80622 		ldrb	r2, [r1, #518]	@ zero_extendqisi2
 190:Core/drogui/sensor/gps/src/SAM_M8Q.c **** 
 991              		.loc 1 190 40 discriminator 3 view .LVU320
 992 00f2 D4F80C14 		ldr	r1, [r4, #1036]
 993 00f6 42EA0122 		orr	r2, r2, r1, lsl #8
 190:Core/drogui/sensor/gps/src/SAM_M8Q.c **** 
 994              		.loc 1 190 18 discriminator 3 view .LVU321
 995 00fa C4F80C24 		str	r2, [r4, #1036]
 189:Core/drogui/sensor/gps/src/SAM_M8Q.c **** 				mg->east_vel = (mg->east_vel << 8) | (mg->rcv_pack.payload[55-i]);
 996              		.loc 1 189 28 is_stmt 1 discriminator 3 view .LVU322
 189:Core/drogui/sensor/gps/src/SAM_M8Q.c **** 				mg->east_vel = (mg->east_vel << 8) | (mg->rcv_pack.payload[55-i]);
 997              		.loc 1 189 29 is_stmt 0 discriminator 3 view .LVU323
 998 00fe 0133     		adds	r3, r3, #1
 999              	.LVL99:
 189:Core/drogui/sensor/gps/src/SAM_M8Q.c **** 				mg->east_vel = (mg->east_vel << 8) | (mg->rcv_pack.payload[55-i]);
 1000              		.loc 1 189 29 discriminator 3 view .LVU324
 1001 0100 F0E7     		b	.L50
 1002              	.L60:
 189:Core/drogui/sensor/gps/src/SAM_M8Q.c **** 				mg->east_vel = (mg->east_vel << 8) | (mg->rcv_pack.payload[55-i]);
 1003              		.loc 1 189 29 discriminator 3 view .LVU325
 1004              	.LBE10:
 192:Core/drogui/sensor/gps/src/SAM_M8Q.c **** 			return OK;
 1005              		.loc 1 192 4 is_stmt 1 view .LVU326
 192:Core/drogui/sensor/gps/src/SAM_M8Q.c **** 			return OK;
 1006              		.loc 1 192 19 is_stmt 0 view .LVU327
 1007 0102 054B     		ldr	r3, .L61
 1008              	.LVL100:
 192:Core/drogui/sensor/gps/src/SAM_M8Q.c **** 			return OK;
 1009              		.loc 1 192 19 view .LVU328
 1010 0104 1B68     		ldr	r3, [r3]
 1011 0106 5B6A     		ldr	r3, [r3, #36]
 192:Core/drogui/sensor/gps/src/SAM_M8Q.c **** 			return OK;
 1012              		.loc 1 192 17 view .LVU329
 1013 0108 C4F81C34 		str	r3, [r4, #1052]
 193:Core/drogui/sensor/gps/src/SAM_M8Q.c **** 		}
 1014              		.loc 1 193 4 is_stmt 1 view .LVU330
 193:Core/drogui/sensor/gps/src/SAM_M8Q.c **** 		}
 1015              		.loc 1 193 11 is_stmt 0 view .LVU331
 1016 010c 8AE7     		b	.L42
 1017              	.L52:
 197:Core/drogui/sensor/gps/src/SAM_M8Q.c **** 		}
 1018              		.loc 1 197 11 view .LVU332
ARM GAS  C:\Users\GUILLE~1\AppData\Local\Temp\cc7FSVBd.s 			page 26


 1019 010e 0220     		movs	r0, #2
 1020              	.LVL101:
 197:Core/drogui/sensor/gps/src/SAM_M8Q.c **** 		}
 1021              		.loc 1 197 11 view .LVU333
 1022 0110 88E7     		b	.L42
 1023              	.L53:
 197:Core/drogui/sensor/gps/src/SAM_M8Q.c **** 		}
 1024              		.loc 1 197 11 view .LVU334
 1025              	.LBE6:
 200:Core/drogui/sensor/gps/src/SAM_M8Q.c **** 	return NO_DATA;
 1026              		.loc 1 200 53 view .LVU335
 1027 0112 0520     		movs	r0, #5
 1028 0114 86E7     		b	.L42
 1029              	.L62:
 1030 0116 00BF     		.align	2
 1031              	.L61:
 1032 0118 00000000 		.word	htim5
 1033              		.cfi_endproc
 1034              	.LFE252:
 1036              		.section	.data.defaultCfgMsg,"aw"
 1037              		.align	2
 1038              		.set	.LANCHOR2,. + 0
 1041              	defaultCfgMsg:
 1042 0000 010701   		.ascii	"\001\007\001"
 1043              		.section	.data.defaultCfgPort,"aw"
 1044              		.align	2
 1045              		.set	.LANCHOR0,. + 0
 1048              	defaultCfgPort:
 1049 0000 01000000 		.ascii	"\001\000\000\000\300\010\000\000\000\010\007\000\007"
 1049      C0080000 
 1049      00080700 
 1049      07
 1050 000d 00010000 		.ascii	"\000\001\000\000\000\000\000"
 1050      000000
 1051              		.section	.data.defaultCfgRate,"aw"
 1052              		.align	2
 1053              		.set	.LANCHOR1,. + 0
 1056              	defaultCfgRate:
 1057 0000 7D000100 		.ascii	"}\000\001\000\001\000"
 1057      0100
 1058              		.text
 1059              	.Letext0:
 1060              		.file 2 "c:\\program files (x86)\\gnu arm embedded toolchain\\10 2020-q4-major\\arm-none-eabi\\inc
 1061              		.file 3 "c:\\program files (x86)\\gnu arm embedded toolchain\\10 2020-q4-major\\arm-none-eabi\\inc
 1062              		.file 4 "Drivers/CMSIS/Device/ST/STM32F7xx/Include/stm32f746xx.h"
 1063              		.file 5 "Drivers/STM32F7xx_HAL_Driver/Inc/stm32f7xx_hal_def.h"
 1064              		.file 6 "Drivers/STM32F7xx_HAL_Driver/Inc/stm32f7xx_hal_dma.h"
 1065              		.file 7 "Drivers/STM32F7xx_HAL_Driver/Inc/stm32f7xx_hal_tim.h"
 1066              		.file 8 "Core/drogui/utils/include/utils.h"
 1067              		.file 9 "Core/drogui/interfaces/include/serial.h"
 1068              		.file 10 "Core/drogui/sensor/gps/include/SAM_M8Q.h"
 1069              		.file 11 "Core/Inc/tim.h"
 1070              		.file 12 "Drivers/STM32F7xx_HAL_Driver/Inc/stm32f7xx_hal.h"
ARM GAS  C:\Users\GUILLE~1\AppData\Local\Temp\cc7FSVBd.s 			page 27

