ARM GAS  C:\Users\GUILLE~1\AppData\Local\Temp\ccyLFEoy.s 			page 1


   1              		.cpu cortex-m7
   2              		.eabi_attribute 27, 1
   3              		.eabi_attribute 28, 1
   4              		.eabi_attribute 20, 1
   5              		.eabi_attribute 21, 1
   6              		.eabi_attribute 23, 3
   7              		.eabi_attribute 24, 1
   8              		.eabi_attribute 25, 1
   9              		.eabi_attribute 26, 1
  10              		.eabi_attribute 30, 1
  11              		.eabi_attribute 34, 1
  12              		.eabi_attribute 18, 4
  13              		.file	"sensorsTasks.c"
  14              		.text
  15              	.Ltext0:
  16              		.cfi_sections	.debug_frame
  17              		.section	.text.accelTask,"ax",%progbits
  18              		.align	1
  19              		.global	accelTask
  20              		.arch armv7e-m
  21              		.syntax unified
  22              		.thumb
  23              		.thumb_func
  24              		.fpu fpv5-sp-d16
  26              	accelTask:
  27              	.LFB279:
  28              		.file 1 "Core/drogui/task/src/sensorsTasks.c"
   1:Core/drogui/task/src/sensorsTasks.c **** #include "sensorsTasks.h"
   2:Core/drogui/task/src/sensorsTasks.c **** #include "mahony.h"
   3:Core/drogui/task/src/sensorsTasks.c **** #include "task.h"
   4:Core/drogui/task/src/sensorsTasks.c **** #include "utils.h"
   5:Core/drogui/task/src/sensorsTasks.c **** #include "kalman.h"
   6:Core/drogui/task/src/sensorsTasks.c **** #include "gps.h"
   7:Core/drogui/task/src/sensorsTasks.c **** #include "serial.h"
   8:Core/drogui/task/src/sensorsTasks.c **** #include "opticalFlow.h"
   9:Core/drogui/task/src/sensorsTasks.c **** #include "imu.h"
  10:Core/drogui/task/src/sensorsTasks.c **** #include "teraranger.h"
  11:Core/drogui/task/src/sensorsTasks.c **** #include "macros.h"
  12:Core/drogui/task/src/sensorsTasks.c **** 
  13:Core/drogui/task/src/sensorsTasks.c **** imu myIMU;
  14:Core/drogui/task/src/sensorsTasks.c **** 
  15:Core/drogui/task/src/sensorsTasks.c **** mahony myRPY;
  16:Core/drogui/task/src/sensorsTasks.c **** 
  17:Core/drogui/task/src/sensorsTasks.c **** gps myGPS;
  18:Core/drogui/task/src/sensorsTasks.c **** kalmanPV myKalman;
  19:Core/drogui/task/src/sensorsTasks.c **** optFlow myOF;
  20:Core/drogui/task/src/sensorsTasks.c **** tRanger myTera;
  21:Core/drogui/task/src/sensorsTasks.c **** 
  22:Core/drogui/task/src/sensorsTasks.c **** filter filter_roll, filter_pitch, filter_yaw;
  23:Core/drogui/task/src/sensorsTasks.c **** 
  24:Core/drogui/task/src/sensorsTasks.c **** float   roll,       pitch,      yaw,
  25:Core/drogui/task/src/sensorsTasks.c **** 		raw_roll,   raw_pitch,  raw_yaw,
  26:Core/drogui/task/src/sensorsTasks.c **** 		ax,         ay,         az,
  27:Core/drogui/task/src/sensorsTasks.c **** 		gx,         gy,         gz,
  28:Core/drogui/task/src/sensorsTasks.c **** 		mx,         my,         mz,
  29:Core/drogui/task/src/sensorsTasks.c **** 		x,          y,          z,
  30:Core/drogui/task/src/sensorsTasks.c **** 		x_gps,		y_gps,
ARM GAS  C:\Users\GUILLE~1\AppData\Local\Temp\ccyLFEoy.s 			page 2


  31:Core/drogui/task/src/sensorsTasks.c **** 		vx_gps,		vy_gps,
  32:Core/drogui/task/src/sensorsTasks.c **** 		xp,         yp,
  33:Core/drogui/task/src/sensorsTasks.c **** 		z_of,       z_tera,
  34:Core/drogui/task/src/sensorsTasks.c **** 		vx,			vy;
  35:Core/drogui/task/src/sensorsTasks.c **** 
  36:Core/drogui/task/src/sensorsTasks.c **** bool mag_available = false;
  37:Core/drogui/task/src/sensorsTasks.c **** 
  38:Core/drogui/task/src/sensorsTasks.c **** float z_ant = 0;
  39:Core/drogui/task/src/sensorsTasks.c **** float Kdfilt = 0.01;
  40:Core/drogui/task/src/sensorsTasks.c **** bmp388 myBMP;
  41:Core/drogui/task/src/sensorsTasks.c **** 
  42:Core/drogui/task/src/sensorsTasks.c **** emaFilter ema_bmp;
  43:Core/drogui/task/src/sensorsTasks.c **** mvAvgFilter mvAvg_bmp;
  44:Core/drogui/task/src/sensorsTasks.c **** filter filter_z;
  45:Core/drogui/task/src/sensorsTasks.c **** int cfilt_z = 0;
  46:Core/drogui/task/src/sensorsTasks.c **** 
  47:Core/drogui/task/src/sensorsTasks.c **** void accelTask(){
  29              		.loc 1 47 17 view -0
  30              		.cfi_startproc
  31              		@ args = 0, pretend = 0, frame = 0
  32              		@ frame_needed = 0, uses_anonymous_args = 0
  33 0000 10B5     		push	{r4, lr}
  34              	.LCFI0:
  35              		.cfi_def_cfa_offset 8
  36              		.cfi_offset 4, -8
  37              		.cfi_offset 14, -4
  48:Core/drogui/task/src/sensorsTasks.c **** 
  49:Core/drogui/task/src/sensorsTasks.c **** 	readAcc(&myIMU);
  38              		.loc 1 49 2 view .LVU1
  39 0002 1B4C     		ldr	r4, .L5
  40 0004 2046     		mov	r0, r4
  41 0006 FFF7FEFF 		bl	readAcc
  42              	.LVL0:
  50:Core/drogui/task/src/sensorsTasks.c **** 	ax = myIMU.ax, ay = myIMU.ay, az = myIMU.az;
  43              		.loc 1 50 2 view .LVU2
  44              		.loc 1 50 12 is_stmt 0 view .LVU3
  45 000a 2268     		ldr	r2, [r4]	@ float
  46              		.loc 1 50 5 view .LVU4
  47 000c 194B     		ldr	r3, .L5+4
  48 000e 1A60     		str	r2, [r3]	@ float
  49              		.loc 1 50 27 view .LVU5
  50 0010 6268     		ldr	r2, [r4, #4]	@ float
  51              		.loc 1 50 20 view .LVU6
  52 0012 194B     		ldr	r3, .L5+8
  53 0014 1A60     		str	r2, [r3]	@ float
  54              		.loc 1 50 42 view .LVU7
  55 0016 A268     		ldr	r2, [r4, #8]	@ float
  56              		.loc 1 50 35 view .LVU8
  57 0018 184B     		ldr	r3, .L5+12
  58 001a 1A60     		str	r2, [r3]	@ float
  51:Core/drogui/task/src/sensorsTasks.c **** 
  52:Core/drogui/task/src/sensorsTasks.c **** 	if( calib_status & 1 ){
  59              		.loc 1 52 2 is_stmt 1 view .LVU9
  60              		.loc 1 52 19 is_stmt 0 view .LVU10
  61 001c 184B     		ldr	r3, .L5+16
  62 001e 1B68     		ldr	r3, [r3]
  63              		.loc 1 52 4 view .LVU11
ARM GAS  C:\Users\GUILLE~1\AppData\Local\Temp\ccyLFEoy.s 			page 3


  64 0020 13F0010F 		tst	r3, #1
  65 0024 12D1     		bne	.L4
  66              	.L2:
  53:Core/drogui/task/src/sensorsTasks.c **** 		cleanFiltAcc(&myIMU.fAccX);
  54:Core/drogui/task/src/sensorsTasks.c **** 		cleanFiltAcc(&myIMU.fAccY);
  55:Core/drogui/task/src/sensorsTasks.c **** 		cleanFiltAcc(&myIMU.fAccZ);
  56:Core/drogui/task/src/sensorsTasks.c **** 		calib_status ^= 1;
  57:Core/drogui/task/src/sensorsTasks.c **** 	}
  58:Core/drogui/task/src/sensorsTasks.c **** 
  59:Core/drogui/task/src/sensorsTasks.c **** 	setReg(ACC_X,(float)(ax));
  67              		.loc 1 59 2 is_stmt 1 view .LVU12
  68 0026 134B     		ldr	r3, .L5+4
  69 0028 93ED000A 		vldr.32	s0, [r3]
  70 002c C820     		movs	r0, #200
  71 002e FFF7FEFF 		bl	setReg
  72              	.LVL1:
  60:Core/drogui/task/src/sensorsTasks.c **** 	setReg(ACC_Y,(float)(ay));
  73              		.loc 1 60 2 view .LVU13
  74 0032 114B     		ldr	r3, .L5+8
  75 0034 93ED000A 		vldr.32	s0, [r3]
  76 0038 CA20     		movs	r0, #202
  77 003a FFF7FEFF 		bl	setReg
  78              	.LVL2:
  61:Core/drogui/task/src/sensorsTasks.c **** 	setReg(ACC_Z,(float)(az));
  79              		.loc 1 61 2 view .LVU14
  80 003e 0F4B     		ldr	r3, .L5+12
  81 0040 93ED000A 		vldr.32	s0, [r3]
  82 0044 CC20     		movs	r0, #204
  83 0046 FFF7FEFF 		bl	setReg
  84              	.LVL3:
  62:Core/drogui/task/src/sensorsTasks.c **** }
  85              		.loc 1 62 1 is_stmt 0 view .LVU15
  86 004a 10BD     		pop	{r4, pc}
  87              	.L4:
  53:Core/drogui/task/src/sensorsTasks.c **** 		cleanFiltAcc(&myIMU.fAccY);
  88              		.loc 1 53 3 is_stmt 1 view .LVU16
  89 004c 04F57B70 		add	r0, r4, #1004
  90 0050 FFF7FEFF 		bl	cleanFiltAcc
  91              	.LVL4:
  54:Core/drogui/task/src/sensorsTasks.c **** 		cleanFiltAcc(&myIMU.fAccZ);
  92              		.loc 1 54 3 view .LVU17
  93 0054 04F26C40 		addw	r0, r4, #1132
  94 0058 FFF7FEFF 		bl	cleanFiltAcc
  95              	.LVL5:
  55:Core/drogui/task/src/sensorsTasks.c **** 		calib_status ^= 1;
  96              		.loc 1 55 3 view .LVU18
  97 005c 04F2EC40 		addw	r0, r4, #1260
  98 0060 FFF7FEFF 		bl	cleanFiltAcc
  99              	.LVL6:
  56:Core/drogui/task/src/sensorsTasks.c **** 	}
 100              		.loc 1 56 3 view .LVU19
  56:Core/drogui/task/src/sensorsTasks.c **** 	}
 101              		.loc 1 56 16 is_stmt 0 view .LVU20
 102 0064 064A     		ldr	r2, .L5+16
 103 0066 1368     		ldr	r3, [r2]
 104 0068 83F00103 		eor	r3, r3, #1
 105 006c 1360     		str	r3, [r2]
ARM GAS  C:\Users\GUILLE~1\AppData\Local\Temp\ccyLFEoy.s 			page 4


 106 006e DAE7     		b	.L2
 107              	.L6:
 108              		.align	2
 109              	.L5:
 110 0070 00000000 		.word	.LANCHOR0
 111 0074 00000000 		.word	.LANCHOR1
 112 0078 00000000 		.word	.LANCHOR2
 113 007c 00000000 		.word	.LANCHOR3
 114 0080 00000000 		.word	calib_status
 115              		.cfi_endproc
 116              	.LFE279:
 118              		.section	.text.gyroTask,"ax",%progbits
 119              		.align	1
 120              		.global	gyroTask
 121              		.syntax unified
 122              		.thumb
 123              		.thumb_func
 124              		.fpu fpv5-sp-d16
 126              	gyroTask:
 127              	.LFB280:
  63:Core/drogui/task/src/sensorsTasks.c **** 
  64:Core/drogui/task/src/sensorsTasks.c **** void gyroTask(){
 128              		.loc 1 64 16 is_stmt 1 view -0
 129              		.cfi_startproc
 130              		@ args = 0, pretend = 0, frame = 0
 131              		@ frame_needed = 0, uses_anonymous_args = 0
 132 0000 10B5     		push	{r4, lr}
 133              	.LCFI1:
 134              		.cfi_def_cfa_offset 8
 135              		.cfi_offset 4, -8
 136              		.cfi_offset 14, -4
  65:Core/drogui/task/src/sensorsTasks.c **** 
  66:Core/drogui/task/src/sensorsTasks.c **** 	readGyro(&myIMU);
 137              		.loc 1 66 2 view .LVU22
 138 0002 1B4C     		ldr	r4, .L11
 139 0004 2046     		mov	r0, r4
 140 0006 FFF7FEFF 		bl	readGyro
 141              	.LVL7:
  67:Core/drogui/task/src/sensorsTasks.c **** 	gx = myIMU.gx, gy = myIMU.gy, gz = myIMU.gz;
 142              		.loc 1 67 2 view .LVU23
 143              		.loc 1 67 12 is_stmt 0 view .LVU24
 144 000a E268     		ldr	r2, [r4, #12]	@ float
 145              		.loc 1 67 5 view .LVU25
 146 000c 194B     		ldr	r3, .L11+4
 147 000e 1A60     		str	r2, [r3]	@ float
 148              		.loc 1 67 27 view .LVU26
 149 0010 2269     		ldr	r2, [r4, #16]	@ float
 150              		.loc 1 67 20 view .LVU27
 151 0012 194B     		ldr	r3, .L11+8
 152 0014 1A60     		str	r2, [r3]	@ float
 153              		.loc 1 67 42 view .LVU28
 154 0016 6269     		ldr	r2, [r4, #20]	@ float
 155              		.loc 1 67 35 view .LVU29
 156 0018 184B     		ldr	r3, .L11+12
 157 001a 1A60     		str	r2, [r3]	@ float
  68:Core/drogui/task/src/sensorsTasks.c **** 
  69:Core/drogui/task/src/sensorsTasks.c **** 	if( calib_status & 2 ){
ARM GAS  C:\Users\GUILLE~1\AppData\Local\Temp\ccyLFEoy.s 			page 5


 158              		.loc 1 69 2 is_stmt 1 view .LVU30
 159              		.loc 1 69 19 is_stmt 0 view .LVU31
 160 001c 184B     		ldr	r3, .L11+16
 161 001e 1B68     		ldr	r3, [r3]
 162              		.loc 1 69 4 view .LVU32
 163 0020 13F0020F 		tst	r3, #2
 164 0024 12D1     		bne	.L10
 165              	.L8:
  70:Core/drogui/task/src/sensorsTasks.c **** 
  71:Core/drogui/task/src/sensorsTasks.c **** 		cleanFiltGyro(&myIMU.fGyroX);
  72:Core/drogui/task/src/sensorsTasks.c **** 		cleanFiltGyro(&myIMU.fGyroY);
  73:Core/drogui/task/src/sensorsTasks.c **** 		cleanFiltGyro(&myIMU.fGyroZ);
  74:Core/drogui/task/src/sensorsTasks.c **** 		calib_status ^= 2;
  75:Core/drogui/task/src/sensorsTasks.c **** 	}
  76:Core/drogui/task/src/sensorsTasks.c **** 
  77:Core/drogui/task/src/sensorsTasks.c **** 	setReg(GYRO_X,(float)(gx));
 166              		.loc 1 77 2 is_stmt 1 view .LVU33
 167 0026 134B     		ldr	r3, .L11+4
 168 0028 93ED000A 		vldr.32	s0, [r3]
 169 002c CE20     		movs	r0, #206
 170 002e FFF7FEFF 		bl	setReg
 171              	.LVL8:
  78:Core/drogui/task/src/sensorsTasks.c **** 	setReg(GYRO_Y,(float)(gy));
 172              		.loc 1 78 2 view .LVU34
 173 0032 114B     		ldr	r3, .L11+8
 174 0034 93ED000A 		vldr.32	s0, [r3]
 175 0038 D020     		movs	r0, #208
 176 003a FFF7FEFF 		bl	setReg
 177              	.LVL9:
  79:Core/drogui/task/src/sensorsTasks.c **** 	setReg(GYRO_Z,(float)(gz));
 178              		.loc 1 79 2 view .LVU35
 179 003e 0F4B     		ldr	r3, .L11+12
 180 0040 93ED000A 		vldr.32	s0, [r3]
 181 0044 D220     		movs	r0, #210
 182 0046 FFF7FEFF 		bl	setReg
 183              	.LVL10:
  80:Core/drogui/task/src/sensorsTasks.c **** 
  81:Core/drogui/task/src/sensorsTasks.c **** }
 184              		.loc 1 81 1 is_stmt 0 view .LVU36
 185 004a 10BD     		pop	{r4, pc}
 186              	.L10:
  71:Core/drogui/task/src/sensorsTasks.c **** 		cleanFiltGyro(&myIMU.fGyroY);
 187              		.loc 1 71 3 is_stmt 1 view .LVU37
 188 004c 04F1A400 		add	r0, r4, #164
 189 0050 FFF7FEFF 		bl	cleanFiltGyro
 190              	.LVL11:
  72:Core/drogui/task/src/sensorsTasks.c **** 		cleanFiltGyro(&myIMU.fGyroZ);
 191              		.loc 1 72 3 view .LVU38
 192 0054 04F5DE70 		add	r0, r4, #444
 193 0058 FFF7FEFF 		bl	cleanFiltGyro
 194              	.LVL12:
  73:Core/drogui/task/src/sensorsTasks.c **** 		calib_status ^= 2;
 195              		.loc 1 73 3 view .LVU39
 196 005c 04F53570 		add	r0, r4, #724
 197 0060 FFF7FEFF 		bl	cleanFiltGyro
 198              	.LVL13:
  74:Core/drogui/task/src/sensorsTasks.c **** 	}
ARM GAS  C:\Users\GUILLE~1\AppData\Local\Temp\ccyLFEoy.s 			page 6


 199              		.loc 1 74 3 view .LVU40
  74:Core/drogui/task/src/sensorsTasks.c **** 	}
 200              		.loc 1 74 16 is_stmt 0 view .LVU41
 201 0064 064A     		ldr	r2, .L11+16
 202 0066 1368     		ldr	r3, [r2]
 203 0068 83F00203 		eor	r3, r3, #2
 204 006c 1360     		str	r3, [r2]
 205 006e DAE7     		b	.L8
 206              	.L12:
 207              		.align	2
 208              	.L11:
 209 0070 00000000 		.word	.LANCHOR0
 210 0074 00000000 		.word	.LANCHOR4
 211 0078 00000000 		.word	.LANCHOR5
 212 007c 00000000 		.word	.LANCHOR6
 213 0080 00000000 		.word	calib_status
 214              		.cfi_endproc
 215              	.LFE280:
 217              		.section	.text.magTask,"ax",%progbits
 218              		.align	1
 219              		.global	magTask
 220              		.syntax unified
 221              		.thumb
 222              		.thumb_func
 223              		.fpu fpv5-sp-d16
 225              	magTask:
 226              	.LFB281:
  82:Core/drogui/task/src/sensorsTasks.c **** 
  83:Core/drogui/task/src/sensorsTasks.c **** void magTask(){
 227              		.loc 1 83 15 is_stmt 1 view -0
 228              		.cfi_startproc
 229              		@ args = 0, pretend = 0, frame = 0
 230              		@ frame_needed = 0, uses_anonymous_args = 0
 231 0000 38B5     		push	{r3, r4, r5, lr}
 232              	.LCFI2:
 233              		.cfi_def_cfa_offset 16
 234              		.cfi_offset 3, -16
 235              		.cfi_offset 4, -12
 236              		.cfi_offset 5, -8
 237              		.cfi_offset 14, -4
  84:Core/drogui/task/src/sensorsTasks.c **** 	readMag(&myIMU);
 238              		.loc 1 84 2 view .LVU43
 239 0002 104C     		ldr	r4, .L15
 240 0004 2046     		mov	r0, r4
 241 0006 FFF7FEFF 		bl	readMag
 242              	.LVL14:
  85:Core/drogui/task/src/sensorsTasks.c **** 	mx = myIMU.mx;
 243              		.loc 1 85 2 view .LVU44
 244              		.loc 1 85 12 is_stmt 0 view .LVU45
 245 000a 94ED060A 		vldr.32	s0, [r4, #24]
 246              		.loc 1 85 5 view .LVU46
 247 000e 0E4B     		ldr	r3, .L15+4
 248 0010 83ED000A 		vstr.32	s0, [r3]
  86:Core/drogui/task/src/sensorsTasks.c **** 	my = myIMU.my;
 249              		.loc 1 86 2 is_stmt 1 view .LVU47
 250              		.loc 1 86 12 is_stmt 0 view .LVU48
 251 0014 E369     		ldr	r3, [r4, #28]	@ float
ARM GAS  C:\Users\GUILLE~1\AppData\Local\Temp\ccyLFEoy.s 			page 7


 252              		.loc 1 86 5 view .LVU49
 253 0016 0D4D     		ldr	r5, .L15+8
 254 0018 2B60     		str	r3, [r5]	@ float
  87:Core/drogui/task/src/sensorsTasks.c **** 	mz = myIMU.mz;
 255              		.loc 1 87 2 is_stmt 1 view .LVU50
 256              		.loc 1 87 12 is_stmt 0 view .LVU51
 257 001a 236A     		ldr	r3, [r4, #32]	@ float
 258              		.loc 1 87 5 view .LVU52
 259 001c 0C4C     		ldr	r4, .L15+12
 260 001e 2360     		str	r3, [r4]	@ float
  88:Core/drogui/task/src/sensorsTasks.c **** 	setReg(MAG_X, mx);
 261              		.loc 1 88 2 is_stmt 1 view .LVU53
 262 0020 D420     		movs	r0, #212
 263 0022 FFF7FEFF 		bl	setReg
 264              	.LVL15:
  89:Core/drogui/task/src/sensorsTasks.c **** 	setReg(MAG_Y, my);
 265              		.loc 1 89 2 view .LVU54
 266 0026 95ED000A 		vldr.32	s0, [r5]
 267 002a D620     		movs	r0, #214
 268 002c FFF7FEFF 		bl	setReg
 269              	.LVL16:
  90:Core/drogui/task/src/sensorsTasks.c **** 	setReg(MAG_Z, mz);
 270              		.loc 1 90 2 view .LVU55
 271 0030 94ED000A 		vldr.32	s0, [r4]
 272 0034 D820     		movs	r0, #216
 273 0036 FFF7FEFF 		bl	setReg
 274              	.LVL17:
  91:Core/drogui/task/src/sensorsTasks.c **** 	mag_available = true;
 275              		.loc 1 91 2 view .LVU56
 276              		.loc 1 91 16 is_stmt 0 view .LVU57
 277 003a 064B     		ldr	r3, .L15+16
 278 003c 0122     		movs	r2, #1
 279 003e 1A70     		strb	r2, [r3]
  92:Core/drogui/task/src/sensorsTasks.c **** }
 280              		.loc 1 92 1 view .LVU58
 281 0040 38BD     		pop	{r3, r4, r5, pc}
 282              	.L16:
 283 0042 00BF     		.align	2
 284              	.L15:
 285 0044 00000000 		.word	.LANCHOR0
 286 0048 00000000 		.word	.LANCHOR7
 287 004c 00000000 		.word	.LANCHOR8
 288 0050 00000000 		.word	.LANCHOR9
 289 0054 00000000 		.word	.LANCHOR10
 290              		.cfi_endproc
 291              	.LFE281:
 293              		.global	__aeabi_i2d
 294              		.global	__aeabi_ddiv
 295              		.global	__aeabi_d2f
 296              		.global	__aeabi_dmul
 297              		.section	.rodata.gpsTask.str1.4,"aMS",%progbits,1
 298              		.align	2
 299              	.LC0:
 300 0000 47505320 		.ascii	"GPS Crashed\012\000"
 300      43726173 
 300      6865640A 
 300      00
ARM GAS  C:\Users\GUILLE~1\AppData\Local\Temp\ccyLFEoy.s 			page 8


 301              		.section	.text.gpsTask,"ax",%progbits
 302              		.align	1
 303              		.global	gpsTask
 304              		.syntax unified
 305              		.thumb
 306              		.thumb_func
 307              		.fpu fpv5-sp-d16
 309              	gpsTask:
 310              	.LFB283:
  93:Core/drogui/task/src/sensorsTasks.c **** 
  94:Core/drogui/task/src/sensorsTasks.c **** void altitudeTask(){
  95:Core/drogui/task/src/sensorsTasks.c **** 	bmp388ReadAltitude(&myBMP);
  96:Core/drogui/task/src/sensorsTasks.c **** 	z = computeEmaFilter( &ema_bmp, myBMP.altitude);
  97:Core/drogui/task/src/sensorsTasks.c **** 	z = computeFilter( &filter_z, z );
  98:Core/drogui/task/src/sensorsTasks.c **** 	setReg(Z_VAL, z);
  99:Core/drogui/task/src/sensorsTasks.c **** }
 100:Core/drogui/task/src/sensorsTasks.c **** 
 101:Core/drogui/task/src/sensorsTasks.c **** 
 102:Core/drogui/task/src/sensorsTasks.c **** void gpsTask(){
 311              		.loc 1 102 15 is_stmt 1 view -0
 312              		.cfi_startproc
 313              		@ args = 0, pretend = 0, frame = 0
 314              		@ frame_needed = 0, uses_anonymous_args = 0
 315 0000 2DE9F843 		push	{r3, r4, r5, r6, r7, r8, r9, lr}
 316              	.LCFI3:
 317              		.cfi_def_cfa_offset 32
 318              		.cfi_offset 3, -32
 319              		.cfi_offset 4, -28
 320              		.cfi_offset 5, -24
 321              		.cfi_offset 6, -20
 322              		.cfi_offset 7, -16
 323              		.cfi_offset 8, -12
 324              		.cfi_offset 9, -8
 325              		.cfi_offset 14, -4
 103:Core/drogui/task/src/sensorsTasks.c **** 
 104:Core/drogui/task/src/sensorsTasks.c **** 	SENSOR_STATUS ret = readGPS(&myGPS);
 326              		.loc 1 104 2 view .LVU60
 327              		.loc 1 104 22 is_stmt 0 view .LVU61
 328 0004 4C48     		ldr	r0, .L27+8
 329 0006 FFF7FEFF 		bl	readGPS
 330              	.LVL18:
 331 000a 0446     		mov	r4, r0
 332              	.LVL19:
 105:Core/drogui/task/src/sensorsTasks.c **** 	setReg(GPS_STATE, ret);
 333              		.loc 1 105 2 is_stmt 1 view .LVU62
 334 000c 07EE900A 		vmov	s15, r0	@ int
 335 0010 B8EE670A 		vcvt.f32.u32	s0, s15
 336 0014 C220     		movs	r0, #194
 337              	.LVL20:
 338              		.loc 1 105 2 is_stmt 0 view .LVU63
 339 0016 FFF7FEFF 		bl	setReg
 340              	.LVL21:
 106:Core/drogui/task/src/sensorsTasks.c **** 
 107:Core/drogui/task/src/sensorsTasks.c **** 	if(ret == OK){
 341              		.loc 1 107 2 is_stmt 1 view .LVU64
 342              		.loc 1 107 4 is_stmt 0 view .LVU65
 343 001a 032C     		cmp	r4, #3
ARM GAS  C:\Users\GUILLE~1\AppData\Local\Temp\ccyLFEoy.s 			page 9


 344 001c 03D0     		beq	.L24
 108:Core/drogui/task/src/sensorsTasks.c **** 		if(getReg(START_GPS) <= 0)
 109:Core/drogui/task/src/sensorsTasks.c **** 			myGPS.off_x = myGPS.longitud, myGPS.off_y = myGPS.latitude;
 110:Core/drogui/task/src/sensorsTasks.c **** 
 111:Core/drogui/task/src/sensorsTasks.c **** 		int x_lon = myGPS.longitud - myGPS.off_x;
 112:Core/drogui/task/src/sensorsTasks.c **** 		int y_lat = myGPS.latitude - myGPS.off_y;
 113:Core/drogui/task/src/sensorsTasks.c **** 
 114:Core/drogui/task/src/sensorsTasks.c **** 		vx_gps = myGPS.east_vel/1000.0;
 115:Core/drogui/task/src/sensorsTasks.c **** 		vy_gps = myGPS.north_vel/1000.0;
 116:Core/drogui/task/src/sensorsTasks.c **** 
 117:Core/drogui/task/src/sensorsTasks.c **** 		x_gps = myGPS.longitud;
 118:Core/drogui/task/src/sensorsTasks.c **** 		y_gps = myGPS.latitude;
 119:Core/drogui/task/src/sensorsTasks.c **** 
 120:Core/drogui/task/src/sensorsTasks.c **** 		setReg(GPS_AVAILABLE, 1);
 121:Core/drogui/task/src/sensorsTasks.c **** 		setReg(GPS_X, 0.01*x_lon),
 122:Core/drogui/task/src/sensorsTasks.c **** 		setReg(GPS_Y, 0.01*y_lat),
 123:Core/drogui/task/src/sensorsTasks.c **** 		setReg(GPS_VX, vx_gps),
 124:Core/drogui/task/src/sensorsTasks.c **** 		setReg(GPS_VY, vy_gps);
 125:Core/drogui/task/src/sensorsTasks.c **** 		//setReg(GPS_CNT, myGPS.cnt++);
 126:Core/drogui/task/src/sensorsTasks.c **** 	}
 127:Core/drogui/task/src/sensorsTasks.c **** 	else if( ret == CRASHED ){
 345              		.loc 1 127 7 is_stmt 1 view .LVU66
 346              		.loc 1 127 9 is_stmt 0 view .LVU67
 347 001e 052C     		cmp	r4, #5
 348 0020 75D0     		beq	.L25
 349              	.L17:
 128:Core/drogui/task/src/sensorsTasks.c **** 		serialPrint(SER_DBG, "GPS Crashed\n");
 129:Core/drogui/task/src/sensorsTasks.c **** 		if(state == ARM_MOTORS || state == CONTROL_LOOP)
 130:Core/drogui/task/src/sensorsTasks.c **** 			state = DESCEND;
 131:Core/drogui/task/src/sensorsTasks.c **** 	}
 132:Core/drogui/task/src/sensorsTasks.c **** }
 350              		.loc 1 132 1 view .LVU68
 351 0022 BDE8F883 		pop	{r3, r4, r5, r6, r7, r8, r9, pc}
 352              	.L24:
 353              	.LBB2:
 108:Core/drogui/task/src/sensorsTasks.c **** 		if(getReg(START_GPS) <= 0)
 354              		.loc 1 108 3 is_stmt 1 view .LVU69
 108:Core/drogui/task/src/sensorsTasks.c **** 		if(getReg(START_GPS) <= 0)
 355              		.loc 1 108 6 is_stmt 0 view .LVU70
 356 0026 C620     		movs	r0, #198
 357 0028 FFF7FEFF 		bl	getReg
 358              	.LVL22:
 108:Core/drogui/task/src/sensorsTasks.c **** 		if(getReg(START_GPS) <= 0)
 359              		.loc 1 108 5 view .LVU71
 360 002c B5EEC00A 		vcmpe.f32	s0, #0
 361 0030 F1EE10FA 		vmrs	APSR_nzcv, FPSCR
 362 0034 61D9     		bls	.L26
 363              	.L19:
 111:Core/drogui/task/src/sensorsTasks.c **** 		int y_lat = myGPS.latitude - myGPS.off_y;
 364              		.loc 1 111 3 is_stmt 1 view .LVU72
 111:Core/drogui/task/src/sensorsTasks.c **** 		int y_lat = myGPS.latitude - myGPS.off_y;
 365              		.loc 1 111 20 is_stmt 0 view .LVU73
 366 0036 404C     		ldr	r4, .L27+8
 367 0038 D4F80464 		ldr	r6, [r4, #1028]
 111:Core/drogui/task/src/sensorsTasks.c **** 		int y_lat = myGPS.latitude - myGPS.off_y;
 368              		.loc 1 111 37 view .LVU74
 369 003c D4F81034 		ldr	r3, [r4, #1040]
ARM GAS  C:\Users\GUILLE~1\AppData\Local\Temp\ccyLFEoy.s 			page 10


 111:Core/drogui/task/src/sensorsTasks.c **** 		int y_lat = myGPS.latitude - myGPS.off_y;
 370              		.loc 1 111 7 view .LVU75
 371 0040 A6EB0308 		sub	r8, r6, r3
 372              	.LVL23:
 112:Core/drogui/task/src/sensorsTasks.c **** 
 373              		.loc 1 112 3 is_stmt 1 view .LVU76
 112:Core/drogui/task/src/sensorsTasks.c **** 
 374              		.loc 1 112 20 is_stmt 0 view .LVU77
 375 0044 D4F80054 		ldr	r5, [r4, #1024]
 112:Core/drogui/task/src/sensorsTasks.c **** 
 376              		.loc 1 112 37 view .LVU78
 377 0048 D4F81474 		ldr	r7, [r4, #1044]
 112:Core/drogui/task/src/sensorsTasks.c **** 
 378              		.loc 1 112 7 view .LVU79
 379 004c EF1B     		subs	r7, r5, r7
 380              	.LVL24:
 114:Core/drogui/task/src/sensorsTasks.c **** 		vy_gps = myGPS.north_vel/1000.0;
 381              		.loc 1 114 3 is_stmt 1 view .LVU80
 114:Core/drogui/task/src/sensorsTasks.c **** 		vy_gps = myGPS.north_vel/1000.0;
 382              		.loc 1 114 26 is_stmt 0 view .LVU81
 383 004e D4F80C04 		ldr	r0, [r4, #1036]
 384 0052 FFF7FEFF 		bl	__aeabi_i2d
 385              	.LVL25:
 386 0056 0022     		movs	r2, #0
 387 0058 384B     		ldr	r3, .L27+12
 388 005a FFF7FEFF 		bl	__aeabi_ddiv
 389              	.LVL26:
 390 005e FFF7FEFF 		bl	__aeabi_d2f
 391              	.LVL27:
 114:Core/drogui/task/src/sensorsTasks.c **** 		vy_gps = myGPS.north_vel/1000.0;
 392              		.loc 1 114 10 view .LVU82
 393 0062 DFF8F490 		ldr	r9, .L27+40
 394 0066 C9F80000 		str	r0, [r9]	@ float
 115:Core/drogui/task/src/sensorsTasks.c **** 
 395              		.loc 1 115 3 is_stmt 1 view .LVU83
 115:Core/drogui/task/src/sensorsTasks.c **** 
 396              		.loc 1 115 27 is_stmt 0 view .LVU84
 397 006a D4F80804 		ldr	r0, [r4, #1032]
 398 006e FFF7FEFF 		bl	__aeabi_i2d
 399              	.LVL28:
 400 0072 0022     		movs	r2, #0
 401 0074 314B     		ldr	r3, .L27+12
 402 0076 FFF7FEFF 		bl	__aeabi_ddiv
 403              	.LVL29:
 404 007a FFF7FEFF 		bl	__aeabi_d2f
 405              	.LVL30:
 115:Core/drogui/task/src/sensorsTasks.c **** 
 406              		.loc 1 115 10 view .LVU85
 407 007e 304C     		ldr	r4, .L27+16
 408 0080 2060     		str	r0, [r4]	@ float
 117:Core/drogui/task/src/sensorsTasks.c **** 		y_gps = myGPS.latitude;
 409              		.loc 1 117 3 is_stmt 1 view .LVU86
 117:Core/drogui/task/src/sensorsTasks.c **** 		y_gps = myGPS.latitude;
 410              		.loc 1 117 9 is_stmt 0 view .LVU87
 411 0082 07EE906A 		vmov	s15, r6	@ int
 412 0086 F8EEE77A 		vcvt.f32.s32	s15, s15
 413 008a 2E4B     		ldr	r3, .L27+20
ARM GAS  C:\Users\GUILLE~1\AppData\Local\Temp\ccyLFEoy.s 			page 11


 414 008c C3ED007A 		vstr.32	s15, [r3]
 118:Core/drogui/task/src/sensorsTasks.c **** 
 415              		.loc 1 118 3 is_stmt 1 view .LVU88
 118:Core/drogui/task/src/sensorsTasks.c **** 
 416              		.loc 1 118 9 is_stmt 0 view .LVU89
 417 0090 07EE905A 		vmov	s15, r5	@ int
 418 0094 F8EEE77A 		vcvt.f32.s32	s15, s15
 419 0098 2B4B     		ldr	r3, .L27+24
 420 009a C3ED007A 		vstr.32	s15, [r3]
 120:Core/drogui/task/src/sensorsTasks.c **** 		setReg(GPS_X, 0.01*x_lon),
 421              		.loc 1 120 3 is_stmt 1 view .LVU90
 422 009e B7EE000A 		vmov.f32	s0, #1.0e+0
 423 00a2 C420     		movs	r0, #196
 424 00a4 FFF7FEFF 		bl	setReg
 425              	.LVL31:
 121:Core/drogui/task/src/sensorsTasks.c **** 		setReg(GPS_Y, 0.01*y_lat),
 426              		.loc 1 121 3 view .LVU91
 121:Core/drogui/task/src/sensorsTasks.c **** 		setReg(GPS_Y, 0.01*y_lat),
 427              		.loc 1 121 21 is_stmt 0 view .LVU92
 428 00a8 4046     		mov	r0, r8
 429 00aa FFF7FEFF 		bl	__aeabi_i2d
 430              	.LVL32:
 431 00ae 20A3     		adr	r3, .L27
 432 00b0 D3E90023 		ldrd	r2, [r3]
 433 00b4 FFF7FEFF 		bl	__aeabi_dmul
 434              	.LVL33:
 121:Core/drogui/task/src/sensorsTasks.c **** 		setReg(GPS_Y, 0.01*y_lat),
 435              		.loc 1 121 3 view .LVU93
 436 00b8 FFF7FEFF 		bl	__aeabi_d2f
 437              	.LVL34:
 438 00bc 00EE100A 		vmov	s0, r0
 439 00c0 BA20     		movs	r0, #186
 440 00c2 FFF7FEFF 		bl	setReg
 441              	.LVL35:
 122:Core/drogui/task/src/sensorsTasks.c **** 		setReg(GPS_VX, vx_gps),
 442              		.loc 1 122 21 view .LVU94
 443 00c6 3846     		mov	r0, r7
 444 00c8 FFF7FEFF 		bl	__aeabi_i2d
 445              	.LVL36:
 446 00cc 18A3     		adr	r3, .L27
 447 00ce D3E90023 		ldrd	r2, [r3]
 448 00d2 FFF7FEFF 		bl	__aeabi_dmul
 449              	.LVL37:
 122:Core/drogui/task/src/sensorsTasks.c **** 		setReg(GPS_VX, vx_gps),
 450              		.loc 1 122 3 view .LVU95
 451 00d6 FFF7FEFF 		bl	__aeabi_d2f
 452              	.LVL38:
 453 00da 00EE100A 		vmov	s0, r0
 454 00de BC20     		movs	r0, #188
 455 00e0 FFF7FEFF 		bl	setReg
 456              	.LVL39:
 123:Core/drogui/task/src/sensorsTasks.c **** 		setReg(GPS_VY, vy_gps);
 457              		.loc 1 123 3 view .LVU96
 458 00e4 99ED000A 		vldr.32	s0, [r9]
 459 00e8 BE20     		movs	r0, #190
 460 00ea FFF7FEFF 		bl	setReg
 461              	.LVL40:
ARM GAS  C:\Users\GUILLE~1\AppData\Local\Temp\ccyLFEoy.s 			page 12


 124:Core/drogui/task/src/sensorsTasks.c **** 		//setReg(GPS_CNT, myGPS.cnt++);
 462              		.loc 1 124 3 view .LVU97
 463 00ee 94ED000A 		vldr.32	s0, [r4]
 464 00f2 C020     		movs	r0, #192
 465 00f4 FFF7FEFF 		bl	setReg
 466              	.LVL41:
 467              	.LBE2:
 468 00f8 93E7     		b	.L17
 469              	.LVL42:
 470              	.L26:
 471              	.LBB3:
 109:Core/drogui/task/src/sensorsTasks.c **** 
 472              		.loc 1 109 4 is_stmt 1 view .LVU98
 109:Core/drogui/task/src/sensorsTasks.c **** 
 473              		.loc 1 109 23 is_stmt 0 view .LVU99
 474 00fa 0F4B     		ldr	r3, .L27+8
 475 00fc D3F80424 		ldr	r2, [r3, #1028]
 109:Core/drogui/task/src/sensorsTasks.c **** 
 476              		.loc 1 109 16 view .LVU100
 477 0100 C3F81024 		str	r2, [r3, #1040]
 109:Core/drogui/task/src/sensorsTasks.c **** 
 478              		.loc 1 109 53 view .LVU101
 479 0104 D3F80024 		ldr	r2, [r3, #1024]
 109:Core/drogui/task/src/sensorsTasks.c **** 
 480              		.loc 1 109 46 view .LVU102
 481 0108 C3F81424 		str	r2, [r3, #1044]
 482 010c 93E7     		b	.L19
 483              	.L25:
 484              	.LBE3:
 128:Core/drogui/task/src/sensorsTasks.c **** 		if(state == ARM_MOTORS || state == CONTROL_LOOP)
 485              		.loc 1 128 3 is_stmt 1 view .LVU103
 486 010e 0F49     		ldr	r1, .L27+28
 487 0110 0F48     		ldr	r0, .L27+32
 488 0112 FFF7FEFF 		bl	serialPrint
 489              	.LVL43:
 129:Core/drogui/task/src/sensorsTasks.c **** 			state = DESCEND;
 490              		.loc 1 129 3 view .LVU104
 129:Core/drogui/task/src/sensorsTasks.c **** 			state = DESCEND;
 491              		.loc 1 129 26 is_stmt 0 view .LVU105
 492 0116 0F4B     		ldr	r3, .L27+36
 493 0118 1B78     		ldrb	r3, [r3]	@ zero_extendqisi2
 494 011a 033B     		subs	r3, r3, #3
 495 011c DBB2     		uxtb	r3, r3
 129:Core/drogui/task/src/sensorsTasks.c **** 			state = DESCEND;
 496              		.loc 1 129 5 view .LVU106
 497 011e 012B     		cmp	r3, #1
 498 0120 3FF67FAF 		bhi	.L17
 130:Core/drogui/task/src/sensorsTasks.c **** 	}
 499              		.loc 1 130 4 is_stmt 1 view .LVU107
 130:Core/drogui/task/src/sensorsTasks.c **** 	}
 500              		.loc 1 130 10 is_stmt 0 view .LVU108
 501 0124 0B4B     		ldr	r3, .L27+36
 502 0126 0022     		movs	r2, #0
 503 0128 1A70     		strb	r2, [r3]
 504              		.loc 1 132 1 view .LVU109
 505 012a 7AE7     		b	.L17
 506              	.L28:
ARM GAS  C:\Users\GUILLE~1\AppData\Local\Temp\ccyLFEoy.s 			page 13


 507 012c AFF30080 		.align	3
 508              	.L27:
 509 0130 7B14AE47 		.word	1202590843
 510 0134 E17A843F 		.word	1065646817
 511 0138 00000000 		.word	.LANCHOR11
 512 013c 00408F40 		.word	1083129856
 513 0140 00000000 		.word	.LANCHOR13
 514 0144 00000000 		.word	.LANCHOR14
 515 0148 00000000 		.word	.LANCHOR15
 516 014c 00000000 		.word	.LC0
 517 0150 00000000 		.word	serial3
 518 0154 00000000 		.word	state
 519 0158 00000000 		.word	.LANCHOR12
 520              		.cfi_endproc
 521              	.LFE283:
 523              		.section	.rodata.optTask.str1.4,"aMS",%progbits,1
 524              		.align	2
 525              	.LC1:
 526 0000 4F505420 		.ascii	"OPT Crashed\012\000"
 526      43726173 
 526      6865640A 
 526      00
 527              		.section	.text.optTask,"ax",%progbits
 528              		.align	1
 529              		.global	optTask
 530              		.syntax unified
 531              		.thumb
 532              		.thumb_func
 533              		.fpu fpv5-sp-d16
 535              	optTask:
 536              	.LFB284:
 133:Core/drogui/task/src/sensorsTasks.c **** 
 134:Core/drogui/task/src/sensorsTasks.c **** 
 135:Core/drogui/task/src/sensorsTasks.c **** void optTask(){
 537              		.loc 1 135 15 is_stmt 1 view -0
 538              		.cfi_startproc
 539              		@ args = 0, pretend = 0, frame = 8
 540              		@ frame_needed = 0, uses_anonymous_args = 0
 541 0000 00B5     		push	{lr}
 542              	.LCFI4:
 543              		.cfi_def_cfa_offset 4
 544              		.cfi_offset 14, -4
 545 0002 83B0     		sub	sp, sp, #12
 546              	.LCFI5:
 547              		.cfi_def_cfa_offset 16
 136:Core/drogui/task/src/sensorsTasks.c **** 
 137:Core/drogui/task/src/sensorsTasks.c **** 	OPT_VAR var;
 548              		.loc 1 137 2 view .LVU111
 138:Core/drogui/task/src/sensorsTasks.c **** 	SENSOR_STATUS ret = readFlowRange(&myOF, &var);
 549              		.loc 1 138 2 view .LVU112
 550              		.loc 1 138 22 is_stmt 0 view .LVU113
 551 0004 0DF10701 		add	r1, sp, #7
 552 0008 1948     		ldr	r0, .L36+8
 553 000a FFF7FEFF 		bl	readFlowRange
 554              	.LVL44:
 139:Core/drogui/task/src/sensorsTasks.c **** 
 140:Core/drogui/task/src/sensorsTasks.c **** 	if(ret == OK){
ARM GAS  C:\Users\GUILLE~1\AppData\Local\Temp\ccyLFEoy.s 			page 14


 555              		.loc 1 140 2 is_stmt 1 view .LVU114
 556              		.loc 1 140 4 is_stmt 0 view .LVU115
 557 000e 0328     		cmp	r0, #3
 558 0010 04D0     		beq	.L34
 141:Core/drogui/task/src/sensorsTasks.c **** 		if(myOF.dis != -1) z_of= myOF.dis*0.001;
 142:Core/drogui/task/src/sensorsTasks.c **** 		//setReg(XP_VAL, xp), setReg(YP_VAL, yp);
 143:Core/drogui/task/src/sensorsTasks.c **** 		setReg(Z_RNG, z_of);
 144:Core/drogui/task/src/sensorsTasks.c **** 	}
 145:Core/drogui/task/src/sensorsTasks.c **** 	else if(ret == CRASHED){
 559              		.loc 1 145 7 is_stmt 1 view .LVU116
 560              		.loc 1 145 9 is_stmt 0 view .LVU117
 561 0012 0528     		cmp	r0, #5
 562 0014 1AD0     		beq	.L35
 563              	.LVL45:
 564              	.L29:
 146:Core/drogui/task/src/sensorsTasks.c **** 		serialPrint(SER_DBG, "OPT Crashed\n");
 147:Core/drogui/task/src/sensorsTasks.c **** 		if(state == ARM_MOTORS || state == CONTROL_LOOP)
 148:Core/drogui/task/src/sensorsTasks.c **** 			state = DESCEND;
 149:Core/drogui/task/src/sensorsTasks.c **** 	}
 150:Core/drogui/task/src/sensorsTasks.c **** }
 565              		.loc 1 150 1 view .LVU118
 566 0016 03B0     		add	sp, sp, #12
 567              	.LCFI6:
 568              		.cfi_remember_state
 569              		.cfi_def_cfa_offset 4
 570              		@ sp needed
 571 0018 5DF804FB 		ldr	pc, [sp], #4
 572              	.LVL46:
 573              	.L34:
 574              	.LCFI7:
 575              		.cfi_restore_state
 141:Core/drogui/task/src/sensorsTasks.c **** 		if(myOF.dis != -1) z_of= myOF.dis*0.001;
 576              		.loc 1 141 3 is_stmt 1 view .LVU119
 141:Core/drogui/task/src/sensorsTasks.c **** 		if(myOF.dis != -1) z_of= myOF.dis*0.001;
 577              		.loc 1 141 10 is_stmt 0 view .LVU120
 578 001c 144B     		ldr	r3, .L36+8
 579 001e D3F8E800 		ldr	r0, [r3, #232]
 580              	.LVL47:
 141:Core/drogui/task/src/sensorsTasks.c **** 		if(myOF.dis != -1) z_of= myOF.dis*0.001;
 581              		.loc 1 141 5 view .LVU121
 582 0022 B0F1FF3F 		cmp	r0, #-1
 583 0026 0AD0     		beq	.L31
 141:Core/drogui/task/src/sensorsTasks.c **** 		if(myOF.dis != -1) z_of= myOF.dis*0.001;
 584              		.loc 1 141 22 is_stmt 1 discriminator 1 view .LVU122
 141:Core/drogui/task/src/sensorsTasks.c **** 		if(myOF.dis != -1) z_of= myOF.dis*0.001;
 585              		.loc 1 141 36 is_stmt 0 discriminator 1 view .LVU123
 586 0028 FFF7FEFF 		bl	__aeabi_i2d
 587              	.LVL48:
 588 002c 0EA3     		adr	r3, .L36
 589 002e D3E90023 		ldrd	r2, [r3]
 590 0032 FFF7FEFF 		bl	__aeabi_dmul
 591              	.LVL49:
 592 0036 FFF7FEFF 		bl	__aeabi_d2f
 593              	.LVL50:
 141:Core/drogui/task/src/sensorsTasks.c **** 		if(myOF.dis != -1) z_of= myOF.dis*0.001;
 594              		.loc 1 141 26 discriminator 1 view .LVU124
 595 003a 0E4B     		ldr	r3, .L36+12
ARM GAS  C:\Users\GUILLE~1\AppData\Local\Temp\ccyLFEoy.s 			page 15


 596 003c 1860     		str	r0, [r3]	@ float
 597              	.L31:
 143:Core/drogui/task/src/sensorsTasks.c **** 	}
 598              		.loc 1 143 3 is_stmt 1 view .LVU125
 599 003e 0D4B     		ldr	r3, .L36+12
 600 0040 93ED000A 		vldr.32	s0, [r3]
 601 0044 DE20     		movs	r0, #222
 602 0046 FFF7FEFF 		bl	setReg
 603              	.LVL51:
 604 004a E4E7     		b	.L29
 605              	.LVL52:
 606              	.L35:
 146:Core/drogui/task/src/sensorsTasks.c **** 		serialPrint(SER_DBG, "OPT Crashed\n");
 607              		.loc 1 146 3 view .LVU126
 608 004c 0A49     		ldr	r1, .L36+16
 609 004e 0B48     		ldr	r0, .L36+20
 610              	.LVL53:
 146:Core/drogui/task/src/sensorsTasks.c **** 		serialPrint(SER_DBG, "OPT Crashed\n");
 611              		.loc 1 146 3 is_stmt 0 view .LVU127
 612 0050 FFF7FEFF 		bl	serialPrint
 613              	.LVL54:
 147:Core/drogui/task/src/sensorsTasks.c **** 			state = DESCEND;
 614              		.loc 1 147 3 is_stmt 1 view .LVU128
 147:Core/drogui/task/src/sensorsTasks.c **** 			state = DESCEND;
 615              		.loc 1 147 26 is_stmt 0 view .LVU129
 616 0054 0A4B     		ldr	r3, .L36+24
 617 0056 1B78     		ldrb	r3, [r3]	@ zero_extendqisi2
 618 0058 033B     		subs	r3, r3, #3
 619 005a DBB2     		uxtb	r3, r3
 147:Core/drogui/task/src/sensorsTasks.c **** 			state = DESCEND;
 620              		.loc 1 147 5 view .LVU130
 621 005c 012B     		cmp	r3, #1
 622 005e DAD8     		bhi	.L29
 148:Core/drogui/task/src/sensorsTasks.c **** 	}
 623              		.loc 1 148 4 is_stmt 1 view .LVU131
 148:Core/drogui/task/src/sensorsTasks.c **** 	}
 624              		.loc 1 148 10 is_stmt 0 view .LVU132
 625 0060 074B     		ldr	r3, .L36+24
 626 0062 0022     		movs	r2, #0
 627 0064 1A70     		strb	r2, [r3]
 628              		.loc 1 150 1 view .LVU133
 629 0066 D6E7     		b	.L29
 630              	.L37:
 631              		.align	3
 632              	.L36:
 633 0068 FCA9F1D2 		.word	-755914244
 634 006c 4D62503F 		.word	1062232653
 635 0070 00000000 		.word	.LANCHOR16
 636 0074 00000000 		.word	.LANCHOR17
 637 0078 00000000 		.word	.LC1
 638 007c 00000000 		.word	serial3
 639 0080 00000000 		.word	state
 640              		.cfi_endproc
 641              	.LFE284:
 643              		.section	.rodata.teraTask.str1.4,"aMS",%progbits,1
 644              		.align	2
 645              	.LC2:
ARM GAS  C:\Users\GUILLE~1\AppData\Local\Temp\ccyLFEoy.s 			page 16


 646 0000 54657261 		.ascii	"Tera Crashed\012\000"
 646      20437261 
 646      73686564 
 646      0A00
 647              		.section	.text.teraTask,"ax",%progbits
 648              		.align	1
 649              		.global	teraTask
 650              		.syntax unified
 651              		.thumb
 652              		.thumb_func
 653              		.fpu fpv5-sp-d16
 655              	teraTask:
 656              	.LFB285:
 151:Core/drogui/task/src/sensorsTasks.c **** 
 152:Core/drogui/task/src/sensorsTasks.c **** void teraTask(){
 657              		.loc 1 152 16 is_stmt 1 view -0
 658              		.cfi_startproc
 659              		@ args = 0, pretend = 0, frame = 0
 660              		@ frame_needed = 0, uses_anonymous_args = 0
 661 0000 08B5     		push	{r3, lr}
 662              	.LCFI8:
 663              		.cfi_def_cfa_offset 8
 664              		.cfi_offset 3, -8
 665              		.cfi_offset 14, -4
 153:Core/drogui/task/src/sensorsTasks.c **** 
 154:Core/drogui/task/src/sensorsTasks.c **** 	SENSOR_STATUS ret = readTeraRange(&myTera);
 666              		.loc 1 154 2 view .LVU135
 667              		.loc 1 154 22 is_stmt 0 view .LVU136
 668 0002 1148     		ldr	r0, .L44
 669 0004 FFF7FEFF 		bl	readTeraRange
 670              	.LVL55:
 155:Core/drogui/task/src/sensorsTasks.c **** 
 156:Core/drogui/task/src/sensorsTasks.c **** 	if(ret == OK)
 671              		.loc 1 156 2 is_stmt 1 view .LVU137
 672              		.loc 1 156 4 is_stmt 0 view .LVU138
 673 0008 0328     		cmp	r0, #3
 674 000a 02D0     		beq	.L42
 157:Core/drogui/task/src/sensorsTasks.c **** 		z_tera = myTera.distance/1000.0;
 158:Core/drogui/task/src/sensorsTasks.c **** 	else if(ret == CRASHED){
 675              		.loc 1 158 7 is_stmt 1 view .LVU139
 676              		.loc 1 158 9 is_stmt 0 view .LVU140
 677 000c 0528     		cmp	r0, #5
 678 000e 0DD0     		beq	.L43
 679              	.LVL56:
 680              	.L38:
 159:Core/drogui/task/src/sensorsTasks.c **** 		serialPrint(SER_DBG, "Tera Crashed\n");
 160:Core/drogui/task/src/sensorsTasks.c **** 		if(state == ARM_MOTORS || state == CONTROL_LOOP)
 161:Core/drogui/task/src/sensorsTasks.c **** 			state = DESCEND;
 162:Core/drogui/task/src/sensorsTasks.c **** 	}
 163:Core/drogui/task/src/sensorsTasks.c **** }
 681              		.loc 1 163 1 view .LVU141
 682 0010 08BD     		pop	{r3, pc}
 683              	.LVL57:
 684              	.L42:
 157:Core/drogui/task/src/sensorsTasks.c **** 		z_tera = myTera.distance/1000.0;
 685              		.loc 1 157 3 is_stmt 1 view .LVU142
 157:Core/drogui/task/src/sensorsTasks.c **** 		z_tera = myTera.distance/1000.0;
ARM GAS  C:\Users\GUILLE~1\AppData\Local\Temp\ccyLFEoy.s 			page 17


 686              		.loc 1 157 27 is_stmt 0 view .LVU143
 687 0012 0D4B     		ldr	r3, .L44
 688 0014 9889     		ldrh	r0, [r3, #12]
 689              	.LVL58:
 157:Core/drogui/task/src/sensorsTasks.c **** 		z_tera = myTera.distance/1000.0;
 690              		.loc 1 157 27 view .LVU144
 691 0016 FFF7FEFF 		bl	__aeabi_i2d
 692              	.LVL59:
 693 001a 0022     		movs	r2, #0
 694 001c 0B4B     		ldr	r3, .L44+4
 695 001e FFF7FEFF 		bl	__aeabi_ddiv
 696              	.LVL60:
 697 0022 FFF7FEFF 		bl	__aeabi_d2f
 698              	.LVL61:
 157:Core/drogui/task/src/sensorsTasks.c **** 		z_tera = myTera.distance/1000.0;
 699              		.loc 1 157 10 view .LVU145
 700 0026 0A4B     		ldr	r3, .L44+8
 701 0028 1860     		str	r0, [r3]	@ float
 702 002a F1E7     		b	.L38
 703              	.LVL62:
 704              	.L43:
 159:Core/drogui/task/src/sensorsTasks.c **** 		serialPrint(SER_DBG, "Tera Crashed\n");
 705              		.loc 1 159 3 is_stmt 1 view .LVU146
 706 002c 0949     		ldr	r1, .L44+12
 707 002e 0A48     		ldr	r0, .L44+16
 708              	.LVL63:
 159:Core/drogui/task/src/sensorsTasks.c **** 		serialPrint(SER_DBG, "Tera Crashed\n");
 709              		.loc 1 159 3 is_stmt 0 view .LVU147
 710 0030 FFF7FEFF 		bl	serialPrint
 711              	.LVL64:
 160:Core/drogui/task/src/sensorsTasks.c **** 			state = DESCEND;
 712              		.loc 1 160 3 is_stmt 1 view .LVU148
 160:Core/drogui/task/src/sensorsTasks.c **** 			state = DESCEND;
 713              		.loc 1 160 26 is_stmt 0 view .LVU149
 714 0034 094B     		ldr	r3, .L44+20
 715 0036 1B78     		ldrb	r3, [r3]	@ zero_extendqisi2
 716 0038 033B     		subs	r3, r3, #3
 717 003a DBB2     		uxtb	r3, r3
 160:Core/drogui/task/src/sensorsTasks.c **** 			state = DESCEND;
 718              		.loc 1 160 5 view .LVU150
 719 003c 012B     		cmp	r3, #1
 720 003e E7D8     		bhi	.L38
 161:Core/drogui/task/src/sensorsTasks.c **** 	}
 721              		.loc 1 161 4 is_stmt 1 view .LVU151
 161:Core/drogui/task/src/sensorsTasks.c **** 	}
 722              		.loc 1 161 10 is_stmt 0 view .LVU152
 723 0040 064B     		ldr	r3, .L44+20
 724 0042 0022     		movs	r2, #0
 725 0044 1A70     		strb	r2, [r3]
 726              		.loc 1 163 1 view .LVU153
 727 0046 E3E7     		b	.L38
 728              	.L45:
 729              		.align	2
 730              	.L44:
 731 0048 00000000 		.word	.LANCHOR18
 732 004c 00408F40 		.word	1083129856
 733 0050 00000000 		.word	.LANCHOR19
ARM GAS  C:\Users\GUILLE~1\AppData\Local\Temp\ccyLFEoy.s 			page 18


 734 0054 00000000 		.word	.LC2
 735 0058 00000000 		.word	serial3
 736 005c 00000000 		.word	state
 737              		.cfi_endproc
 738              	.LFE285:
 740              		.global	__aeabi_f2d
 741              		.global	__aeabi_dadd
 742              		.section	.text.rpyTask,"ax",%progbits
 743              		.align	1
 744              		.global	rpyTask
 745              		.syntax unified
 746              		.thumb
 747              		.thumb_func
 748              		.fpu fpv5-sp-d16
 750              	rpyTask:
 751              	.LFB286:
 164:Core/drogui/task/src/sensorsTasks.c **** 
 165:Core/drogui/task/src/sensorsTasks.c **** void rpyTask(){
 752              		.loc 1 165 15 is_stmt 1 view -0
 753              		.cfi_startproc
 754              		@ args = 0, pretend = 0, frame = 16
 755              		@ frame_needed = 0, uses_anonymous_args = 0
 756 0000 70B5     		push	{r4, r5, r6, lr}
 757              	.LCFI9:
 758              		.cfi_def_cfa_offset 16
 759              		.cfi_offset 4, -16
 760              		.cfi_offset 5, -12
 761              		.cfi_offset 6, -8
 762              		.cfi_offset 14, -4
 763 0002 2DED028B 		vpush.64	{d8}
 764              	.LCFI10:
 765              		.cfi_def_cfa_offset 24
 766              		.cfi_offset 80, -24
 767              		.cfi_offset 81, -20
 768 0006 84B0     		sub	sp, sp, #16
 769              	.LCFI11:
 770              		.cfi_def_cfa_offset 40
 166:Core/drogui/task/src/sensorsTasks.c **** 
 167:Core/drogui/task/src/sensorsTasks.c **** 	float rpy[3];
 771              		.loc 1 167 2 view .LVU155
 168:Core/drogui/task/src/sensorsTasks.c **** 
 169:Core/drogui/task/src/sensorsTasks.c **** 	mahonyUpdate(&myRPY, gx*PI/180.0, gy*PI/180.0, gz*PI/180.0, ax, ay, az, mx, my, mz);
 772              		.loc 1 169 2 view .LVU156
 773              		.loc 1 169 25 is_stmt 0 view .LVU157
 774 0008 594B     		ldr	r3, .L50+8
 775 000a 93ED000A 		vldr.32	s0, [r3]
 776 000e DFED597A 		vldr.32	s15, .L50+12
 777 0012 20EE270A 		vmul.f32	s0, s0, s15
 778              		.loc 1 169 38 view .LVU158
 779 0016 584B     		ldr	r3, .L50+16
 780 0018 D3ED000A 		vldr.32	s1, [r3]
 781 001c 60EEA70A 		vmul.f32	s1, s1, s15
 782              		.loc 1 169 51 view .LVU159
 783 0020 564B     		ldr	r3, .L50+20
 784 0022 93ED001A 		vldr.32	s2, [r3]
 785 0026 21EE271A 		vmul.f32	s2, s2, s15
 786              		.loc 1 169 2 view .LVU160
ARM GAS  C:\Users\GUILLE~1\AppData\Local\Temp\ccyLFEoy.s 			page 19


 787 002a DFED557A 		vldr.32	s15, .L50+24
 788 002e 554C     		ldr	r4, .L50+28
 789 0030 554B     		ldr	r3, .L50+32
 790 0032 93ED004A 		vldr.32	s8, [r3]
 791 0036 554B     		ldr	r3, .L50+36
 792 0038 D3ED003A 		vldr.32	s7, [r3]
 793 003c 544B     		ldr	r3, .L50+40
 794 003e 93ED003A 		vldr.32	s6, [r3]
 795 0042 544B     		ldr	r3, .L50+44
 796 0044 D3ED002A 		vldr.32	s5, [r3]
 797 0048 534B     		ldr	r3, .L50+48
 798 004a 93ED002A 		vldr.32	s4, [r3]
 799 004e 534B     		ldr	r3, .L50+52
 800 0050 D3ED001A 		vldr.32	s3, [r3]
 801 0054 81EE271A 		vdiv.f32	s2, s2, s15
 802 0058 C0EEA70A 		vdiv.f32	s1, s1, s15
 803 005c 80EE270A 		vdiv.f32	s0, s0, s15
 804 0060 2046     		mov	r0, r4
 805 0062 FFF7FEFF 		bl	mahonyUpdate
 806              	.LVL65:
 170:Core/drogui/task/src/sensorsTasks.c **** 	getMahonyEuler(&myRPY, rpy);
 807              		.loc 1 170 2 is_stmt 1 view .LVU161
 808 0066 01A9     		add	r1, sp, #4
 809 0068 2046     		mov	r0, r4
 810 006a FFF7FEFF 		bl	getMahonyEuler
 811              	.LVL66:
 171:Core/drogui/task/src/sensorsTasks.c **** 	raw_roll = rpy[0], raw_pitch = rpy[1], raw_yaw = rpy[2] + pi/2;
 812              		.loc 1 171 2 view .LVU162
 813              		.loc 1 171 16 is_stmt 0 view .LVU163
 814 006e 9DED018A 		vldr.32	s16, [sp, #4]
 815              		.loc 1 171 11 view .LVU164
 816 0072 4B4E     		ldr	r6, .L50+56
 817 0074 86ED008A 		vstr.32	s16, [r6]
 818              		.loc 1 171 31 view .LVU165
 819 0078 4A4D     		ldr	r5, .L50+60
 820 007a 029B     		ldr	r3, [sp, #8]	@ float
 821 007c 2B60     		str	r3, [r5]	@ float
 822              		.loc 1 171 54 view .LVU166
 823 007e 0398     		ldr	r0, [sp, #12]	@ float
 824 0080 FFF7FEFF 		bl	__aeabi_f2d
 825              	.LVL67:
 826              		.loc 1 171 58 view .LVU167
 827 0084 38A3     		adr	r3, .L50
 828 0086 D3E90023 		ldrd	r2, [r3]
 829 008a FFF7FEFF 		bl	__aeabi_dadd
 830              	.LVL68:
 831 008e FFF7FEFF 		bl	__aeabi_d2f
 832              	.LVL69:
 833              		.loc 1 171 49 view .LVU168
 834 0092 454C     		ldr	r4, .L50+64
 835 0094 2060     		str	r0, [r4]	@ float
 172:Core/drogui/task/src/sensorsTasks.c **** 
 173:Core/drogui/task/src/sensorsTasks.c **** 	raw_roll = computeFilter(&filter_roll, raw_roll);
 836              		.loc 1 173 2 is_stmt 1 view .LVU169
 837              		.loc 1 173 13 is_stmt 0 view .LVU170
 838 0096 B0EE480A 		vmov.f32	s0, s16
 839 009a 4448     		ldr	r0, .L50+68
ARM GAS  C:\Users\GUILLE~1\AppData\Local\Temp\ccyLFEoy.s 			page 20


 840 009c FFF7FEFF 		bl	computeFilter
 841              	.LVL70:
 842              		.loc 1 173 11 view .LVU171
 843 00a0 86ED000A 		vstr.32	s0, [r6]
 174:Core/drogui/task/src/sensorsTasks.c **** 	raw_pitch = computeFilter(&filter_pitch, raw_pitch);
 844              		.loc 1 174 2 is_stmt 1 view .LVU172
 845              		.loc 1 174 14 is_stmt 0 view .LVU173
 846 00a4 95ED000A 		vldr.32	s0, [r5]
 847 00a8 4148     		ldr	r0, .L50+72
 848 00aa FFF7FEFF 		bl	computeFilter
 849              	.LVL71:
 850              		.loc 1 174 12 view .LVU174
 851 00ae 85ED000A 		vstr.32	s0, [r5]
 175:Core/drogui/task/src/sensorsTasks.c **** 	raw_yaw = computeFilter(&filter_yaw, raw_yaw);
 852              		.loc 1 175 2 is_stmt 1 view .LVU175
 853              		.loc 1 175 12 is_stmt 0 view .LVU176
 854 00b2 94ED000A 		vldr.32	s0, [r4]
 855 00b6 3F48     		ldr	r0, .L50+76
 856 00b8 FFF7FEFF 		bl	computeFilter
 857              	.LVL72:
 858              		.loc 1 175 10 view .LVU177
 859 00bc 84ED000A 		vstr.32	s0, [r4]
 176:Core/drogui/task/src/sensorsTasks.c **** 
 177:Core/drogui/task/src/sensorsTasks.c **** 	setReg(RAW_ROLL, raw_roll);
 860              		.loc 1 177 2 is_stmt 1 view .LVU178
 861 00c0 96ED000A 		vldr.32	s0, [r6]
 862 00c4 B420     		movs	r0, #180
 863 00c6 FFF7FEFF 		bl	setReg
 864              	.LVL73:
 178:Core/drogui/task/src/sensorsTasks.c **** 	setReg(RAW_PITCH, raw_pitch);
 865              		.loc 1 178 2 view .LVU179
 866 00ca 95ED000A 		vldr.32	s0, [r5]
 867 00ce B620     		movs	r0, #182
 868 00d0 FFF7FEFF 		bl	setReg
 869              	.LVL74:
 179:Core/drogui/task/src/sensorsTasks.c **** 	setReg(RAW_YAW, raw_yaw);
 870              		.loc 1 179 2 view .LVU180
 871 00d4 94ED000A 		vldr.32	s0, [r4]
 872 00d8 B820     		movs	r0, #184
 873 00da FFF7FEFF 		bl	setReg
 874              	.LVL75:
 180:Core/drogui/task/src/sensorsTasks.c **** 
 181:Core/drogui/task/src/sensorsTasks.c **** 	roll = raw_roll - getReg(ROLL_OFFSET);
 875              		.loc 1 181 2 view .LVU181
 876              		.loc 1 181 18 is_stmt 0 view .LVU182
 877 00de 96ED008A 		vldr.32	s16, [r6]
 878              		.loc 1 181 20 view .LVU183
 879 00e2 0E20     		movs	r0, #14
 880 00e4 FFF7FEFF 		bl	getReg
 881              	.LVL76:
 882              		.loc 1 181 18 view .LVU184
 883 00e8 38EE408A 		vsub.f32	s16, s16, s0
 884              		.loc 1 181 7 view .LVU185
 885 00ec 324E     		ldr	r6, .L50+80
 886 00ee 86ED008A 		vstr.32	s16, [r6]
 182:Core/drogui/task/src/sensorsTasks.c **** 	pitch = raw_pitch - getReg(PITCH_OFFSET);
 887              		.loc 1 182 2 is_stmt 1 view .LVU186
ARM GAS  C:\Users\GUILLE~1\AppData\Local\Temp\ccyLFEoy.s 			page 21


 888              		.loc 1 182 20 is_stmt 0 view .LVU187
 889 00f2 95ED008A 		vldr.32	s16, [r5]
 890              		.loc 1 182 22 view .LVU188
 891 00f6 1020     		movs	r0, #16
 892 00f8 FFF7FEFF 		bl	getReg
 893              	.LVL77:
 894              		.loc 1 182 20 view .LVU189
 895 00fc 38EE408A 		vsub.f32	s16, s16, s0
 896              		.loc 1 182 8 view .LVU190
 897 0100 2E4D     		ldr	r5, .L50+84
 898 0102 85ED008A 		vstr.32	s16, [r5]
 183:Core/drogui/task/src/sensorsTasks.c **** 	yaw = raw_yaw - getReg(YAW_OFFSET);
 899              		.loc 1 183 2 is_stmt 1 view .LVU191
 900              		.loc 1 183 16 is_stmt 0 view .LVU192
 901 0106 94ED008A 		vldr.32	s16, [r4]
 902              		.loc 1 183 18 view .LVU193
 903 010a 1220     		movs	r0, #18
 904 010c FFF7FEFF 		bl	getReg
 905              	.LVL78:
 906              		.loc 1 183 16 view .LVU194
 907 0110 38EE408A 		vsub.f32	s16, s16, s0
 908              		.loc 1 183 6 view .LVU195
 909 0114 2A4C     		ldr	r4, .L50+88
 910 0116 84ED008A 		vstr.32	s16, [r4]
 184:Core/drogui/task/src/sensorsTasks.c **** 
 185:Core/drogui/task/src/sensorsTasks.c **** 	setReg(ROLL_VAL, roll);
 911              		.loc 1 185 2 is_stmt 1 view .LVU196
 912 011a 96ED000A 		vldr.32	s0, [r6]
 913 011e A220     		movs	r0, #162
 914 0120 FFF7FEFF 		bl	setReg
 915              	.LVL79:
 186:Core/drogui/task/src/sensorsTasks.c **** 	setReg(PITCH_VAL, pitch);
 916              		.loc 1 186 2 view .LVU197
 917 0124 95ED000A 		vldr.32	s0, [r5]
 918 0128 A420     		movs	r0, #164
 919 012a FFF7FEFF 		bl	setReg
 920              	.LVL80:
 187:Core/drogui/task/src/sensorsTasks.c **** 	setReg(YAW_VAL, yaw);
 921              		.loc 1 187 2 view .LVU198
 922 012e 94ED000A 		vldr.32	s0, [r4]
 923 0132 A620     		movs	r0, #166
 924 0134 FFF7FEFF 		bl	setReg
 925              	.LVL81:
 188:Core/drogui/task/src/sensorsTasks.c **** 
 189:Core/drogui/task/src/sensorsTasks.c **** 	if( calib_status & 8  ){
 926              		.loc 1 189 2 view .LVU199
 927              		.loc 1 189 19 is_stmt 0 view .LVU200
 928 0138 224B     		ldr	r3, .L50+92
 929 013a 1B68     		ldr	r3, [r3]
 930              		.loc 1 189 4 view .LVU201
 931 013c 13F0080F 		tst	r3, #8
 932 0140 03D1     		bne	.L49
 933              	.L46:
 190:Core/drogui/task/src/sensorsTasks.c **** 		cleanFilter(&filter_roll);
 191:Core/drogui/task/src/sensorsTasks.c **** 		cleanFilter(&filter_pitch);
 192:Core/drogui/task/src/sensorsTasks.c **** 		cleanFilter(&filter_yaw);
 193:Core/drogui/task/src/sensorsTasks.c **** 		calib_status ^= 8;
ARM GAS  C:\Users\GUILLE~1\AppData\Local\Temp\ccyLFEoy.s 			page 22


 194:Core/drogui/task/src/sensorsTasks.c **** 	}
 195:Core/drogui/task/src/sensorsTasks.c **** }
 934              		.loc 1 195 1 view .LVU202
 935 0142 04B0     		add	sp, sp, #16
 936              	.LCFI12:
 937              		.cfi_remember_state
 938              		.cfi_def_cfa_offset 24
 939              		@ sp needed
 940 0144 BDEC028B 		vldm	sp!, {d8}
 941              	.LCFI13:
 942              		.cfi_restore 80
 943              		.cfi_restore 81
 944              		.cfi_def_cfa_offset 16
 945 0148 70BD     		pop	{r4, r5, r6, pc}
 946              	.L49:
 947              	.LCFI14:
 948              		.cfi_restore_state
 190:Core/drogui/task/src/sensorsTasks.c **** 		cleanFilter(&filter_roll);
 949              		.loc 1 190 3 is_stmt 1 view .LVU203
 950 014a 1848     		ldr	r0, .L50+68
 951 014c FFF7FEFF 		bl	cleanFilter
 952              	.LVL82:
 191:Core/drogui/task/src/sensorsTasks.c **** 		cleanFilter(&filter_yaw);
 953              		.loc 1 191 3 view .LVU204
 954 0150 1748     		ldr	r0, .L50+72
 955 0152 FFF7FEFF 		bl	cleanFilter
 956              	.LVL83:
 192:Core/drogui/task/src/sensorsTasks.c **** 		calib_status ^= 8;
 957              		.loc 1 192 3 view .LVU205
 958 0156 1748     		ldr	r0, .L50+76
 959 0158 FFF7FEFF 		bl	cleanFilter
 960              	.LVL84:
 193:Core/drogui/task/src/sensorsTasks.c **** 	}
 961              		.loc 1 193 3 view .LVU206
 193:Core/drogui/task/src/sensorsTasks.c **** 	}
 962              		.loc 1 193 16 is_stmt 0 view .LVU207
 963 015c 194A     		ldr	r2, .L50+92
 964 015e 1368     		ldr	r3, [r2]
 965 0160 83F00803 		eor	r3, r3, #8
 966 0164 1360     		str	r3, [r2]
 967              		.loc 1 195 1 view .LVU208
 968 0166 ECE7     		b	.L46
 969              	.L51:
 970              		.align	3
 971              	.L50:
 972 0168 182D4454 		.word	1413754136
 973 016c FB21F93F 		.word	1073291771
 974 0170 00000000 		.word	.LANCHOR4
 975 0174 DB0F4940 		.word	1078530011
 976 0178 00000000 		.word	.LANCHOR5
 977 017c 00000000 		.word	.LANCHOR6
 978 0180 00003443 		.word	1127481344
 979 0184 00000000 		.word	.LANCHOR20
 980 0188 00000000 		.word	.LANCHOR9
 981 018c 00000000 		.word	.LANCHOR8
 982 0190 00000000 		.word	.LANCHOR7
 983 0194 00000000 		.word	.LANCHOR3
ARM GAS  C:\Users\GUILLE~1\AppData\Local\Temp\ccyLFEoy.s 			page 23


 984 0198 00000000 		.word	.LANCHOR2
 985 019c 00000000 		.word	.LANCHOR1
 986 01a0 00000000 		.word	.LANCHOR21
 987 01a4 00000000 		.word	.LANCHOR22
 988 01a8 00000000 		.word	.LANCHOR23
 989 01ac 00000000 		.word	.LANCHOR24
 990 01b0 00000000 		.word	.LANCHOR25
 991 01b4 00000000 		.word	.LANCHOR26
 992 01b8 00000000 		.word	.LANCHOR27
 993 01bc 00000000 		.word	.LANCHOR28
 994 01c0 00000000 		.word	.LANCHOR29
 995 01c4 00000000 		.word	calib_status
 996              		.cfi_endproc
 997              	.LFE286:
 999              		.section	.text.xyzTask,"ax",%progbits
 1000              		.align	1
 1001              		.global	xyzTask
 1002              		.syntax unified
 1003              		.thumb
 1004              		.thumb_func
 1005              		.fpu fpv5-sp-d16
 1007              	xyzTask:
 1008              	.LFB287:
 196:Core/drogui/task/src/sensorsTasks.c **** 
 197:Core/drogui/task/src/sensorsTasks.c **** void xyzTask(){
 1009              		.loc 1 197 15 is_stmt 1 view -0
 1010              		.cfi_startproc
 1011              		@ args = 0, pretend = 0, frame = 16
 1012              		@ frame_needed = 0, uses_anonymous_args = 0
 1013 0000 2DE9F04F 		push	{r4, r5, r6, r7, r8, r9, r10, fp, lr}
 1014              	.LCFI15:
 1015              		.cfi_def_cfa_offset 36
 1016              		.cfi_offset 4, -36
 1017              		.cfi_offset 5, -32
 1018              		.cfi_offset 6, -28
 1019              		.cfi_offset 7, -24
 1020              		.cfi_offset 8, -20
 1021              		.cfi_offset 9, -16
 1022              		.cfi_offset 10, -12
 1023              		.cfi_offset 11, -8
 1024              		.cfi_offset 14, -4
 1025 0004 2DED048B 		vpush.64	{d8, d9}
 1026              	.LCFI16:
 1027              		.cfi_def_cfa_offset 52
 1028              		.cfi_offset 80, -52
 1029              		.cfi_offset 81, -48
 1030              		.cfi_offset 82, -44
 1031              		.cfi_offset 83, -40
 1032 0008 85B0     		sub	sp, sp, #20
 1033              	.LCFI17:
 1034              		.cfi_def_cfa_offset 72
 198:Core/drogui/task/src/sensorsTasks.c **** 
 199:Core/drogui/task/src/sensorsTasks.c **** 	z = z_of;
 1035              		.loc 1 199 2 view .LVU210
 1036              		.loc 1 199 4 is_stmt 0 view .LVU211
 1037 000a 724B     		ldr	r3, .L66
 1038 000c 1A68     		ldr	r2, [r3]	@ float
ARM GAS  C:\Users\GUILLE~1\AppData\Local\Temp\ccyLFEoy.s 			page 24


 1039 000e 724B     		ldr	r3, .L66+4
 1040 0010 1A60     		str	r2, [r3]	@ float
 200:Core/drogui/task/src/sensorsTasks.c **** 	if(z_tera >= 0.5 && z_tera <= 50)
 1041              		.loc 1 200 2 is_stmt 1 view .LVU212
 1042              		.loc 1 200 12 is_stmt 0 view .LVU213
 1043 0012 724B     		ldr	r3, .L66+8
 1044 0014 D3ED007A 		vldr.32	s15, [r3]
 1045              		.loc 1 200 4 view .LVU214
 1046 0018 B6EE007A 		vmov.f32	s14, #5.0e-1
 1047 001c F4EEC77A 		vcmpe.f32	s15, s14
 1048 0020 F1EE10FA 		vmrs	APSR_nzcv, FPSCR
 1049 0024 09DB     		blt	.L53
 1050              		.loc 1 200 19 discriminator 1 view .LVU215
 1051 0026 9FED6E7A 		vldr.32	s14, .L66+12
 1052 002a F4EEC77A 		vcmpe.f32	s15, s14
 1053 002e F1EE10FA 		vmrs	APSR_nzcv, FPSCR
 1054 0032 02D8     		bhi	.L53
 201:Core/drogui/task/src/sensorsTasks.c **** 		z = z_tera;
 1055              		.loc 1 201 3 is_stmt 1 view .LVU216
 1056              		.loc 1 201 5 is_stmt 0 view .LVU217
 1057 0034 684B     		ldr	r3, .L66+4
 1058 0036 C3ED007A 		vstr.32	s15, [r3]
 1059              	.L53:
 202:Core/drogui/task/src/sensorsTasks.c **** 
 203:Core/drogui/task/src/sensorsTasks.c **** 	if(getReg(START_GPS) > 0){
 1060              		.loc 1 203 2 is_stmt 1 view .LVU218
 1061              		.loc 1 203 5 is_stmt 0 view .LVU219
 1062 003a C620     		movs	r0, #198
 1063 003c FFF7FEFF 		bl	getReg
 1064              	.LVL85:
 1065              		.loc 1 203 4 view .LVU220
 1066 0040 B5EEC00A 		vcmpe.f32	s0, #0
 1067 0044 F1EE10FA 		vmrs	APSR_nzcv, FPSCR
 1068 0048 3FDD     		ble	.L64
 204:Core/drogui/task/src/sensorsTasks.c **** 		kalmanUpdateIMU(&myKalman, ax, ay, az, raw_roll, raw_pitch, raw_yaw);
 1069              		.loc 1 204 3 is_stmt 1 view .LVU221
 1070 004a 664B     		ldr	r3, .L66+16
 1071 004c D3ED002A 		vldr.32	s5, [r3]
 1072 0050 654B     		ldr	r3, .L66+20
 1073 0052 93ED002A 		vldr.32	s4, [r3]
 1074 0056 654B     		ldr	r3, .L66+24
 1075 0058 D3ED001A 		vldr.32	s3, [r3]
 1076 005c 644B     		ldr	r3, .L66+28
 1077 005e 93ED001A 		vldr.32	s2, [r3]
 1078 0062 644B     		ldr	r3, .L66+32
 1079 0064 D3ED000A 		vldr.32	s1, [r3]
 1080 0068 634B     		ldr	r3, .L66+36
 1081 006a 93ED000A 		vldr.32	s0, [r3]
 1082 006e 6348     		ldr	r0, .L66+40
 1083 0070 FFF7FEFF 		bl	kalmanUpdateIMU
 1084              	.LVL86:
 205:Core/drogui/task/src/sensorsTasks.c **** 
 206:Core/drogui/task/src/sensorsTasks.c **** 		if(getReg(GPS_AVAILABLE) > 0)
 1085              		.loc 1 206 3 view .LVU222
 1086              		.loc 1 206 6 is_stmt 0 view .LVU223
 1087 0074 C420     		movs	r0, #196
 1088 0076 FFF7FEFF 		bl	getReg
ARM GAS  C:\Users\GUILLE~1\AppData\Local\Temp\ccyLFEoy.s 			page 25


 1089              	.LVL87:
 1090              		.loc 1 206 5 view .LVU224
 1091 007a B5EEC00A 		vcmpe.f32	s0, #0
 1092 007e F1EE10FA 		vmrs	APSR_nzcv, FPSCR
 1093 0082 25DD     		ble	.L58
 207:Core/drogui/task/src/sensorsTasks.c **** 			setReg(GPS_AVAILABLE, 0),
 1094              		.loc 1 207 4 is_stmt 1 view .LVU225
 1095 0084 9FED5E0A 		vldr.32	s0, .L66+44
 1096 0088 C420     		movs	r0, #196
 1097 008a FFF7FEFF 		bl	setReg
 1098              	.LVL88:
 208:Core/drogui/task/src/sensorsTasks.c **** 			kalmanUpdateGPS(&myKalman, getReg(GPS_X), getReg(GPS_Y), getReg(GPS_VX), getReg(GPS_VY));
 1099              		.loc 1 208 4 is_stmt 0 view .LVU226
 1100 008e BA20     		movs	r0, #186
 1101 0090 FFF7FEFF 		bl	getReg
 1102              	.LVL89:
 1103 0094 B0EE408A 		vmov.f32	s16, s0
 1104 0098 BC20     		movs	r0, #188
 1105 009a FFF7FEFF 		bl	getReg
 1106              	.LVL90:
 1107 009e F0EE408A 		vmov.f32	s17, s0
 1108 00a2 BE20     		movs	r0, #190
 1109 00a4 FFF7FEFF 		bl	getReg
 1110              	.LVL91:
 1111 00a8 B0EE409A 		vmov.f32	s18, s0
 1112 00ac C020     		movs	r0, #192
 1113 00ae FFF7FEFF 		bl	getReg
 1114              	.LVL92:
 1115 00b2 F0EE401A 		vmov.f32	s3, s0
 1116 00b6 B0EE491A 		vmov.f32	s2, s18
 1117 00ba F0EE680A 		vmov.f32	s1, s17
 1118 00be B0EE480A 		vmov.f32	s0, s16
 1119 00c2 4E48     		ldr	r0, .L66+40
 1120 00c4 FFF7FEFF 		bl	kalmanUpdateGPS
 1121              	.LVL93:
 1122 00c8 02E0     		b	.L58
 1123              	.L64:
 209:Core/drogui/task/src/sensorsTasks.c **** 	}
 210:Core/drogui/task/src/sensorsTasks.c **** 	else{
 211:Core/drogui/task/src/sensorsTasks.c **** 		clearKalman(&myKalman);
 1124              		.loc 1 211 3 is_stmt 1 view .LVU227
 1125 00ca 4C48     		ldr	r0, .L66+40
 1126 00cc FFF7FEFF 		bl	clearKalman
 1127              	.LVL94:
 1128              	.L58:
 212:Core/drogui/task/src/sensorsTasks.c **** 	}
 213:Core/drogui/task/src/sensorsTasks.c **** 
 214:Core/drogui/task/src/sensorsTasks.c **** 	getPosition(&myKalman, &x, &y);
 1129              		.loc 1 214 2 view .LVU228
 1130 00d0 4C4F     		ldr	r7, .L66+48
 1131 00d2 DFF84481 		ldr	r8, .L66+68
 1132 00d6 494E     		ldr	r6, .L66+40
 1133 00d8 3A46     		mov	r2, r7
 1134 00da 4146     		mov	r1, r8
 1135 00dc 3046     		mov	r0, r6
 1136 00de FFF7FEFF 		bl	getPosition
 1137              	.LVL95:
ARM GAS  C:\Users\GUILLE~1\AppData\Local\Temp\ccyLFEoy.s 			page 26


 215:Core/drogui/task/src/sensorsTasks.c **** 	getVelocity(&myKalman, &vx, &vy);
 1138              		.loc 1 215 2 view .LVU229
 1139 00e2 494C     		ldr	r4, .L66+52
 1140 00e4 494D     		ldr	r5, .L66+56
 1141 00e6 2246     		mov	r2, r4
 1142 00e8 2946     		mov	r1, r5
 1143 00ea 3046     		mov	r0, r6
 1144 00ec FFF7FEFF 		bl	getVelocity
 1145              	.LVL96:
 216:Core/drogui/task/src/sensorsTasks.c **** 
 217:Core/drogui/task/src/sensorsTasks.c **** 	xp = vx*cos(raw_yaw) + vy*sin(raw_yaw);
 1146              		.loc 1 217 2 view .LVU230
 1147              		.loc 1 217 9 is_stmt 0 view .LVU231
 1148 00f0 D5F80090 		ldr	r9, [r5]	@ float
 1149              		.loc 1 217 10 view .LVU232
 1150 00f4 3B4B     		ldr	r3, .L66+16
 1151 00f6 1868     		ldr	r0, [r3]	@ float
 1152 00f8 FFF7FEFF 		bl	__aeabi_f2d
 1153              	.LVL97:
 1154 00fc 41EC180B 		vmov	d8, r0, r1
 1155 0100 41EC100B 		vmov	d0, r0, r1
 1156 0104 FFF7FEFF 		bl	cos
 1157              	.LVL98:
 1158 0108 56EC105B 		vmov	r5, r6, d0
 1159              		.loc 1 217 9 view .LVU233
 1160 010c 4846     		mov	r0, r9	@ float
 1161 010e FFF7FEFF 		bl	__aeabi_f2d
 1162              	.LVL99:
 1163 0112 CDE90056 		strd	r5, [sp]
 1164 0116 2A46     		mov	r2, r5
 1165 0118 3346     		mov	r3, r6
 1166 011a FFF7FEFF 		bl	__aeabi_dmul
 1167              	.LVL100:
 1168 011e CDE90201 		strd	r0, [sp, #8]
 1169              		.loc 1 217 27 view .LVU234
 1170 0122 2068     		ldr	r0, [r4]	@ float
 1171 0124 FFF7FEFF 		bl	__aeabi_f2d
 1172              	.LVL101:
 1173 0128 8246     		mov	r10, r0
 1174 012a 8B46     		mov	fp, r1
 1175              		.loc 1 217 28 view .LVU235
 1176 012c B0EE480A 		vmov.f32	s0, s16
 1177 0130 F0EE680A 		vmov.f32	s1, s17
 1178 0134 FFF7FEFF 		bl	sin
 1179              	.LVL102:
 1180 0138 55EC104B 		vmov	r4, r5, d0
 1181              		.loc 1 217 27 view .LVU236
 1182 013c 10EE102A 		vmov	r2, s0	@ int
 1183 0140 2B46     		mov	r3, r5
 1184 0142 5046     		mov	r0, r10
 1185 0144 5946     		mov	r1, fp
 1186 0146 FFF7FEFF 		bl	__aeabi_dmul
 1187              	.LVL103:
 1188 014a 0246     		mov	r2, r0
 1189 014c 0B46     		mov	r3, r1
 1190              		.loc 1 217 23 view .LVU237
 1191 014e DDE90201 		ldrd	r0, [sp, #8]
ARM GAS  C:\Users\GUILLE~1\AppData\Local\Temp\ccyLFEoy.s 			page 27


 1192 0152 FFF7FEFF 		bl	__aeabi_dadd
 1193              	.LVL104:
 1194 0156 FFF7FEFF 		bl	__aeabi_d2f
 1195              	.LVL105:
 1196              		.loc 1 217 5 view .LVU238
 1197 015a 2D4E     		ldr	r6, .L66+60
 1198 015c 3060     		str	r0, [r6]	@ float
 218:Core/drogui/task/src/sensorsTasks.c **** 	yp = -vx*sin(raw_yaw) + vy*cos(raw_yaw);
 1199              		.loc 1 218 2 is_stmt 1 view .LVU239
 1200              		.loc 1 218 7 is_stmt 0 view .LVU240
 1201 015e 89F00040 		eor	r0, r9, #-2147483648
 1202 0162 FFF7FEFF 		bl	__aeabi_f2d
 1203              	.LVL106:
 1204 0166 0246     		mov	r2, r0
 1205 0168 0B46     		mov	r3, r1
 1206              		.loc 1 218 10 view .LVU241
 1207 016a 2046     		mov	r0, r4
 1208 016c 2946     		mov	r1, r5
 1209 016e FFF7FEFF 		bl	__aeabi_dmul
 1210              	.LVL107:
 1211 0172 0446     		mov	r4, r0
 1212 0174 0D46     		mov	r5, r1
 1213              		.loc 1 218 28 view .LVU242
 1214 0176 5246     		mov	r2, r10
 1215 0178 5B46     		mov	r3, fp
 1216 017a DDE90001 		ldrd	r0, [sp]
 1217 017e FFF7FEFF 		bl	__aeabi_dmul
 1218              	.LVL108:
 1219 0182 0246     		mov	r2, r0
 1220 0184 0B46     		mov	r3, r1
 1221              		.loc 1 218 24 view .LVU243
 1222 0186 2046     		mov	r0, r4
 1223 0188 2946     		mov	r1, r5
 1224 018a FFF7FEFF 		bl	__aeabi_dadd
 1225              	.LVL109:
 1226 018e FFF7FEFF 		bl	__aeabi_d2f
 1227              	.LVL110:
 1228              		.loc 1 218 5 view .LVU244
 1229 0192 204C     		ldr	r4, .L66+64
 1230 0194 2060     		str	r0, [r4]	@ float
 219:Core/drogui/task/src/sensorsTasks.c **** 
 220:Core/drogui/task/src/sensorsTasks.c **** 	setReg(X_VAL, x);
 1231              		.loc 1 220 2 is_stmt 1 view .LVU245
 1232 0196 98ED000A 		vldr.32	s0, [r8]
 1233 019a A820     		movs	r0, #168
 1234 019c FFF7FEFF 		bl	setReg
 1235              	.LVL111:
 221:Core/drogui/task/src/sensorsTasks.c **** 	setReg(Y_VAL, y);
 1236              		.loc 1 221 2 view .LVU246
 1237 01a0 97ED000A 		vldr.32	s0, [r7]
 1238 01a4 AA20     		movs	r0, #170
 1239 01a6 FFF7FEFF 		bl	setReg
 1240              	.LVL112:
 222:Core/drogui/task/src/sensorsTasks.c **** 	setReg(Z_VAL, z);
 1241              		.loc 1 222 2 view .LVU247
 1242 01aa 0B4B     		ldr	r3, .L66+4
 1243 01ac 93ED000A 		vldr.32	s0, [r3]
ARM GAS  C:\Users\GUILLE~1\AppData\Local\Temp\ccyLFEoy.s 			page 28


 1244 01b0 AC20     		movs	r0, #172
 1245 01b2 FFF7FEFF 		bl	setReg
 1246              	.LVL113:
 223:Core/drogui/task/src/sensorsTasks.c **** 
 224:Core/drogui/task/src/sensorsTasks.c **** 	setReg(XP_VAL, xp);
 1247              		.loc 1 224 2 view .LVU248
 1248 01b6 96ED000A 		vldr.32	s0, [r6]
 1249 01ba DA20     		movs	r0, #218
 1250 01bc FFF7FEFF 		bl	setReg
 1251              	.LVL114:
 225:Core/drogui/task/src/sensorsTasks.c **** 	setReg(YP_VAL, yp);
 1252              		.loc 1 225 2 view .LVU249
 1253 01c0 94ED000A 		vldr.32	s0, [r4]
 1254 01c4 DC20     		movs	r0, #220
 1255 01c6 FFF7FEFF 		bl	setReg
 1256              	.LVL115:
 226:Core/drogui/task/src/sensorsTasks.c **** }
 1257              		.loc 1 226 1 is_stmt 0 view .LVU250
 1258 01ca 05B0     		add	sp, sp, #20
 1259              	.LCFI18:
 1260              		.cfi_def_cfa_offset 52
 1261              		@ sp needed
 1262 01cc BDEC048B 		vldm	sp!, {d8-d9}
 1263              	.LCFI19:
 1264              		.cfi_restore 82
 1265              		.cfi_restore 83
 1266              		.cfi_restore 80
 1267              		.cfi_restore 81
 1268              		.cfi_def_cfa_offset 36
 1269 01d0 BDE8F08F 		pop	{r4, r5, r6, r7, r8, r9, r10, fp, pc}
 1270              	.L67:
 1271              		.align	2
 1272              	.L66:
 1273 01d4 00000000 		.word	.LANCHOR17
 1274 01d8 00000000 		.word	.LANCHOR30
 1275 01dc 00000000 		.word	.LANCHOR19
 1276 01e0 00004842 		.word	1112014848
 1277 01e4 00000000 		.word	.LANCHOR23
 1278 01e8 00000000 		.word	.LANCHOR22
 1279 01ec 00000000 		.word	.LANCHOR21
 1280 01f0 00000000 		.word	.LANCHOR3
 1281 01f4 00000000 		.word	.LANCHOR2
 1282 01f8 00000000 		.word	.LANCHOR1
 1283 01fc 00000000 		.word	.LANCHOR31
 1284 0200 00000000 		.word	0
 1285 0204 00000000 		.word	.LANCHOR32
 1286 0208 00000000 		.word	.LANCHOR34
 1287 020c 00000000 		.word	.LANCHOR35
 1288 0210 00000000 		.word	.LANCHOR36
 1289 0214 00000000 		.word	.LANCHOR37
 1290 0218 00000000 		.word	.LANCHOR33
 1291              		.cfi_endproc
 1292              	.LFE287:
 1294              		.section	.text.altitudeTask,"ax",%progbits
 1295              		.align	1
 1296              		.global	altitudeTask
 1297              		.syntax unified
ARM GAS  C:\Users\GUILLE~1\AppData\Local\Temp\ccyLFEoy.s 			page 29


 1298              		.thumb
 1299              		.thumb_func
 1300              		.fpu fpv5-sp-d16
 1302              	altitudeTask:
 1303              	.LFB282:
  94:Core/drogui/task/src/sensorsTasks.c **** 	bmp388ReadAltitude(&myBMP);
 1304              		.loc 1 94 20 is_stmt 1 view -0
 1305              		.cfi_startproc
 1306              		@ args = 0, pretend = 0, frame = 0
 1307              		@ frame_needed = 0, uses_anonymous_args = 0
 1308 0000 10B5     		push	{r4, lr}
 1309              	.LCFI20:
 1310              		.cfi_def_cfa_offset 8
 1311              		.cfi_offset 4, -8
 1312              		.cfi_offset 14, -4
  95:Core/drogui/task/src/sensorsTasks.c **** 	z = computeEmaFilter( &ema_bmp, myBMP.altitude);
 1313              		.loc 1 95 2 view .LVU252
 1314 0002 0A4C     		ldr	r4, .L70
 1315 0004 2046     		mov	r0, r4
 1316 0006 FFF7FEFF 		bl	bmp388ReadAltitude
 1317              	.LVL116:
  96:Core/drogui/task/src/sensorsTasks.c **** 	z = computeFilter( &filter_z, z );
 1318              		.loc 1 96 2 view .LVU253
  96:Core/drogui/task/src/sensorsTasks.c **** 	z = computeFilter( &filter_z, z );
 1319              		.loc 1 96 6 is_stmt 0 view .LVU254
 1320 000a 94ED030A 		vldr.32	s0, [r4, #12]
 1321 000e 0848     		ldr	r0, .L70+4
 1322 0010 FFF7FEFF 		bl	computeEmaFilter
 1323              	.LVL117:
  96:Core/drogui/task/src/sensorsTasks.c **** 	z = computeFilter( &filter_z, z );
 1324              		.loc 1 96 4 view .LVU255
 1325 0014 074C     		ldr	r4, .L70+8
 1326 0016 84ED000A 		vstr.32	s0, [r4]
  97:Core/drogui/task/src/sensorsTasks.c **** 	setReg(Z_VAL, z);
 1327              		.loc 1 97 2 is_stmt 1 view .LVU256
  97:Core/drogui/task/src/sensorsTasks.c **** 	setReg(Z_VAL, z);
 1328              		.loc 1 97 6 is_stmt 0 view .LVU257
 1329 001a 0748     		ldr	r0, .L70+12
 1330 001c FFF7FEFF 		bl	computeFilter
 1331              	.LVL118:
  97:Core/drogui/task/src/sensorsTasks.c **** 	setReg(Z_VAL, z);
 1332              		.loc 1 97 4 view .LVU258
 1333 0020 84ED000A 		vstr.32	s0, [r4]
  98:Core/drogui/task/src/sensorsTasks.c **** }
 1334              		.loc 1 98 2 is_stmt 1 view .LVU259
 1335 0024 AC20     		movs	r0, #172
 1336 0026 FFF7FEFF 		bl	setReg
 1337              	.LVL119:
  99:Core/drogui/task/src/sensorsTasks.c **** 
 1338              		.loc 1 99 1 is_stmt 0 view .LVU260
 1339 002a 10BD     		pop	{r4, pc}
 1340              	.L71:
 1341              		.align	2
 1342              	.L70:
 1343 002c 00000000 		.word	.LANCHOR38
 1344 0030 00000000 		.word	.LANCHOR39
 1345 0034 00000000 		.word	.LANCHOR30
ARM GAS  C:\Users\GUILLE~1\AppData\Local\Temp\ccyLFEoy.s 			page 30


 1346 0038 00000000 		.word	.LANCHOR40
 1347              		.cfi_endproc
 1348              	.LFE282:
 1350              		.section	.text.initSensorsTasks,"ax",%progbits
 1351              		.align	1
 1352              		.global	initSensorsTasks
 1353              		.syntax unified
 1354              		.thumb
 1355              		.thumb_func
 1356              		.fpu fpv5-sp-d16
 1358              	initSensorsTasks:
 1359              	.LFB288:
 227:Core/drogui/task/src/sensorsTasks.c **** 
 228:Core/drogui/task/src/sensorsTasks.c **** void initSensorsTasks(){
 1360              		.loc 1 228 24 is_stmt 1 view -0
 1361              		.cfi_startproc
 1362              		@ args = 0, pretend = 0, frame = 0
 1363              		@ frame_needed = 0, uses_anonymous_args = 0
 1364 0000 38B5     		push	{r3, r4, r5, lr}
 1365              	.LCFI21:
 1366              		.cfi_def_cfa_offset 16
 1367              		.cfi_offset 3, -16
 1368              		.cfi_offset 4, -12
 1369              		.cfi_offset 5, -8
 1370              		.cfi_offset 14, -4
 1371 0002 2DED028B 		vpush.64	{d8}
 1372              	.LCFI22:
 1373              		.cfi_def_cfa_offset 24
 1374              		.cfi_offset 80, -24
 1375              		.cfi_offset 81, -20
 229:Core/drogui/task/src/sensorsTasks.c **** 
 230:Core/drogui/task/src/sensorsTasks.c **** 	initImu(&myIMU);
 1376              		.loc 1 230 2 view .LVU262
 1377 0006 4A48     		ldr	r0, .L74
 1378 0008 FFF7FEFF 		bl	initImu
 1379              	.LVL120:
 231:Core/drogui/task/src/sensorsTasks.c **** 	initMahony(&myRPY, 2, 0.1, 500);
 1380              		.loc 1 231 2 view .LVU263
 1381 000c 9FED498A 		vldr.32	s16, .L74+4
 1382 0010 9FED491A 		vldr.32	s2, .L74+8
 1383 0014 F0EE480A 		vmov.f32	s1, s16
 1384 0018 B0EE000A 		vmov.f32	s0, #2.0e+0
 1385 001c 4748     		ldr	r0, .L74+12
 1386 001e FFF7FEFF 		bl	initMahony
 1387              	.LVL121:
 232:Core/drogui/task/src/sensorsTasks.c **** 
 233:Core/drogui/task/src/sensorsTasks.c **** 
 234:Core/drogui/task/src/sensorsTasks.c **** 	initFilter(&filter_roll, 6, k_1_10, v_1_10);
 1388              		.loc 1 234 2 view .LVU264
 1389 0022 474D     		ldr	r5, .L74+16
 1390 0024 474C     		ldr	r4, .L74+20
 1391 0026 2B46     		mov	r3, r5
 1392 0028 2246     		mov	r2, r4
 1393 002a 0621     		movs	r1, #6
 1394 002c 4648     		ldr	r0, .L74+24
 1395 002e FFF7FEFF 		bl	initFilter
 1396              	.LVL122:
ARM GAS  C:\Users\GUILLE~1\AppData\Local\Temp\ccyLFEoy.s 			page 31


 235:Core/drogui/task/src/sensorsTasks.c **** 	initFilter(&filter_pitch, 6, k_1_10, v_1_10);
 1397              		.loc 1 235 2 view .LVU265
 1398 0032 2B46     		mov	r3, r5
 1399 0034 2246     		mov	r2, r4
 1400 0036 0621     		movs	r1, #6
 1401 0038 4448     		ldr	r0, .L74+28
 1402 003a FFF7FEFF 		bl	initFilter
 1403              	.LVL123:
 236:Core/drogui/task/src/sensorsTasks.c **** 	initFilter(&filter_yaw, 6, k_1_10, v_1_10);
 1404              		.loc 1 236 2 view .LVU266
 1405 003e 2B46     		mov	r3, r5
 1406 0040 2246     		mov	r2, r4
 1407 0042 0621     		movs	r1, #6
 1408 0044 4248     		ldr	r0, .L74+32
 1409 0046 FFF7FEFF 		bl	initFilter
 1410              	.LVL124:
 237:Core/drogui/task/src/sensorsTasks.c **** 
 238:Core/drogui/task/src/sensorsTasks.c **** 	setReg(ACC_SCALE,1);
 1411              		.loc 1 238 2 view .LVU267
 1412 004a B7EE000A 		vmov.f32	s0, #1.0e+0
 1413 004e 2020     		movs	r0, #32
 1414 0050 FFF7FEFF 		bl	setReg
 1415              	.LVL125:
 239:Core/drogui/task/src/sensorsTasks.c **** 	setReg(MAG_X_SCALE,1);
 1416              		.loc 1 239 2 view .LVU268
 1417 0054 B7EE000A 		vmov.f32	s0, #1.0e+0
 1418 0058 2820     		movs	r0, #40
 1419 005a FFF7FEFF 		bl	setReg
 1420              	.LVL126:
 240:Core/drogui/task/src/sensorsTasks.c **** 	setReg(MAG_Y_SCALE,1);
 1421              		.loc 1 240 2 view .LVU269
 1422 005e B7EE000A 		vmov.f32	s0, #1.0e+0
 1423 0062 2A20     		movs	r0, #42
 1424 0064 FFF7FEFF 		bl	setReg
 1425              	.LVL127:
 241:Core/drogui/task/src/sensorsTasks.c **** 	setReg(MAG_Z_SCALE,1);
 1426              		.loc 1 241 2 view .LVU270
 1427 0068 B7EE000A 		vmov.f32	s0, #1.0e+0
 1428 006c 2C20     		movs	r0, #44
 1429 006e FFF7FEFF 		bl	setReg
 1430              	.LVL128:
 242:Core/drogui/task/src/sensorsTasks.c **** 
 243:Core/drogui/task/src/sensorsTasks.c **** 	setKalmanTsImu(&myKalman, 0.01);
 1431              		.loc 1 243 2 view .LVU271
 1432 0072 384C     		ldr	r4, .L74+36
 1433 0074 9FED380A 		vldr.32	s0, .L74+40
 1434 0078 2046     		mov	r0, r4
 1435 007a FFF7FEFF 		bl	setKalmanTsImu
 1436              	.LVL129:
 244:Core/drogui/task/src/sensorsTasks.c **** 	setKalmanTsGps(&myKalman, 0.125);
 1437              		.loc 1 244 2 view .LVU272
 1438 007e B4EE000A 		vmov.f32	s0, #1.25e-1
 1439 0082 2046     		mov	r0, r4
 1440 0084 FFF7FEFF 		bl	setKalmanTsGps
 1441              	.LVL130:
 245:Core/drogui/task/src/sensorsTasks.c **** 
 246:Core/drogui/task/src/sensorsTasks.c **** 	initMatGlobal(&myKalman);
ARM GAS  C:\Users\GUILLE~1\AppData\Local\Temp\ccyLFEoy.s 			page 32


 1442              		.loc 1 246 2 view .LVU273
 1443 0088 2046     		mov	r0, r4
 1444 008a FFF7FEFF 		bl	initMatGlobal
 1445              	.LVL131:
 247:Core/drogui/task/src/sensorsTasks.c **** 
 248:Core/drogui/task/src/sensorsTasks.c **** 	initGPS(&myGPS, SER_GPS);
 1446              		.loc 1 248 2 view .LVU274
 1447 008e 3349     		ldr	r1, .L74+44
 1448 0090 3348     		ldr	r0, .L74+48
 1449 0092 FFF7FEFF 		bl	initGPS
 1450              	.LVL132:
 249:Core/drogui/task/src/sensorsTasks.c **** 	initOptFlow(&myOF, SER_OPT);
 1451              		.loc 1 249 2 view .LVU275
 1452 0096 3349     		ldr	r1, .L74+52
 1453 0098 3348     		ldr	r0, .L74+56
 1454 009a FFF7FEFF 		bl	initOptFlow
 1455              	.LVL133:
 250:Core/drogui/task/src/sensorsTasks.c **** 	initTeraRanger(&myTera, SER_TER);
 1456              		.loc 1 250 2 view .LVU276
 1457 009e 3349     		ldr	r1, .L74+60
 1458 00a0 3348     		ldr	r0, .L74+64
 1459 00a2 FFF7FEFF 		bl	initTeraRanger
 1460              	.LVL134:
 251:Core/drogui/task/src/sensorsTasks.c **** 
 252:Core/drogui/task/src/sensorsTasks.c **** 
 253:Core/drogui/task/src/sensorsTasks.c **** 	calib_status = 0;
 1461              		.loc 1 253 2 view .LVU277
 1462              		.loc 1 253 15 is_stmt 0 view .LVU278
 1463 00a6 334B     		ldr	r3, .L74+68
 1464 00a8 0022     		movs	r2, #0
 1465 00aa 1A60     		str	r2, [r3]
 254:Core/drogui/task/src/sensorsTasks.c **** 
 255:Core/drogui/task/src/sensorsTasks.c **** 	//initBmp388(&myBMP, 10);
 256:Core/drogui/task/src/sensorsTasks.c **** 	//initMvAvgFilter(&mvAvg_bmp, 25);
 257:Core/drogui/task/src/sensorsTasks.c **** 
 258:Core/drogui/task/src/sensorsTasks.c **** 	initEmaFilter(&ema_bmp, 0.9, 0.1, 0.8);
 1466              		.loc 1 258 2 is_stmt 1 view .LVU279
 1467 00ac 9FED321A 		vldr.32	s2, .L74+72
 1468 00b0 F0EE480A 		vmov.f32	s1, s16
 1469 00b4 9FED310A 		vldr.32	s0, .L74+76
 1470 00b8 3148     		ldr	r0, .L74+80
 1471 00ba FFF7FEFF 		bl	initEmaFilter
 1472              	.LVL135:
 259:Core/drogui/task/src/sensorsTasks.c **** 	initFilter(&filter_z, 4, k_1_20, v_1_20);
 1473              		.loc 1 259 2 view .LVU280
 1474 00be 314B     		ldr	r3, .L74+84
 1475 00c0 314A     		ldr	r2, .L74+88
 1476 00c2 0421     		movs	r1, #4
 1477 00c4 3148     		ldr	r0, .L74+92
 1478 00c6 FFF7FEFF 		bl	initFilter
 1479              	.LVL136:
 260:Core/drogui/task/src/sensorsTasks.c **** 
 261:Core/drogui/task/src/sensorsTasks.c **** 	addTask(&gyroTask, 1000, 3);
 1480              		.loc 1 261 2 view .LVU281
 1481 00ca 0322     		movs	r2, #3
 1482 00cc 4FF47A71 		mov	r1, #1000
 1483 00d0 2F48     		ldr	r0, .L74+96
ARM GAS  C:\Users\GUILLE~1\AppData\Local\Temp\ccyLFEoy.s 			page 33


 1484 00d2 FFF7FEFF 		bl	addTask
 1485              	.LVL137:
 262:Core/drogui/task/src/sensorsTasks.c **** 	addTask(&accelTask, 1000, 3);
 1486              		.loc 1 262 2 view .LVU282
 1487 00d6 0322     		movs	r2, #3
 1488 00d8 4FF47A71 		mov	r1, #1000
 1489 00dc 2D48     		ldr	r0, .L74+100
 1490 00de FFF7FEFF 		bl	addTask
 1491              	.LVL138:
 263:Core/drogui/task/src/sensorsTasks.c **** 	addTask(&magTask, 20000, 2);
 1492              		.loc 1 263 2 view .LVU283
 1493 00e2 0222     		movs	r2, #2
 1494 00e4 44F62061 		movw	r1, #20000
 1495 00e8 2B48     		ldr	r0, .L74+104
 1496 00ea FFF7FEFF 		bl	addTask
 1497              	.LVL139:
 264:Core/drogui/task/src/sensorsTasks.c **** 	addTask(&rpyTask, 2000, 2);
 1498              		.loc 1 264 2 view .LVU284
 1499 00ee 0222     		movs	r2, #2
 1500 00f0 4FF4FA61 		mov	r1, #2000
 1501 00f4 2948     		ldr	r0, .L74+108
 1502 00f6 FFF7FEFF 		bl	addTask
 1503              	.LVL140:
 265:Core/drogui/task/src/sensorsTasks.c **** 	//addTask(&altitudeTask,10000,2);
 266:Core/drogui/task/src/sensorsTasks.c **** 	addTask(&xyzTask, 10000, 3);
 1504              		.loc 1 266 2 view .LVU285
 1505 00fa 0322     		movs	r2, #3
 1506 00fc 42F21071 		movw	r1, #10000
 1507 0100 2748     		ldr	r0, .L74+112
 1508 0102 FFF7FEFF 		bl	addTask
 1509              	.LVL141:
 267:Core/drogui/task/src/sensorsTasks.c **** 	addTask(&gpsTask, 125000, 3);
 1510              		.loc 1 267 2 view .LVU286
 1511 0106 0322     		movs	r2, #3
 1512 0108 2649     		ldr	r1, .L74+116
 1513 010a 2748     		ldr	r0, .L74+120
 1514 010c FFF7FEFF 		bl	addTask
 1515              	.LVL142:
 268:Core/drogui/task/src/sensorsTasks.c **** 	addTask(&optTask, 10000, 1);
 1516              		.loc 1 268 2 view .LVU287
 1517 0110 0122     		movs	r2, #1
 1518 0112 42F21071 		movw	r1, #10000
 1519 0116 2548     		ldr	r0, .L74+124
 1520 0118 FFF7FEFF 		bl	addTask
 1521              	.LVL143:
 269:Core/drogui/task/src/sensorsTasks.c **** 	addTask(&teraTask, 10000, 1);
 1522              		.loc 1 269 2 view .LVU288
 1523 011c 0122     		movs	r2, #1
 1524 011e 42F21071 		movw	r1, #10000
 1525 0122 2348     		ldr	r0, .L74+128
 1526 0124 FFF7FEFF 		bl	addTask
 1527              	.LVL144:
 270:Core/drogui/task/src/sensorsTasks.c **** }
 1528              		.loc 1 270 1 is_stmt 0 view .LVU289
 1529 0128 BDEC028B 		vldm	sp!, {d8}
 1530              	.LCFI23:
 1531              		.cfi_restore 80
ARM GAS  C:\Users\GUILLE~1\AppData\Local\Temp\ccyLFEoy.s 			page 34


 1532              		.cfi_restore 81
 1533              		.cfi_def_cfa_offset 16
 1534 012c 38BD     		pop	{r3, r4, r5, pc}
 1535              	.L75:
 1536 012e 00BF     		.align	2
 1537              	.L74:
 1538 0130 00000000 		.word	.LANCHOR0
 1539 0134 CDCCCC3D 		.word	1036831949
 1540 0138 0000FA43 		.word	1140457472
 1541 013c 00000000 		.word	.LANCHOR20
 1542 0140 00000000 		.word	v_1_10
 1543 0144 00000000 		.word	k_1_10
 1544 0148 00000000 		.word	.LANCHOR24
 1545 014c 00000000 		.word	.LANCHOR25
 1546 0150 00000000 		.word	.LANCHOR26
 1547 0154 00000000 		.word	.LANCHOR31
 1548 0158 0AD7233C 		.word	1008981770
 1549 015c 00000000 		.word	serial5
 1550 0160 00000000 		.word	.LANCHOR11
 1551 0164 00000000 		.word	serial4
 1552 0168 00000000 		.word	.LANCHOR16
 1553 016c 00000000 		.word	serial2
 1554 0170 00000000 		.word	.LANCHOR18
 1555 0174 00000000 		.word	calib_status
 1556 0178 CDCC4C3F 		.word	1061997773
 1557 017c 6666663F 		.word	1063675494
 1558 0180 00000000 		.word	.LANCHOR39
 1559 0184 00000000 		.word	v_1_20
 1560 0188 00000000 		.word	k_1_20
 1561 018c 00000000 		.word	.LANCHOR40
 1562 0190 00000000 		.word	gyroTask
 1563 0194 00000000 		.word	accelTask
 1564 0198 00000000 		.word	magTask
 1565 019c 00000000 		.word	rpyTask
 1566 01a0 00000000 		.word	xyzTask
 1567 01a4 48E80100 		.word	125000
 1568 01a8 00000000 		.word	gpsTask
 1569 01ac 00000000 		.word	optTask
 1570 01b0 00000000 		.word	teraTask
 1571              		.cfi_endproc
 1572              	.LFE288:
 1574              		.global	cfilt_z
 1575              		.global	filter_z
 1576              		.global	mvAvg_bmp
 1577              		.global	ema_bmp
 1578              		.global	myBMP
 1579              		.global	Kdfilt
 1580              		.global	z_ant
 1581              		.global	mag_available
 1582              		.global	vy
 1583              		.global	vx
 1584              		.global	z_tera
 1585              		.global	z_of
 1586              		.global	yp
 1587              		.global	xp
 1588              		.global	vy_gps
 1589              		.global	vx_gps
ARM GAS  C:\Users\GUILLE~1\AppData\Local\Temp\ccyLFEoy.s 			page 35


 1590              		.global	y_gps
 1591              		.global	x_gps
 1592              		.global	z
 1593              		.global	y
 1594              		.global	x
 1595              		.global	mz
 1596              		.global	my
 1597              		.global	mx
 1598              		.global	gz
 1599              		.global	gy
 1600              		.global	gx
 1601              		.global	az
 1602              		.global	ay
 1603              		.global	ax
 1604              		.global	raw_yaw
 1605              		.global	raw_pitch
 1606              		.global	raw_roll
 1607              		.global	yaw
 1608              		.global	pitch
 1609              		.global	roll
 1610              		.global	filter_yaw
 1611              		.global	filter_pitch
 1612              		.global	filter_roll
 1613              		.global	myTera
 1614              		.global	myOF
 1615              		.global	myKalman
 1616              		.global	myGPS
 1617              		.global	myRPY
 1618              		.global	myIMU
 1619              		.section	.bss.ax,"aw",%nobits
 1620              		.align	2
 1621              		.set	.LANCHOR1,. + 0
 1624              	ax:
 1625 0000 00000000 		.space	4
 1626              		.section	.bss.ay,"aw",%nobits
 1627              		.align	2
 1628              		.set	.LANCHOR2,. + 0
 1631              	ay:
 1632 0000 00000000 		.space	4
 1633              		.section	.bss.az,"aw",%nobits
 1634              		.align	2
 1635              		.set	.LANCHOR3,. + 0
 1638              	az:
 1639 0000 00000000 		.space	4
 1640              		.section	.bss.cfilt_z,"aw",%nobits
 1641              		.align	2
 1644              	cfilt_z:
 1645 0000 00000000 		.space	4
 1646              		.section	.bss.ema_bmp,"aw",%nobits
 1647              		.align	2
 1648              		.set	.LANCHOR39,. + 0
 1651              	ema_bmp:
 1652 0000 00000000 		.space	16
 1652      00000000 
 1652      00000000 
 1652      00000000 
 1653              		.section	.bss.filter_pitch,"aw",%nobits
ARM GAS  C:\Users\GUILLE~1\AppData\Local\Temp\ccyLFEoy.s 			page 36


 1654              		.align	2
 1655              		.set	.LANCHOR25,. + 0
 1658              	filter_pitch:
 1659 0000 00000000 		.space	24
 1659      00000000 
 1659      00000000 
 1659      00000000 
 1659      00000000 
 1660              		.section	.bss.filter_roll,"aw",%nobits
 1661              		.align	2
 1662              		.set	.LANCHOR24,. + 0
 1665              	filter_roll:
 1666 0000 00000000 		.space	24
 1666      00000000 
 1666      00000000 
 1666      00000000 
 1666      00000000 
 1667              		.section	.bss.filter_yaw,"aw",%nobits
 1668              		.align	2
 1669              		.set	.LANCHOR26,. + 0
 1672              	filter_yaw:
 1673 0000 00000000 		.space	24
 1673      00000000 
 1673      00000000 
 1673      00000000 
 1673      00000000 
 1674              		.section	.bss.filter_z,"aw",%nobits
 1675              		.align	2
 1676              		.set	.LANCHOR40,. + 0
 1679              	filter_z:
 1680 0000 00000000 		.space	24
 1680      00000000 
 1680      00000000 
 1680      00000000 
 1680      00000000 
 1681              		.section	.bss.gx,"aw",%nobits
 1682              		.align	2
 1683              		.set	.LANCHOR4,. + 0
 1686              	gx:
 1687 0000 00000000 		.space	4
 1688              		.section	.bss.gy,"aw",%nobits
 1689              		.align	2
 1690              		.set	.LANCHOR5,. + 0
 1693              	gy:
 1694 0000 00000000 		.space	4
 1695              		.section	.bss.gz,"aw",%nobits
 1696              		.align	2
 1697              		.set	.LANCHOR6,. + 0
 1700              	gz:
 1701 0000 00000000 		.space	4
 1702              		.section	.bss.mag_available,"aw",%nobits
 1703              		.set	.LANCHOR10,. + 0
 1706              	mag_available:
 1707 0000 00       		.space	1
 1708              		.section	.bss.mvAvg_bmp,"aw",%nobits
 1709              		.align	2
 1712              	mvAvg_bmp:
ARM GAS  C:\Users\GUILLE~1\AppData\Local\Temp\ccyLFEoy.s 			page 37


 1713 0000 00000000 		.space	16
 1713      00000000 
 1713      00000000 
 1713      00000000 
 1714              		.section	.bss.mx,"aw",%nobits
 1715              		.align	2
 1716              		.set	.LANCHOR7,. + 0
 1719              	mx:
 1720 0000 00000000 		.space	4
 1721              		.section	.bss.my,"aw",%nobits
 1722              		.align	2
 1723              		.set	.LANCHOR8,. + 0
 1726              	my:
 1727 0000 00000000 		.space	4
 1728              		.section	.bss.myBMP,"aw",%nobits
 1729              		.align	3
 1730              		.set	.LANCHOR38,. + 0
 1733              	myBMP:
 1734 0000 00000000 		.space	64
 1734      00000000 
 1734      00000000 
 1734      00000000 
 1734      00000000 
 1735              		.section	.bss.myGPS,"aw",%nobits
 1736              		.align	2
 1737              		.set	.LANCHOR11,. + 0
 1740              	myGPS:
 1741 0000 00000000 		.space	1060
 1741      00000000 
 1741      00000000 
 1741      00000000 
 1741      00000000 
 1742              		.section	.bss.myIMU,"aw",%nobits
 1743              		.align	2
 1744              		.set	.LANCHOR0,. + 0
 1747              	myIMU:
 1748 0000 00000000 		.space	1388
 1748      00000000 
 1748      00000000 
 1748      00000000 
 1748      00000000 
 1749              		.section	.bss.myKalman,"aw",%nobits
 1750              		.align	2
 1751              		.set	.LANCHOR31,. + 0
 1754              	myKalman:
 1755 0000 00000000 		.space	388
 1755      00000000 
 1755      00000000 
 1755      00000000 
 1755      00000000 
 1756              		.section	.bss.myOF,"aw",%nobits
 1757              		.align	2
 1758              		.set	.LANCHOR16,. + 0
 1761              	myOF:
 1762 0000 00000000 		.space	244
 1762      00000000 
 1762      00000000 
ARM GAS  C:\Users\GUILLE~1\AppData\Local\Temp\ccyLFEoy.s 			page 38


 1762      00000000 
 1762      00000000 
 1763              		.section	.bss.myRPY,"aw",%nobits
 1764              		.align	2
 1765              		.set	.LANCHOR20,. + 0
 1768              	myRPY:
 1769 0000 00000000 		.space	40
 1769      00000000 
 1769      00000000 
 1769      00000000 
 1769      00000000 
 1770              		.section	.bss.myTera,"aw",%nobits
 1771              		.align	2
 1772              		.set	.LANCHOR18,. + 0
 1775              	myTera:
 1776 0000 00000000 		.space	24
 1776      00000000 
 1776      00000000 
 1776      00000000 
 1776      00000000 
 1777              		.section	.bss.mz,"aw",%nobits
 1778              		.align	2
 1779              		.set	.LANCHOR9,. + 0
 1782              	mz:
 1783 0000 00000000 		.space	4
 1784              		.section	.bss.pitch,"aw",%nobits
 1785              		.align	2
 1786              		.set	.LANCHOR28,. + 0
 1789              	pitch:
 1790 0000 00000000 		.space	4
 1791              		.section	.bss.raw_pitch,"aw",%nobits
 1792              		.align	2
 1793              		.set	.LANCHOR22,. + 0
 1796              	raw_pitch:
 1797 0000 00000000 		.space	4
 1798              		.section	.bss.raw_roll,"aw",%nobits
 1799              		.align	2
 1800              		.set	.LANCHOR21,. + 0
 1803              	raw_roll:
 1804 0000 00000000 		.space	4
 1805              		.section	.bss.raw_yaw,"aw",%nobits
 1806              		.align	2
 1807              		.set	.LANCHOR23,. + 0
 1810              	raw_yaw:
 1811 0000 00000000 		.space	4
 1812              		.section	.bss.roll,"aw",%nobits
 1813              		.align	2
 1814              		.set	.LANCHOR27,. + 0
 1817              	roll:
 1818 0000 00000000 		.space	4
 1819              		.section	.bss.vx,"aw",%nobits
 1820              		.align	2
 1821              		.set	.LANCHOR35,. + 0
 1824              	vx:
 1825 0000 00000000 		.space	4
 1826              		.section	.bss.vx_gps,"aw",%nobits
 1827              		.align	2
ARM GAS  C:\Users\GUILLE~1\AppData\Local\Temp\ccyLFEoy.s 			page 39


 1828              		.set	.LANCHOR12,. + 0
 1831              	vx_gps:
 1832 0000 00000000 		.space	4
 1833              		.section	.bss.vy,"aw",%nobits
 1834              		.align	2
 1835              		.set	.LANCHOR34,. + 0
 1838              	vy:
 1839 0000 00000000 		.space	4
 1840              		.section	.bss.vy_gps,"aw",%nobits
 1841              		.align	2
 1842              		.set	.LANCHOR13,. + 0
 1845              	vy_gps:
 1846 0000 00000000 		.space	4
 1847              		.section	.bss.x,"aw",%nobits
 1848              		.align	2
 1849              		.set	.LANCHOR33,. + 0
 1852              	x:
 1853 0000 00000000 		.space	4
 1854              		.section	.bss.x_gps,"aw",%nobits
 1855              		.align	2
 1856              		.set	.LANCHOR14,. + 0
 1859              	x_gps:
 1860 0000 00000000 		.space	4
 1861              		.section	.bss.xp,"aw",%nobits
 1862              		.align	2
 1863              		.set	.LANCHOR36,. + 0
 1866              	xp:
 1867 0000 00000000 		.space	4
 1868              		.section	.bss.y,"aw",%nobits
 1869              		.align	2
 1870              		.set	.LANCHOR32,. + 0
 1873              	y:
 1874 0000 00000000 		.space	4
 1875              		.section	.bss.y_gps,"aw",%nobits
 1876              		.align	2
 1877              		.set	.LANCHOR15,. + 0
 1880              	y_gps:
 1881 0000 00000000 		.space	4
 1882              		.section	.bss.yaw,"aw",%nobits
 1883              		.align	2
 1884              		.set	.LANCHOR29,. + 0
 1887              	yaw:
 1888 0000 00000000 		.space	4
 1889              		.section	.bss.yp,"aw",%nobits
 1890              		.align	2
 1891              		.set	.LANCHOR37,. + 0
 1894              	yp:
 1895 0000 00000000 		.space	4
 1896              		.section	.bss.z,"aw",%nobits
 1897              		.align	2
 1898              		.set	.LANCHOR30,. + 0
 1901              	z:
 1902 0000 00000000 		.space	4
 1903              		.section	.bss.z_ant,"aw",%nobits
 1904              		.align	2
 1907              	z_ant:
 1908 0000 00000000 		.space	4
ARM GAS  C:\Users\GUILLE~1\AppData\Local\Temp\ccyLFEoy.s 			page 40


 1909              		.section	.bss.z_of,"aw",%nobits
 1910              		.align	2
 1911              		.set	.LANCHOR17,. + 0
 1914              	z_of:
 1915 0000 00000000 		.space	4
 1916              		.section	.bss.z_tera,"aw",%nobits
 1917              		.align	2
 1918              		.set	.LANCHOR19,. + 0
 1921              	z_tera:
 1922 0000 00000000 		.space	4
 1923              		.section	.data.Kdfilt,"aw"
 1924              		.align	2
 1927              	Kdfilt:
 1928 0000 0AD7233C 		.word	1008981770
 1929              		.text
 1930              	.Letext0:
 1931              		.file 2 "c:\\program files (x86)\\gnu arm embedded toolchain\\10 2020-q4-major\\arm-none-eabi\\inc
 1932              		.file 3 "c:\\program files (x86)\\gnu arm embedded toolchain\\10 2020-q4-major\\arm-none-eabi\\inc
 1933              		.file 4 "Drivers/CMSIS/DSP/Include/arm_math.h"
 1934              		.file 5 "Core/drogui/math/various/include/filter.h"
 1935              		.file 6 "Core/drogui/sensor/imu/include/ICM20948.h"
 1936              		.file 7 "Core/drogui/utils/include/utils.h"
 1937              		.file 8 "Core/drogui/sensor/press/include/BMP388.h"
 1938              		.file 9 "Core/drogui/task/include/sensorsTasks.h"
 1939              		.file 10 "Core/drogui/math/various/include/mahony.h"
 1940              		.file 11 "Core/drogui/math/various/include/matlib.h"
 1941              		.file 12 "Core/drogui/math/kalman/include/kalmanPV.h"
 1942              		.file 13 "Core/drogui/interfaces/include/serial.h"
 1943              		.file 14 "Core/drogui/sensor/gps/include/SAM_M8Q.h"
 1944              		.file 15 "Core/drogui/sensor/optical/include/opticalFlow.h"
 1945              		.file 16 "Core/drogui/sensor/range/include/teraranger.h"
 1946              		.file 17 "Core/drogui/utils/include/task.h"
 1947              		.file 18 "c:\\program files (x86)\\gnu arm embedded toolchain\\10 2020-q4-major\\arm-none-eabi\\in
ARM GAS  C:\Users\GUILLE~1\AppData\Local\Temp\ccyLFEoy.s 			page 41

