ARM GAS  C:\Users\GUILLE~1\AppData\Local\Temp\ccXICf5i.s 			page 1


   1              		.cpu cortex-m7
   2              		.eabi_attribute 27, 1
   3              		.eabi_attribute 28, 1
   4              		.eabi_attribute 20, 1
   5              		.eabi_attribute 21, 1
   6              		.eabi_attribute 23, 3
   7              		.eabi_attribute 24, 1
   8              		.eabi_attribute 25, 1
   9              		.eabi_attribute 26, 1
  10              		.eabi_attribute 30, 1
  11              		.eabi_attribute 34, 1
  12              		.eabi_attribute 18, 4
  13              		.file	"stm32f7xx_hal_adc_ex.c"
  14              		.text
  15              	.Ltext0:
  16              		.cfi_sections	.debug_frame
  17              		.section	.text.ADC_MultiModeDMAError,"ax",%progbits
  18              		.align	1
  19              		.arch armv7e-m
  20              		.syntax unified
  21              		.thumb
  22              		.thumb_func
  23              		.fpu fpv5-sp-d16
  25              	ADC_MultiModeDMAError:
  26              	.LVL0:
  27              	.LFB260:
  28              		.file 1 "Drivers/STM32F7xx_HAL_Driver/Src/stm32f7xx_hal_adc_ex.c"
   1:Drivers/STM32F7xx_HAL_Driver/Src/stm32f7xx_hal_adc_ex.c **** /**
   2:Drivers/STM32F7xx_HAL_Driver/Src/stm32f7xx_hal_adc_ex.c ****   ******************************************************************************
   3:Drivers/STM32F7xx_HAL_Driver/Src/stm32f7xx_hal_adc_ex.c ****   * @file    stm32f7xx_hal_adc_ex.c
   4:Drivers/STM32F7xx_HAL_Driver/Src/stm32f7xx_hal_adc_ex.c ****   * @author  MCD Application Team
   5:Drivers/STM32F7xx_HAL_Driver/Src/stm32f7xx_hal_adc_ex.c ****   * @brief   This file provides firmware functions to manage the following 
   6:Drivers/STM32F7xx_HAL_Driver/Src/stm32f7xx_hal_adc_ex.c ****   *          functionalities of the ADC extension peripheral:
   7:Drivers/STM32F7xx_HAL_Driver/Src/stm32f7xx_hal_adc_ex.c ****   *           + Extended features functions
   8:Drivers/STM32F7xx_HAL_Driver/Src/stm32f7xx_hal_adc_ex.c ****   *
   9:Drivers/STM32F7xx_HAL_Driver/Src/stm32f7xx_hal_adc_ex.c ****   @verbatim
  10:Drivers/STM32F7xx_HAL_Driver/Src/stm32f7xx_hal_adc_ex.c ****   ==============================================================================
  11:Drivers/STM32F7xx_HAL_Driver/Src/stm32f7xx_hal_adc_ex.c ****                     ##### How to use this driver #####
  12:Drivers/STM32F7xx_HAL_Driver/Src/stm32f7xx_hal_adc_ex.c ****   ==============================================================================
  13:Drivers/STM32F7xx_HAL_Driver/Src/stm32f7xx_hal_adc_ex.c ****     [..]
  14:Drivers/STM32F7xx_HAL_Driver/Src/stm32f7xx_hal_adc_ex.c ****     (#)Initialize the ADC low level resources by implementing the HAL_ADC_MspInit():
  15:Drivers/STM32F7xx_HAL_Driver/Src/stm32f7xx_hal_adc_ex.c ****        (##) Enable the ADC interface clock using __HAL_RCC_ADC_CLK_ENABLE()
  16:Drivers/STM32F7xx_HAL_Driver/Src/stm32f7xx_hal_adc_ex.c ****        (##) ADC pins configuration
  17:Drivers/STM32F7xx_HAL_Driver/Src/stm32f7xx_hal_adc_ex.c ****              (+++) Enable the clock for the ADC GPIOs using the following function:
  18:Drivers/STM32F7xx_HAL_Driver/Src/stm32f7xx_hal_adc_ex.c ****                    __HAL_RCC_GPIOx_CLK_ENABLE()
  19:Drivers/STM32F7xx_HAL_Driver/Src/stm32f7xx_hal_adc_ex.c ****              (+++) Configure these ADC pins in analog mode using HAL_GPIO_Init()
  20:Drivers/STM32F7xx_HAL_Driver/Src/stm32f7xx_hal_adc_ex.c ****        (##) In case of using interrupts (e.g. HAL_ADC_Start_IT())
  21:Drivers/STM32F7xx_HAL_Driver/Src/stm32f7xx_hal_adc_ex.c ****              (+++) Configure the ADC interrupt priority using HAL_NVIC_SetPriority()
  22:Drivers/STM32F7xx_HAL_Driver/Src/stm32f7xx_hal_adc_ex.c ****              (+++) Enable the ADC IRQ handler using HAL_NVIC_EnableIRQ()
  23:Drivers/STM32F7xx_HAL_Driver/Src/stm32f7xx_hal_adc_ex.c ****              (+++) In ADC IRQ handler, call HAL_ADC_IRQHandler()
  24:Drivers/STM32F7xx_HAL_Driver/Src/stm32f7xx_hal_adc_ex.c ****       (##) In case of using DMA to control data transfer (e.g. HAL_ADC_Start_DMA())
  25:Drivers/STM32F7xx_HAL_Driver/Src/stm32f7xx_hal_adc_ex.c ****              (+++) Enable the DMAx interface clock using __HAL_RCC_DMAx_CLK_ENABLE()
  26:Drivers/STM32F7xx_HAL_Driver/Src/stm32f7xx_hal_adc_ex.c ****              (+++) Configure and enable two DMA streams stream for managing data
  27:Drivers/STM32F7xx_HAL_Driver/Src/stm32f7xx_hal_adc_ex.c ****                  transfer from peripheral to memory (output stream)
  28:Drivers/STM32F7xx_HAL_Driver/Src/stm32f7xx_hal_adc_ex.c ****              (+++) Associate the initialized DMA handle to the ADC DMA handle
  29:Drivers/STM32F7xx_HAL_Driver/Src/stm32f7xx_hal_adc_ex.c ****                  using  __HAL_LINKDMA()
  30:Drivers/STM32F7xx_HAL_Driver/Src/stm32f7xx_hal_adc_ex.c ****              (+++) Configure the priority and enable the NVIC for the transfer complete
ARM GAS  C:\Users\GUILLE~1\AppData\Local\Temp\ccXICf5i.s 			page 2


  31:Drivers/STM32F7xx_HAL_Driver/Src/stm32f7xx_hal_adc_ex.c ****                  interrupt on the two DMA Streams. The output stream should have higher
  32:Drivers/STM32F7xx_HAL_Driver/Src/stm32f7xx_hal_adc_ex.c ****                  priority than the input stream.
  33:Drivers/STM32F7xx_HAL_Driver/Src/stm32f7xx_hal_adc_ex.c ****      (#) Configure the ADC Prescaler, conversion resolution and data alignment
  34:Drivers/STM32F7xx_HAL_Driver/Src/stm32f7xx_hal_adc_ex.c ****          using the HAL_ADC_Init() function.
  35:Drivers/STM32F7xx_HAL_Driver/Src/stm32f7xx_hal_adc_ex.c **** 
  36:Drivers/STM32F7xx_HAL_Driver/Src/stm32f7xx_hal_adc_ex.c ****      (#) Configure the ADC Injected channels group features, use HAL_ADC_Init()
  37:Drivers/STM32F7xx_HAL_Driver/Src/stm32f7xx_hal_adc_ex.c ****          and HAL_ADC_ConfigChannel() functions.
  38:Drivers/STM32F7xx_HAL_Driver/Src/stm32f7xx_hal_adc_ex.c **** 
  39:Drivers/STM32F7xx_HAL_Driver/Src/stm32f7xx_hal_adc_ex.c ****      (#) Three operation modes are available within this driver :
  40:Drivers/STM32F7xx_HAL_Driver/Src/stm32f7xx_hal_adc_ex.c **** 
  41:Drivers/STM32F7xx_HAL_Driver/Src/stm32f7xx_hal_adc_ex.c ****      *** Polling mode IO operation ***
  42:Drivers/STM32F7xx_HAL_Driver/Src/stm32f7xx_hal_adc_ex.c ****      =================================
  43:Drivers/STM32F7xx_HAL_Driver/Src/stm32f7xx_hal_adc_ex.c ****      [..]
  44:Drivers/STM32F7xx_HAL_Driver/Src/stm32f7xx_hal_adc_ex.c ****        (+) Start the ADC peripheral using HAL_ADCEx_InjectedStart()
  45:Drivers/STM32F7xx_HAL_Driver/Src/stm32f7xx_hal_adc_ex.c ****        (+) Wait for end of conversion using HAL_ADCEx_InjectedPollForConversion(), at this stage
  46:Drivers/STM32F7xx_HAL_Driver/Src/stm32f7xx_hal_adc_ex.c ****            user can specify the value of timeout according to his end application
  47:Drivers/STM32F7xx_HAL_Driver/Src/stm32f7xx_hal_adc_ex.c ****        (+) To read the ADC converted values, use the HAL_ADCEx_InjectedGetValue() function.
  48:Drivers/STM32F7xx_HAL_Driver/Src/stm32f7xx_hal_adc_ex.c ****        (+) Stop the ADC peripheral using HAL_ADCEx_InjectedStop()
  49:Drivers/STM32F7xx_HAL_Driver/Src/stm32f7xx_hal_adc_ex.c **** 
  50:Drivers/STM32F7xx_HAL_Driver/Src/stm32f7xx_hal_adc_ex.c ****      *** Interrupt mode IO operation ***
  51:Drivers/STM32F7xx_HAL_Driver/Src/stm32f7xx_hal_adc_ex.c ****      ===================================
  52:Drivers/STM32F7xx_HAL_Driver/Src/stm32f7xx_hal_adc_ex.c ****      [..]
  53:Drivers/STM32F7xx_HAL_Driver/Src/stm32f7xx_hal_adc_ex.c ****        (+) Start the ADC peripheral using HAL_ADCEx_InjectedStart_IT()
  54:Drivers/STM32F7xx_HAL_Driver/Src/stm32f7xx_hal_adc_ex.c ****        (+) Use HAL_ADC_IRQHandler() called under ADC_IRQHandler() Interrupt subroutine
  55:Drivers/STM32F7xx_HAL_Driver/Src/stm32f7xx_hal_adc_ex.c ****        (+) At ADC end of conversion HAL_ADCEx_InjectedConvCpltCallback() function is executed and u
  56:Drivers/STM32F7xx_HAL_Driver/Src/stm32f7xx_hal_adc_ex.c ****             add his own code by customization of function pointer HAL_ADCEx_InjectedConvCpltCallbac
  57:Drivers/STM32F7xx_HAL_Driver/Src/stm32f7xx_hal_adc_ex.c ****        (+) In case of ADC Error, HAL_ADCEx_InjectedErrorCallback() function is executed and user ca
  58:Drivers/STM32F7xx_HAL_Driver/Src/stm32f7xx_hal_adc_ex.c ****             add his own code by customization of function pointer HAL_ADCEx_InjectedErrorCallback
  59:Drivers/STM32F7xx_HAL_Driver/Src/stm32f7xx_hal_adc_ex.c ****        (+) Stop the ADC peripheral using HAL_ADCEx_InjectedStop_IT()
  60:Drivers/STM32F7xx_HAL_Driver/Src/stm32f7xx_hal_adc_ex.c **** 
  61:Drivers/STM32F7xx_HAL_Driver/Src/stm32f7xx_hal_adc_ex.c ****      *** Multi mode ADCs Regular channels configuration ***
  62:Drivers/STM32F7xx_HAL_Driver/Src/stm32f7xx_hal_adc_ex.c ****      ======================================================
  63:Drivers/STM32F7xx_HAL_Driver/Src/stm32f7xx_hal_adc_ex.c ****      [..]
  64:Drivers/STM32F7xx_HAL_Driver/Src/stm32f7xx_hal_adc_ex.c ****        (+) Select the Multi mode ADC regular channels features (dual or triple mode)
  65:Drivers/STM32F7xx_HAL_Driver/Src/stm32f7xx_hal_adc_ex.c ****           and configure the DMA mode using HAL_ADCEx_MultiModeConfigChannel() functions.
  66:Drivers/STM32F7xx_HAL_Driver/Src/stm32f7xx_hal_adc_ex.c ****        (+) Start the ADC peripheral using HAL_ADCEx_MultiModeStart_DMA(), at this stage the user sp
  67:Drivers/STM32F7xx_HAL_Driver/Src/stm32f7xx_hal_adc_ex.c ****            of data to be transferred at each end of conversion
  68:Drivers/STM32F7xx_HAL_Driver/Src/stm32f7xx_hal_adc_ex.c ****        (+) Read the ADCs converted values using the HAL_ADCEx_MultiModeGetValue() function.
  69:Drivers/STM32F7xx_HAL_Driver/Src/stm32f7xx_hal_adc_ex.c **** 
  70:Drivers/STM32F7xx_HAL_Driver/Src/stm32f7xx_hal_adc_ex.c **** 
  71:Drivers/STM32F7xx_HAL_Driver/Src/stm32f7xx_hal_adc_ex.c ****     @endverbatim
  72:Drivers/STM32F7xx_HAL_Driver/Src/stm32f7xx_hal_adc_ex.c ****   ******************************************************************************
  73:Drivers/STM32F7xx_HAL_Driver/Src/stm32f7xx_hal_adc_ex.c ****   * @attention
  74:Drivers/STM32F7xx_HAL_Driver/Src/stm32f7xx_hal_adc_ex.c ****   *
  75:Drivers/STM32F7xx_HAL_Driver/Src/stm32f7xx_hal_adc_ex.c ****   * <h2><center>&copy; Copyright (c) 2017 STMicroelectronics.
  76:Drivers/STM32F7xx_HAL_Driver/Src/stm32f7xx_hal_adc_ex.c ****   * All rights reserved.</center></h2>
  77:Drivers/STM32F7xx_HAL_Driver/Src/stm32f7xx_hal_adc_ex.c ****   *
  78:Drivers/STM32F7xx_HAL_Driver/Src/stm32f7xx_hal_adc_ex.c ****   * This software component is licensed by ST under BSD 3-Clause license,
  79:Drivers/STM32F7xx_HAL_Driver/Src/stm32f7xx_hal_adc_ex.c ****   * the "License"; You may not use this file except in compliance with the
  80:Drivers/STM32F7xx_HAL_Driver/Src/stm32f7xx_hal_adc_ex.c ****   * License. You may obtain a copy of the License at:
  81:Drivers/STM32F7xx_HAL_Driver/Src/stm32f7xx_hal_adc_ex.c ****   *                        opensource.org/licenses/BSD-3-Clause
  82:Drivers/STM32F7xx_HAL_Driver/Src/stm32f7xx_hal_adc_ex.c ****   *
  83:Drivers/STM32F7xx_HAL_Driver/Src/stm32f7xx_hal_adc_ex.c ****   ******************************************************************************
  84:Drivers/STM32F7xx_HAL_Driver/Src/stm32f7xx_hal_adc_ex.c ****   */
  85:Drivers/STM32F7xx_HAL_Driver/Src/stm32f7xx_hal_adc_ex.c **** 
  86:Drivers/STM32F7xx_HAL_Driver/Src/stm32f7xx_hal_adc_ex.c **** /* Includes ------------------------------------------------------------------*/
  87:Drivers/STM32F7xx_HAL_Driver/Src/stm32f7xx_hal_adc_ex.c **** #include "stm32f7xx_hal.h"
ARM GAS  C:\Users\GUILLE~1\AppData\Local\Temp\ccXICf5i.s 			page 3


  88:Drivers/STM32F7xx_HAL_Driver/Src/stm32f7xx_hal_adc_ex.c **** 
  89:Drivers/STM32F7xx_HAL_Driver/Src/stm32f7xx_hal_adc_ex.c **** /** @addtogroup STM32F7xx_HAL_Driver
  90:Drivers/STM32F7xx_HAL_Driver/Src/stm32f7xx_hal_adc_ex.c ****   * @{
  91:Drivers/STM32F7xx_HAL_Driver/Src/stm32f7xx_hal_adc_ex.c ****   */
  92:Drivers/STM32F7xx_HAL_Driver/Src/stm32f7xx_hal_adc_ex.c **** 
  93:Drivers/STM32F7xx_HAL_Driver/Src/stm32f7xx_hal_adc_ex.c **** /** @defgroup ADCEx ADCEx
  94:Drivers/STM32F7xx_HAL_Driver/Src/stm32f7xx_hal_adc_ex.c ****   * @brief ADC Extended driver modules
  95:Drivers/STM32F7xx_HAL_Driver/Src/stm32f7xx_hal_adc_ex.c ****   * @{
  96:Drivers/STM32F7xx_HAL_Driver/Src/stm32f7xx_hal_adc_ex.c ****   */ 
  97:Drivers/STM32F7xx_HAL_Driver/Src/stm32f7xx_hal_adc_ex.c **** 
  98:Drivers/STM32F7xx_HAL_Driver/Src/stm32f7xx_hal_adc_ex.c **** #ifdef HAL_ADC_MODULE_ENABLED
  99:Drivers/STM32F7xx_HAL_Driver/Src/stm32f7xx_hal_adc_ex.c ****     
 100:Drivers/STM32F7xx_HAL_Driver/Src/stm32f7xx_hal_adc_ex.c **** /* Private typedef -----------------------------------------------------------*/
 101:Drivers/STM32F7xx_HAL_Driver/Src/stm32f7xx_hal_adc_ex.c **** /* Private define ------------------------------------------------------------*/ 
 102:Drivers/STM32F7xx_HAL_Driver/Src/stm32f7xx_hal_adc_ex.c **** /* Private macro -------------------------------------------------------------*/
 103:Drivers/STM32F7xx_HAL_Driver/Src/stm32f7xx_hal_adc_ex.c **** /* Private variables ---------------------------------------------------------*/
 104:Drivers/STM32F7xx_HAL_Driver/Src/stm32f7xx_hal_adc_ex.c **** /** @addtogroup ADCEx_Private_Functions
 105:Drivers/STM32F7xx_HAL_Driver/Src/stm32f7xx_hal_adc_ex.c ****   * @{
 106:Drivers/STM32F7xx_HAL_Driver/Src/stm32f7xx_hal_adc_ex.c ****   */
 107:Drivers/STM32F7xx_HAL_Driver/Src/stm32f7xx_hal_adc_ex.c **** /* Private function prototypes -----------------------------------------------*/
 108:Drivers/STM32F7xx_HAL_Driver/Src/stm32f7xx_hal_adc_ex.c **** static void ADC_MultiModeDMAConvCplt(DMA_HandleTypeDef *hdma);
 109:Drivers/STM32F7xx_HAL_Driver/Src/stm32f7xx_hal_adc_ex.c **** static void ADC_MultiModeDMAError(DMA_HandleTypeDef *hdma);
 110:Drivers/STM32F7xx_HAL_Driver/Src/stm32f7xx_hal_adc_ex.c **** static void ADC_MultiModeDMAHalfConvCplt(DMA_HandleTypeDef *hdma); 
 111:Drivers/STM32F7xx_HAL_Driver/Src/stm32f7xx_hal_adc_ex.c **** /**
 112:Drivers/STM32F7xx_HAL_Driver/Src/stm32f7xx_hal_adc_ex.c ****   * @}
 113:Drivers/STM32F7xx_HAL_Driver/Src/stm32f7xx_hal_adc_ex.c ****   */
 114:Drivers/STM32F7xx_HAL_Driver/Src/stm32f7xx_hal_adc_ex.c **** 
 115:Drivers/STM32F7xx_HAL_Driver/Src/stm32f7xx_hal_adc_ex.c **** /* Exported functions --------------------------------------------------------*/
 116:Drivers/STM32F7xx_HAL_Driver/Src/stm32f7xx_hal_adc_ex.c **** /** @defgroup ADCEx_Exported_Functions ADC Exported Functions
 117:Drivers/STM32F7xx_HAL_Driver/Src/stm32f7xx_hal_adc_ex.c ****   * @{
 118:Drivers/STM32F7xx_HAL_Driver/Src/stm32f7xx_hal_adc_ex.c ****   */
 119:Drivers/STM32F7xx_HAL_Driver/Src/stm32f7xx_hal_adc_ex.c **** 
 120:Drivers/STM32F7xx_HAL_Driver/Src/stm32f7xx_hal_adc_ex.c **** /** @defgroup ADCEx_Exported_Functions_Group1  Extended features functions 
 121:Drivers/STM32F7xx_HAL_Driver/Src/stm32f7xx_hal_adc_ex.c ****   *  @brief    Extended features functions  
 122:Drivers/STM32F7xx_HAL_Driver/Src/stm32f7xx_hal_adc_ex.c ****   *
 123:Drivers/STM32F7xx_HAL_Driver/Src/stm32f7xx_hal_adc_ex.c **** @verbatim   
 124:Drivers/STM32F7xx_HAL_Driver/Src/stm32f7xx_hal_adc_ex.c ****  ===============================================================================
 125:Drivers/STM32F7xx_HAL_Driver/Src/stm32f7xx_hal_adc_ex.c ****                  ##### Extended features functions #####
 126:Drivers/STM32F7xx_HAL_Driver/Src/stm32f7xx_hal_adc_ex.c ****  ===============================================================================  
 127:Drivers/STM32F7xx_HAL_Driver/Src/stm32f7xx_hal_adc_ex.c ****     [..]  This section provides functions allowing to:
 128:Drivers/STM32F7xx_HAL_Driver/Src/stm32f7xx_hal_adc_ex.c ****       (+) Start conversion of injected channel.
 129:Drivers/STM32F7xx_HAL_Driver/Src/stm32f7xx_hal_adc_ex.c ****       (+) Stop conversion of injected channel.
 130:Drivers/STM32F7xx_HAL_Driver/Src/stm32f7xx_hal_adc_ex.c ****       (+) Start multimode and enable DMA transfer.
 131:Drivers/STM32F7xx_HAL_Driver/Src/stm32f7xx_hal_adc_ex.c ****       (+) Stop multimode and disable DMA transfer.
 132:Drivers/STM32F7xx_HAL_Driver/Src/stm32f7xx_hal_adc_ex.c ****       (+) Get result of injected channel conversion.
 133:Drivers/STM32F7xx_HAL_Driver/Src/stm32f7xx_hal_adc_ex.c ****       (+) Get result of multimode conversion.
 134:Drivers/STM32F7xx_HAL_Driver/Src/stm32f7xx_hal_adc_ex.c ****       (+) Configure injected channels.
 135:Drivers/STM32F7xx_HAL_Driver/Src/stm32f7xx_hal_adc_ex.c ****       (+) Configure multimode.
 136:Drivers/STM32F7xx_HAL_Driver/Src/stm32f7xx_hal_adc_ex.c ****                
 137:Drivers/STM32F7xx_HAL_Driver/Src/stm32f7xx_hal_adc_ex.c **** @endverbatim
 138:Drivers/STM32F7xx_HAL_Driver/Src/stm32f7xx_hal_adc_ex.c ****   * @{
 139:Drivers/STM32F7xx_HAL_Driver/Src/stm32f7xx_hal_adc_ex.c ****   */
 140:Drivers/STM32F7xx_HAL_Driver/Src/stm32f7xx_hal_adc_ex.c **** 
 141:Drivers/STM32F7xx_HAL_Driver/Src/stm32f7xx_hal_adc_ex.c **** /**
 142:Drivers/STM32F7xx_HAL_Driver/Src/stm32f7xx_hal_adc_ex.c ****   * @brief  Enables the selected ADC software start conversion of the injected channels.
 143:Drivers/STM32F7xx_HAL_Driver/Src/stm32f7xx_hal_adc_ex.c ****   * @param  hadc pointer to a ADC_HandleTypeDef structure that contains
 144:Drivers/STM32F7xx_HAL_Driver/Src/stm32f7xx_hal_adc_ex.c ****   *         the configuration information for the specified ADC.
ARM GAS  C:\Users\GUILLE~1\AppData\Local\Temp\ccXICf5i.s 			page 4


 145:Drivers/STM32F7xx_HAL_Driver/Src/stm32f7xx_hal_adc_ex.c ****   * @retval HAL status
 146:Drivers/STM32F7xx_HAL_Driver/Src/stm32f7xx_hal_adc_ex.c ****   */
 147:Drivers/STM32F7xx_HAL_Driver/Src/stm32f7xx_hal_adc_ex.c **** HAL_StatusTypeDef HAL_ADCEx_InjectedStart(ADC_HandleTypeDef* hadc)
 148:Drivers/STM32F7xx_HAL_Driver/Src/stm32f7xx_hal_adc_ex.c **** {
 149:Drivers/STM32F7xx_HAL_Driver/Src/stm32f7xx_hal_adc_ex.c ****   __IO uint32_t counter = 0;
 150:Drivers/STM32F7xx_HAL_Driver/Src/stm32f7xx_hal_adc_ex.c ****   uint32_t tmp1 = 0, tmp2 = 0;
 151:Drivers/STM32F7xx_HAL_Driver/Src/stm32f7xx_hal_adc_ex.c ****   
 152:Drivers/STM32F7xx_HAL_Driver/Src/stm32f7xx_hal_adc_ex.c ****   /* Process locked */
 153:Drivers/STM32F7xx_HAL_Driver/Src/stm32f7xx_hal_adc_ex.c ****   __HAL_LOCK(hadc);
 154:Drivers/STM32F7xx_HAL_Driver/Src/stm32f7xx_hal_adc_ex.c ****   
 155:Drivers/STM32F7xx_HAL_Driver/Src/stm32f7xx_hal_adc_ex.c ****   /* Enable the ADC peripheral */
 156:Drivers/STM32F7xx_HAL_Driver/Src/stm32f7xx_hal_adc_ex.c ****   
 157:Drivers/STM32F7xx_HAL_Driver/Src/stm32f7xx_hal_adc_ex.c ****   /* Check if ADC peripheral is disabled in order to enable it and wait during 
 158:Drivers/STM32F7xx_HAL_Driver/Src/stm32f7xx_hal_adc_ex.c ****      Tstab time the ADC's stabilization */
 159:Drivers/STM32F7xx_HAL_Driver/Src/stm32f7xx_hal_adc_ex.c ****   if((hadc->Instance->CR2 & ADC_CR2_ADON) != ADC_CR2_ADON)
 160:Drivers/STM32F7xx_HAL_Driver/Src/stm32f7xx_hal_adc_ex.c ****   {  
 161:Drivers/STM32F7xx_HAL_Driver/Src/stm32f7xx_hal_adc_ex.c ****     /* Enable the Peripheral */
 162:Drivers/STM32F7xx_HAL_Driver/Src/stm32f7xx_hal_adc_ex.c ****     __HAL_ADC_ENABLE(hadc);
 163:Drivers/STM32F7xx_HAL_Driver/Src/stm32f7xx_hal_adc_ex.c ****     
 164:Drivers/STM32F7xx_HAL_Driver/Src/stm32f7xx_hal_adc_ex.c ****     /* Delay for ADC stabilization time */
 165:Drivers/STM32F7xx_HAL_Driver/Src/stm32f7xx_hal_adc_ex.c ****     /* Compute number of CPU cycles to wait for */
 166:Drivers/STM32F7xx_HAL_Driver/Src/stm32f7xx_hal_adc_ex.c ****     counter = (ADC_STAB_DELAY_US * (SystemCoreClock / 1000000));
 167:Drivers/STM32F7xx_HAL_Driver/Src/stm32f7xx_hal_adc_ex.c ****     while(counter != 0)
 168:Drivers/STM32F7xx_HAL_Driver/Src/stm32f7xx_hal_adc_ex.c ****     {
 169:Drivers/STM32F7xx_HAL_Driver/Src/stm32f7xx_hal_adc_ex.c ****       counter--;
 170:Drivers/STM32F7xx_HAL_Driver/Src/stm32f7xx_hal_adc_ex.c ****     }
 171:Drivers/STM32F7xx_HAL_Driver/Src/stm32f7xx_hal_adc_ex.c ****   }
 172:Drivers/STM32F7xx_HAL_Driver/Src/stm32f7xx_hal_adc_ex.c ****   
 173:Drivers/STM32F7xx_HAL_Driver/Src/stm32f7xx_hal_adc_ex.c ****   /* Start conversion if ADC is effectively enabled */
 174:Drivers/STM32F7xx_HAL_Driver/Src/stm32f7xx_hal_adc_ex.c ****   if(HAL_IS_BIT_SET(hadc->Instance->CR2, ADC_CR2_ADON))
 175:Drivers/STM32F7xx_HAL_Driver/Src/stm32f7xx_hal_adc_ex.c ****   {
 176:Drivers/STM32F7xx_HAL_Driver/Src/stm32f7xx_hal_adc_ex.c ****     /* Set ADC state                                                          */
 177:Drivers/STM32F7xx_HAL_Driver/Src/stm32f7xx_hal_adc_ex.c ****     /* - Clear state bitfield related to injected group conversion results    */
 178:Drivers/STM32F7xx_HAL_Driver/Src/stm32f7xx_hal_adc_ex.c ****     /* - Set state bitfield related to injected operation                     */
 179:Drivers/STM32F7xx_HAL_Driver/Src/stm32f7xx_hal_adc_ex.c ****     ADC_STATE_CLR_SET(hadc->State,
 180:Drivers/STM32F7xx_HAL_Driver/Src/stm32f7xx_hal_adc_ex.c ****                       HAL_ADC_STATE_READY | HAL_ADC_STATE_INJ_EOC,
 181:Drivers/STM32F7xx_HAL_Driver/Src/stm32f7xx_hal_adc_ex.c ****                       HAL_ADC_STATE_INJ_BUSY);
 182:Drivers/STM32F7xx_HAL_Driver/Src/stm32f7xx_hal_adc_ex.c ****     
 183:Drivers/STM32F7xx_HAL_Driver/Src/stm32f7xx_hal_adc_ex.c ****     /* Check if a regular conversion is ongoing */
 184:Drivers/STM32F7xx_HAL_Driver/Src/stm32f7xx_hal_adc_ex.c ****     /* Note: On this device, there is no ADC error code fields related to     */
 185:Drivers/STM32F7xx_HAL_Driver/Src/stm32f7xx_hal_adc_ex.c ****     /*       conversions on group injected only. In case of conversion on     */
 186:Drivers/STM32F7xx_HAL_Driver/Src/stm32f7xx_hal_adc_ex.c ****     /*       going on group regular, no error code is reset.                  */
 187:Drivers/STM32F7xx_HAL_Driver/Src/stm32f7xx_hal_adc_ex.c ****     if (HAL_IS_BIT_CLR(hadc->State, HAL_ADC_STATE_REG_BUSY))
 188:Drivers/STM32F7xx_HAL_Driver/Src/stm32f7xx_hal_adc_ex.c ****     {
 189:Drivers/STM32F7xx_HAL_Driver/Src/stm32f7xx_hal_adc_ex.c ****       /* Reset ADC all error code fields */
 190:Drivers/STM32F7xx_HAL_Driver/Src/stm32f7xx_hal_adc_ex.c ****       ADC_CLEAR_ERRORCODE(hadc);
 191:Drivers/STM32F7xx_HAL_Driver/Src/stm32f7xx_hal_adc_ex.c ****     }
 192:Drivers/STM32F7xx_HAL_Driver/Src/stm32f7xx_hal_adc_ex.c ****     
 193:Drivers/STM32F7xx_HAL_Driver/Src/stm32f7xx_hal_adc_ex.c ****     /* Process unlocked */
 194:Drivers/STM32F7xx_HAL_Driver/Src/stm32f7xx_hal_adc_ex.c ****     /* Unlock before starting ADC conversions: in case of potential           */
 195:Drivers/STM32F7xx_HAL_Driver/Src/stm32f7xx_hal_adc_ex.c ****     /* interruption, to let the process to ADC IRQ Handler.                   */
 196:Drivers/STM32F7xx_HAL_Driver/Src/stm32f7xx_hal_adc_ex.c ****     __HAL_UNLOCK(hadc);
 197:Drivers/STM32F7xx_HAL_Driver/Src/stm32f7xx_hal_adc_ex.c ****     
 198:Drivers/STM32F7xx_HAL_Driver/Src/stm32f7xx_hal_adc_ex.c ****     /* Clear injected group conversion flag */
 199:Drivers/STM32F7xx_HAL_Driver/Src/stm32f7xx_hal_adc_ex.c ****     /* (To ensure of no unknown state from potential previous ADC operations) */
 200:Drivers/STM32F7xx_HAL_Driver/Src/stm32f7xx_hal_adc_ex.c ****     __HAL_ADC_CLEAR_FLAG(hadc, ADC_FLAG_JEOC);
 201:Drivers/STM32F7xx_HAL_Driver/Src/stm32f7xx_hal_adc_ex.c ****     
ARM GAS  C:\Users\GUILLE~1\AppData\Local\Temp\ccXICf5i.s 			page 5


 202:Drivers/STM32F7xx_HAL_Driver/Src/stm32f7xx_hal_adc_ex.c ****     /* Check if Multimode enabled */
 203:Drivers/STM32F7xx_HAL_Driver/Src/stm32f7xx_hal_adc_ex.c ****     if(HAL_IS_BIT_CLR(ADC->CCR, ADC_CCR_MULTI))
 204:Drivers/STM32F7xx_HAL_Driver/Src/stm32f7xx_hal_adc_ex.c ****     {
 205:Drivers/STM32F7xx_HAL_Driver/Src/stm32f7xx_hal_adc_ex.c ****       tmp1 = HAL_IS_BIT_CLR(hadc->Instance->CR2, ADC_CR2_JEXTEN);
 206:Drivers/STM32F7xx_HAL_Driver/Src/stm32f7xx_hal_adc_ex.c ****       tmp2 = HAL_IS_BIT_CLR(hadc->Instance->CR1, ADC_CR1_JAUTO);
 207:Drivers/STM32F7xx_HAL_Driver/Src/stm32f7xx_hal_adc_ex.c ****       if(tmp1 && tmp2)
 208:Drivers/STM32F7xx_HAL_Driver/Src/stm32f7xx_hal_adc_ex.c ****       {
 209:Drivers/STM32F7xx_HAL_Driver/Src/stm32f7xx_hal_adc_ex.c ****         /* Enable the selected ADC software conversion for injected group */
 210:Drivers/STM32F7xx_HAL_Driver/Src/stm32f7xx_hal_adc_ex.c ****         hadc->Instance->CR2 |= ADC_CR2_JSWSTART;
 211:Drivers/STM32F7xx_HAL_Driver/Src/stm32f7xx_hal_adc_ex.c ****       }
 212:Drivers/STM32F7xx_HAL_Driver/Src/stm32f7xx_hal_adc_ex.c ****     }
 213:Drivers/STM32F7xx_HAL_Driver/Src/stm32f7xx_hal_adc_ex.c ****     else
 214:Drivers/STM32F7xx_HAL_Driver/Src/stm32f7xx_hal_adc_ex.c ****     {
 215:Drivers/STM32F7xx_HAL_Driver/Src/stm32f7xx_hal_adc_ex.c ****       tmp1 = HAL_IS_BIT_CLR(hadc->Instance->CR2, ADC_CR2_JEXTEN);
 216:Drivers/STM32F7xx_HAL_Driver/Src/stm32f7xx_hal_adc_ex.c ****       tmp2 = HAL_IS_BIT_CLR(hadc->Instance->CR1, ADC_CR1_JAUTO);
 217:Drivers/STM32F7xx_HAL_Driver/Src/stm32f7xx_hal_adc_ex.c ****       if((hadc->Instance == ADC1) && tmp1 && tmp2)  
 218:Drivers/STM32F7xx_HAL_Driver/Src/stm32f7xx_hal_adc_ex.c ****       {
 219:Drivers/STM32F7xx_HAL_Driver/Src/stm32f7xx_hal_adc_ex.c ****         /* Enable the selected ADC software conversion for injected group */
 220:Drivers/STM32F7xx_HAL_Driver/Src/stm32f7xx_hal_adc_ex.c ****         hadc->Instance->CR2 |= ADC_CR2_JSWSTART;
 221:Drivers/STM32F7xx_HAL_Driver/Src/stm32f7xx_hal_adc_ex.c ****       }
 222:Drivers/STM32F7xx_HAL_Driver/Src/stm32f7xx_hal_adc_ex.c ****     }
 223:Drivers/STM32F7xx_HAL_Driver/Src/stm32f7xx_hal_adc_ex.c ****   }
 224:Drivers/STM32F7xx_HAL_Driver/Src/stm32f7xx_hal_adc_ex.c ****   else
 225:Drivers/STM32F7xx_HAL_Driver/Src/stm32f7xx_hal_adc_ex.c ****   {
 226:Drivers/STM32F7xx_HAL_Driver/Src/stm32f7xx_hal_adc_ex.c ****     /* Update ADC state machine to error */
 227:Drivers/STM32F7xx_HAL_Driver/Src/stm32f7xx_hal_adc_ex.c ****     SET_BIT(hadc->State, HAL_ADC_STATE_ERROR_INTERNAL);
 228:Drivers/STM32F7xx_HAL_Driver/Src/stm32f7xx_hal_adc_ex.c ****     
 229:Drivers/STM32F7xx_HAL_Driver/Src/stm32f7xx_hal_adc_ex.c ****     /* Set ADC error code to ADC IP internal error */
 230:Drivers/STM32F7xx_HAL_Driver/Src/stm32f7xx_hal_adc_ex.c ****     SET_BIT(hadc->ErrorCode, HAL_ADC_ERROR_INTERNAL);
 231:Drivers/STM32F7xx_HAL_Driver/Src/stm32f7xx_hal_adc_ex.c ****   }
 232:Drivers/STM32F7xx_HAL_Driver/Src/stm32f7xx_hal_adc_ex.c ****   
 233:Drivers/STM32F7xx_HAL_Driver/Src/stm32f7xx_hal_adc_ex.c ****   /* Return function status */
 234:Drivers/STM32F7xx_HAL_Driver/Src/stm32f7xx_hal_adc_ex.c ****   return HAL_OK;
 235:Drivers/STM32F7xx_HAL_Driver/Src/stm32f7xx_hal_adc_ex.c **** }
 236:Drivers/STM32F7xx_HAL_Driver/Src/stm32f7xx_hal_adc_ex.c **** 
 237:Drivers/STM32F7xx_HAL_Driver/Src/stm32f7xx_hal_adc_ex.c **** /**
 238:Drivers/STM32F7xx_HAL_Driver/Src/stm32f7xx_hal_adc_ex.c ****   * @brief  Enables the interrupt and starts ADC conversion of injected channels.
 239:Drivers/STM32F7xx_HAL_Driver/Src/stm32f7xx_hal_adc_ex.c ****   * @param  hadc pointer to a ADC_HandleTypeDef structure that contains
 240:Drivers/STM32F7xx_HAL_Driver/Src/stm32f7xx_hal_adc_ex.c ****   *         the configuration information for the specified ADC.
 241:Drivers/STM32F7xx_HAL_Driver/Src/stm32f7xx_hal_adc_ex.c ****   *
 242:Drivers/STM32F7xx_HAL_Driver/Src/stm32f7xx_hal_adc_ex.c ****   * @retval HAL status.
 243:Drivers/STM32F7xx_HAL_Driver/Src/stm32f7xx_hal_adc_ex.c ****   */
 244:Drivers/STM32F7xx_HAL_Driver/Src/stm32f7xx_hal_adc_ex.c **** HAL_StatusTypeDef HAL_ADCEx_InjectedStart_IT(ADC_HandleTypeDef* hadc)
 245:Drivers/STM32F7xx_HAL_Driver/Src/stm32f7xx_hal_adc_ex.c **** {
 246:Drivers/STM32F7xx_HAL_Driver/Src/stm32f7xx_hal_adc_ex.c ****   __IO uint32_t counter = 0;
 247:Drivers/STM32F7xx_HAL_Driver/Src/stm32f7xx_hal_adc_ex.c ****   uint32_t tmp1 = 0, tmp2 = 0;
 248:Drivers/STM32F7xx_HAL_Driver/Src/stm32f7xx_hal_adc_ex.c ****   
 249:Drivers/STM32F7xx_HAL_Driver/Src/stm32f7xx_hal_adc_ex.c ****   /* Process locked */
 250:Drivers/STM32F7xx_HAL_Driver/Src/stm32f7xx_hal_adc_ex.c ****   __HAL_LOCK(hadc);
 251:Drivers/STM32F7xx_HAL_Driver/Src/stm32f7xx_hal_adc_ex.c ****   
 252:Drivers/STM32F7xx_HAL_Driver/Src/stm32f7xx_hal_adc_ex.c ****   /* Enable the ADC peripheral */
 253:Drivers/STM32F7xx_HAL_Driver/Src/stm32f7xx_hal_adc_ex.c ****   
 254:Drivers/STM32F7xx_HAL_Driver/Src/stm32f7xx_hal_adc_ex.c ****   /* Check if ADC peripheral is disabled in order to enable it and wait during 
 255:Drivers/STM32F7xx_HAL_Driver/Src/stm32f7xx_hal_adc_ex.c ****      Tstab time the ADC's stabilization */
 256:Drivers/STM32F7xx_HAL_Driver/Src/stm32f7xx_hal_adc_ex.c ****   if((hadc->Instance->CR2 & ADC_CR2_ADON) != ADC_CR2_ADON)
 257:Drivers/STM32F7xx_HAL_Driver/Src/stm32f7xx_hal_adc_ex.c ****   {  
 258:Drivers/STM32F7xx_HAL_Driver/Src/stm32f7xx_hal_adc_ex.c ****     /* Enable the Peripheral */
ARM GAS  C:\Users\GUILLE~1\AppData\Local\Temp\ccXICf5i.s 			page 6


 259:Drivers/STM32F7xx_HAL_Driver/Src/stm32f7xx_hal_adc_ex.c ****     __HAL_ADC_ENABLE(hadc);
 260:Drivers/STM32F7xx_HAL_Driver/Src/stm32f7xx_hal_adc_ex.c ****     
 261:Drivers/STM32F7xx_HAL_Driver/Src/stm32f7xx_hal_adc_ex.c ****     /* Delay for ADC stabilization time */
 262:Drivers/STM32F7xx_HAL_Driver/Src/stm32f7xx_hal_adc_ex.c ****     /* Compute number of CPU cycles to wait for */
 263:Drivers/STM32F7xx_HAL_Driver/Src/stm32f7xx_hal_adc_ex.c ****     counter = (ADC_STAB_DELAY_US * (SystemCoreClock / 1000000));
 264:Drivers/STM32F7xx_HAL_Driver/Src/stm32f7xx_hal_adc_ex.c ****     while(counter != 0)
 265:Drivers/STM32F7xx_HAL_Driver/Src/stm32f7xx_hal_adc_ex.c ****     {
 266:Drivers/STM32F7xx_HAL_Driver/Src/stm32f7xx_hal_adc_ex.c ****       counter--;
 267:Drivers/STM32F7xx_HAL_Driver/Src/stm32f7xx_hal_adc_ex.c ****     }
 268:Drivers/STM32F7xx_HAL_Driver/Src/stm32f7xx_hal_adc_ex.c ****   }
 269:Drivers/STM32F7xx_HAL_Driver/Src/stm32f7xx_hal_adc_ex.c ****   
 270:Drivers/STM32F7xx_HAL_Driver/Src/stm32f7xx_hal_adc_ex.c ****   /* Start conversion if ADC is effectively enabled */
 271:Drivers/STM32F7xx_HAL_Driver/Src/stm32f7xx_hal_adc_ex.c ****   if(HAL_IS_BIT_SET(hadc->Instance->CR2, ADC_CR2_ADON))
 272:Drivers/STM32F7xx_HAL_Driver/Src/stm32f7xx_hal_adc_ex.c ****   {
 273:Drivers/STM32F7xx_HAL_Driver/Src/stm32f7xx_hal_adc_ex.c ****     /* Set ADC state                                                          */
 274:Drivers/STM32F7xx_HAL_Driver/Src/stm32f7xx_hal_adc_ex.c ****     /* - Clear state bitfield related to injected group conversion results    */
 275:Drivers/STM32F7xx_HAL_Driver/Src/stm32f7xx_hal_adc_ex.c ****     /* - Set state bitfield related to injected operation                     */
 276:Drivers/STM32F7xx_HAL_Driver/Src/stm32f7xx_hal_adc_ex.c ****     ADC_STATE_CLR_SET(hadc->State,
 277:Drivers/STM32F7xx_HAL_Driver/Src/stm32f7xx_hal_adc_ex.c ****                       HAL_ADC_STATE_READY | HAL_ADC_STATE_INJ_EOC,
 278:Drivers/STM32F7xx_HAL_Driver/Src/stm32f7xx_hal_adc_ex.c ****                       HAL_ADC_STATE_INJ_BUSY);
 279:Drivers/STM32F7xx_HAL_Driver/Src/stm32f7xx_hal_adc_ex.c ****     
 280:Drivers/STM32F7xx_HAL_Driver/Src/stm32f7xx_hal_adc_ex.c ****     /* Check if a regular conversion is ongoing */
 281:Drivers/STM32F7xx_HAL_Driver/Src/stm32f7xx_hal_adc_ex.c ****     /* Note: On this device, there is no ADC error code fields related to     */
 282:Drivers/STM32F7xx_HAL_Driver/Src/stm32f7xx_hal_adc_ex.c ****     /*       conversions on group injected only. In case of conversion on     */
 283:Drivers/STM32F7xx_HAL_Driver/Src/stm32f7xx_hal_adc_ex.c ****     /*       going on group regular, no error code is reset.                  */
 284:Drivers/STM32F7xx_HAL_Driver/Src/stm32f7xx_hal_adc_ex.c ****     if (HAL_IS_BIT_CLR(hadc->State, HAL_ADC_STATE_REG_BUSY))
 285:Drivers/STM32F7xx_HAL_Driver/Src/stm32f7xx_hal_adc_ex.c ****     {
 286:Drivers/STM32F7xx_HAL_Driver/Src/stm32f7xx_hal_adc_ex.c ****       /* Reset ADC all error code fields */
 287:Drivers/STM32F7xx_HAL_Driver/Src/stm32f7xx_hal_adc_ex.c ****       ADC_CLEAR_ERRORCODE(hadc);
 288:Drivers/STM32F7xx_HAL_Driver/Src/stm32f7xx_hal_adc_ex.c ****     }
 289:Drivers/STM32F7xx_HAL_Driver/Src/stm32f7xx_hal_adc_ex.c ****     
 290:Drivers/STM32F7xx_HAL_Driver/Src/stm32f7xx_hal_adc_ex.c ****     /* Process unlocked */
 291:Drivers/STM32F7xx_HAL_Driver/Src/stm32f7xx_hal_adc_ex.c ****     /* Unlock before starting ADC conversions: in case of potential           */
 292:Drivers/STM32F7xx_HAL_Driver/Src/stm32f7xx_hal_adc_ex.c ****     /* interruption, to let the process to ADC IRQ Handler.                   */
 293:Drivers/STM32F7xx_HAL_Driver/Src/stm32f7xx_hal_adc_ex.c ****     __HAL_UNLOCK(hadc);
 294:Drivers/STM32F7xx_HAL_Driver/Src/stm32f7xx_hal_adc_ex.c ****     
 295:Drivers/STM32F7xx_HAL_Driver/Src/stm32f7xx_hal_adc_ex.c ****     /* Clear injected group conversion flag */
 296:Drivers/STM32F7xx_HAL_Driver/Src/stm32f7xx_hal_adc_ex.c ****     /* (To ensure of no unknown state from potential previous ADC operations) */
 297:Drivers/STM32F7xx_HAL_Driver/Src/stm32f7xx_hal_adc_ex.c ****     __HAL_ADC_CLEAR_FLAG(hadc, ADC_FLAG_JEOC);
 298:Drivers/STM32F7xx_HAL_Driver/Src/stm32f7xx_hal_adc_ex.c ****     
 299:Drivers/STM32F7xx_HAL_Driver/Src/stm32f7xx_hal_adc_ex.c ****     /* Enable end of conversion interrupt for injected channels */
 300:Drivers/STM32F7xx_HAL_Driver/Src/stm32f7xx_hal_adc_ex.c ****     __HAL_ADC_ENABLE_IT(hadc, ADC_IT_JEOC);
 301:Drivers/STM32F7xx_HAL_Driver/Src/stm32f7xx_hal_adc_ex.c ****     
 302:Drivers/STM32F7xx_HAL_Driver/Src/stm32f7xx_hal_adc_ex.c ****     /* Check if Multimode enabled */
 303:Drivers/STM32F7xx_HAL_Driver/Src/stm32f7xx_hal_adc_ex.c ****     if(HAL_IS_BIT_CLR(ADC->CCR, ADC_CCR_MULTI))
 304:Drivers/STM32F7xx_HAL_Driver/Src/stm32f7xx_hal_adc_ex.c ****     {
 305:Drivers/STM32F7xx_HAL_Driver/Src/stm32f7xx_hal_adc_ex.c ****       tmp1 = HAL_IS_BIT_CLR(hadc->Instance->CR2, ADC_CR2_JEXTEN);
 306:Drivers/STM32F7xx_HAL_Driver/Src/stm32f7xx_hal_adc_ex.c ****       tmp2 = HAL_IS_BIT_CLR(hadc->Instance->CR1, ADC_CR1_JAUTO);
 307:Drivers/STM32F7xx_HAL_Driver/Src/stm32f7xx_hal_adc_ex.c ****       if(tmp1 && tmp2)
 308:Drivers/STM32F7xx_HAL_Driver/Src/stm32f7xx_hal_adc_ex.c ****       {
 309:Drivers/STM32F7xx_HAL_Driver/Src/stm32f7xx_hal_adc_ex.c ****         /* Enable the selected ADC software conversion for injected group */
 310:Drivers/STM32F7xx_HAL_Driver/Src/stm32f7xx_hal_adc_ex.c ****         hadc->Instance->CR2 |= ADC_CR2_JSWSTART;
 311:Drivers/STM32F7xx_HAL_Driver/Src/stm32f7xx_hal_adc_ex.c ****       }
 312:Drivers/STM32F7xx_HAL_Driver/Src/stm32f7xx_hal_adc_ex.c ****     }
 313:Drivers/STM32F7xx_HAL_Driver/Src/stm32f7xx_hal_adc_ex.c ****     else
 314:Drivers/STM32F7xx_HAL_Driver/Src/stm32f7xx_hal_adc_ex.c ****     {
 315:Drivers/STM32F7xx_HAL_Driver/Src/stm32f7xx_hal_adc_ex.c ****       tmp1 = HAL_IS_BIT_CLR(hadc->Instance->CR2, ADC_CR2_JEXTEN);
ARM GAS  C:\Users\GUILLE~1\AppData\Local\Temp\ccXICf5i.s 			page 7


 316:Drivers/STM32F7xx_HAL_Driver/Src/stm32f7xx_hal_adc_ex.c ****       tmp2 = HAL_IS_BIT_CLR(hadc->Instance->CR1, ADC_CR1_JAUTO);
 317:Drivers/STM32F7xx_HAL_Driver/Src/stm32f7xx_hal_adc_ex.c ****       if((hadc->Instance == ADC1) && tmp1 && tmp2)  
 318:Drivers/STM32F7xx_HAL_Driver/Src/stm32f7xx_hal_adc_ex.c ****       {
 319:Drivers/STM32F7xx_HAL_Driver/Src/stm32f7xx_hal_adc_ex.c ****         /* Enable the selected ADC software conversion for injected group */
 320:Drivers/STM32F7xx_HAL_Driver/Src/stm32f7xx_hal_adc_ex.c ****         hadc->Instance->CR2 |= ADC_CR2_JSWSTART;
 321:Drivers/STM32F7xx_HAL_Driver/Src/stm32f7xx_hal_adc_ex.c ****       }
 322:Drivers/STM32F7xx_HAL_Driver/Src/stm32f7xx_hal_adc_ex.c ****     }
 323:Drivers/STM32F7xx_HAL_Driver/Src/stm32f7xx_hal_adc_ex.c ****   }
 324:Drivers/STM32F7xx_HAL_Driver/Src/stm32f7xx_hal_adc_ex.c ****   else
 325:Drivers/STM32F7xx_HAL_Driver/Src/stm32f7xx_hal_adc_ex.c ****   {
 326:Drivers/STM32F7xx_HAL_Driver/Src/stm32f7xx_hal_adc_ex.c ****     /* Update ADC state machine to error */
 327:Drivers/STM32F7xx_HAL_Driver/Src/stm32f7xx_hal_adc_ex.c ****     SET_BIT(hadc->State, HAL_ADC_STATE_ERROR_INTERNAL);
 328:Drivers/STM32F7xx_HAL_Driver/Src/stm32f7xx_hal_adc_ex.c ****     
 329:Drivers/STM32F7xx_HAL_Driver/Src/stm32f7xx_hal_adc_ex.c ****     /* Set ADC error code to ADC IP internal error */
 330:Drivers/STM32F7xx_HAL_Driver/Src/stm32f7xx_hal_adc_ex.c ****     SET_BIT(hadc->ErrorCode, HAL_ADC_ERROR_INTERNAL);
 331:Drivers/STM32F7xx_HAL_Driver/Src/stm32f7xx_hal_adc_ex.c ****   }
 332:Drivers/STM32F7xx_HAL_Driver/Src/stm32f7xx_hal_adc_ex.c ****   
 333:Drivers/STM32F7xx_HAL_Driver/Src/stm32f7xx_hal_adc_ex.c ****   /* Return function status */
 334:Drivers/STM32F7xx_HAL_Driver/Src/stm32f7xx_hal_adc_ex.c ****   return HAL_OK;
 335:Drivers/STM32F7xx_HAL_Driver/Src/stm32f7xx_hal_adc_ex.c **** }
 336:Drivers/STM32F7xx_HAL_Driver/Src/stm32f7xx_hal_adc_ex.c **** 
 337:Drivers/STM32F7xx_HAL_Driver/Src/stm32f7xx_hal_adc_ex.c **** /**
 338:Drivers/STM32F7xx_HAL_Driver/Src/stm32f7xx_hal_adc_ex.c ****   * @brief  Stop conversion of injected channels. Disable ADC peripheral if
 339:Drivers/STM32F7xx_HAL_Driver/Src/stm32f7xx_hal_adc_ex.c ****   *         no regular conversion is on going.
 340:Drivers/STM32F7xx_HAL_Driver/Src/stm32f7xx_hal_adc_ex.c ****   * @note   If ADC must be disabled and if conversion is on going on 
 341:Drivers/STM32F7xx_HAL_Driver/Src/stm32f7xx_hal_adc_ex.c ****   *         regular group, function HAL_ADC_Stop must be used to stop both
 342:Drivers/STM32F7xx_HAL_Driver/Src/stm32f7xx_hal_adc_ex.c ****   *         injected and regular groups, and disable the ADC.
 343:Drivers/STM32F7xx_HAL_Driver/Src/stm32f7xx_hal_adc_ex.c ****   * @note   If injected group mode auto-injection is enabled,
 344:Drivers/STM32F7xx_HAL_Driver/Src/stm32f7xx_hal_adc_ex.c ****   *         function HAL_ADC_Stop must be used.
 345:Drivers/STM32F7xx_HAL_Driver/Src/stm32f7xx_hal_adc_ex.c ****   * @note   In case of auto-injection mode, HAL_ADC_Stop must be used.
 346:Drivers/STM32F7xx_HAL_Driver/Src/stm32f7xx_hal_adc_ex.c ****   * @param  hadc ADC handle
 347:Drivers/STM32F7xx_HAL_Driver/Src/stm32f7xx_hal_adc_ex.c ****   * @retval None
 348:Drivers/STM32F7xx_HAL_Driver/Src/stm32f7xx_hal_adc_ex.c ****   */
 349:Drivers/STM32F7xx_HAL_Driver/Src/stm32f7xx_hal_adc_ex.c **** HAL_StatusTypeDef HAL_ADCEx_InjectedStop(ADC_HandleTypeDef* hadc)
 350:Drivers/STM32F7xx_HAL_Driver/Src/stm32f7xx_hal_adc_ex.c **** {
 351:Drivers/STM32F7xx_HAL_Driver/Src/stm32f7xx_hal_adc_ex.c ****   HAL_StatusTypeDef tmp_hal_status = HAL_OK;
 352:Drivers/STM32F7xx_HAL_Driver/Src/stm32f7xx_hal_adc_ex.c ****   
 353:Drivers/STM32F7xx_HAL_Driver/Src/stm32f7xx_hal_adc_ex.c ****   /* Check the parameters */
 354:Drivers/STM32F7xx_HAL_Driver/Src/stm32f7xx_hal_adc_ex.c ****   assert_param(IS_ADC_ALL_INSTANCE(hadc->Instance));
 355:Drivers/STM32F7xx_HAL_Driver/Src/stm32f7xx_hal_adc_ex.c **** 
 356:Drivers/STM32F7xx_HAL_Driver/Src/stm32f7xx_hal_adc_ex.c ****   /* Process locked */
 357:Drivers/STM32F7xx_HAL_Driver/Src/stm32f7xx_hal_adc_ex.c ****   __HAL_LOCK(hadc);
 358:Drivers/STM32F7xx_HAL_Driver/Src/stm32f7xx_hal_adc_ex.c ****     
 359:Drivers/STM32F7xx_HAL_Driver/Src/stm32f7xx_hal_adc_ex.c ****   /* Stop potential conversion and disable ADC peripheral                     */
 360:Drivers/STM32F7xx_HAL_Driver/Src/stm32f7xx_hal_adc_ex.c ****   /* Conditioned to:                                                          */
 361:Drivers/STM32F7xx_HAL_Driver/Src/stm32f7xx_hal_adc_ex.c ****   /* - No conversion on the other group (regular group) is intended to        */
 362:Drivers/STM32F7xx_HAL_Driver/Src/stm32f7xx_hal_adc_ex.c ****   /*   continue (injected and regular groups stop conversion and ADC disable  */
 363:Drivers/STM32F7xx_HAL_Driver/Src/stm32f7xx_hal_adc_ex.c ****   /*   are common)                                                            */
 364:Drivers/STM32F7xx_HAL_Driver/Src/stm32f7xx_hal_adc_ex.c ****   /* - In case of auto-injection mode, HAL_ADC_Stop must be used.             */
 365:Drivers/STM32F7xx_HAL_Driver/Src/stm32f7xx_hal_adc_ex.c ****   if(((hadc->State & HAL_ADC_STATE_REG_BUSY) == RESET)  &&
 366:Drivers/STM32F7xx_HAL_Driver/Src/stm32f7xx_hal_adc_ex.c ****      HAL_IS_BIT_CLR(hadc->Instance->CR1, ADC_CR1_JAUTO)   )
 367:Drivers/STM32F7xx_HAL_Driver/Src/stm32f7xx_hal_adc_ex.c ****   {
 368:Drivers/STM32F7xx_HAL_Driver/Src/stm32f7xx_hal_adc_ex.c ****     /* Stop potential conversion on going, on regular and injected groups */
 369:Drivers/STM32F7xx_HAL_Driver/Src/stm32f7xx_hal_adc_ex.c ****     /* Disable ADC peripheral */
 370:Drivers/STM32F7xx_HAL_Driver/Src/stm32f7xx_hal_adc_ex.c ****     __HAL_ADC_DISABLE(hadc);
 371:Drivers/STM32F7xx_HAL_Driver/Src/stm32f7xx_hal_adc_ex.c ****     
 372:Drivers/STM32F7xx_HAL_Driver/Src/stm32f7xx_hal_adc_ex.c ****     /* Check if ADC is effectively disabled */
ARM GAS  C:\Users\GUILLE~1\AppData\Local\Temp\ccXICf5i.s 			page 8


 373:Drivers/STM32F7xx_HAL_Driver/Src/stm32f7xx_hal_adc_ex.c ****     if(HAL_IS_BIT_CLR(hadc->Instance->CR2, ADC_CR2_ADON))
 374:Drivers/STM32F7xx_HAL_Driver/Src/stm32f7xx_hal_adc_ex.c ****     {
 375:Drivers/STM32F7xx_HAL_Driver/Src/stm32f7xx_hal_adc_ex.c ****       /* Set ADC state */
 376:Drivers/STM32F7xx_HAL_Driver/Src/stm32f7xx_hal_adc_ex.c ****       ADC_STATE_CLR_SET(hadc->State,
 377:Drivers/STM32F7xx_HAL_Driver/Src/stm32f7xx_hal_adc_ex.c ****                         HAL_ADC_STATE_REG_BUSY | HAL_ADC_STATE_INJ_BUSY,
 378:Drivers/STM32F7xx_HAL_Driver/Src/stm32f7xx_hal_adc_ex.c ****                         HAL_ADC_STATE_READY);
 379:Drivers/STM32F7xx_HAL_Driver/Src/stm32f7xx_hal_adc_ex.c ****     }
 380:Drivers/STM32F7xx_HAL_Driver/Src/stm32f7xx_hal_adc_ex.c ****   }
 381:Drivers/STM32F7xx_HAL_Driver/Src/stm32f7xx_hal_adc_ex.c ****   else
 382:Drivers/STM32F7xx_HAL_Driver/Src/stm32f7xx_hal_adc_ex.c ****   {
 383:Drivers/STM32F7xx_HAL_Driver/Src/stm32f7xx_hal_adc_ex.c ****     /* Update ADC state machine to error */
 384:Drivers/STM32F7xx_HAL_Driver/Src/stm32f7xx_hal_adc_ex.c ****     SET_BIT(hadc->State, HAL_ADC_STATE_ERROR_CONFIG);
 385:Drivers/STM32F7xx_HAL_Driver/Src/stm32f7xx_hal_adc_ex.c ****       
 386:Drivers/STM32F7xx_HAL_Driver/Src/stm32f7xx_hal_adc_ex.c ****     tmp_hal_status = HAL_ERROR;
 387:Drivers/STM32F7xx_HAL_Driver/Src/stm32f7xx_hal_adc_ex.c ****   }
 388:Drivers/STM32F7xx_HAL_Driver/Src/stm32f7xx_hal_adc_ex.c ****   
 389:Drivers/STM32F7xx_HAL_Driver/Src/stm32f7xx_hal_adc_ex.c ****   /* Process unlocked */
 390:Drivers/STM32F7xx_HAL_Driver/Src/stm32f7xx_hal_adc_ex.c ****   __HAL_UNLOCK(hadc);
 391:Drivers/STM32F7xx_HAL_Driver/Src/stm32f7xx_hal_adc_ex.c ****   
 392:Drivers/STM32F7xx_HAL_Driver/Src/stm32f7xx_hal_adc_ex.c ****   /* Return function status */
 393:Drivers/STM32F7xx_HAL_Driver/Src/stm32f7xx_hal_adc_ex.c ****   return tmp_hal_status;
 394:Drivers/STM32F7xx_HAL_Driver/Src/stm32f7xx_hal_adc_ex.c **** }
 395:Drivers/STM32F7xx_HAL_Driver/Src/stm32f7xx_hal_adc_ex.c **** 
 396:Drivers/STM32F7xx_HAL_Driver/Src/stm32f7xx_hal_adc_ex.c **** /**
 397:Drivers/STM32F7xx_HAL_Driver/Src/stm32f7xx_hal_adc_ex.c ****   * @brief  Poll for injected conversion complete
 398:Drivers/STM32F7xx_HAL_Driver/Src/stm32f7xx_hal_adc_ex.c ****   * @param  hadc pointer to a ADC_HandleTypeDef structure that contains
 399:Drivers/STM32F7xx_HAL_Driver/Src/stm32f7xx_hal_adc_ex.c ****   *         the configuration information for the specified ADC.
 400:Drivers/STM32F7xx_HAL_Driver/Src/stm32f7xx_hal_adc_ex.c ****   * @param  Timeout Timeout value in millisecond.  
 401:Drivers/STM32F7xx_HAL_Driver/Src/stm32f7xx_hal_adc_ex.c ****   * @retval HAL status
 402:Drivers/STM32F7xx_HAL_Driver/Src/stm32f7xx_hal_adc_ex.c ****   */
 403:Drivers/STM32F7xx_HAL_Driver/Src/stm32f7xx_hal_adc_ex.c **** HAL_StatusTypeDef HAL_ADCEx_InjectedPollForConversion(ADC_HandleTypeDef* hadc, uint32_t Timeout)
 404:Drivers/STM32F7xx_HAL_Driver/Src/stm32f7xx_hal_adc_ex.c **** {
 405:Drivers/STM32F7xx_HAL_Driver/Src/stm32f7xx_hal_adc_ex.c ****   uint32_t tickstart = 0;
 406:Drivers/STM32F7xx_HAL_Driver/Src/stm32f7xx_hal_adc_ex.c **** 
 407:Drivers/STM32F7xx_HAL_Driver/Src/stm32f7xx_hal_adc_ex.c ****   /* Get tick */ 
 408:Drivers/STM32F7xx_HAL_Driver/Src/stm32f7xx_hal_adc_ex.c ****   tickstart = HAL_GetTick();
 409:Drivers/STM32F7xx_HAL_Driver/Src/stm32f7xx_hal_adc_ex.c **** 
 410:Drivers/STM32F7xx_HAL_Driver/Src/stm32f7xx_hal_adc_ex.c ****   /* Check End of conversion flag */
 411:Drivers/STM32F7xx_HAL_Driver/Src/stm32f7xx_hal_adc_ex.c ****   while(!(__HAL_ADC_GET_FLAG(hadc, ADC_FLAG_JEOC)))
 412:Drivers/STM32F7xx_HAL_Driver/Src/stm32f7xx_hal_adc_ex.c ****   {
 413:Drivers/STM32F7xx_HAL_Driver/Src/stm32f7xx_hal_adc_ex.c ****     /* Check for the Timeout */
 414:Drivers/STM32F7xx_HAL_Driver/Src/stm32f7xx_hal_adc_ex.c ****     if(Timeout != HAL_MAX_DELAY)
 415:Drivers/STM32F7xx_HAL_Driver/Src/stm32f7xx_hal_adc_ex.c ****     {
 416:Drivers/STM32F7xx_HAL_Driver/Src/stm32f7xx_hal_adc_ex.c ****       if((Timeout == 0)||((HAL_GetTick() - tickstart ) > Timeout))
 417:Drivers/STM32F7xx_HAL_Driver/Src/stm32f7xx_hal_adc_ex.c ****       {
 418:Drivers/STM32F7xx_HAL_Driver/Src/stm32f7xx_hal_adc_ex.c ****         /* New check to avoid false timeout detection in case of preemption */
 419:Drivers/STM32F7xx_HAL_Driver/Src/stm32f7xx_hal_adc_ex.c ****         if(!(__HAL_ADC_GET_FLAG(hadc, ADC_FLAG_JEOC)))
 420:Drivers/STM32F7xx_HAL_Driver/Src/stm32f7xx_hal_adc_ex.c ****         {
 421:Drivers/STM32F7xx_HAL_Driver/Src/stm32f7xx_hal_adc_ex.c ****           hadc->State= HAL_ADC_STATE_TIMEOUT;
 422:Drivers/STM32F7xx_HAL_Driver/Src/stm32f7xx_hal_adc_ex.c ****           /* Process unlocked */
 423:Drivers/STM32F7xx_HAL_Driver/Src/stm32f7xx_hal_adc_ex.c ****           __HAL_UNLOCK(hadc);
 424:Drivers/STM32F7xx_HAL_Driver/Src/stm32f7xx_hal_adc_ex.c ****           return HAL_TIMEOUT;
 425:Drivers/STM32F7xx_HAL_Driver/Src/stm32f7xx_hal_adc_ex.c ****         }
 426:Drivers/STM32F7xx_HAL_Driver/Src/stm32f7xx_hal_adc_ex.c ****       }
 427:Drivers/STM32F7xx_HAL_Driver/Src/stm32f7xx_hal_adc_ex.c ****     }
 428:Drivers/STM32F7xx_HAL_Driver/Src/stm32f7xx_hal_adc_ex.c ****   }
 429:Drivers/STM32F7xx_HAL_Driver/Src/stm32f7xx_hal_adc_ex.c ****   
ARM GAS  C:\Users\GUILLE~1\AppData\Local\Temp\ccXICf5i.s 			page 9


 430:Drivers/STM32F7xx_HAL_Driver/Src/stm32f7xx_hal_adc_ex.c ****   /* Clear injected group conversion flag */
 431:Drivers/STM32F7xx_HAL_Driver/Src/stm32f7xx_hal_adc_ex.c ****   __HAL_ADC_CLEAR_FLAG(hadc, ADC_FLAG_JSTRT | ADC_FLAG_JEOC);
 432:Drivers/STM32F7xx_HAL_Driver/Src/stm32f7xx_hal_adc_ex.c ****     
 433:Drivers/STM32F7xx_HAL_Driver/Src/stm32f7xx_hal_adc_ex.c ****   /* Update ADC state machine */
 434:Drivers/STM32F7xx_HAL_Driver/Src/stm32f7xx_hal_adc_ex.c ****   SET_BIT(hadc->State, HAL_ADC_STATE_INJ_EOC);
 435:Drivers/STM32F7xx_HAL_Driver/Src/stm32f7xx_hal_adc_ex.c ****   
 436:Drivers/STM32F7xx_HAL_Driver/Src/stm32f7xx_hal_adc_ex.c ****   /* Determine whether any further conversion upcoming on group injected      */
 437:Drivers/STM32F7xx_HAL_Driver/Src/stm32f7xx_hal_adc_ex.c ****   /* by external trigger, continuous mode or scan sequence on going.          */
 438:Drivers/STM32F7xx_HAL_Driver/Src/stm32f7xx_hal_adc_ex.c ****   /* Note: On STM32F7, there is no independent flag of end of sequence.       */
 439:Drivers/STM32F7xx_HAL_Driver/Src/stm32f7xx_hal_adc_ex.c ****   /*       The test of scan sequence on going is done either with scan        */
 440:Drivers/STM32F7xx_HAL_Driver/Src/stm32f7xx_hal_adc_ex.c ****   /*       sequence disabled or with end of conversion flag set to            */
 441:Drivers/STM32F7xx_HAL_Driver/Src/stm32f7xx_hal_adc_ex.c ****   /*       of end of sequence.                                                */
 442:Drivers/STM32F7xx_HAL_Driver/Src/stm32f7xx_hal_adc_ex.c ****   if(ADC_IS_SOFTWARE_START_INJECTED(hadc)                    &&
 443:Drivers/STM32F7xx_HAL_Driver/Src/stm32f7xx_hal_adc_ex.c ****      (HAL_IS_BIT_CLR(hadc->Instance->JSQR, ADC_JSQR_JL)  ||
 444:Drivers/STM32F7xx_HAL_Driver/Src/stm32f7xx_hal_adc_ex.c ****       HAL_IS_BIT_CLR(hadc->Instance->CR2, ADC_CR2_EOCS)    ) &&
 445:Drivers/STM32F7xx_HAL_Driver/Src/stm32f7xx_hal_adc_ex.c ****      (HAL_IS_BIT_CLR(hadc->Instance->CR1, ADC_CR1_JAUTO) &&
 446:Drivers/STM32F7xx_HAL_Driver/Src/stm32f7xx_hal_adc_ex.c ****       (ADC_IS_SOFTWARE_START_REGULAR(hadc)       &&
 447:Drivers/STM32F7xx_HAL_Driver/Src/stm32f7xx_hal_adc_ex.c ****       (hadc->Init.ContinuousConvMode == DISABLE)   )       )   )
 448:Drivers/STM32F7xx_HAL_Driver/Src/stm32f7xx_hal_adc_ex.c ****   {
 449:Drivers/STM32F7xx_HAL_Driver/Src/stm32f7xx_hal_adc_ex.c ****     /* Set ADC state */
 450:Drivers/STM32F7xx_HAL_Driver/Src/stm32f7xx_hal_adc_ex.c ****     CLEAR_BIT(hadc->State, HAL_ADC_STATE_INJ_BUSY);
 451:Drivers/STM32F7xx_HAL_Driver/Src/stm32f7xx_hal_adc_ex.c ****     
 452:Drivers/STM32F7xx_HAL_Driver/Src/stm32f7xx_hal_adc_ex.c ****     if (HAL_IS_BIT_CLR(hadc->State, HAL_ADC_STATE_REG_BUSY))
 453:Drivers/STM32F7xx_HAL_Driver/Src/stm32f7xx_hal_adc_ex.c ****     { 
 454:Drivers/STM32F7xx_HAL_Driver/Src/stm32f7xx_hal_adc_ex.c ****       SET_BIT(hadc->State, HAL_ADC_STATE_READY);
 455:Drivers/STM32F7xx_HAL_Driver/Src/stm32f7xx_hal_adc_ex.c ****     }
 456:Drivers/STM32F7xx_HAL_Driver/Src/stm32f7xx_hal_adc_ex.c ****   }
 457:Drivers/STM32F7xx_HAL_Driver/Src/stm32f7xx_hal_adc_ex.c ****   
 458:Drivers/STM32F7xx_HAL_Driver/Src/stm32f7xx_hal_adc_ex.c ****   /* Return ADC state */
 459:Drivers/STM32F7xx_HAL_Driver/Src/stm32f7xx_hal_adc_ex.c ****   return HAL_OK;
 460:Drivers/STM32F7xx_HAL_Driver/Src/stm32f7xx_hal_adc_ex.c **** }      
 461:Drivers/STM32F7xx_HAL_Driver/Src/stm32f7xx_hal_adc_ex.c ****   
 462:Drivers/STM32F7xx_HAL_Driver/Src/stm32f7xx_hal_adc_ex.c **** /**
 463:Drivers/STM32F7xx_HAL_Driver/Src/stm32f7xx_hal_adc_ex.c ****   * @brief  Stop conversion of injected channels, disable interruption of 
 464:Drivers/STM32F7xx_HAL_Driver/Src/stm32f7xx_hal_adc_ex.c ****   *         end-of-conversion. Disable ADC peripheral if no regular conversion
 465:Drivers/STM32F7xx_HAL_Driver/Src/stm32f7xx_hal_adc_ex.c ****   *         is on going.
 466:Drivers/STM32F7xx_HAL_Driver/Src/stm32f7xx_hal_adc_ex.c ****   * @note   If ADC must be disabled and if conversion is on going on 
 467:Drivers/STM32F7xx_HAL_Driver/Src/stm32f7xx_hal_adc_ex.c ****   *         regular group, function HAL_ADC_Stop must be used to stop both
 468:Drivers/STM32F7xx_HAL_Driver/Src/stm32f7xx_hal_adc_ex.c ****   *         injected and regular groups, and disable the ADC.
 469:Drivers/STM32F7xx_HAL_Driver/Src/stm32f7xx_hal_adc_ex.c ****   * @note   If injected group mode auto-injection is enabled,
 470:Drivers/STM32F7xx_HAL_Driver/Src/stm32f7xx_hal_adc_ex.c ****   *         function HAL_ADC_Stop must be used.
 471:Drivers/STM32F7xx_HAL_Driver/Src/stm32f7xx_hal_adc_ex.c ****   * @param  hadc ADC handle
 472:Drivers/STM32F7xx_HAL_Driver/Src/stm32f7xx_hal_adc_ex.c ****   * @retval None
 473:Drivers/STM32F7xx_HAL_Driver/Src/stm32f7xx_hal_adc_ex.c ****   */
 474:Drivers/STM32F7xx_HAL_Driver/Src/stm32f7xx_hal_adc_ex.c **** HAL_StatusTypeDef HAL_ADCEx_InjectedStop_IT(ADC_HandleTypeDef* hadc)
 475:Drivers/STM32F7xx_HAL_Driver/Src/stm32f7xx_hal_adc_ex.c **** {
 476:Drivers/STM32F7xx_HAL_Driver/Src/stm32f7xx_hal_adc_ex.c ****   HAL_StatusTypeDef tmp_hal_status = HAL_OK;
 477:Drivers/STM32F7xx_HAL_Driver/Src/stm32f7xx_hal_adc_ex.c ****   
 478:Drivers/STM32F7xx_HAL_Driver/Src/stm32f7xx_hal_adc_ex.c ****   /* Check the parameters */
 479:Drivers/STM32F7xx_HAL_Driver/Src/stm32f7xx_hal_adc_ex.c ****   assert_param(IS_ADC_ALL_INSTANCE(hadc->Instance));
 480:Drivers/STM32F7xx_HAL_Driver/Src/stm32f7xx_hal_adc_ex.c **** 
 481:Drivers/STM32F7xx_HAL_Driver/Src/stm32f7xx_hal_adc_ex.c ****   /* Process locked */
 482:Drivers/STM32F7xx_HAL_Driver/Src/stm32f7xx_hal_adc_ex.c ****   __HAL_LOCK(hadc);
 483:Drivers/STM32F7xx_HAL_Driver/Src/stm32f7xx_hal_adc_ex.c ****     
 484:Drivers/STM32F7xx_HAL_Driver/Src/stm32f7xx_hal_adc_ex.c ****   /* Stop potential conversion and disable ADC peripheral                     */
 485:Drivers/STM32F7xx_HAL_Driver/Src/stm32f7xx_hal_adc_ex.c ****   /* Conditioned to:                                                          */
 486:Drivers/STM32F7xx_HAL_Driver/Src/stm32f7xx_hal_adc_ex.c ****   /* - No conversion on the other group (regular group) is intended to        */
ARM GAS  C:\Users\GUILLE~1\AppData\Local\Temp\ccXICf5i.s 			page 10


 487:Drivers/STM32F7xx_HAL_Driver/Src/stm32f7xx_hal_adc_ex.c ****   /*   continue (injected and regular groups stop conversion and ADC disable  */
 488:Drivers/STM32F7xx_HAL_Driver/Src/stm32f7xx_hal_adc_ex.c ****   /*   are common)                                                            */
 489:Drivers/STM32F7xx_HAL_Driver/Src/stm32f7xx_hal_adc_ex.c ****   /* - In case of auto-injection mode, HAL_ADC_Stop must be used.             */ 
 490:Drivers/STM32F7xx_HAL_Driver/Src/stm32f7xx_hal_adc_ex.c ****   if(((hadc->State & HAL_ADC_STATE_REG_BUSY) == RESET)  &&
 491:Drivers/STM32F7xx_HAL_Driver/Src/stm32f7xx_hal_adc_ex.c ****      HAL_IS_BIT_CLR(hadc->Instance->CR1, ADC_CR1_JAUTO)   )
 492:Drivers/STM32F7xx_HAL_Driver/Src/stm32f7xx_hal_adc_ex.c ****   {
 493:Drivers/STM32F7xx_HAL_Driver/Src/stm32f7xx_hal_adc_ex.c ****     /* Stop potential conversion on going, on regular and injected groups */
 494:Drivers/STM32F7xx_HAL_Driver/Src/stm32f7xx_hal_adc_ex.c ****     /* Disable ADC peripheral */
 495:Drivers/STM32F7xx_HAL_Driver/Src/stm32f7xx_hal_adc_ex.c ****     __HAL_ADC_DISABLE(hadc);
 496:Drivers/STM32F7xx_HAL_Driver/Src/stm32f7xx_hal_adc_ex.c ****     
 497:Drivers/STM32F7xx_HAL_Driver/Src/stm32f7xx_hal_adc_ex.c ****     /* Check if ADC is effectively disabled */
 498:Drivers/STM32F7xx_HAL_Driver/Src/stm32f7xx_hal_adc_ex.c ****     if(HAL_IS_BIT_CLR(hadc->Instance->CR2, ADC_CR2_ADON))
 499:Drivers/STM32F7xx_HAL_Driver/Src/stm32f7xx_hal_adc_ex.c ****     {
 500:Drivers/STM32F7xx_HAL_Driver/Src/stm32f7xx_hal_adc_ex.c ****       /* Disable ADC end of conversion interrupt for injected channels */
 501:Drivers/STM32F7xx_HAL_Driver/Src/stm32f7xx_hal_adc_ex.c ****       __HAL_ADC_DISABLE_IT(hadc, ADC_IT_JEOC);
 502:Drivers/STM32F7xx_HAL_Driver/Src/stm32f7xx_hal_adc_ex.c ****       
 503:Drivers/STM32F7xx_HAL_Driver/Src/stm32f7xx_hal_adc_ex.c ****       /* Set ADC state */
 504:Drivers/STM32F7xx_HAL_Driver/Src/stm32f7xx_hal_adc_ex.c ****       ADC_STATE_CLR_SET(hadc->State,
 505:Drivers/STM32F7xx_HAL_Driver/Src/stm32f7xx_hal_adc_ex.c ****                         HAL_ADC_STATE_REG_BUSY | HAL_ADC_STATE_INJ_BUSY,
 506:Drivers/STM32F7xx_HAL_Driver/Src/stm32f7xx_hal_adc_ex.c ****                         HAL_ADC_STATE_READY);
 507:Drivers/STM32F7xx_HAL_Driver/Src/stm32f7xx_hal_adc_ex.c ****     }
 508:Drivers/STM32F7xx_HAL_Driver/Src/stm32f7xx_hal_adc_ex.c ****   }
 509:Drivers/STM32F7xx_HAL_Driver/Src/stm32f7xx_hal_adc_ex.c ****   else
 510:Drivers/STM32F7xx_HAL_Driver/Src/stm32f7xx_hal_adc_ex.c ****   {
 511:Drivers/STM32F7xx_HAL_Driver/Src/stm32f7xx_hal_adc_ex.c ****     /* Update ADC state machine to error */
 512:Drivers/STM32F7xx_HAL_Driver/Src/stm32f7xx_hal_adc_ex.c ****     SET_BIT(hadc->State, HAL_ADC_STATE_ERROR_CONFIG);
 513:Drivers/STM32F7xx_HAL_Driver/Src/stm32f7xx_hal_adc_ex.c ****       
 514:Drivers/STM32F7xx_HAL_Driver/Src/stm32f7xx_hal_adc_ex.c ****     tmp_hal_status = HAL_ERROR;
 515:Drivers/STM32F7xx_HAL_Driver/Src/stm32f7xx_hal_adc_ex.c ****   }
 516:Drivers/STM32F7xx_HAL_Driver/Src/stm32f7xx_hal_adc_ex.c ****   
 517:Drivers/STM32F7xx_HAL_Driver/Src/stm32f7xx_hal_adc_ex.c ****   /* Process unlocked */
 518:Drivers/STM32F7xx_HAL_Driver/Src/stm32f7xx_hal_adc_ex.c ****   __HAL_UNLOCK(hadc);
 519:Drivers/STM32F7xx_HAL_Driver/Src/stm32f7xx_hal_adc_ex.c ****   
 520:Drivers/STM32F7xx_HAL_Driver/Src/stm32f7xx_hal_adc_ex.c ****   /* Return function status */
 521:Drivers/STM32F7xx_HAL_Driver/Src/stm32f7xx_hal_adc_ex.c ****   return tmp_hal_status;
 522:Drivers/STM32F7xx_HAL_Driver/Src/stm32f7xx_hal_adc_ex.c **** }
 523:Drivers/STM32F7xx_HAL_Driver/Src/stm32f7xx_hal_adc_ex.c **** 
 524:Drivers/STM32F7xx_HAL_Driver/Src/stm32f7xx_hal_adc_ex.c **** /**
 525:Drivers/STM32F7xx_HAL_Driver/Src/stm32f7xx_hal_adc_ex.c ****   * @brief  Gets the converted value from data register of injected channel.
 526:Drivers/STM32F7xx_HAL_Driver/Src/stm32f7xx_hal_adc_ex.c ****   * @param  hadc pointer to a ADC_HandleTypeDef structure that contains
 527:Drivers/STM32F7xx_HAL_Driver/Src/stm32f7xx_hal_adc_ex.c ****   *         the configuration information for the specified ADC.
 528:Drivers/STM32F7xx_HAL_Driver/Src/stm32f7xx_hal_adc_ex.c ****   * @param  InjectedRank the ADC injected rank.
 529:Drivers/STM32F7xx_HAL_Driver/Src/stm32f7xx_hal_adc_ex.c ****   *          This parameter can be one of the following values:
 530:Drivers/STM32F7xx_HAL_Driver/Src/stm32f7xx_hal_adc_ex.c ****   *            @arg ADC_INJECTED_RANK_1: Injected Channel1 selected
 531:Drivers/STM32F7xx_HAL_Driver/Src/stm32f7xx_hal_adc_ex.c ****   *            @arg ADC_INJECTED_RANK_2: Injected Channel2 selected
 532:Drivers/STM32F7xx_HAL_Driver/Src/stm32f7xx_hal_adc_ex.c ****   *            @arg ADC_INJECTED_RANK_3: Injected Channel3 selected
 533:Drivers/STM32F7xx_HAL_Driver/Src/stm32f7xx_hal_adc_ex.c ****   *            @arg ADC_INJECTED_RANK_4: Injected Channel4 selected
 534:Drivers/STM32F7xx_HAL_Driver/Src/stm32f7xx_hal_adc_ex.c ****   * @retval None
 535:Drivers/STM32F7xx_HAL_Driver/Src/stm32f7xx_hal_adc_ex.c ****   */
 536:Drivers/STM32F7xx_HAL_Driver/Src/stm32f7xx_hal_adc_ex.c **** uint32_t HAL_ADCEx_InjectedGetValue(ADC_HandleTypeDef* hadc, uint32_t InjectedRank)
 537:Drivers/STM32F7xx_HAL_Driver/Src/stm32f7xx_hal_adc_ex.c **** {
 538:Drivers/STM32F7xx_HAL_Driver/Src/stm32f7xx_hal_adc_ex.c ****   __IO uint32_t tmp = 0;
 539:Drivers/STM32F7xx_HAL_Driver/Src/stm32f7xx_hal_adc_ex.c ****   
 540:Drivers/STM32F7xx_HAL_Driver/Src/stm32f7xx_hal_adc_ex.c ****   /* Check the parameters */
 541:Drivers/STM32F7xx_HAL_Driver/Src/stm32f7xx_hal_adc_ex.c ****   assert_param(IS_ADC_INJECTED_RANK(InjectedRank));
 542:Drivers/STM32F7xx_HAL_Driver/Src/stm32f7xx_hal_adc_ex.c ****   
 543:Drivers/STM32F7xx_HAL_Driver/Src/stm32f7xx_hal_adc_ex.c ****   /* Clear injected group conversion flag to have similar behaviour as        */
ARM GAS  C:\Users\GUILLE~1\AppData\Local\Temp\ccXICf5i.s 			page 11


 544:Drivers/STM32F7xx_HAL_Driver/Src/stm32f7xx_hal_adc_ex.c ****   /* regular group: reading data register also clears end of conversion flag. */
 545:Drivers/STM32F7xx_HAL_Driver/Src/stm32f7xx_hal_adc_ex.c ****   __HAL_ADC_CLEAR_FLAG(hadc, ADC_FLAG_JEOC);
 546:Drivers/STM32F7xx_HAL_Driver/Src/stm32f7xx_hal_adc_ex.c ****   
 547:Drivers/STM32F7xx_HAL_Driver/Src/stm32f7xx_hal_adc_ex.c ****   /* Return the selected ADC converted value */ 
 548:Drivers/STM32F7xx_HAL_Driver/Src/stm32f7xx_hal_adc_ex.c ****   switch(InjectedRank)
 549:Drivers/STM32F7xx_HAL_Driver/Src/stm32f7xx_hal_adc_ex.c ****   {  
 550:Drivers/STM32F7xx_HAL_Driver/Src/stm32f7xx_hal_adc_ex.c ****     case ADC_INJECTED_RANK_4:
 551:Drivers/STM32F7xx_HAL_Driver/Src/stm32f7xx_hal_adc_ex.c ****     {
 552:Drivers/STM32F7xx_HAL_Driver/Src/stm32f7xx_hal_adc_ex.c ****       tmp =  hadc->Instance->JDR4;
 553:Drivers/STM32F7xx_HAL_Driver/Src/stm32f7xx_hal_adc_ex.c ****     }  
 554:Drivers/STM32F7xx_HAL_Driver/Src/stm32f7xx_hal_adc_ex.c ****     break;
 555:Drivers/STM32F7xx_HAL_Driver/Src/stm32f7xx_hal_adc_ex.c ****     case ADC_INJECTED_RANK_3: 
 556:Drivers/STM32F7xx_HAL_Driver/Src/stm32f7xx_hal_adc_ex.c ****     {  
 557:Drivers/STM32F7xx_HAL_Driver/Src/stm32f7xx_hal_adc_ex.c ****       tmp =  hadc->Instance->JDR3;
 558:Drivers/STM32F7xx_HAL_Driver/Src/stm32f7xx_hal_adc_ex.c ****     }  
 559:Drivers/STM32F7xx_HAL_Driver/Src/stm32f7xx_hal_adc_ex.c ****     break;
 560:Drivers/STM32F7xx_HAL_Driver/Src/stm32f7xx_hal_adc_ex.c ****     case ADC_INJECTED_RANK_2: 
 561:Drivers/STM32F7xx_HAL_Driver/Src/stm32f7xx_hal_adc_ex.c ****     {  
 562:Drivers/STM32F7xx_HAL_Driver/Src/stm32f7xx_hal_adc_ex.c ****       tmp =  hadc->Instance->JDR2;
 563:Drivers/STM32F7xx_HAL_Driver/Src/stm32f7xx_hal_adc_ex.c ****     }
 564:Drivers/STM32F7xx_HAL_Driver/Src/stm32f7xx_hal_adc_ex.c ****     break;
 565:Drivers/STM32F7xx_HAL_Driver/Src/stm32f7xx_hal_adc_ex.c ****     case ADC_INJECTED_RANK_1:
 566:Drivers/STM32F7xx_HAL_Driver/Src/stm32f7xx_hal_adc_ex.c ****     {
 567:Drivers/STM32F7xx_HAL_Driver/Src/stm32f7xx_hal_adc_ex.c ****       tmp =  hadc->Instance->JDR1;
 568:Drivers/STM32F7xx_HAL_Driver/Src/stm32f7xx_hal_adc_ex.c ****     }
 569:Drivers/STM32F7xx_HAL_Driver/Src/stm32f7xx_hal_adc_ex.c ****     break;
 570:Drivers/STM32F7xx_HAL_Driver/Src/stm32f7xx_hal_adc_ex.c ****     default:
 571:Drivers/STM32F7xx_HAL_Driver/Src/stm32f7xx_hal_adc_ex.c ****     break;  
 572:Drivers/STM32F7xx_HAL_Driver/Src/stm32f7xx_hal_adc_ex.c ****   }
 573:Drivers/STM32F7xx_HAL_Driver/Src/stm32f7xx_hal_adc_ex.c ****   return tmp;
 574:Drivers/STM32F7xx_HAL_Driver/Src/stm32f7xx_hal_adc_ex.c **** }
 575:Drivers/STM32F7xx_HAL_Driver/Src/stm32f7xx_hal_adc_ex.c **** 
 576:Drivers/STM32F7xx_HAL_Driver/Src/stm32f7xx_hal_adc_ex.c **** /**
 577:Drivers/STM32F7xx_HAL_Driver/Src/stm32f7xx_hal_adc_ex.c ****   * @brief  Enables ADC DMA request after last transfer (Multi-ADC mode) and enables ADC peripheral
 578:Drivers/STM32F7xx_HAL_Driver/Src/stm32f7xx_hal_adc_ex.c ****   * 
 579:Drivers/STM32F7xx_HAL_Driver/Src/stm32f7xx_hal_adc_ex.c ****   * @note   Caution: This function must be used only with the ADC master.  
 580:Drivers/STM32F7xx_HAL_Driver/Src/stm32f7xx_hal_adc_ex.c ****   *
 581:Drivers/STM32F7xx_HAL_Driver/Src/stm32f7xx_hal_adc_ex.c ****   * @param  hadc pointer to a ADC_HandleTypeDef structure that contains
 582:Drivers/STM32F7xx_HAL_Driver/Src/stm32f7xx_hal_adc_ex.c ****   *         the configuration information for the specified ADC.
 583:Drivers/STM32F7xx_HAL_Driver/Src/stm32f7xx_hal_adc_ex.c ****   * @param  pData   Pointer to buffer in which transferred from ADC peripheral to memory will be st
 584:Drivers/STM32F7xx_HAL_Driver/Src/stm32f7xx_hal_adc_ex.c ****   * @param  Length  The length of data to be transferred from ADC peripheral to memory.  
 585:Drivers/STM32F7xx_HAL_Driver/Src/stm32f7xx_hal_adc_ex.c ****   * @retval HAL status
 586:Drivers/STM32F7xx_HAL_Driver/Src/stm32f7xx_hal_adc_ex.c ****   */
 587:Drivers/STM32F7xx_HAL_Driver/Src/stm32f7xx_hal_adc_ex.c **** HAL_StatusTypeDef HAL_ADCEx_MultiModeStart_DMA(ADC_HandleTypeDef* hadc, uint32_t* pData, uint32_t L
 588:Drivers/STM32F7xx_HAL_Driver/Src/stm32f7xx_hal_adc_ex.c **** {
 589:Drivers/STM32F7xx_HAL_Driver/Src/stm32f7xx_hal_adc_ex.c ****   __IO uint32_t counter = 0;
 590:Drivers/STM32F7xx_HAL_Driver/Src/stm32f7xx_hal_adc_ex.c ****   
 591:Drivers/STM32F7xx_HAL_Driver/Src/stm32f7xx_hal_adc_ex.c ****   /* Check the parameters */
 592:Drivers/STM32F7xx_HAL_Driver/Src/stm32f7xx_hal_adc_ex.c ****   assert_param(IS_FUNCTIONAL_STATE(hadc->Init.ContinuousConvMode));
 593:Drivers/STM32F7xx_HAL_Driver/Src/stm32f7xx_hal_adc_ex.c ****   assert_param(IS_ADC_EXT_TRIG_EDGE(hadc->Init.ExternalTrigConvEdge));
 594:Drivers/STM32F7xx_HAL_Driver/Src/stm32f7xx_hal_adc_ex.c ****   assert_param(IS_FUNCTIONAL_STATE(hadc->Init.DMAContinuousRequests));
 595:Drivers/STM32F7xx_HAL_Driver/Src/stm32f7xx_hal_adc_ex.c ****   
 596:Drivers/STM32F7xx_HAL_Driver/Src/stm32f7xx_hal_adc_ex.c ****   /* Process locked */
 597:Drivers/STM32F7xx_HAL_Driver/Src/stm32f7xx_hal_adc_ex.c ****   __HAL_LOCK(hadc);
 598:Drivers/STM32F7xx_HAL_Driver/Src/stm32f7xx_hal_adc_ex.c ****   
 599:Drivers/STM32F7xx_HAL_Driver/Src/stm32f7xx_hal_adc_ex.c ****   /* Check if ADC peripheral is disabled in order to enable it and wait during 
 600:Drivers/STM32F7xx_HAL_Driver/Src/stm32f7xx_hal_adc_ex.c ****      Tstab time the ADC's stabilization */
ARM GAS  C:\Users\GUILLE~1\AppData\Local\Temp\ccXICf5i.s 			page 12


 601:Drivers/STM32F7xx_HAL_Driver/Src/stm32f7xx_hal_adc_ex.c ****   if((hadc->Instance->CR2 & ADC_CR2_ADON) != ADC_CR2_ADON)
 602:Drivers/STM32F7xx_HAL_Driver/Src/stm32f7xx_hal_adc_ex.c ****   {  
 603:Drivers/STM32F7xx_HAL_Driver/Src/stm32f7xx_hal_adc_ex.c ****     /* Enable the Peripheral */
 604:Drivers/STM32F7xx_HAL_Driver/Src/stm32f7xx_hal_adc_ex.c ****     __HAL_ADC_ENABLE(hadc);
 605:Drivers/STM32F7xx_HAL_Driver/Src/stm32f7xx_hal_adc_ex.c ****     
 606:Drivers/STM32F7xx_HAL_Driver/Src/stm32f7xx_hal_adc_ex.c ****     /* Delay for temperature sensor stabilization time */
 607:Drivers/STM32F7xx_HAL_Driver/Src/stm32f7xx_hal_adc_ex.c ****     /* Compute number of CPU cycles to wait for */
 608:Drivers/STM32F7xx_HAL_Driver/Src/stm32f7xx_hal_adc_ex.c ****     counter = (ADC_STAB_DELAY_US * (SystemCoreClock / 1000000));
 609:Drivers/STM32F7xx_HAL_Driver/Src/stm32f7xx_hal_adc_ex.c ****     while(counter != 0)
 610:Drivers/STM32F7xx_HAL_Driver/Src/stm32f7xx_hal_adc_ex.c ****     {
 611:Drivers/STM32F7xx_HAL_Driver/Src/stm32f7xx_hal_adc_ex.c ****       counter--;
 612:Drivers/STM32F7xx_HAL_Driver/Src/stm32f7xx_hal_adc_ex.c ****     }
 613:Drivers/STM32F7xx_HAL_Driver/Src/stm32f7xx_hal_adc_ex.c ****   }
 614:Drivers/STM32F7xx_HAL_Driver/Src/stm32f7xx_hal_adc_ex.c ****   
 615:Drivers/STM32F7xx_HAL_Driver/Src/stm32f7xx_hal_adc_ex.c ****   /* Start conversion if ADC is effectively enabled */
 616:Drivers/STM32F7xx_HAL_Driver/Src/stm32f7xx_hal_adc_ex.c ****   if(HAL_IS_BIT_SET(hadc->Instance->CR2, ADC_CR2_ADON))
 617:Drivers/STM32F7xx_HAL_Driver/Src/stm32f7xx_hal_adc_ex.c ****   {
 618:Drivers/STM32F7xx_HAL_Driver/Src/stm32f7xx_hal_adc_ex.c ****     /* Set ADC state                                                          */
 619:Drivers/STM32F7xx_HAL_Driver/Src/stm32f7xx_hal_adc_ex.c ****     /* - Clear state bitfield related to regular group conversion results     */
 620:Drivers/STM32F7xx_HAL_Driver/Src/stm32f7xx_hal_adc_ex.c ****     /* - Set state bitfield related to regular group operation                */
 621:Drivers/STM32F7xx_HAL_Driver/Src/stm32f7xx_hal_adc_ex.c ****     ADC_STATE_CLR_SET(hadc->State,
 622:Drivers/STM32F7xx_HAL_Driver/Src/stm32f7xx_hal_adc_ex.c ****                       HAL_ADC_STATE_READY | HAL_ADC_STATE_REG_EOC | HAL_ADC_STATE_REG_OVR,
 623:Drivers/STM32F7xx_HAL_Driver/Src/stm32f7xx_hal_adc_ex.c ****                       HAL_ADC_STATE_REG_BUSY);
 624:Drivers/STM32F7xx_HAL_Driver/Src/stm32f7xx_hal_adc_ex.c ****     
 625:Drivers/STM32F7xx_HAL_Driver/Src/stm32f7xx_hal_adc_ex.c ****     /* If conversions on group regular are also triggering group injected,    */
 626:Drivers/STM32F7xx_HAL_Driver/Src/stm32f7xx_hal_adc_ex.c ****     /* update ADC state.                                                      */
 627:Drivers/STM32F7xx_HAL_Driver/Src/stm32f7xx_hal_adc_ex.c ****     if (READ_BIT(hadc->Instance->CR1, ADC_CR1_JAUTO) != RESET)
 628:Drivers/STM32F7xx_HAL_Driver/Src/stm32f7xx_hal_adc_ex.c ****     {
 629:Drivers/STM32F7xx_HAL_Driver/Src/stm32f7xx_hal_adc_ex.c ****       ADC_STATE_CLR_SET(hadc->State, HAL_ADC_STATE_INJ_EOC, HAL_ADC_STATE_INJ_BUSY);  
 630:Drivers/STM32F7xx_HAL_Driver/Src/stm32f7xx_hal_adc_ex.c ****     }
 631:Drivers/STM32F7xx_HAL_Driver/Src/stm32f7xx_hal_adc_ex.c ****     
 632:Drivers/STM32F7xx_HAL_Driver/Src/stm32f7xx_hal_adc_ex.c ****     /* State machine update: Check if an injected conversion is ongoing */
 633:Drivers/STM32F7xx_HAL_Driver/Src/stm32f7xx_hal_adc_ex.c ****     if (HAL_IS_BIT_SET(hadc->State, HAL_ADC_STATE_INJ_BUSY))
 634:Drivers/STM32F7xx_HAL_Driver/Src/stm32f7xx_hal_adc_ex.c ****     {
 635:Drivers/STM32F7xx_HAL_Driver/Src/stm32f7xx_hal_adc_ex.c ****       /* Reset ADC error code fields related to conversions on group regular */
 636:Drivers/STM32F7xx_HAL_Driver/Src/stm32f7xx_hal_adc_ex.c ****       CLEAR_BIT(hadc->ErrorCode, (HAL_ADC_ERROR_OVR | HAL_ADC_ERROR_DMA));         
 637:Drivers/STM32F7xx_HAL_Driver/Src/stm32f7xx_hal_adc_ex.c ****     }
 638:Drivers/STM32F7xx_HAL_Driver/Src/stm32f7xx_hal_adc_ex.c ****     else
 639:Drivers/STM32F7xx_HAL_Driver/Src/stm32f7xx_hal_adc_ex.c ****     {
 640:Drivers/STM32F7xx_HAL_Driver/Src/stm32f7xx_hal_adc_ex.c ****       /* Reset ADC all error code fields */
 641:Drivers/STM32F7xx_HAL_Driver/Src/stm32f7xx_hal_adc_ex.c ****       ADC_CLEAR_ERRORCODE(hadc);
 642:Drivers/STM32F7xx_HAL_Driver/Src/stm32f7xx_hal_adc_ex.c ****     }
 643:Drivers/STM32F7xx_HAL_Driver/Src/stm32f7xx_hal_adc_ex.c ****     
 644:Drivers/STM32F7xx_HAL_Driver/Src/stm32f7xx_hal_adc_ex.c ****     /* Process unlocked */
 645:Drivers/STM32F7xx_HAL_Driver/Src/stm32f7xx_hal_adc_ex.c ****     /* Unlock before starting ADC conversions: in case of potential           */
 646:Drivers/STM32F7xx_HAL_Driver/Src/stm32f7xx_hal_adc_ex.c ****     /* interruption, to let the process to ADC IRQ Handler.                   */
 647:Drivers/STM32F7xx_HAL_Driver/Src/stm32f7xx_hal_adc_ex.c ****     __HAL_UNLOCK(hadc);
 648:Drivers/STM32F7xx_HAL_Driver/Src/stm32f7xx_hal_adc_ex.c ****     
 649:Drivers/STM32F7xx_HAL_Driver/Src/stm32f7xx_hal_adc_ex.c ****     /* Set the DMA transfer complete callback */
 650:Drivers/STM32F7xx_HAL_Driver/Src/stm32f7xx_hal_adc_ex.c ****     hadc->DMA_Handle->XferCpltCallback = ADC_MultiModeDMAConvCplt;
 651:Drivers/STM32F7xx_HAL_Driver/Src/stm32f7xx_hal_adc_ex.c ****     
 652:Drivers/STM32F7xx_HAL_Driver/Src/stm32f7xx_hal_adc_ex.c ****     /* Set the DMA half transfer complete callback */
 653:Drivers/STM32F7xx_HAL_Driver/Src/stm32f7xx_hal_adc_ex.c ****     hadc->DMA_Handle->XferHalfCpltCallback = ADC_MultiModeDMAHalfConvCplt;
 654:Drivers/STM32F7xx_HAL_Driver/Src/stm32f7xx_hal_adc_ex.c ****     
 655:Drivers/STM32F7xx_HAL_Driver/Src/stm32f7xx_hal_adc_ex.c ****     /* Set the DMA error callback */
 656:Drivers/STM32F7xx_HAL_Driver/Src/stm32f7xx_hal_adc_ex.c ****     hadc->DMA_Handle->XferErrorCallback = ADC_MultiModeDMAError ;
 657:Drivers/STM32F7xx_HAL_Driver/Src/stm32f7xx_hal_adc_ex.c ****     
ARM GAS  C:\Users\GUILLE~1\AppData\Local\Temp\ccXICf5i.s 			page 13


 658:Drivers/STM32F7xx_HAL_Driver/Src/stm32f7xx_hal_adc_ex.c ****     /* Manage ADC and DMA start: ADC overrun interruption, DMA start, ADC     */
 659:Drivers/STM32F7xx_HAL_Driver/Src/stm32f7xx_hal_adc_ex.c ****     /* start (in case of SW start):                                           */
 660:Drivers/STM32F7xx_HAL_Driver/Src/stm32f7xx_hal_adc_ex.c ****     
 661:Drivers/STM32F7xx_HAL_Driver/Src/stm32f7xx_hal_adc_ex.c ****     /* Clear regular group conversion flag and overrun flag */
 662:Drivers/STM32F7xx_HAL_Driver/Src/stm32f7xx_hal_adc_ex.c ****     /* (To ensure of no unknown state from potential previous ADC operations) */
 663:Drivers/STM32F7xx_HAL_Driver/Src/stm32f7xx_hal_adc_ex.c ****     __HAL_ADC_CLEAR_FLAG(hadc, ADC_FLAG_EOC);
 664:Drivers/STM32F7xx_HAL_Driver/Src/stm32f7xx_hal_adc_ex.c **** 
 665:Drivers/STM32F7xx_HAL_Driver/Src/stm32f7xx_hal_adc_ex.c ****     /* Enable ADC overrun interrupt */
 666:Drivers/STM32F7xx_HAL_Driver/Src/stm32f7xx_hal_adc_ex.c ****     __HAL_ADC_ENABLE_IT(hadc, ADC_IT_OVR);
 667:Drivers/STM32F7xx_HAL_Driver/Src/stm32f7xx_hal_adc_ex.c ****     
 668:Drivers/STM32F7xx_HAL_Driver/Src/stm32f7xx_hal_adc_ex.c ****     if (hadc->Init.DMAContinuousRequests != DISABLE)
 669:Drivers/STM32F7xx_HAL_Driver/Src/stm32f7xx_hal_adc_ex.c ****     {
 670:Drivers/STM32F7xx_HAL_Driver/Src/stm32f7xx_hal_adc_ex.c ****       /* Enable the selected ADC DMA request after last transfer */
 671:Drivers/STM32F7xx_HAL_Driver/Src/stm32f7xx_hal_adc_ex.c ****       ADC->CCR |= ADC_CCR_DDS;
 672:Drivers/STM32F7xx_HAL_Driver/Src/stm32f7xx_hal_adc_ex.c ****     }
 673:Drivers/STM32F7xx_HAL_Driver/Src/stm32f7xx_hal_adc_ex.c ****     else
 674:Drivers/STM32F7xx_HAL_Driver/Src/stm32f7xx_hal_adc_ex.c ****     {
 675:Drivers/STM32F7xx_HAL_Driver/Src/stm32f7xx_hal_adc_ex.c ****       /* Disable the selected ADC EOC rising on each regular channel conversion */
 676:Drivers/STM32F7xx_HAL_Driver/Src/stm32f7xx_hal_adc_ex.c ****       ADC->CCR &= ~ADC_CCR_DDS;
 677:Drivers/STM32F7xx_HAL_Driver/Src/stm32f7xx_hal_adc_ex.c ****     }
 678:Drivers/STM32F7xx_HAL_Driver/Src/stm32f7xx_hal_adc_ex.c ****     
 679:Drivers/STM32F7xx_HAL_Driver/Src/stm32f7xx_hal_adc_ex.c ****     /* Enable the DMA Stream */
 680:Drivers/STM32F7xx_HAL_Driver/Src/stm32f7xx_hal_adc_ex.c ****     HAL_DMA_Start_IT(hadc->DMA_Handle, (uint32_t)&ADC->CDR, (uint32_t)pData, Length);
 681:Drivers/STM32F7xx_HAL_Driver/Src/stm32f7xx_hal_adc_ex.c ****     
 682:Drivers/STM32F7xx_HAL_Driver/Src/stm32f7xx_hal_adc_ex.c ****     /* if no external trigger present enable software conversion of regular channels */
 683:Drivers/STM32F7xx_HAL_Driver/Src/stm32f7xx_hal_adc_ex.c ****     if((hadc->Instance->CR2 & ADC_CR2_EXTEN) == RESET) 
 684:Drivers/STM32F7xx_HAL_Driver/Src/stm32f7xx_hal_adc_ex.c ****     {
 685:Drivers/STM32F7xx_HAL_Driver/Src/stm32f7xx_hal_adc_ex.c ****       /* Enable the selected ADC software conversion for regular group */
 686:Drivers/STM32F7xx_HAL_Driver/Src/stm32f7xx_hal_adc_ex.c ****       hadc->Instance->CR2 |= (uint32_t)ADC_CR2_SWSTART;
 687:Drivers/STM32F7xx_HAL_Driver/Src/stm32f7xx_hal_adc_ex.c ****     }
 688:Drivers/STM32F7xx_HAL_Driver/Src/stm32f7xx_hal_adc_ex.c ****   }
 689:Drivers/STM32F7xx_HAL_Driver/Src/stm32f7xx_hal_adc_ex.c ****   else
 690:Drivers/STM32F7xx_HAL_Driver/Src/stm32f7xx_hal_adc_ex.c ****   {
 691:Drivers/STM32F7xx_HAL_Driver/Src/stm32f7xx_hal_adc_ex.c ****     /* Update ADC state machine to error */
 692:Drivers/STM32F7xx_HAL_Driver/Src/stm32f7xx_hal_adc_ex.c ****     SET_BIT(hadc->State, HAL_ADC_STATE_ERROR_INTERNAL);
 693:Drivers/STM32F7xx_HAL_Driver/Src/stm32f7xx_hal_adc_ex.c ****     
 694:Drivers/STM32F7xx_HAL_Driver/Src/stm32f7xx_hal_adc_ex.c ****     /* Set ADC error code to ADC IP internal error */
 695:Drivers/STM32F7xx_HAL_Driver/Src/stm32f7xx_hal_adc_ex.c ****     SET_BIT(hadc->ErrorCode, HAL_ADC_ERROR_INTERNAL);
 696:Drivers/STM32F7xx_HAL_Driver/Src/stm32f7xx_hal_adc_ex.c ****   }
 697:Drivers/STM32F7xx_HAL_Driver/Src/stm32f7xx_hal_adc_ex.c ****   
 698:Drivers/STM32F7xx_HAL_Driver/Src/stm32f7xx_hal_adc_ex.c ****   /* Return function status */
 699:Drivers/STM32F7xx_HAL_Driver/Src/stm32f7xx_hal_adc_ex.c ****   return HAL_OK;
 700:Drivers/STM32F7xx_HAL_Driver/Src/stm32f7xx_hal_adc_ex.c **** }
 701:Drivers/STM32F7xx_HAL_Driver/Src/stm32f7xx_hal_adc_ex.c **** 
 702:Drivers/STM32F7xx_HAL_Driver/Src/stm32f7xx_hal_adc_ex.c **** /**
 703:Drivers/STM32F7xx_HAL_Driver/Src/stm32f7xx_hal_adc_ex.c ****   * @brief  Disables ADC DMA (multi-ADC mode) and disables ADC peripheral    
 704:Drivers/STM32F7xx_HAL_Driver/Src/stm32f7xx_hal_adc_ex.c ****   * @param  hadc pointer to a ADC_HandleTypeDef structure that contains
 705:Drivers/STM32F7xx_HAL_Driver/Src/stm32f7xx_hal_adc_ex.c ****   *         the configuration information for the specified ADC.
 706:Drivers/STM32F7xx_HAL_Driver/Src/stm32f7xx_hal_adc_ex.c ****   * @retval HAL status
 707:Drivers/STM32F7xx_HAL_Driver/Src/stm32f7xx_hal_adc_ex.c ****   */
 708:Drivers/STM32F7xx_HAL_Driver/Src/stm32f7xx_hal_adc_ex.c **** HAL_StatusTypeDef HAL_ADCEx_MultiModeStop_DMA(ADC_HandleTypeDef* hadc)
 709:Drivers/STM32F7xx_HAL_Driver/Src/stm32f7xx_hal_adc_ex.c **** {
 710:Drivers/STM32F7xx_HAL_Driver/Src/stm32f7xx_hal_adc_ex.c ****   HAL_StatusTypeDef tmp_hal_status = HAL_OK;
 711:Drivers/STM32F7xx_HAL_Driver/Src/stm32f7xx_hal_adc_ex.c ****   
 712:Drivers/STM32F7xx_HAL_Driver/Src/stm32f7xx_hal_adc_ex.c ****   /* Check the parameters */
 713:Drivers/STM32F7xx_HAL_Driver/Src/stm32f7xx_hal_adc_ex.c ****   assert_param(IS_ADC_ALL_INSTANCE(hadc->Instance));
 714:Drivers/STM32F7xx_HAL_Driver/Src/stm32f7xx_hal_adc_ex.c ****   
ARM GAS  C:\Users\GUILLE~1\AppData\Local\Temp\ccXICf5i.s 			page 14


 715:Drivers/STM32F7xx_HAL_Driver/Src/stm32f7xx_hal_adc_ex.c ****   /* Process locked */
 716:Drivers/STM32F7xx_HAL_Driver/Src/stm32f7xx_hal_adc_ex.c ****   __HAL_LOCK(hadc);
 717:Drivers/STM32F7xx_HAL_Driver/Src/stm32f7xx_hal_adc_ex.c ****   
 718:Drivers/STM32F7xx_HAL_Driver/Src/stm32f7xx_hal_adc_ex.c ****   /* Stop potential conversion on going, on regular and injected groups */
 719:Drivers/STM32F7xx_HAL_Driver/Src/stm32f7xx_hal_adc_ex.c ****   /* Disable ADC peripheral */
 720:Drivers/STM32F7xx_HAL_Driver/Src/stm32f7xx_hal_adc_ex.c ****   __HAL_ADC_DISABLE(hadc);
 721:Drivers/STM32F7xx_HAL_Driver/Src/stm32f7xx_hal_adc_ex.c ****   
 722:Drivers/STM32F7xx_HAL_Driver/Src/stm32f7xx_hal_adc_ex.c ****   /* Check if ADC is effectively disabled */
 723:Drivers/STM32F7xx_HAL_Driver/Src/stm32f7xx_hal_adc_ex.c ****   if(HAL_IS_BIT_CLR(hadc->Instance->CR2, ADC_CR2_ADON))
 724:Drivers/STM32F7xx_HAL_Driver/Src/stm32f7xx_hal_adc_ex.c ****   {
 725:Drivers/STM32F7xx_HAL_Driver/Src/stm32f7xx_hal_adc_ex.c ****     /* Disable the selected ADC DMA mode for multimode */
 726:Drivers/STM32F7xx_HAL_Driver/Src/stm32f7xx_hal_adc_ex.c ****     ADC->CCR &= ~ADC_CCR_DDS;
 727:Drivers/STM32F7xx_HAL_Driver/Src/stm32f7xx_hal_adc_ex.c ****     
 728:Drivers/STM32F7xx_HAL_Driver/Src/stm32f7xx_hal_adc_ex.c ****     /* Disable the DMA channel (in case of DMA in circular mode or stop while */
 729:Drivers/STM32F7xx_HAL_Driver/Src/stm32f7xx_hal_adc_ex.c ****     /* DMA transfer is on going)                                              */
 730:Drivers/STM32F7xx_HAL_Driver/Src/stm32f7xx_hal_adc_ex.c ****     tmp_hal_status = HAL_DMA_Abort(hadc->DMA_Handle);
 731:Drivers/STM32F7xx_HAL_Driver/Src/stm32f7xx_hal_adc_ex.c ****     
 732:Drivers/STM32F7xx_HAL_Driver/Src/stm32f7xx_hal_adc_ex.c ****     /* Disable ADC overrun interrupt */
 733:Drivers/STM32F7xx_HAL_Driver/Src/stm32f7xx_hal_adc_ex.c ****     __HAL_ADC_DISABLE_IT(hadc, ADC_IT_OVR);
 734:Drivers/STM32F7xx_HAL_Driver/Src/stm32f7xx_hal_adc_ex.c ****     
 735:Drivers/STM32F7xx_HAL_Driver/Src/stm32f7xx_hal_adc_ex.c ****     /* Set ADC state */
 736:Drivers/STM32F7xx_HAL_Driver/Src/stm32f7xx_hal_adc_ex.c ****     ADC_STATE_CLR_SET(hadc->State,
 737:Drivers/STM32F7xx_HAL_Driver/Src/stm32f7xx_hal_adc_ex.c ****                       HAL_ADC_STATE_REG_BUSY | HAL_ADC_STATE_INJ_BUSY,
 738:Drivers/STM32F7xx_HAL_Driver/Src/stm32f7xx_hal_adc_ex.c ****                       HAL_ADC_STATE_READY);
 739:Drivers/STM32F7xx_HAL_Driver/Src/stm32f7xx_hal_adc_ex.c ****   }
 740:Drivers/STM32F7xx_HAL_Driver/Src/stm32f7xx_hal_adc_ex.c ****   
 741:Drivers/STM32F7xx_HAL_Driver/Src/stm32f7xx_hal_adc_ex.c ****   /* Process unlocked */
 742:Drivers/STM32F7xx_HAL_Driver/Src/stm32f7xx_hal_adc_ex.c ****   __HAL_UNLOCK(hadc);
 743:Drivers/STM32F7xx_HAL_Driver/Src/stm32f7xx_hal_adc_ex.c ****   
 744:Drivers/STM32F7xx_HAL_Driver/Src/stm32f7xx_hal_adc_ex.c ****   /* Return function status */
 745:Drivers/STM32F7xx_HAL_Driver/Src/stm32f7xx_hal_adc_ex.c ****   return tmp_hal_status;
 746:Drivers/STM32F7xx_HAL_Driver/Src/stm32f7xx_hal_adc_ex.c **** }
 747:Drivers/STM32F7xx_HAL_Driver/Src/stm32f7xx_hal_adc_ex.c **** 
 748:Drivers/STM32F7xx_HAL_Driver/Src/stm32f7xx_hal_adc_ex.c **** /**
 749:Drivers/STM32F7xx_HAL_Driver/Src/stm32f7xx_hal_adc_ex.c ****   * @brief  Returns the last ADC1, ADC2 and ADC3 regular conversions results 
 750:Drivers/STM32F7xx_HAL_Driver/Src/stm32f7xx_hal_adc_ex.c ****   *         data in the selected multi mode.
 751:Drivers/STM32F7xx_HAL_Driver/Src/stm32f7xx_hal_adc_ex.c ****   * @param  hadc pointer to a ADC_HandleTypeDef structure that contains
 752:Drivers/STM32F7xx_HAL_Driver/Src/stm32f7xx_hal_adc_ex.c ****   *         the configuration information for the specified ADC.
 753:Drivers/STM32F7xx_HAL_Driver/Src/stm32f7xx_hal_adc_ex.c ****   * @retval The converted data value.
 754:Drivers/STM32F7xx_HAL_Driver/Src/stm32f7xx_hal_adc_ex.c ****   */
 755:Drivers/STM32F7xx_HAL_Driver/Src/stm32f7xx_hal_adc_ex.c **** uint32_t HAL_ADCEx_MultiModeGetValue(ADC_HandleTypeDef* hadc)
 756:Drivers/STM32F7xx_HAL_Driver/Src/stm32f7xx_hal_adc_ex.c **** {
 757:Drivers/STM32F7xx_HAL_Driver/Src/stm32f7xx_hal_adc_ex.c ****   /* Return the multi mode conversion value */
 758:Drivers/STM32F7xx_HAL_Driver/Src/stm32f7xx_hal_adc_ex.c ****   return ADC->CDR;
 759:Drivers/STM32F7xx_HAL_Driver/Src/stm32f7xx_hal_adc_ex.c **** }
 760:Drivers/STM32F7xx_HAL_Driver/Src/stm32f7xx_hal_adc_ex.c **** 
 761:Drivers/STM32F7xx_HAL_Driver/Src/stm32f7xx_hal_adc_ex.c **** /**
 762:Drivers/STM32F7xx_HAL_Driver/Src/stm32f7xx_hal_adc_ex.c ****   * @brief  Injected conversion complete callback in non blocking mode 
 763:Drivers/STM32F7xx_HAL_Driver/Src/stm32f7xx_hal_adc_ex.c ****   * @param  hadc pointer to a ADC_HandleTypeDef structure that contains
 764:Drivers/STM32F7xx_HAL_Driver/Src/stm32f7xx_hal_adc_ex.c ****   *         the configuration information for the specified ADC.
 765:Drivers/STM32F7xx_HAL_Driver/Src/stm32f7xx_hal_adc_ex.c ****   * @retval None
 766:Drivers/STM32F7xx_HAL_Driver/Src/stm32f7xx_hal_adc_ex.c ****   */
 767:Drivers/STM32F7xx_HAL_Driver/Src/stm32f7xx_hal_adc_ex.c **** __weak void HAL_ADCEx_InjectedConvCpltCallback(ADC_HandleTypeDef* hadc)
 768:Drivers/STM32F7xx_HAL_Driver/Src/stm32f7xx_hal_adc_ex.c **** {
 769:Drivers/STM32F7xx_HAL_Driver/Src/stm32f7xx_hal_adc_ex.c ****   /* Prevent unused argument(s) compilation warning */
 770:Drivers/STM32F7xx_HAL_Driver/Src/stm32f7xx_hal_adc_ex.c ****   UNUSED(hadc);
 771:Drivers/STM32F7xx_HAL_Driver/Src/stm32f7xx_hal_adc_ex.c ****   /* NOTE : This function Should not be modified, when the callback is needed,
ARM GAS  C:\Users\GUILLE~1\AppData\Local\Temp\ccXICf5i.s 			page 15


 772:Drivers/STM32F7xx_HAL_Driver/Src/stm32f7xx_hal_adc_ex.c ****             the HAL_ADC_InjectedConvCpltCallback could be implemented in the user file
 773:Drivers/STM32F7xx_HAL_Driver/Src/stm32f7xx_hal_adc_ex.c ****    */
 774:Drivers/STM32F7xx_HAL_Driver/Src/stm32f7xx_hal_adc_ex.c **** }
 775:Drivers/STM32F7xx_HAL_Driver/Src/stm32f7xx_hal_adc_ex.c **** 
 776:Drivers/STM32F7xx_HAL_Driver/Src/stm32f7xx_hal_adc_ex.c **** /**
 777:Drivers/STM32F7xx_HAL_Driver/Src/stm32f7xx_hal_adc_ex.c ****   * @brief  Configures for the selected ADC injected channel its corresponding
 778:Drivers/STM32F7xx_HAL_Driver/Src/stm32f7xx_hal_adc_ex.c ****   *         rank in the sequencer and its sample time.
 779:Drivers/STM32F7xx_HAL_Driver/Src/stm32f7xx_hal_adc_ex.c ****   * @param  hadc pointer to a ADC_HandleTypeDef structure that contains
 780:Drivers/STM32F7xx_HAL_Driver/Src/stm32f7xx_hal_adc_ex.c ****   *         the configuration information for the specified ADC.
 781:Drivers/STM32F7xx_HAL_Driver/Src/stm32f7xx_hal_adc_ex.c ****   * @param  sConfigInjected ADC configuration structure for injected channel. 
 782:Drivers/STM32F7xx_HAL_Driver/Src/stm32f7xx_hal_adc_ex.c ****   * @retval None
 783:Drivers/STM32F7xx_HAL_Driver/Src/stm32f7xx_hal_adc_ex.c ****   */
 784:Drivers/STM32F7xx_HAL_Driver/Src/stm32f7xx_hal_adc_ex.c **** HAL_StatusTypeDef HAL_ADCEx_InjectedConfigChannel(ADC_HandleTypeDef* hadc, ADC_InjectionConfTypeDef
 785:Drivers/STM32F7xx_HAL_Driver/Src/stm32f7xx_hal_adc_ex.c **** {
 786:Drivers/STM32F7xx_HAL_Driver/Src/stm32f7xx_hal_adc_ex.c ****   
 787:Drivers/STM32F7xx_HAL_Driver/Src/stm32f7xx_hal_adc_ex.c **** #ifdef USE_FULL_ASSERT  
 788:Drivers/STM32F7xx_HAL_Driver/Src/stm32f7xx_hal_adc_ex.c ****   uint32_t tmp = 0;
 789:Drivers/STM32F7xx_HAL_Driver/Src/stm32f7xx_hal_adc_ex.c **** #endif /* USE_FULL_ASSERT  */
 790:Drivers/STM32F7xx_HAL_Driver/Src/stm32f7xx_hal_adc_ex.c ****   
 791:Drivers/STM32F7xx_HAL_Driver/Src/stm32f7xx_hal_adc_ex.c ****   /* Check the parameters */
 792:Drivers/STM32F7xx_HAL_Driver/Src/stm32f7xx_hal_adc_ex.c ****   assert_param(IS_ADC_CHANNEL(sConfigInjected->InjectedChannel));
 793:Drivers/STM32F7xx_HAL_Driver/Src/stm32f7xx_hal_adc_ex.c ****   assert_param(IS_ADC_INJECTED_RANK(sConfigInjected->InjectedRank));
 794:Drivers/STM32F7xx_HAL_Driver/Src/stm32f7xx_hal_adc_ex.c ****   assert_param(IS_ADC_SAMPLE_TIME(sConfigInjected->InjectedSamplingTime));
 795:Drivers/STM32F7xx_HAL_Driver/Src/stm32f7xx_hal_adc_ex.c ****   assert_param(IS_ADC_EXT_INJEC_TRIG(sConfigInjected->ExternalTrigInjecConv));
 796:Drivers/STM32F7xx_HAL_Driver/Src/stm32f7xx_hal_adc_ex.c ****   assert_param(IS_ADC_INJECTED_LENGTH(sConfigInjected->InjectedNbrOfConversion));
 797:Drivers/STM32F7xx_HAL_Driver/Src/stm32f7xx_hal_adc_ex.c ****   assert_param(IS_FUNCTIONAL_STATE(sConfigInjected->AutoInjectedConv));
 798:Drivers/STM32F7xx_HAL_Driver/Src/stm32f7xx_hal_adc_ex.c ****   assert_param(IS_FUNCTIONAL_STATE(sConfigInjected->InjectedDiscontinuousConvMode));
 799:Drivers/STM32F7xx_HAL_Driver/Src/stm32f7xx_hal_adc_ex.c **** 
 800:Drivers/STM32F7xx_HAL_Driver/Src/stm32f7xx_hal_adc_ex.c **** #ifdef USE_FULL_ASSERT
 801:Drivers/STM32F7xx_HAL_Driver/Src/stm32f7xx_hal_adc_ex.c ****   tmp = ADC_GET_RESOLUTION(hadc);
 802:Drivers/STM32F7xx_HAL_Driver/Src/stm32f7xx_hal_adc_ex.c ****   assert_param(IS_ADC_RANGE(tmp, sConfigInjected->InjectedOffset));
 803:Drivers/STM32F7xx_HAL_Driver/Src/stm32f7xx_hal_adc_ex.c **** #endif /* USE_FULL_ASSERT  */
 804:Drivers/STM32F7xx_HAL_Driver/Src/stm32f7xx_hal_adc_ex.c **** 
 805:Drivers/STM32F7xx_HAL_Driver/Src/stm32f7xx_hal_adc_ex.c ****   if(sConfigInjected->ExternalTrigInjecConv != ADC_INJECTED_SOFTWARE_START)
 806:Drivers/STM32F7xx_HAL_Driver/Src/stm32f7xx_hal_adc_ex.c ****   {
 807:Drivers/STM32F7xx_HAL_Driver/Src/stm32f7xx_hal_adc_ex.c ****     assert_param(IS_ADC_EXT_INJEC_TRIG_EDGE(sConfigInjected->ExternalTrigInjecConvEdge));
 808:Drivers/STM32F7xx_HAL_Driver/Src/stm32f7xx_hal_adc_ex.c ****   }
 809:Drivers/STM32F7xx_HAL_Driver/Src/stm32f7xx_hal_adc_ex.c **** 
 810:Drivers/STM32F7xx_HAL_Driver/Src/stm32f7xx_hal_adc_ex.c ****   /* Process locked */
 811:Drivers/STM32F7xx_HAL_Driver/Src/stm32f7xx_hal_adc_ex.c ****   __HAL_LOCK(hadc);
 812:Drivers/STM32F7xx_HAL_Driver/Src/stm32f7xx_hal_adc_ex.c ****   
 813:Drivers/STM32F7xx_HAL_Driver/Src/stm32f7xx_hal_adc_ex.c ****   /* if ADC_Channel_10 ... ADC_Channel_18 is selected */
 814:Drivers/STM32F7xx_HAL_Driver/Src/stm32f7xx_hal_adc_ex.c ****   if (sConfigInjected->InjectedChannel > ADC_CHANNEL_9)
 815:Drivers/STM32F7xx_HAL_Driver/Src/stm32f7xx_hal_adc_ex.c ****   {
 816:Drivers/STM32F7xx_HAL_Driver/Src/stm32f7xx_hal_adc_ex.c ****     /* Clear the old sample time */
 817:Drivers/STM32F7xx_HAL_Driver/Src/stm32f7xx_hal_adc_ex.c ****     hadc->Instance->SMPR1 &= ~ADC_SMPR1(ADC_SMPR1_SMP10, sConfigInjected->InjectedChannel);
 818:Drivers/STM32F7xx_HAL_Driver/Src/stm32f7xx_hal_adc_ex.c ****     
 819:Drivers/STM32F7xx_HAL_Driver/Src/stm32f7xx_hal_adc_ex.c ****     /* Set the new sample time */
 820:Drivers/STM32F7xx_HAL_Driver/Src/stm32f7xx_hal_adc_ex.c ****     hadc->Instance->SMPR1 |= ADC_SMPR1(sConfigInjected->InjectedSamplingTime, sConfigInjected->Inje
 821:Drivers/STM32F7xx_HAL_Driver/Src/stm32f7xx_hal_adc_ex.c ****   }
 822:Drivers/STM32F7xx_HAL_Driver/Src/stm32f7xx_hal_adc_ex.c ****   else /* ADC_Channel include in ADC_Channel_[0..9] */
 823:Drivers/STM32F7xx_HAL_Driver/Src/stm32f7xx_hal_adc_ex.c ****   {
 824:Drivers/STM32F7xx_HAL_Driver/Src/stm32f7xx_hal_adc_ex.c ****     /* Clear the old sample time */
 825:Drivers/STM32F7xx_HAL_Driver/Src/stm32f7xx_hal_adc_ex.c ****     hadc->Instance->SMPR2 &= ~ADC_SMPR2(ADC_SMPR2_SMP0, sConfigInjected->InjectedChannel);
 826:Drivers/STM32F7xx_HAL_Driver/Src/stm32f7xx_hal_adc_ex.c ****     
 827:Drivers/STM32F7xx_HAL_Driver/Src/stm32f7xx_hal_adc_ex.c ****     /* Set the new sample time */
 828:Drivers/STM32F7xx_HAL_Driver/Src/stm32f7xx_hal_adc_ex.c ****     hadc->Instance->SMPR2 |= ADC_SMPR2(sConfigInjected->InjectedSamplingTime, sConfigInjected->Inje
ARM GAS  C:\Users\GUILLE~1\AppData\Local\Temp\ccXICf5i.s 			page 16


 829:Drivers/STM32F7xx_HAL_Driver/Src/stm32f7xx_hal_adc_ex.c ****   }
 830:Drivers/STM32F7xx_HAL_Driver/Src/stm32f7xx_hal_adc_ex.c ****   
 831:Drivers/STM32F7xx_HAL_Driver/Src/stm32f7xx_hal_adc_ex.c ****   /*---------------------------- ADCx JSQR Configuration -----------------*/
 832:Drivers/STM32F7xx_HAL_Driver/Src/stm32f7xx_hal_adc_ex.c ****   hadc->Instance->JSQR &= ~(ADC_JSQR_JL);
 833:Drivers/STM32F7xx_HAL_Driver/Src/stm32f7xx_hal_adc_ex.c ****   hadc->Instance->JSQR |=  ADC_SQR1(sConfigInjected->InjectedNbrOfConversion);
 834:Drivers/STM32F7xx_HAL_Driver/Src/stm32f7xx_hal_adc_ex.c ****   
 835:Drivers/STM32F7xx_HAL_Driver/Src/stm32f7xx_hal_adc_ex.c ****   /* Rank configuration */
 836:Drivers/STM32F7xx_HAL_Driver/Src/stm32f7xx_hal_adc_ex.c ****   
 837:Drivers/STM32F7xx_HAL_Driver/Src/stm32f7xx_hal_adc_ex.c ****   /* Clear the old SQx bits for the selected rank */
 838:Drivers/STM32F7xx_HAL_Driver/Src/stm32f7xx_hal_adc_ex.c ****   hadc->Instance->JSQR &= ~ADC_JSQR(ADC_JSQR_JSQ1, sConfigInjected->InjectedRank,sConfigInjected->I
 839:Drivers/STM32F7xx_HAL_Driver/Src/stm32f7xx_hal_adc_ex.c ****    
 840:Drivers/STM32F7xx_HAL_Driver/Src/stm32f7xx_hal_adc_ex.c ****   /* Set the SQx bits for the selected rank */
 841:Drivers/STM32F7xx_HAL_Driver/Src/stm32f7xx_hal_adc_ex.c ****   hadc->Instance->JSQR |= ADC_JSQR(sConfigInjected->InjectedChannel, sConfigInjected->InjectedRank,
 842:Drivers/STM32F7xx_HAL_Driver/Src/stm32f7xx_hal_adc_ex.c **** 
 843:Drivers/STM32F7xx_HAL_Driver/Src/stm32f7xx_hal_adc_ex.c ****   /* Enable external trigger if trigger selection is different of software  */
 844:Drivers/STM32F7xx_HAL_Driver/Src/stm32f7xx_hal_adc_ex.c ****   /* start.                                                                 */
 845:Drivers/STM32F7xx_HAL_Driver/Src/stm32f7xx_hal_adc_ex.c ****   /* Note: This configuration keeps the hardware feature of parameter       */
 846:Drivers/STM32F7xx_HAL_Driver/Src/stm32f7xx_hal_adc_ex.c ****   /*       ExternalTrigConvEdge "trigger edge none" equivalent to           */
 847:Drivers/STM32F7xx_HAL_Driver/Src/stm32f7xx_hal_adc_ex.c ****   /*       software start.                                                  */ 
 848:Drivers/STM32F7xx_HAL_Driver/Src/stm32f7xx_hal_adc_ex.c ****   if(sConfigInjected->ExternalTrigInjecConv != ADC_INJECTED_SOFTWARE_START)
 849:Drivers/STM32F7xx_HAL_Driver/Src/stm32f7xx_hal_adc_ex.c ****   {  
 850:Drivers/STM32F7xx_HAL_Driver/Src/stm32f7xx_hal_adc_ex.c ****     /* Select external trigger to start conversion */
 851:Drivers/STM32F7xx_HAL_Driver/Src/stm32f7xx_hal_adc_ex.c ****     hadc->Instance->CR2 &= ~(ADC_CR2_JEXTSEL);
 852:Drivers/STM32F7xx_HAL_Driver/Src/stm32f7xx_hal_adc_ex.c ****     hadc->Instance->CR2 |=  sConfigInjected->ExternalTrigInjecConv;
 853:Drivers/STM32F7xx_HAL_Driver/Src/stm32f7xx_hal_adc_ex.c ****     
 854:Drivers/STM32F7xx_HAL_Driver/Src/stm32f7xx_hal_adc_ex.c ****     /* Select external trigger polarity */
 855:Drivers/STM32F7xx_HAL_Driver/Src/stm32f7xx_hal_adc_ex.c ****     hadc->Instance->CR2 &= ~(ADC_CR2_JEXTEN);
 856:Drivers/STM32F7xx_HAL_Driver/Src/stm32f7xx_hal_adc_ex.c ****     hadc->Instance->CR2 |= sConfigInjected->ExternalTrigInjecConvEdge;
 857:Drivers/STM32F7xx_HAL_Driver/Src/stm32f7xx_hal_adc_ex.c ****   }
 858:Drivers/STM32F7xx_HAL_Driver/Src/stm32f7xx_hal_adc_ex.c ****   else
 859:Drivers/STM32F7xx_HAL_Driver/Src/stm32f7xx_hal_adc_ex.c ****   {
 860:Drivers/STM32F7xx_HAL_Driver/Src/stm32f7xx_hal_adc_ex.c ****     /* Reset the external trigger */
 861:Drivers/STM32F7xx_HAL_Driver/Src/stm32f7xx_hal_adc_ex.c ****     hadc->Instance->CR2 &= ~(ADC_CR2_JEXTSEL);
 862:Drivers/STM32F7xx_HAL_Driver/Src/stm32f7xx_hal_adc_ex.c ****     hadc->Instance->CR2 &= ~(ADC_CR2_JEXTEN);  
 863:Drivers/STM32F7xx_HAL_Driver/Src/stm32f7xx_hal_adc_ex.c ****   }
 864:Drivers/STM32F7xx_HAL_Driver/Src/stm32f7xx_hal_adc_ex.c ****   
 865:Drivers/STM32F7xx_HAL_Driver/Src/stm32f7xx_hal_adc_ex.c ****   if (sConfigInjected->AutoInjectedConv != DISABLE)
 866:Drivers/STM32F7xx_HAL_Driver/Src/stm32f7xx_hal_adc_ex.c ****   {
 867:Drivers/STM32F7xx_HAL_Driver/Src/stm32f7xx_hal_adc_ex.c ****     /* Enable the selected ADC automatic injected group conversion */
 868:Drivers/STM32F7xx_HAL_Driver/Src/stm32f7xx_hal_adc_ex.c ****     hadc->Instance->CR1 |= ADC_CR1_JAUTO;
 869:Drivers/STM32F7xx_HAL_Driver/Src/stm32f7xx_hal_adc_ex.c ****   }
 870:Drivers/STM32F7xx_HAL_Driver/Src/stm32f7xx_hal_adc_ex.c ****   else
 871:Drivers/STM32F7xx_HAL_Driver/Src/stm32f7xx_hal_adc_ex.c ****   {
 872:Drivers/STM32F7xx_HAL_Driver/Src/stm32f7xx_hal_adc_ex.c ****     /* Disable the selected ADC automatic injected group conversion */
 873:Drivers/STM32F7xx_HAL_Driver/Src/stm32f7xx_hal_adc_ex.c ****     hadc->Instance->CR1 &= ~(ADC_CR1_JAUTO);
 874:Drivers/STM32F7xx_HAL_Driver/Src/stm32f7xx_hal_adc_ex.c ****   }
 875:Drivers/STM32F7xx_HAL_Driver/Src/stm32f7xx_hal_adc_ex.c ****   
 876:Drivers/STM32F7xx_HAL_Driver/Src/stm32f7xx_hal_adc_ex.c ****   if (sConfigInjected->InjectedDiscontinuousConvMode != DISABLE)
 877:Drivers/STM32F7xx_HAL_Driver/Src/stm32f7xx_hal_adc_ex.c ****   {
 878:Drivers/STM32F7xx_HAL_Driver/Src/stm32f7xx_hal_adc_ex.c ****     /* Enable the selected ADC injected discontinuous mode */
 879:Drivers/STM32F7xx_HAL_Driver/Src/stm32f7xx_hal_adc_ex.c ****     hadc->Instance->CR1 |= ADC_CR1_JDISCEN;
 880:Drivers/STM32F7xx_HAL_Driver/Src/stm32f7xx_hal_adc_ex.c ****   }
 881:Drivers/STM32F7xx_HAL_Driver/Src/stm32f7xx_hal_adc_ex.c ****   else
 882:Drivers/STM32F7xx_HAL_Driver/Src/stm32f7xx_hal_adc_ex.c ****   {
 883:Drivers/STM32F7xx_HAL_Driver/Src/stm32f7xx_hal_adc_ex.c ****     /* Disable the selected ADC injected discontinuous mode */
 884:Drivers/STM32F7xx_HAL_Driver/Src/stm32f7xx_hal_adc_ex.c ****     hadc->Instance->CR1 &= ~(ADC_CR1_JDISCEN);
 885:Drivers/STM32F7xx_HAL_Driver/Src/stm32f7xx_hal_adc_ex.c ****   }
ARM GAS  C:\Users\GUILLE~1\AppData\Local\Temp\ccXICf5i.s 			page 17


 886:Drivers/STM32F7xx_HAL_Driver/Src/stm32f7xx_hal_adc_ex.c ****   
 887:Drivers/STM32F7xx_HAL_Driver/Src/stm32f7xx_hal_adc_ex.c ****   switch(sConfigInjected->InjectedRank)
 888:Drivers/STM32F7xx_HAL_Driver/Src/stm32f7xx_hal_adc_ex.c ****   {
 889:Drivers/STM32F7xx_HAL_Driver/Src/stm32f7xx_hal_adc_ex.c ****     case 1:
 890:Drivers/STM32F7xx_HAL_Driver/Src/stm32f7xx_hal_adc_ex.c ****       /* Set injected channel 1 offset */
 891:Drivers/STM32F7xx_HAL_Driver/Src/stm32f7xx_hal_adc_ex.c ****       hadc->Instance->JOFR1 &= ~(ADC_JOFR1_JOFFSET1);
 892:Drivers/STM32F7xx_HAL_Driver/Src/stm32f7xx_hal_adc_ex.c ****       hadc->Instance->JOFR1 |= sConfigInjected->InjectedOffset;
 893:Drivers/STM32F7xx_HAL_Driver/Src/stm32f7xx_hal_adc_ex.c ****       break;
 894:Drivers/STM32F7xx_HAL_Driver/Src/stm32f7xx_hal_adc_ex.c ****     case 2:
 895:Drivers/STM32F7xx_HAL_Driver/Src/stm32f7xx_hal_adc_ex.c ****       /* Set injected channel 2 offset */
 896:Drivers/STM32F7xx_HAL_Driver/Src/stm32f7xx_hal_adc_ex.c ****       hadc->Instance->JOFR2 &= ~(ADC_JOFR2_JOFFSET2);
 897:Drivers/STM32F7xx_HAL_Driver/Src/stm32f7xx_hal_adc_ex.c ****       hadc->Instance->JOFR2 |= sConfigInjected->InjectedOffset;
 898:Drivers/STM32F7xx_HAL_Driver/Src/stm32f7xx_hal_adc_ex.c ****       break;
 899:Drivers/STM32F7xx_HAL_Driver/Src/stm32f7xx_hal_adc_ex.c ****     case 3:
 900:Drivers/STM32F7xx_HAL_Driver/Src/stm32f7xx_hal_adc_ex.c ****       /* Set injected channel 3 offset */
 901:Drivers/STM32F7xx_HAL_Driver/Src/stm32f7xx_hal_adc_ex.c ****       hadc->Instance->JOFR3 &= ~(ADC_JOFR3_JOFFSET3);
 902:Drivers/STM32F7xx_HAL_Driver/Src/stm32f7xx_hal_adc_ex.c ****       hadc->Instance->JOFR3 |= sConfigInjected->InjectedOffset;
 903:Drivers/STM32F7xx_HAL_Driver/Src/stm32f7xx_hal_adc_ex.c ****       break;
 904:Drivers/STM32F7xx_HAL_Driver/Src/stm32f7xx_hal_adc_ex.c ****     default:
 905:Drivers/STM32F7xx_HAL_Driver/Src/stm32f7xx_hal_adc_ex.c ****       /* Set injected channel 4 offset */
 906:Drivers/STM32F7xx_HAL_Driver/Src/stm32f7xx_hal_adc_ex.c ****       hadc->Instance->JOFR4 &= ~(ADC_JOFR4_JOFFSET4);
 907:Drivers/STM32F7xx_HAL_Driver/Src/stm32f7xx_hal_adc_ex.c ****       hadc->Instance->JOFR4 |= sConfigInjected->InjectedOffset;
 908:Drivers/STM32F7xx_HAL_Driver/Src/stm32f7xx_hal_adc_ex.c ****       break;
 909:Drivers/STM32F7xx_HAL_Driver/Src/stm32f7xx_hal_adc_ex.c ****   }
 910:Drivers/STM32F7xx_HAL_Driver/Src/stm32f7xx_hal_adc_ex.c ****   
 911:Drivers/STM32F7xx_HAL_Driver/Src/stm32f7xx_hal_adc_ex.c ****   /* if ADC1 Channel_18 is selected enable VBAT Channel */
 912:Drivers/STM32F7xx_HAL_Driver/Src/stm32f7xx_hal_adc_ex.c ****   if ((hadc->Instance == ADC1) && (sConfigInjected->InjectedChannel == ADC_CHANNEL_VBAT))
 913:Drivers/STM32F7xx_HAL_Driver/Src/stm32f7xx_hal_adc_ex.c ****   {
 914:Drivers/STM32F7xx_HAL_Driver/Src/stm32f7xx_hal_adc_ex.c ****     /* Enable the VBAT channel*/
 915:Drivers/STM32F7xx_HAL_Driver/Src/stm32f7xx_hal_adc_ex.c ****     ADC->CCR |= ADC_CCR_VBATE;
 916:Drivers/STM32F7xx_HAL_Driver/Src/stm32f7xx_hal_adc_ex.c ****   }
 917:Drivers/STM32F7xx_HAL_Driver/Src/stm32f7xx_hal_adc_ex.c ****   
 918:Drivers/STM32F7xx_HAL_Driver/Src/stm32f7xx_hal_adc_ex.c ****   /* if ADC1 Channel_16 or Channel_17 is selected enable TSVREFE Channel(Temperature sensor and VRE
 919:Drivers/STM32F7xx_HAL_Driver/Src/stm32f7xx_hal_adc_ex.c ****   if ((hadc->Instance == ADC1) && ((sConfigInjected->InjectedChannel == ADC_CHANNEL_TEMPSENSOR) || 
 920:Drivers/STM32F7xx_HAL_Driver/Src/stm32f7xx_hal_adc_ex.c ****   {
 921:Drivers/STM32F7xx_HAL_Driver/Src/stm32f7xx_hal_adc_ex.c ****     /* Enable the TSVREFE channel*/
 922:Drivers/STM32F7xx_HAL_Driver/Src/stm32f7xx_hal_adc_ex.c ****     ADC->CCR |= ADC_CCR_TSVREFE;
 923:Drivers/STM32F7xx_HAL_Driver/Src/stm32f7xx_hal_adc_ex.c ****   }
 924:Drivers/STM32F7xx_HAL_Driver/Src/stm32f7xx_hal_adc_ex.c ****   
 925:Drivers/STM32F7xx_HAL_Driver/Src/stm32f7xx_hal_adc_ex.c ****   /* Process unlocked */
 926:Drivers/STM32F7xx_HAL_Driver/Src/stm32f7xx_hal_adc_ex.c ****   __HAL_UNLOCK(hadc);
 927:Drivers/STM32F7xx_HAL_Driver/Src/stm32f7xx_hal_adc_ex.c ****   
 928:Drivers/STM32F7xx_HAL_Driver/Src/stm32f7xx_hal_adc_ex.c ****   /* Return function status */
 929:Drivers/STM32F7xx_HAL_Driver/Src/stm32f7xx_hal_adc_ex.c ****   return HAL_OK;
 930:Drivers/STM32F7xx_HAL_Driver/Src/stm32f7xx_hal_adc_ex.c **** }
 931:Drivers/STM32F7xx_HAL_Driver/Src/stm32f7xx_hal_adc_ex.c **** 
 932:Drivers/STM32F7xx_HAL_Driver/Src/stm32f7xx_hal_adc_ex.c **** /**
 933:Drivers/STM32F7xx_HAL_Driver/Src/stm32f7xx_hal_adc_ex.c ****   * @brief  Configures the ADC multi-mode 
 934:Drivers/STM32F7xx_HAL_Driver/Src/stm32f7xx_hal_adc_ex.c ****   * @param  hadc       pointer to a ADC_HandleTypeDef structure that contains
 935:Drivers/STM32F7xx_HAL_Driver/Src/stm32f7xx_hal_adc_ex.c ****   *                     the configuration information for the specified ADC.  
 936:Drivers/STM32F7xx_HAL_Driver/Src/stm32f7xx_hal_adc_ex.c ****   * @param  multimode  pointer to an ADC_MultiModeTypeDef structure that contains 
 937:Drivers/STM32F7xx_HAL_Driver/Src/stm32f7xx_hal_adc_ex.c ****   *                     the configuration information for  multimode.
 938:Drivers/STM32F7xx_HAL_Driver/Src/stm32f7xx_hal_adc_ex.c ****   * @retval HAL status
 939:Drivers/STM32F7xx_HAL_Driver/Src/stm32f7xx_hal_adc_ex.c ****   */
 940:Drivers/STM32F7xx_HAL_Driver/Src/stm32f7xx_hal_adc_ex.c **** HAL_StatusTypeDef HAL_ADCEx_MultiModeConfigChannel(ADC_HandleTypeDef* hadc, ADC_MultiModeTypeDef* m
 941:Drivers/STM32F7xx_HAL_Driver/Src/stm32f7xx_hal_adc_ex.c **** {
 942:Drivers/STM32F7xx_HAL_Driver/Src/stm32f7xx_hal_adc_ex.c ****   /* Check the parameters */
ARM GAS  C:\Users\GUILLE~1\AppData\Local\Temp\ccXICf5i.s 			page 18


 943:Drivers/STM32F7xx_HAL_Driver/Src/stm32f7xx_hal_adc_ex.c ****   assert_param(IS_ADC_MODE(multimode->Mode));
 944:Drivers/STM32F7xx_HAL_Driver/Src/stm32f7xx_hal_adc_ex.c ****   assert_param(IS_ADC_DMA_ACCESS_MODE(multimode->DMAAccessMode));
 945:Drivers/STM32F7xx_HAL_Driver/Src/stm32f7xx_hal_adc_ex.c ****   assert_param(IS_ADC_SAMPLING_DELAY(multimode->TwoSamplingDelay));
 946:Drivers/STM32F7xx_HAL_Driver/Src/stm32f7xx_hal_adc_ex.c ****   
 947:Drivers/STM32F7xx_HAL_Driver/Src/stm32f7xx_hal_adc_ex.c ****   /* Process locked */
 948:Drivers/STM32F7xx_HAL_Driver/Src/stm32f7xx_hal_adc_ex.c ****   __HAL_LOCK(hadc);
 949:Drivers/STM32F7xx_HAL_Driver/Src/stm32f7xx_hal_adc_ex.c ****   
 950:Drivers/STM32F7xx_HAL_Driver/Src/stm32f7xx_hal_adc_ex.c ****   /* Set ADC mode */
 951:Drivers/STM32F7xx_HAL_Driver/Src/stm32f7xx_hal_adc_ex.c ****   ADC->CCR &= ~(ADC_CCR_MULTI);
 952:Drivers/STM32F7xx_HAL_Driver/Src/stm32f7xx_hal_adc_ex.c ****   ADC->CCR |= multimode->Mode;
 953:Drivers/STM32F7xx_HAL_Driver/Src/stm32f7xx_hal_adc_ex.c ****   
 954:Drivers/STM32F7xx_HAL_Driver/Src/stm32f7xx_hal_adc_ex.c ****   /* Set the ADC DMA access mode */
 955:Drivers/STM32F7xx_HAL_Driver/Src/stm32f7xx_hal_adc_ex.c ****   ADC->CCR &= ~(ADC_CCR_DMA);
 956:Drivers/STM32F7xx_HAL_Driver/Src/stm32f7xx_hal_adc_ex.c ****   ADC->CCR |= multimode->DMAAccessMode;
 957:Drivers/STM32F7xx_HAL_Driver/Src/stm32f7xx_hal_adc_ex.c ****   
 958:Drivers/STM32F7xx_HAL_Driver/Src/stm32f7xx_hal_adc_ex.c ****   /* Set delay between two sampling phases */
 959:Drivers/STM32F7xx_HAL_Driver/Src/stm32f7xx_hal_adc_ex.c ****   ADC->CCR &= ~(ADC_CCR_DELAY);
 960:Drivers/STM32F7xx_HAL_Driver/Src/stm32f7xx_hal_adc_ex.c ****   ADC->CCR |= multimode->TwoSamplingDelay;
 961:Drivers/STM32F7xx_HAL_Driver/Src/stm32f7xx_hal_adc_ex.c ****   
 962:Drivers/STM32F7xx_HAL_Driver/Src/stm32f7xx_hal_adc_ex.c ****   /* Process unlocked */
 963:Drivers/STM32F7xx_HAL_Driver/Src/stm32f7xx_hal_adc_ex.c ****   __HAL_UNLOCK(hadc);
 964:Drivers/STM32F7xx_HAL_Driver/Src/stm32f7xx_hal_adc_ex.c ****   
 965:Drivers/STM32F7xx_HAL_Driver/Src/stm32f7xx_hal_adc_ex.c ****   /* Return function status */
 966:Drivers/STM32F7xx_HAL_Driver/Src/stm32f7xx_hal_adc_ex.c ****   return HAL_OK;
 967:Drivers/STM32F7xx_HAL_Driver/Src/stm32f7xx_hal_adc_ex.c **** }
 968:Drivers/STM32F7xx_HAL_Driver/Src/stm32f7xx_hal_adc_ex.c **** 
 969:Drivers/STM32F7xx_HAL_Driver/Src/stm32f7xx_hal_adc_ex.c **** /**
 970:Drivers/STM32F7xx_HAL_Driver/Src/stm32f7xx_hal_adc_ex.c ****   * @}
 971:Drivers/STM32F7xx_HAL_Driver/Src/stm32f7xx_hal_adc_ex.c ****   */
 972:Drivers/STM32F7xx_HAL_Driver/Src/stm32f7xx_hal_adc_ex.c **** 
 973:Drivers/STM32F7xx_HAL_Driver/Src/stm32f7xx_hal_adc_ex.c ****   /**
 974:Drivers/STM32F7xx_HAL_Driver/Src/stm32f7xx_hal_adc_ex.c ****   * @brief  DMA transfer complete callback. 
 975:Drivers/STM32F7xx_HAL_Driver/Src/stm32f7xx_hal_adc_ex.c ****   * @param  hdma pointer to a DMA_HandleTypeDef structure that contains
 976:Drivers/STM32F7xx_HAL_Driver/Src/stm32f7xx_hal_adc_ex.c ****   *                the configuration information for the specified DMA module.
 977:Drivers/STM32F7xx_HAL_Driver/Src/stm32f7xx_hal_adc_ex.c ****   * @retval None
 978:Drivers/STM32F7xx_HAL_Driver/Src/stm32f7xx_hal_adc_ex.c ****   */
 979:Drivers/STM32F7xx_HAL_Driver/Src/stm32f7xx_hal_adc_ex.c **** static void ADC_MultiModeDMAConvCplt(DMA_HandleTypeDef *hdma)   
 980:Drivers/STM32F7xx_HAL_Driver/Src/stm32f7xx_hal_adc_ex.c **** {
 981:Drivers/STM32F7xx_HAL_Driver/Src/stm32f7xx_hal_adc_ex.c ****   /* Retrieve ADC handle corresponding to current DMA handle */
 982:Drivers/STM32F7xx_HAL_Driver/Src/stm32f7xx_hal_adc_ex.c ****   ADC_HandleTypeDef* hadc = ( ADC_HandleTypeDef* )((DMA_HandleTypeDef* )hdma)->Parent;
 983:Drivers/STM32F7xx_HAL_Driver/Src/stm32f7xx_hal_adc_ex.c ****   
 984:Drivers/STM32F7xx_HAL_Driver/Src/stm32f7xx_hal_adc_ex.c ****   /* Update state machine on conversion status if not in error state */
 985:Drivers/STM32F7xx_HAL_Driver/Src/stm32f7xx_hal_adc_ex.c ****   if (HAL_IS_BIT_CLR(hadc->State, HAL_ADC_STATE_ERROR_INTERNAL | HAL_ADC_STATE_ERROR_DMA))
 986:Drivers/STM32F7xx_HAL_Driver/Src/stm32f7xx_hal_adc_ex.c ****   {
 987:Drivers/STM32F7xx_HAL_Driver/Src/stm32f7xx_hal_adc_ex.c ****     /* Update ADC state machine */
 988:Drivers/STM32F7xx_HAL_Driver/Src/stm32f7xx_hal_adc_ex.c ****     SET_BIT(hadc->State, HAL_ADC_STATE_REG_EOC);
 989:Drivers/STM32F7xx_HAL_Driver/Src/stm32f7xx_hal_adc_ex.c ****     
 990:Drivers/STM32F7xx_HAL_Driver/Src/stm32f7xx_hal_adc_ex.c ****     /* Determine whether any further conversion upcoming on group regular   */
 991:Drivers/STM32F7xx_HAL_Driver/Src/stm32f7xx_hal_adc_ex.c ****     /* by external trigger, continuous mode or scan sequence on going.      */
 992:Drivers/STM32F7xx_HAL_Driver/Src/stm32f7xx_hal_adc_ex.c ****     /* Note: On STM32F7, there is no independent flag of end of sequence.   */
 993:Drivers/STM32F7xx_HAL_Driver/Src/stm32f7xx_hal_adc_ex.c ****     /*       The test of scan sequence on going is done either with scan    */
 994:Drivers/STM32F7xx_HAL_Driver/Src/stm32f7xx_hal_adc_ex.c ****     /*       sequence disabled or with end of conversion flag set to        */
 995:Drivers/STM32F7xx_HAL_Driver/Src/stm32f7xx_hal_adc_ex.c ****     /*       of end of sequence.                                            */
 996:Drivers/STM32F7xx_HAL_Driver/Src/stm32f7xx_hal_adc_ex.c ****     if(ADC_IS_SOFTWARE_START_REGULAR(hadc)                   &&
 997:Drivers/STM32F7xx_HAL_Driver/Src/stm32f7xx_hal_adc_ex.c ****        (hadc->Init.ContinuousConvMode == DISABLE)            &&
 998:Drivers/STM32F7xx_HAL_Driver/Src/stm32f7xx_hal_adc_ex.c ****        (HAL_IS_BIT_CLR(hadc->Instance->SQR1, ADC_SQR1_L) || 
 999:Drivers/STM32F7xx_HAL_Driver/Src/stm32f7xx_hal_adc_ex.c ****         HAL_IS_BIT_CLR(hadc->Instance->CR2, ADC_CR2_EOCS)  )   )
ARM GAS  C:\Users\GUILLE~1\AppData\Local\Temp\ccXICf5i.s 			page 19


1000:Drivers/STM32F7xx_HAL_Driver/Src/stm32f7xx_hal_adc_ex.c ****     {
1001:Drivers/STM32F7xx_HAL_Driver/Src/stm32f7xx_hal_adc_ex.c ****       /* Disable ADC end of single conversion interrupt on group regular */
1002:Drivers/STM32F7xx_HAL_Driver/Src/stm32f7xx_hal_adc_ex.c ****       /* Note: Overrun interrupt was enabled with EOC interrupt in          */
1003:Drivers/STM32F7xx_HAL_Driver/Src/stm32f7xx_hal_adc_ex.c ****       /* HAL_ADC_Start_IT(), but is not disabled here because can be used   */
1004:Drivers/STM32F7xx_HAL_Driver/Src/stm32f7xx_hal_adc_ex.c ****       /* by overrun IRQ process below.                                      */
1005:Drivers/STM32F7xx_HAL_Driver/Src/stm32f7xx_hal_adc_ex.c ****       __HAL_ADC_DISABLE_IT(hadc, ADC_IT_EOC);
1006:Drivers/STM32F7xx_HAL_Driver/Src/stm32f7xx_hal_adc_ex.c ****       
1007:Drivers/STM32F7xx_HAL_Driver/Src/stm32f7xx_hal_adc_ex.c ****       /* Set ADC state */
1008:Drivers/STM32F7xx_HAL_Driver/Src/stm32f7xx_hal_adc_ex.c ****       CLEAR_BIT(hadc->State, HAL_ADC_STATE_REG_BUSY);   
1009:Drivers/STM32F7xx_HAL_Driver/Src/stm32f7xx_hal_adc_ex.c ****       
1010:Drivers/STM32F7xx_HAL_Driver/Src/stm32f7xx_hal_adc_ex.c ****       if (HAL_IS_BIT_CLR(hadc->State, HAL_ADC_STATE_INJ_BUSY))
1011:Drivers/STM32F7xx_HAL_Driver/Src/stm32f7xx_hal_adc_ex.c ****       {
1012:Drivers/STM32F7xx_HAL_Driver/Src/stm32f7xx_hal_adc_ex.c ****         SET_BIT(hadc->State, HAL_ADC_STATE_READY);
1013:Drivers/STM32F7xx_HAL_Driver/Src/stm32f7xx_hal_adc_ex.c ****       }
1014:Drivers/STM32F7xx_HAL_Driver/Src/stm32f7xx_hal_adc_ex.c ****     }
1015:Drivers/STM32F7xx_HAL_Driver/Src/stm32f7xx_hal_adc_ex.c ****     
1016:Drivers/STM32F7xx_HAL_Driver/Src/stm32f7xx_hal_adc_ex.c ****     /* Conversion complete callback */
1017:Drivers/STM32F7xx_HAL_Driver/Src/stm32f7xx_hal_adc_ex.c ****     HAL_ADC_ConvCpltCallback(hadc);
1018:Drivers/STM32F7xx_HAL_Driver/Src/stm32f7xx_hal_adc_ex.c ****   }
1019:Drivers/STM32F7xx_HAL_Driver/Src/stm32f7xx_hal_adc_ex.c ****   else
1020:Drivers/STM32F7xx_HAL_Driver/Src/stm32f7xx_hal_adc_ex.c ****   {
1021:Drivers/STM32F7xx_HAL_Driver/Src/stm32f7xx_hal_adc_ex.c ****     /* Call DMA error callback */
1022:Drivers/STM32F7xx_HAL_Driver/Src/stm32f7xx_hal_adc_ex.c ****     hadc->DMA_Handle->XferErrorCallback(hdma);
1023:Drivers/STM32F7xx_HAL_Driver/Src/stm32f7xx_hal_adc_ex.c ****   }
1024:Drivers/STM32F7xx_HAL_Driver/Src/stm32f7xx_hal_adc_ex.c **** }
1025:Drivers/STM32F7xx_HAL_Driver/Src/stm32f7xx_hal_adc_ex.c **** 
1026:Drivers/STM32F7xx_HAL_Driver/Src/stm32f7xx_hal_adc_ex.c **** /**
1027:Drivers/STM32F7xx_HAL_Driver/Src/stm32f7xx_hal_adc_ex.c ****   * @brief  DMA half transfer complete callback. 
1028:Drivers/STM32F7xx_HAL_Driver/Src/stm32f7xx_hal_adc_ex.c ****   * @param  hdma pointer to a DMA_HandleTypeDef structure that contains
1029:Drivers/STM32F7xx_HAL_Driver/Src/stm32f7xx_hal_adc_ex.c ****   *                the configuration information for the specified DMA module.
1030:Drivers/STM32F7xx_HAL_Driver/Src/stm32f7xx_hal_adc_ex.c ****   * @retval None
1031:Drivers/STM32F7xx_HAL_Driver/Src/stm32f7xx_hal_adc_ex.c ****   */
1032:Drivers/STM32F7xx_HAL_Driver/Src/stm32f7xx_hal_adc_ex.c **** static void ADC_MultiModeDMAHalfConvCplt(DMA_HandleTypeDef *hdma)   
1033:Drivers/STM32F7xx_HAL_Driver/Src/stm32f7xx_hal_adc_ex.c **** {
1034:Drivers/STM32F7xx_HAL_Driver/Src/stm32f7xx_hal_adc_ex.c ****     ADC_HandleTypeDef* hadc = ( ADC_HandleTypeDef* )((DMA_HandleTypeDef* )hdma)->Parent;
1035:Drivers/STM32F7xx_HAL_Driver/Src/stm32f7xx_hal_adc_ex.c ****     /* Conversion complete callback */
1036:Drivers/STM32F7xx_HAL_Driver/Src/stm32f7xx_hal_adc_ex.c ****     HAL_ADC_ConvHalfCpltCallback(hadc); 
1037:Drivers/STM32F7xx_HAL_Driver/Src/stm32f7xx_hal_adc_ex.c **** }
1038:Drivers/STM32F7xx_HAL_Driver/Src/stm32f7xx_hal_adc_ex.c **** 
1039:Drivers/STM32F7xx_HAL_Driver/Src/stm32f7xx_hal_adc_ex.c **** /**
1040:Drivers/STM32F7xx_HAL_Driver/Src/stm32f7xx_hal_adc_ex.c ****   * @brief  DMA error callback 
1041:Drivers/STM32F7xx_HAL_Driver/Src/stm32f7xx_hal_adc_ex.c ****   * @param  hdma pointer to a DMA_HandleTypeDef structure that contains
1042:Drivers/STM32F7xx_HAL_Driver/Src/stm32f7xx_hal_adc_ex.c ****   *                the configuration information for the specified DMA module.
1043:Drivers/STM32F7xx_HAL_Driver/Src/stm32f7xx_hal_adc_ex.c ****   * @retval None
1044:Drivers/STM32F7xx_HAL_Driver/Src/stm32f7xx_hal_adc_ex.c ****   */
1045:Drivers/STM32F7xx_HAL_Driver/Src/stm32f7xx_hal_adc_ex.c **** static void ADC_MultiModeDMAError(DMA_HandleTypeDef *hdma)   
1046:Drivers/STM32F7xx_HAL_Driver/Src/stm32f7xx_hal_adc_ex.c **** {
  29              		.loc 1 1046 1 view -0
  30              		.cfi_startproc
  31              		@ args = 0, pretend = 0, frame = 0
  32              		@ frame_needed = 0, uses_anonymous_args = 0
  33              		.loc 1 1046 1 is_stmt 0 view .LVU1
  34 0000 08B5     		push	{r3, lr}
  35              	.LCFI0:
  36              		.cfi_def_cfa_offset 8
  37              		.cfi_offset 3, -8
  38              		.cfi_offset 14, -4
ARM GAS  C:\Users\GUILLE~1\AppData\Local\Temp\ccXICf5i.s 			page 20


1047:Drivers/STM32F7xx_HAL_Driver/Src/stm32f7xx_hal_adc_ex.c ****     ADC_HandleTypeDef* hadc = ( ADC_HandleTypeDef* )((DMA_HandleTypeDef* )hdma)->Parent;
  39              		.loc 1 1047 5 is_stmt 1 view .LVU2
  40              		.loc 1 1047 24 is_stmt 0 view .LVU3
  41 0002 806B     		ldr	r0, [r0, #56]
  42              	.LVL1:
1048:Drivers/STM32F7xx_HAL_Driver/Src/stm32f7xx_hal_adc_ex.c ****     hadc->State= HAL_ADC_STATE_ERROR_DMA;
  43              		.loc 1 1048 5 is_stmt 1 view .LVU4
  44              		.loc 1 1048 16 is_stmt 0 view .LVU5
  45 0004 4023     		movs	r3, #64
  46 0006 0364     		str	r3, [r0, #64]
1049:Drivers/STM32F7xx_HAL_Driver/Src/stm32f7xx_hal_adc_ex.c ****     /* Set ADC error code to DMA error */
1050:Drivers/STM32F7xx_HAL_Driver/Src/stm32f7xx_hal_adc_ex.c ****     hadc->ErrorCode |= HAL_ADC_ERROR_DMA;
  47              		.loc 1 1050 5 is_stmt 1 view .LVU6
  48              		.loc 1 1050 21 is_stmt 0 view .LVU7
  49 0008 436C     		ldr	r3, [r0, #68]
  50 000a 43F00403 		orr	r3, r3, #4
  51 000e 4364     		str	r3, [r0, #68]
1051:Drivers/STM32F7xx_HAL_Driver/Src/stm32f7xx_hal_adc_ex.c ****     HAL_ADC_ErrorCallback(hadc); 
  52              		.loc 1 1051 5 is_stmt 1 view .LVU8
  53 0010 FFF7FEFF 		bl	HAL_ADC_ErrorCallback
  54              	.LVL2:
1052:Drivers/STM32F7xx_HAL_Driver/Src/stm32f7xx_hal_adc_ex.c **** }
  55              		.loc 1 1052 1 is_stmt 0 view .LVU9
  56 0014 08BD     		pop	{r3, pc}
  57              		.cfi_endproc
  58              	.LFE260:
  60              		.section	.text.ADC_MultiModeDMAHalfConvCplt,"ax",%progbits
  61              		.align	1
  62              		.syntax unified
  63              		.thumb
  64              		.thumb_func
  65              		.fpu fpv5-sp-d16
  67              	ADC_MultiModeDMAHalfConvCplt:
  68              	.LVL3:
  69              	.LFB259:
1033:Drivers/STM32F7xx_HAL_Driver/Src/stm32f7xx_hal_adc_ex.c ****     ADC_HandleTypeDef* hadc = ( ADC_HandleTypeDef* )((DMA_HandleTypeDef* )hdma)->Parent;
  70              		.loc 1 1033 1 is_stmt 1 view -0
  71              		.cfi_startproc
  72              		@ args = 0, pretend = 0, frame = 0
  73              		@ frame_needed = 0, uses_anonymous_args = 0
1033:Drivers/STM32F7xx_HAL_Driver/Src/stm32f7xx_hal_adc_ex.c ****     ADC_HandleTypeDef* hadc = ( ADC_HandleTypeDef* )((DMA_HandleTypeDef* )hdma)->Parent;
  74              		.loc 1 1033 1 is_stmt 0 view .LVU11
  75 0000 08B5     		push	{r3, lr}
  76              	.LCFI1:
  77              		.cfi_def_cfa_offset 8
  78              		.cfi_offset 3, -8
  79              		.cfi_offset 14, -4
1034:Drivers/STM32F7xx_HAL_Driver/Src/stm32f7xx_hal_adc_ex.c ****     /* Conversion complete callback */
  80              		.loc 1 1034 5 is_stmt 1 view .LVU12
  81              	.LVL4:
1036:Drivers/STM32F7xx_HAL_Driver/Src/stm32f7xx_hal_adc_ex.c **** }
  82              		.loc 1 1036 5 view .LVU13
  83 0002 806B     		ldr	r0, [r0, #56]
  84              	.LVL5:
1036:Drivers/STM32F7xx_HAL_Driver/Src/stm32f7xx_hal_adc_ex.c **** }
  85              		.loc 1 1036 5 is_stmt 0 view .LVU14
  86 0004 FFF7FEFF 		bl	HAL_ADC_ConvHalfCpltCallback
ARM GAS  C:\Users\GUILLE~1\AppData\Local\Temp\ccXICf5i.s 			page 21


  87              	.LVL6:
1037:Drivers/STM32F7xx_HAL_Driver/Src/stm32f7xx_hal_adc_ex.c **** 
  88              		.loc 1 1037 1 view .LVU15
  89 0008 08BD     		pop	{r3, pc}
  90              		.cfi_endproc
  91              	.LFE259:
  93              		.section	.text.ADC_MultiModeDMAConvCplt,"ax",%progbits
  94              		.align	1
  95              		.syntax unified
  96              		.thumb
  97              		.thumb_func
  98              		.fpu fpv5-sp-d16
 100              	ADC_MultiModeDMAConvCplt:
 101              	.LVL7:
 102              	.LFB258:
 980:Drivers/STM32F7xx_HAL_Driver/Src/stm32f7xx_hal_adc_ex.c ****   /* Retrieve ADC handle corresponding to current DMA handle */
 103              		.loc 1 980 1 is_stmt 1 view -0
 104              		.cfi_startproc
 105              		@ args = 0, pretend = 0, frame = 0
 106              		@ frame_needed = 0, uses_anonymous_args = 0
 980:Drivers/STM32F7xx_HAL_Driver/Src/stm32f7xx_hal_adc_ex.c ****   /* Retrieve ADC handle corresponding to current DMA handle */
 107              		.loc 1 980 1 is_stmt 0 view .LVU17
 108 0000 08B5     		push	{r3, lr}
 109              	.LCFI2:
 110              		.cfi_def_cfa_offset 8
 111              		.cfi_offset 3, -8
 112              		.cfi_offset 14, -4
 982:Drivers/STM32F7xx_HAL_Driver/Src/stm32f7xx_hal_adc_ex.c ****   
 113              		.loc 1 982 3 is_stmt 1 view .LVU18
 982:Drivers/STM32F7xx_HAL_Driver/Src/stm32f7xx_hal_adc_ex.c ****   
 114              		.loc 1 982 22 is_stmt 0 view .LVU19
 115 0002 836B     		ldr	r3, [r0, #56]
 116              	.LVL8:
 985:Drivers/STM32F7xx_HAL_Driver/Src/stm32f7xx_hal_adc_ex.c ****   {
 117              		.loc 1 985 3 is_stmt 1 view .LVU20
 985:Drivers/STM32F7xx_HAL_Driver/Src/stm32f7xx_hal_adc_ex.c ****   {
 118              		.loc 1 985 7 is_stmt 0 view .LVU21
 119 0004 1A6C     		ldr	r2, [r3, #64]
 985:Drivers/STM32F7xx_HAL_Driver/Src/stm32f7xx_hal_adc_ex.c ****   {
 120              		.loc 1 985 6 view .LVU22
 121 0006 12F0500F 		tst	r2, #80
 122 000a 26D1     		bne	.L6
 988:Drivers/STM32F7xx_HAL_Driver/Src/stm32f7xx_hal_adc_ex.c ****     
 123              		.loc 1 988 5 is_stmt 1 view .LVU23
 124 000c 1A6C     		ldr	r2, [r3, #64]
 125 000e 42F40072 		orr	r2, r2, #512
 126 0012 1A64     		str	r2, [r3, #64]
 996:Drivers/STM32F7xx_HAL_Driver/Src/stm32f7xx_hal_adc_ex.c ****        (hadc->Init.ContinuousConvMode == DISABLE)            &&
 127              		.loc 1 996 5 view .LVU24
 996:Drivers/STM32F7xx_HAL_Driver/Src/stm32f7xx_hal_adc_ex.c ****        (hadc->Init.ContinuousConvMode == DISABLE)            &&
 128              		.loc 1 996 8 is_stmt 0 view .LVU25
 129 0014 1A68     		ldr	r2, [r3]
 130 0016 9168     		ldr	r1, [r2, #8]
 996:Drivers/STM32F7xx_HAL_Driver/Src/stm32f7xx_hal_adc_ex.c ****        (hadc->Init.ContinuousConvMode == DISABLE)            &&
 131              		.loc 1 996 7 view .LVU26
 132 0018 11F0405F 		tst	r1, #805306368
 133 001c 19D1     		bne	.L7
ARM GAS  C:\Users\GUILLE~1\AppData\Local\Temp\ccXICf5i.s 			page 22


 997:Drivers/STM32F7xx_HAL_Driver/Src/stm32f7xx_hal_adc_ex.c ****        (HAL_IS_BIT_CLR(hadc->Instance->SQR1, ADC_SQR1_L) || 
 134              		.loc 1 997 19 discriminator 1 view .LVU27
 135 001e 9969     		ldr	r1, [r3, #24]
 996:Drivers/STM32F7xx_HAL_Driver/Src/stm32f7xx_hal_adc_ex.c ****        (hadc->Init.ContinuousConvMode == DISABLE)            &&
 136              		.loc 1 996 62 discriminator 1 view .LVU28
 137 0020 B9B9     		cbnz	r1, .L7
 998:Drivers/STM32F7xx_HAL_Driver/Src/stm32f7xx_hal_adc_ex.c ****         HAL_IS_BIT_CLR(hadc->Instance->CR2, ADC_CR2_EOCS)  )   )
 138              		.loc 1 998 9 view .LVU29
 139 0022 D16A     		ldr	r1, [r2, #44]
 997:Drivers/STM32F7xx_HAL_Driver/Src/stm32f7xx_hal_adc_ex.c ****        (HAL_IS_BIT_CLR(hadc->Instance->SQR1, ADC_SQR1_L) || 
 140              		.loc 1 997 62 view .LVU30
 141 0024 11F4700F 		tst	r1, #15728640
 142 0028 03D0     		beq	.L8
 999:Drivers/STM32F7xx_HAL_Driver/Src/stm32f7xx_hal_adc_ex.c ****     {
 143              		.loc 1 999 9 view .LVU31
 144 002a 9168     		ldr	r1, [r2, #8]
 998:Drivers/STM32F7xx_HAL_Driver/Src/stm32f7xx_hal_adc_ex.c ****         HAL_IS_BIT_CLR(hadc->Instance->CR2, ADC_CR2_EOCS)  )   )
 145              		.loc 1 998 58 view .LVU32
 146 002c 11F4806F 		tst	r1, #1024
 147 0030 0FD1     		bne	.L7
 148              	.L8:
1005:Drivers/STM32F7xx_HAL_Driver/Src/stm32f7xx_hal_adc_ex.c ****       
 149              		.loc 1 1005 7 is_stmt 1 view .LVU33
 150 0032 5168     		ldr	r1, [r2, #4]
 151 0034 21F02001 		bic	r1, r1, #32
 152 0038 5160     		str	r1, [r2, #4]
1008:Drivers/STM32F7xx_HAL_Driver/Src/stm32f7xx_hal_adc_ex.c ****       
 153              		.loc 1 1008 7 view .LVU34
 154 003a 1A6C     		ldr	r2, [r3, #64]
 155 003c 22F48072 		bic	r2, r2, #256
 156 0040 1A64     		str	r2, [r3, #64]
1010:Drivers/STM32F7xx_HAL_Driver/Src/stm32f7xx_hal_adc_ex.c ****       {
 157              		.loc 1 1010 7 view .LVU35
1010:Drivers/STM32F7xx_HAL_Driver/Src/stm32f7xx_hal_adc_ex.c ****       {
 158              		.loc 1 1010 11 is_stmt 0 view .LVU36
 159 0042 1A6C     		ldr	r2, [r3, #64]
1010:Drivers/STM32F7xx_HAL_Driver/Src/stm32f7xx_hal_adc_ex.c ****       {
 160              		.loc 1 1010 10 view .LVU37
 161 0044 12F4805F 		tst	r2, #4096
 162 0048 03D1     		bne	.L7
1012:Drivers/STM32F7xx_HAL_Driver/Src/stm32f7xx_hal_adc_ex.c ****       }
 163              		.loc 1 1012 9 is_stmt 1 view .LVU38
 164 004a 1A6C     		ldr	r2, [r3, #64]
 165 004c 42F00102 		orr	r2, r2, #1
 166 0050 1A64     		str	r2, [r3, #64]
 167              	.L7:
1017:Drivers/STM32F7xx_HAL_Driver/Src/stm32f7xx_hal_adc_ex.c ****   }
 168              		.loc 1 1017 5 view .LVU39
 169 0052 1846     		mov	r0, r3
 170              	.LVL9:
1017:Drivers/STM32F7xx_HAL_Driver/Src/stm32f7xx_hal_adc_ex.c ****   }
 171              		.loc 1 1017 5 is_stmt 0 view .LVU40
 172 0054 FFF7FEFF 		bl	HAL_ADC_ConvCpltCallback
 173              	.LVL10:
 174              	.L5:
1024:Drivers/STM32F7xx_HAL_Driver/Src/stm32f7xx_hal_adc_ex.c **** 
 175              		.loc 1 1024 1 view .LVU41
ARM GAS  C:\Users\GUILLE~1\AppData\Local\Temp\ccXICf5i.s 			page 23


 176 0058 08BD     		pop	{r3, pc}
 177              	.LVL11:
 178              	.L6:
1022:Drivers/STM32F7xx_HAL_Driver/Src/stm32f7xx_hal_adc_ex.c ****   }
 179              		.loc 1 1022 5 is_stmt 1 view .LVU42
1022:Drivers/STM32F7xx_HAL_Driver/Src/stm32f7xx_hal_adc_ex.c ****   }
 180              		.loc 1 1022 9 is_stmt 0 view .LVU43
 181 005a 9B6B     		ldr	r3, [r3, #56]
 182              	.LVL12:
1022:Drivers/STM32F7xx_HAL_Driver/Src/stm32f7xx_hal_adc_ex.c ****   }
 183              		.loc 1 1022 21 view .LVU44
 184 005c DB6C     		ldr	r3, [r3, #76]
1022:Drivers/STM32F7xx_HAL_Driver/Src/stm32f7xx_hal_adc_ex.c ****   }
 185              		.loc 1 1022 5 view .LVU45
 186 005e 9847     		blx	r3
 187              	.LVL13:
1024:Drivers/STM32F7xx_HAL_Driver/Src/stm32f7xx_hal_adc_ex.c **** 
 188              		.loc 1 1024 1 view .LVU46
 189 0060 FAE7     		b	.L5
 190              		.cfi_endproc
 191              	.LFE258:
 193              		.section	.text.HAL_ADCEx_InjectedStart,"ax",%progbits
 194              		.align	1
 195              		.global	HAL_ADCEx_InjectedStart
 196              		.syntax unified
 197              		.thumb
 198              		.thumb_func
 199              		.fpu fpv5-sp-d16
 201              	HAL_ADCEx_InjectedStart:
 202              	.LVL14:
 203              	.LFB246:
 148:Drivers/STM32F7xx_HAL_Driver/Src/stm32f7xx_hal_adc_ex.c ****   __IO uint32_t counter = 0;
 204              		.loc 1 148 1 is_stmt 1 view -0
 205              		.cfi_startproc
 206              		@ args = 0, pretend = 0, frame = 8
 207              		@ frame_needed = 0, uses_anonymous_args = 0
 208              		@ link register save eliminated.
 148:Drivers/STM32F7xx_HAL_Driver/Src/stm32f7xx_hal_adc_ex.c ****   __IO uint32_t counter = 0;
 209              		.loc 1 148 1 is_stmt 0 view .LVU48
 210 0000 82B0     		sub	sp, sp, #8
 211              	.LCFI3:
 212              		.cfi_def_cfa_offset 8
 149:Drivers/STM32F7xx_HAL_Driver/Src/stm32f7xx_hal_adc_ex.c ****   uint32_t tmp1 = 0, tmp2 = 0;
 213              		.loc 1 149 3 is_stmt 1 view .LVU49
 149:Drivers/STM32F7xx_HAL_Driver/Src/stm32f7xx_hal_adc_ex.c ****   uint32_t tmp1 = 0, tmp2 = 0;
 214              		.loc 1 149 17 is_stmt 0 view .LVU50
 215 0002 0023     		movs	r3, #0
 216 0004 0193     		str	r3, [sp, #4]
 150:Drivers/STM32F7xx_HAL_Driver/Src/stm32f7xx_hal_adc_ex.c ****   
 217              		.loc 1 150 3 is_stmt 1 view .LVU51
 218              	.LVL15:
 153:Drivers/STM32F7xx_HAL_Driver/Src/stm32f7xx_hal_adc_ex.c ****   
 219              		.loc 1 153 3 view .LVU52
 153:Drivers/STM32F7xx_HAL_Driver/Src/stm32f7xx_hal_adc_ex.c ****   
 220              		.loc 1 153 3 view .LVU53
 221 0006 90F83C30 		ldrb	r3, [r0, #60]	@ zero_extendqisi2
 222 000a 012B     		cmp	r3, #1
ARM GAS  C:\Users\GUILLE~1\AppData\Local\Temp\ccXICf5i.s 			page 24


 223 000c 65D0     		beq	.L19
 153:Drivers/STM32F7xx_HAL_Driver/Src/stm32f7xx_hal_adc_ex.c ****   
 224              		.loc 1 153 3 discriminator 2 view .LVU54
 225 000e 0123     		movs	r3, #1
 226 0010 80F83C30 		strb	r3, [r0, #60]
 153:Drivers/STM32F7xx_HAL_Driver/Src/stm32f7xx_hal_adc_ex.c ****   
 227              		.loc 1 153 3 discriminator 2 view .LVU55
 159:Drivers/STM32F7xx_HAL_Driver/Src/stm32f7xx_hal_adc_ex.c ****   {  
 228              		.loc 1 159 3 discriminator 2 view .LVU56
 159:Drivers/STM32F7xx_HAL_Driver/Src/stm32f7xx_hal_adc_ex.c ****   {  
 229              		.loc 1 159 11 is_stmt 0 discriminator 2 view .LVU57
 230 0014 0368     		ldr	r3, [r0]
 159:Drivers/STM32F7xx_HAL_Driver/Src/stm32f7xx_hal_adc_ex.c ****   {  
 231              		.loc 1 159 21 discriminator 2 view .LVU58
 232 0016 9A68     		ldr	r2, [r3, #8]
 159:Drivers/STM32F7xx_HAL_Driver/Src/stm32f7xx_hal_adc_ex.c ****   {  
 233              		.loc 1 159 5 discriminator 2 view .LVU59
 234 0018 12F0010F 		tst	r2, #1
 235 001c 13D1     		bne	.L13
 162:Drivers/STM32F7xx_HAL_Driver/Src/stm32f7xx_hal_adc_ex.c ****     
 236              		.loc 1 162 5 is_stmt 1 view .LVU60
 237 001e 9A68     		ldr	r2, [r3, #8]
 238 0020 42F00102 		orr	r2, r2, #1
 239 0024 9A60     		str	r2, [r3, #8]
 166:Drivers/STM32F7xx_HAL_Driver/Src/stm32f7xx_hal_adc_ex.c ****     while(counter != 0)
 240              		.loc 1 166 5 view .LVU61
 166:Drivers/STM32F7xx_HAL_Driver/Src/stm32f7xx_hal_adc_ex.c ****     while(counter != 0)
 241              		.loc 1 166 53 is_stmt 0 view .LVU62
 242 0026 304B     		ldr	r3, .L25
 243 0028 1B68     		ldr	r3, [r3]
 244 002a 304A     		ldr	r2, .L25+4
 245 002c A2FB0323 		umull	r2, r3, r2, r3
 246 0030 9B0C     		lsrs	r3, r3, #18
 166:Drivers/STM32F7xx_HAL_Driver/Src/stm32f7xx_hal_adc_ex.c ****     while(counter != 0)
 247              		.loc 1 166 34 view .LVU63
 248 0032 03EB4303 		add	r3, r3, r3, lsl #1
 166:Drivers/STM32F7xx_HAL_Driver/Src/stm32f7xx_hal_adc_ex.c ****     while(counter != 0)
 249              		.loc 1 166 13 view .LVU64
 250 0036 0193     		str	r3, [sp, #4]
 167:Drivers/STM32F7xx_HAL_Driver/Src/stm32f7xx_hal_adc_ex.c ****     {
 251              		.loc 1 167 5 is_stmt 1 view .LVU65
 167:Drivers/STM32F7xx_HAL_Driver/Src/stm32f7xx_hal_adc_ex.c ****     {
 252              		.loc 1 167 10 is_stmt 0 view .LVU66
 253 0038 02E0     		b	.L14
 254              	.L15:
 169:Drivers/STM32F7xx_HAL_Driver/Src/stm32f7xx_hal_adc_ex.c ****     }
 255              		.loc 1 169 7 is_stmt 1 view .LVU67
 169:Drivers/STM32F7xx_HAL_Driver/Src/stm32f7xx_hal_adc_ex.c ****     }
 256              		.loc 1 169 14 is_stmt 0 view .LVU68
 257 003a 019B     		ldr	r3, [sp, #4]
 258 003c 013B     		subs	r3, r3, #1
 259 003e 0193     		str	r3, [sp, #4]
 260              	.L14:
 167:Drivers/STM32F7xx_HAL_Driver/Src/stm32f7xx_hal_adc_ex.c ****     {
 261              		.loc 1 167 10 is_stmt 1 view .LVU69
 167:Drivers/STM32F7xx_HAL_Driver/Src/stm32f7xx_hal_adc_ex.c ****     {
 262              		.loc 1 167 19 is_stmt 0 view .LVU70
ARM GAS  C:\Users\GUILLE~1\AppData\Local\Temp\ccXICf5i.s 			page 25


 263 0040 019B     		ldr	r3, [sp, #4]
 167:Drivers/STM32F7xx_HAL_Driver/Src/stm32f7xx_hal_adc_ex.c ****     {
 264              		.loc 1 167 10 view .LVU71
 265 0042 002B     		cmp	r3, #0
 266 0044 F9D1     		bne	.L15
 267              	.L13:
 174:Drivers/STM32F7xx_HAL_Driver/Src/stm32f7xx_hal_adc_ex.c ****   {
 268              		.loc 1 174 3 is_stmt 1 view .LVU72
 174:Drivers/STM32F7xx_HAL_Driver/Src/stm32f7xx_hal_adc_ex.c ****   {
 269              		.loc 1 174 6 is_stmt 0 view .LVU73
 270 0046 0268     		ldr	r2, [r0]
 271 0048 9368     		ldr	r3, [r2, #8]
 174:Drivers/STM32F7xx_HAL_Driver/Src/stm32f7xx_hal_adc_ex.c ****   {
 272              		.loc 1 174 5 view .LVU74
 273 004a 13F0010F 		tst	r3, #1
 274 004e 39D0     		beq	.L16
 179:Drivers/STM32F7xx_HAL_Driver/Src/stm32f7xx_hal_adc_ex.c ****                       HAL_ADC_STATE_READY | HAL_ADC_STATE_INJ_EOC,
 275              		.loc 1 179 5 is_stmt 1 view .LVU75
 276 0050 016C     		ldr	r1, [r0, #64]
 277 0052 274B     		ldr	r3, .L25+8
 278 0054 0B40     		ands	r3, r3, r1
 279 0056 43F48053 		orr	r3, r3, #4096
 280 005a 0364     		str	r3, [r0, #64]
 187:Drivers/STM32F7xx_HAL_Driver/Src/stm32f7xx_hal_adc_ex.c ****     {
 281              		.loc 1 187 5 view .LVU76
 187:Drivers/STM32F7xx_HAL_Driver/Src/stm32f7xx_hal_adc_ex.c ****     {
 282              		.loc 1 187 9 is_stmt 0 view .LVU77
 283 005c 036C     		ldr	r3, [r0, #64]
 187:Drivers/STM32F7xx_HAL_Driver/Src/stm32f7xx_hal_adc_ex.c ****     {
 284              		.loc 1 187 8 view .LVU78
 285 005e 13F4807F 		tst	r3, #256
 286 0062 01D1     		bne	.L17
 190:Drivers/STM32F7xx_HAL_Driver/Src/stm32f7xx_hal_adc_ex.c ****     }
 287              		.loc 1 190 7 is_stmt 1 view .LVU79
 288 0064 0023     		movs	r3, #0
 289 0066 4364     		str	r3, [r0, #68]
 290              	.L17:
 196:Drivers/STM32F7xx_HAL_Driver/Src/stm32f7xx_hal_adc_ex.c ****     
 291              		.loc 1 196 5 view .LVU80
 196:Drivers/STM32F7xx_HAL_Driver/Src/stm32f7xx_hal_adc_ex.c ****     
 292              		.loc 1 196 5 view .LVU81
 293 0068 0023     		movs	r3, #0
 294 006a 80F83C30 		strb	r3, [r0, #60]
 196:Drivers/STM32F7xx_HAL_Driver/Src/stm32f7xx_hal_adc_ex.c ****     
 295              		.loc 1 196 5 view .LVU82
 200:Drivers/STM32F7xx_HAL_Driver/Src/stm32f7xx_hal_adc_ex.c ****     
 296              		.loc 1 200 5 view .LVU83
 297 006e 6FF00403 		mvn	r3, #4
 298 0072 1360     		str	r3, [r2]
 203:Drivers/STM32F7xx_HAL_Driver/Src/stm32f7xx_hal_adc_ex.c ****     {
 299              		.loc 1 203 5 view .LVU84
 203:Drivers/STM32F7xx_HAL_Driver/Src/stm32f7xx_hal_adc_ex.c ****     {
 300              		.loc 1 203 8 is_stmt 0 view .LVU85
 301 0074 1F4B     		ldr	r3, .L25+12
 302 0076 5B68     		ldr	r3, [r3, #4]
 203:Drivers/STM32F7xx_HAL_Driver/Src/stm32f7xx_hal_adc_ex.c ****     {
 303              		.loc 1 203 7 view .LVU86
ARM GAS  C:\Users\GUILLE~1\AppData\Local\Temp\ccXICf5i.s 			page 26


 304 0078 13F01F0F 		tst	r3, #31
 305 007c 0ED1     		bne	.L18
 205:Drivers/STM32F7xx_HAL_Driver/Src/stm32f7xx_hal_adc_ex.c ****       tmp2 = HAL_IS_BIT_CLR(hadc->Instance->CR1, ADC_CR1_JAUTO);
 306              		.loc 1 205 7 is_stmt 1 view .LVU87
 205:Drivers/STM32F7xx_HAL_Driver/Src/stm32f7xx_hal_adc_ex.c ****       tmp2 = HAL_IS_BIT_CLR(hadc->Instance->CR1, ADC_CR1_JAUTO);
 307              		.loc 1 205 14 is_stmt 0 view .LVU88
 308 007e 0168     		ldr	r1, [r0]
 309 0080 8A68     		ldr	r2, [r1, #8]
 310 0082 02F44012 		and	r2, r2, #3145728
 311              	.LVL16:
 206:Drivers/STM32F7xx_HAL_Driver/Src/stm32f7xx_hal_adc_ex.c ****       if(tmp1 && tmp2)
 312              		.loc 1 206 7 is_stmt 1 view .LVU89
 206:Drivers/STM32F7xx_HAL_Driver/Src/stm32f7xx_hal_adc_ex.c ****       if(tmp1 && tmp2)
 313              		.loc 1 206 14 is_stmt 0 view .LVU90
 314 0086 4B68     		ldr	r3, [r1, #4]
 315 0088 03F48063 		and	r3, r3, #1024
 316              	.LVL17:
 207:Drivers/STM32F7xx_HAL_Driver/Src/stm32f7xx_hal_adc_ex.c ****       {
 317              		.loc 1 207 7 is_stmt 1 view .LVU91
 207:Drivers/STM32F7xx_HAL_Driver/Src/stm32f7xx_hal_adc_ex.c ****       {
 318              		.loc 1 207 9 is_stmt 0 view .LVU92
 319 008c 1343     		orrs	r3, r2, r3
 320              	.LVL18:
 207:Drivers/STM32F7xx_HAL_Driver/Src/stm32f7xx_hal_adc_ex.c ****       {
 321              		.loc 1 207 9 view .LVU93
 322 008e 26D1     		bne	.L20
 210:Drivers/STM32F7xx_HAL_Driver/Src/stm32f7xx_hal_adc_ex.c ****       }
 323              		.loc 1 210 9 is_stmt 1 view .LVU94
 210:Drivers/STM32F7xx_HAL_Driver/Src/stm32f7xx_hal_adc_ex.c ****       }
 324              		.loc 1 210 29 is_stmt 0 view .LVU95
 325 0090 8B68     		ldr	r3, [r1, #8]
 326 0092 43F48003 		orr	r3, r3, #4194304
 327 0096 8B60     		str	r3, [r1, #8]
 234:Drivers/STM32F7xx_HAL_Driver/Src/stm32f7xx_hal_adc_ex.c **** }
 328              		.loc 1 234 10 view .LVU96
 329 0098 0020     		movs	r0, #0
 330              	.LVL19:
 234:Drivers/STM32F7xx_HAL_Driver/Src/stm32f7xx_hal_adc_ex.c **** }
 331              		.loc 1 234 10 view .LVU97
 332 009a 1CE0     		b	.L12
 333              	.LVL20:
 334              	.L18:
 215:Drivers/STM32F7xx_HAL_Driver/Src/stm32f7xx_hal_adc_ex.c ****       tmp2 = HAL_IS_BIT_CLR(hadc->Instance->CR1, ADC_CR1_JAUTO);
 335              		.loc 1 215 7 is_stmt 1 view .LVU98
 215:Drivers/STM32F7xx_HAL_Driver/Src/stm32f7xx_hal_adc_ex.c ****       tmp2 = HAL_IS_BIT_CLR(hadc->Instance->CR1, ADC_CR1_JAUTO);
 336              		.loc 1 215 14 is_stmt 0 view .LVU99
 337 009c 0368     		ldr	r3, [r0]
 338 009e 9968     		ldr	r1, [r3, #8]
 339 00a0 01F44011 		and	r1, r1, #3145728
 340              	.LVL21:
 216:Drivers/STM32F7xx_HAL_Driver/Src/stm32f7xx_hal_adc_ex.c ****       if((hadc->Instance == ADC1) && tmp1 && tmp2)  
 341              		.loc 1 216 7 is_stmt 1 view .LVU100
 216:Drivers/STM32F7xx_HAL_Driver/Src/stm32f7xx_hal_adc_ex.c ****       if((hadc->Instance == ADC1) && tmp1 && tmp2)  
 342              		.loc 1 216 14 is_stmt 0 view .LVU101
 343 00a4 5A68     		ldr	r2, [r3, #4]
 344 00a6 02F48062 		and	r2, r2, #1024
 345              	.LVL22:
ARM GAS  C:\Users\GUILLE~1\AppData\Local\Temp\ccXICf5i.s 			page 27


 217:Drivers/STM32F7xx_HAL_Driver/Src/stm32f7xx_hal_adc_ex.c ****       {
 346              		.loc 1 217 7 is_stmt 1 view .LVU102
 217:Drivers/STM32F7xx_HAL_Driver/Src/stm32f7xx_hal_adc_ex.c ****       {
 347              		.loc 1 217 9 is_stmt 0 view .LVU103
 348 00aa 1348     		ldr	r0, .L25+16
 349              	.LVL23:
 217:Drivers/STM32F7xx_HAL_Driver/Src/stm32f7xx_hal_adc_ex.c ****       {
 350              		.loc 1 217 9 view .LVU104
 351 00ac 8342     		cmp	r3, r0
 352 00ae 01D0     		beq	.L24
 234:Drivers/STM32F7xx_HAL_Driver/Src/stm32f7xx_hal_adc_ex.c **** }
 353              		.loc 1 234 10 view .LVU105
 354 00b0 0020     		movs	r0, #0
 355 00b2 10E0     		b	.L12
 356              	.L24:
 217:Drivers/STM32F7xx_HAL_Driver/Src/stm32f7xx_hal_adc_ex.c ****       {
 357              		.loc 1 217 43 discriminator 1 view .LVU106
 358 00b4 0A43     		orrs	r2, r1, r2
 359              	.LVL24:
 217:Drivers/STM32F7xx_HAL_Driver/Src/stm32f7xx_hal_adc_ex.c ****       {
 360              		.loc 1 217 43 discriminator 1 view .LVU107
 361 00b6 14D1     		bne	.L22
 220:Drivers/STM32F7xx_HAL_Driver/Src/stm32f7xx_hal_adc_ex.c ****       }
 362              		.loc 1 220 9 is_stmt 1 view .LVU108
 220:Drivers/STM32F7xx_HAL_Driver/Src/stm32f7xx_hal_adc_ex.c ****       }
 363              		.loc 1 220 29 is_stmt 0 view .LVU109
 364 00b8 9A68     		ldr	r2, [r3, #8]
 365 00ba 42F48002 		orr	r2, r2, #4194304
 366 00be 9A60     		str	r2, [r3, #8]
 234:Drivers/STM32F7xx_HAL_Driver/Src/stm32f7xx_hal_adc_ex.c **** }
 367              		.loc 1 234 10 view .LVU110
 368 00c0 0020     		movs	r0, #0
 369 00c2 08E0     		b	.L12
 370              	.LVL25:
 371              	.L16:
 227:Drivers/STM32F7xx_HAL_Driver/Src/stm32f7xx_hal_adc_ex.c ****     
 372              		.loc 1 227 5 is_stmt 1 view .LVU111
 373 00c4 036C     		ldr	r3, [r0, #64]
 374 00c6 43F01003 		orr	r3, r3, #16
 375 00ca 0364     		str	r3, [r0, #64]
 230:Drivers/STM32F7xx_HAL_Driver/Src/stm32f7xx_hal_adc_ex.c ****   }
 376              		.loc 1 230 5 view .LVU112
 377 00cc 436C     		ldr	r3, [r0, #68]
 378 00ce 43F00103 		orr	r3, r3, #1
 379 00d2 4364     		str	r3, [r0, #68]
 234:Drivers/STM32F7xx_HAL_Driver/Src/stm32f7xx_hal_adc_ex.c **** }
 380              		.loc 1 234 10 is_stmt 0 view .LVU113
 381 00d4 0020     		movs	r0, #0
 382              	.LVL26:
 383              	.L12:
 235:Drivers/STM32F7xx_HAL_Driver/Src/stm32f7xx_hal_adc_ex.c **** 
 384              		.loc 1 235 1 view .LVU114
 385 00d6 02B0     		add	sp, sp, #8
 386              	.LCFI4:
 387              		.cfi_remember_state
 388              		.cfi_def_cfa_offset 0
 389              		@ sp needed
ARM GAS  C:\Users\GUILLE~1\AppData\Local\Temp\ccXICf5i.s 			page 28


 390 00d8 7047     		bx	lr
 391              	.LVL27:
 392              	.L19:
 393              	.LCFI5:
 394              		.cfi_restore_state
 153:Drivers/STM32F7xx_HAL_Driver/Src/stm32f7xx_hal_adc_ex.c ****   
 395              		.loc 1 153 3 view .LVU115
 396 00da 0220     		movs	r0, #2
 397              	.LVL28:
 153:Drivers/STM32F7xx_HAL_Driver/Src/stm32f7xx_hal_adc_ex.c ****   
 398              		.loc 1 153 3 view .LVU116
 399 00dc FBE7     		b	.L12
 400              	.LVL29:
 401              	.L20:
 234:Drivers/STM32F7xx_HAL_Driver/Src/stm32f7xx_hal_adc_ex.c **** }
 402              		.loc 1 234 10 view .LVU117
 403 00de 0020     		movs	r0, #0
 404              	.LVL30:
 234:Drivers/STM32F7xx_HAL_Driver/Src/stm32f7xx_hal_adc_ex.c **** }
 405              		.loc 1 234 10 view .LVU118
 406 00e0 F9E7     		b	.L12
 407              	.LVL31:
 408              	.L22:
 234:Drivers/STM32F7xx_HAL_Driver/Src/stm32f7xx_hal_adc_ex.c **** }
 409              		.loc 1 234 10 view .LVU119
 410 00e2 0020     		movs	r0, #0
 411 00e4 F7E7     		b	.L12
 412              	.L26:
 413 00e6 00BF     		.align	2
 414              	.L25:
 415 00e8 00000000 		.word	SystemCoreClock
 416 00ec 83DE1B43 		.word	1125899907
 417 00f0 FECFFFFF 		.word	-12290
 418 00f4 00230140 		.word	1073816320
 419 00f8 00200140 		.word	1073815552
 420              		.cfi_endproc
 421              	.LFE246:
 423              		.section	.text.HAL_ADCEx_InjectedStart_IT,"ax",%progbits
 424              		.align	1
 425              		.global	HAL_ADCEx_InjectedStart_IT
 426              		.syntax unified
 427              		.thumb
 428              		.thumb_func
 429              		.fpu fpv5-sp-d16
 431              	HAL_ADCEx_InjectedStart_IT:
 432              	.LVL32:
 433              	.LFB247:
 245:Drivers/STM32F7xx_HAL_Driver/Src/stm32f7xx_hal_adc_ex.c ****   __IO uint32_t counter = 0;
 434              		.loc 1 245 1 is_stmt 1 view -0
 435              		.cfi_startproc
 436              		@ args = 0, pretend = 0, frame = 8
 437              		@ frame_needed = 0, uses_anonymous_args = 0
 438              		@ link register save eliminated.
 245:Drivers/STM32F7xx_HAL_Driver/Src/stm32f7xx_hal_adc_ex.c ****   __IO uint32_t counter = 0;
 439              		.loc 1 245 1 is_stmt 0 view .LVU121
 440 0000 82B0     		sub	sp, sp, #8
 441              	.LCFI6:
ARM GAS  C:\Users\GUILLE~1\AppData\Local\Temp\ccXICf5i.s 			page 29


 442              		.cfi_def_cfa_offset 8
 246:Drivers/STM32F7xx_HAL_Driver/Src/stm32f7xx_hal_adc_ex.c ****   uint32_t tmp1 = 0, tmp2 = 0;
 443              		.loc 1 246 3 is_stmt 1 view .LVU122
 246:Drivers/STM32F7xx_HAL_Driver/Src/stm32f7xx_hal_adc_ex.c ****   uint32_t tmp1 = 0, tmp2 = 0;
 444              		.loc 1 246 17 is_stmt 0 view .LVU123
 445 0002 0023     		movs	r3, #0
 446 0004 0193     		str	r3, [sp, #4]
 247:Drivers/STM32F7xx_HAL_Driver/Src/stm32f7xx_hal_adc_ex.c ****   
 447              		.loc 1 247 3 is_stmt 1 view .LVU124
 448              	.LVL33:
 250:Drivers/STM32F7xx_HAL_Driver/Src/stm32f7xx_hal_adc_ex.c ****   
 449              		.loc 1 250 3 view .LVU125
 250:Drivers/STM32F7xx_HAL_Driver/Src/stm32f7xx_hal_adc_ex.c ****   
 450              		.loc 1 250 3 view .LVU126
 451 0006 90F83C30 		ldrb	r3, [r0, #60]	@ zero_extendqisi2
 452 000a 012B     		cmp	r3, #1
 453 000c 6AD0     		beq	.L35
 250:Drivers/STM32F7xx_HAL_Driver/Src/stm32f7xx_hal_adc_ex.c ****   
 454              		.loc 1 250 3 discriminator 2 view .LVU127
 455 000e 0123     		movs	r3, #1
 456 0010 80F83C30 		strb	r3, [r0, #60]
 250:Drivers/STM32F7xx_HAL_Driver/Src/stm32f7xx_hal_adc_ex.c ****   
 457              		.loc 1 250 3 discriminator 2 view .LVU128
 256:Drivers/STM32F7xx_HAL_Driver/Src/stm32f7xx_hal_adc_ex.c ****   {  
 458              		.loc 1 256 3 discriminator 2 view .LVU129
 256:Drivers/STM32F7xx_HAL_Driver/Src/stm32f7xx_hal_adc_ex.c ****   {  
 459              		.loc 1 256 11 is_stmt 0 discriminator 2 view .LVU130
 460 0014 0368     		ldr	r3, [r0]
 256:Drivers/STM32F7xx_HAL_Driver/Src/stm32f7xx_hal_adc_ex.c ****   {  
 461              		.loc 1 256 21 discriminator 2 view .LVU131
 462 0016 9A68     		ldr	r2, [r3, #8]
 256:Drivers/STM32F7xx_HAL_Driver/Src/stm32f7xx_hal_adc_ex.c ****   {  
 463              		.loc 1 256 5 discriminator 2 view .LVU132
 464 0018 12F0010F 		tst	r2, #1
 465 001c 13D1     		bne	.L29
 259:Drivers/STM32F7xx_HAL_Driver/Src/stm32f7xx_hal_adc_ex.c ****     
 466              		.loc 1 259 5 is_stmt 1 view .LVU133
 467 001e 9A68     		ldr	r2, [r3, #8]
 468 0020 42F00102 		orr	r2, r2, #1
 469 0024 9A60     		str	r2, [r3, #8]
 263:Drivers/STM32F7xx_HAL_Driver/Src/stm32f7xx_hal_adc_ex.c ****     while(counter != 0)
 470              		.loc 1 263 5 view .LVU134
 263:Drivers/STM32F7xx_HAL_Driver/Src/stm32f7xx_hal_adc_ex.c ****     while(counter != 0)
 471              		.loc 1 263 53 is_stmt 0 view .LVU135
 472 0026 324B     		ldr	r3, .L41
 473 0028 1B68     		ldr	r3, [r3]
 474 002a 324A     		ldr	r2, .L41+4
 475 002c A2FB0323 		umull	r2, r3, r2, r3
 476 0030 9B0C     		lsrs	r3, r3, #18
 263:Drivers/STM32F7xx_HAL_Driver/Src/stm32f7xx_hal_adc_ex.c ****     while(counter != 0)
 477              		.loc 1 263 34 view .LVU136
 478 0032 03EB4303 		add	r3, r3, r3, lsl #1
 263:Drivers/STM32F7xx_HAL_Driver/Src/stm32f7xx_hal_adc_ex.c ****     while(counter != 0)
 479              		.loc 1 263 13 view .LVU137
 480 0036 0193     		str	r3, [sp, #4]
 264:Drivers/STM32F7xx_HAL_Driver/Src/stm32f7xx_hal_adc_ex.c ****     {
 481              		.loc 1 264 5 is_stmt 1 view .LVU138
ARM GAS  C:\Users\GUILLE~1\AppData\Local\Temp\ccXICf5i.s 			page 30


 264:Drivers/STM32F7xx_HAL_Driver/Src/stm32f7xx_hal_adc_ex.c ****     {
 482              		.loc 1 264 10 is_stmt 0 view .LVU139
 483 0038 02E0     		b	.L30
 484              	.L31:
 266:Drivers/STM32F7xx_HAL_Driver/Src/stm32f7xx_hal_adc_ex.c ****     }
 485              		.loc 1 266 7 is_stmt 1 view .LVU140
 266:Drivers/STM32F7xx_HAL_Driver/Src/stm32f7xx_hal_adc_ex.c ****     }
 486              		.loc 1 266 14 is_stmt 0 view .LVU141
 487 003a 019B     		ldr	r3, [sp, #4]
 488 003c 013B     		subs	r3, r3, #1
 489 003e 0193     		str	r3, [sp, #4]
 490              	.L30:
 264:Drivers/STM32F7xx_HAL_Driver/Src/stm32f7xx_hal_adc_ex.c ****     {
 491              		.loc 1 264 10 is_stmt 1 view .LVU142
 264:Drivers/STM32F7xx_HAL_Driver/Src/stm32f7xx_hal_adc_ex.c ****     {
 492              		.loc 1 264 19 is_stmt 0 view .LVU143
 493 0040 019B     		ldr	r3, [sp, #4]
 264:Drivers/STM32F7xx_HAL_Driver/Src/stm32f7xx_hal_adc_ex.c ****     {
 494              		.loc 1 264 10 view .LVU144
 495 0042 002B     		cmp	r3, #0
 496 0044 F9D1     		bne	.L31
 497              	.L29:
 271:Drivers/STM32F7xx_HAL_Driver/Src/stm32f7xx_hal_adc_ex.c ****   {
 498              		.loc 1 271 3 is_stmt 1 view .LVU145
 271:Drivers/STM32F7xx_HAL_Driver/Src/stm32f7xx_hal_adc_ex.c ****   {
 499              		.loc 1 271 6 is_stmt 0 view .LVU146
 500 0046 0268     		ldr	r2, [r0]
 501 0048 9368     		ldr	r3, [r2, #8]
 271:Drivers/STM32F7xx_HAL_Driver/Src/stm32f7xx_hal_adc_ex.c ****   {
 502              		.loc 1 271 5 view .LVU147
 503 004a 13F0010F 		tst	r3, #1
 504 004e 3ED0     		beq	.L32
 276:Drivers/STM32F7xx_HAL_Driver/Src/stm32f7xx_hal_adc_ex.c ****                       HAL_ADC_STATE_READY | HAL_ADC_STATE_INJ_EOC,
 505              		.loc 1 276 5 is_stmt 1 view .LVU148
 506 0050 016C     		ldr	r1, [r0, #64]
 507 0052 294B     		ldr	r3, .L41+8
 508 0054 0B40     		ands	r3, r3, r1
 509 0056 43F48053 		orr	r3, r3, #4096
 510 005a 0364     		str	r3, [r0, #64]
 284:Drivers/STM32F7xx_HAL_Driver/Src/stm32f7xx_hal_adc_ex.c ****     {
 511              		.loc 1 284 5 view .LVU149
 284:Drivers/STM32F7xx_HAL_Driver/Src/stm32f7xx_hal_adc_ex.c ****     {
 512              		.loc 1 284 9 is_stmt 0 view .LVU150
 513 005c 036C     		ldr	r3, [r0, #64]
 284:Drivers/STM32F7xx_HAL_Driver/Src/stm32f7xx_hal_adc_ex.c ****     {
 514              		.loc 1 284 8 view .LVU151
 515 005e 13F4807F 		tst	r3, #256
 516 0062 01D1     		bne	.L33
 287:Drivers/STM32F7xx_HAL_Driver/Src/stm32f7xx_hal_adc_ex.c ****     }
 517              		.loc 1 287 7 is_stmt 1 view .LVU152
 518 0064 0023     		movs	r3, #0
 519 0066 4364     		str	r3, [r0, #68]
 520              	.L33:
 293:Drivers/STM32F7xx_HAL_Driver/Src/stm32f7xx_hal_adc_ex.c ****     
 521              		.loc 1 293 5 view .LVU153
 293:Drivers/STM32F7xx_HAL_Driver/Src/stm32f7xx_hal_adc_ex.c ****     
 522              		.loc 1 293 5 view .LVU154
ARM GAS  C:\Users\GUILLE~1\AppData\Local\Temp\ccXICf5i.s 			page 31


 523 0068 0023     		movs	r3, #0
 524 006a 80F83C30 		strb	r3, [r0, #60]
 293:Drivers/STM32F7xx_HAL_Driver/Src/stm32f7xx_hal_adc_ex.c ****     
 525              		.loc 1 293 5 view .LVU155
 297:Drivers/STM32F7xx_HAL_Driver/Src/stm32f7xx_hal_adc_ex.c ****     
 526              		.loc 1 297 5 view .LVU156
 527 006e 6FF00403 		mvn	r3, #4
 528 0072 1360     		str	r3, [r2]
 300:Drivers/STM32F7xx_HAL_Driver/Src/stm32f7xx_hal_adc_ex.c ****     
 529              		.loc 1 300 5 view .LVU157
 530 0074 0268     		ldr	r2, [r0]
 531 0076 5368     		ldr	r3, [r2, #4]
 532 0078 43F08003 		orr	r3, r3, #128
 533 007c 5360     		str	r3, [r2, #4]
 303:Drivers/STM32F7xx_HAL_Driver/Src/stm32f7xx_hal_adc_ex.c ****     {
 534              		.loc 1 303 5 view .LVU158
 303:Drivers/STM32F7xx_HAL_Driver/Src/stm32f7xx_hal_adc_ex.c ****     {
 535              		.loc 1 303 8 is_stmt 0 view .LVU159
 536 007e 1F4B     		ldr	r3, .L41+12
 537 0080 5B68     		ldr	r3, [r3, #4]
 303:Drivers/STM32F7xx_HAL_Driver/Src/stm32f7xx_hal_adc_ex.c ****     {
 538              		.loc 1 303 7 view .LVU160
 539 0082 13F01F0F 		tst	r3, #31
 540 0086 0ED1     		bne	.L34
 305:Drivers/STM32F7xx_HAL_Driver/Src/stm32f7xx_hal_adc_ex.c ****       tmp2 = HAL_IS_BIT_CLR(hadc->Instance->CR1, ADC_CR1_JAUTO);
 541              		.loc 1 305 7 is_stmt 1 view .LVU161
 305:Drivers/STM32F7xx_HAL_Driver/Src/stm32f7xx_hal_adc_ex.c ****       tmp2 = HAL_IS_BIT_CLR(hadc->Instance->CR1, ADC_CR1_JAUTO);
 542              		.loc 1 305 14 is_stmt 0 view .LVU162
 543 0088 0168     		ldr	r1, [r0]
 544 008a 8A68     		ldr	r2, [r1, #8]
 545 008c 02F44012 		and	r2, r2, #3145728
 546              	.LVL34:
 306:Drivers/STM32F7xx_HAL_Driver/Src/stm32f7xx_hal_adc_ex.c ****       if(tmp1 && tmp2)
 547              		.loc 1 306 7 is_stmt 1 view .LVU163
 306:Drivers/STM32F7xx_HAL_Driver/Src/stm32f7xx_hal_adc_ex.c ****       if(tmp1 && tmp2)
 548              		.loc 1 306 14 is_stmt 0 view .LVU164
 549 0090 4B68     		ldr	r3, [r1, #4]
 550 0092 03F48063 		and	r3, r3, #1024
 551              	.LVL35:
 307:Drivers/STM32F7xx_HAL_Driver/Src/stm32f7xx_hal_adc_ex.c ****       {
 552              		.loc 1 307 7 is_stmt 1 view .LVU165
 307:Drivers/STM32F7xx_HAL_Driver/Src/stm32f7xx_hal_adc_ex.c ****       {
 553              		.loc 1 307 9 is_stmt 0 view .LVU166
 554 0096 1343     		orrs	r3, r2, r3
 555              	.LVL36:
 307:Drivers/STM32F7xx_HAL_Driver/Src/stm32f7xx_hal_adc_ex.c ****       {
 556              		.loc 1 307 9 view .LVU167
 557 0098 26D1     		bne	.L36
 310:Drivers/STM32F7xx_HAL_Driver/Src/stm32f7xx_hal_adc_ex.c ****       }
 558              		.loc 1 310 9 is_stmt 1 view .LVU168
 310:Drivers/STM32F7xx_HAL_Driver/Src/stm32f7xx_hal_adc_ex.c ****       }
 559              		.loc 1 310 29 is_stmt 0 view .LVU169
 560 009a 8B68     		ldr	r3, [r1, #8]
 561 009c 43F48003 		orr	r3, r3, #4194304
 562 00a0 8B60     		str	r3, [r1, #8]
 334:Drivers/STM32F7xx_HAL_Driver/Src/stm32f7xx_hal_adc_ex.c **** }
 563              		.loc 1 334 10 view .LVU170
ARM GAS  C:\Users\GUILLE~1\AppData\Local\Temp\ccXICf5i.s 			page 32


 564 00a2 0020     		movs	r0, #0
 565              	.LVL37:
 334:Drivers/STM32F7xx_HAL_Driver/Src/stm32f7xx_hal_adc_ex.c **** }
 566              		.loc 1 334 10 view .LVU171
 567 00a4 1CE0     		b	.L28
 568              	.LVL38:
 569              	.L34:
 315:Drivers/STM32F7xx_HAL_Driver/Src/stm32f7xx_hal_adc_ex.c ****       tmp2 = HAL_IS_BIT_CLR(hadc->Instance->CR1, ADC_CR1_JAUTO);
 570              		.loc 1 315 7 is_stmt 1 view .LVU172
 315:Drivers/STM32F7xx_HAL_Driver/Src/stm32f7xx_hal_adc_ex.c ****       tmp2 = HAL_IS_BIT_CLR(hadc->Instance->CR1, ADC_CR1_JAUTO);
 571              		.loc 1 315 14 is_stmt 0 view .LVU173
 572 00a6 0368     		ldr	r3, [r0]
 573 00a8 9968     		ldr	r1, [r3, #8]
 574 00aa 01F44011 		and	r1, r1, #3145728
 575              	.LVL39:
 316:Drivers/STM32F7xx_HAL_Driver/Src/stm32f7xx_hal_adc_ex.c ****       if((hadc->Instance == ADC1) && tmp1 && tmp2)  
 576              		.loc 1 316 7 is_stmt 1 view .LVU174
 316:Drivers/STM32F7xx_HAL_Driver/Src/stm32f7xx_hal_adc_ex.c ****       if((hadc->Instance == ADC1) && tmp1 && tmp2)  
 577              		.loc 1 316 14 is_stmt 0 view .LVU175
 578 00ae 5A68     		ldr	r2, [r3, #4]
 579 00b0 02F48062 		and	r2, r2, #1024
 580              	.LVL40:
 317:Drivers/STM32F7xx_HAL_Driver/Src/stm32f7xx_hal_adc_ex.c ****       {
 581              		.loc 1 317 7 is_stmt 1 view .LVU176
 317:Drivers/STM32F7xx_HAL_Driver/Src/stm32f7xx_hal_adc_ex.c ****       {
 582              		.loc 1 317 9 is_stmt 0 view .LVU177
 583 00b4 1248     		ldr	r0, .L41+16
 584              	.LVL41:
 317:Drivers/STM32F7xx_HAL_Driver/Src/stm32f7xx_hal_adc_ex.c ****       {
 585              		.loc 1 317 9 view .LVU178
 586 00b6 8342     		cmp	r3, r0
 587 00b8 01D0     		beq	.L40
 334:Drivers/STM32F7xx_HAL_Driver/Src/stm32f7xx_hal_adc_ex.c **** }
 588              		.loc 1 334 10 view .LVU179
 589 00ba 0020     		movs	r0, #0
 590 00bc 10E0     		b	.L28
 591              	.L40:
 317:Drivers/STM32F7xx_HAL_Driver/Src/stm32f7xx_hal_adc_ex.c ****       {
 592              		.loc 1 317 43 discriminator 1 view .LVU180
 593 00be 0A43     		orrs	r2, r1, r2
 594              	.LVL42:
 317:Drivers/STM32F7xx_HAL_Driver/Src/stm32f7xx_hal_adc_ex.c ****       {
 595              		.loc 1 317 43 discriminator 1 view .LVU181
 596 00c0 14D1     		bne	.L38
 320:Drivers/STM32F7xx_HAL_Driver/Src/stm32f7xx_hal_adc_ex.c ****       }
 597              		.loc 1 320 9 is_stmt 1 view .LVU182
 320:Drivers/STM32F7xx_HAL_Driver/Src/stm32f7xx_hal_adc_ex.c ****       }
 598              		.loc 1 320 29 is_stmt 0 view .LVU183
 599 00c2 9A68     		ldr	r2, [r3, #8]
 600 00c4 42F48002 		orr	r2, r2, #4194304
 601 00c8 9A60     		str	r2, [r3, #8]
 334:Drivers/STM32F7xx_HAL_Driver/Src/stm32f7xx_hal_adc_ex.c **** }
 602              		.loc 1 334 10 view .LVU184
 603 00ca 0020     		movs	r0, #0
 604 00cc 08E0     		b	.L28
 605              	.LVL43:
 606              	.L32:
ARM GAS  C:\Users\GUILLE~1\AppData\Local\Temp\ccXICf5i.s 			page 33


 327:Drivers/STM32F7xx_HAL_Driver/Src/stm32f7xx_hal_adc_ex.c ****     
 607              		.loc 1 327 5 is_stmt 1 view .LVU185
 608 00ce 036C     		ldr	r3, [r0, #64]
 609 00d0 43F01003 		orr	r3, r3, #16
 610 00d4 0364     		str	r3, [r0, #64]
 330:Drivers/STM32F7xx_HAL_Driver/Src/stm32f7xx_hal_adc_ex.c ****   }
 611              		.loc 1 330 5 view .LVU186
 612 00d6 436C     		ldr	r3, [r0, #68]
 613 00d8 43F00103 		orr	r3, r3, #1
 614 00dc 4364     		str	r3, [r0, #68]
 334:Drivers/STM32F7xx_HAL_Driver/Src/stm32f7xx_hal_adc_ex.c **** }
 615              		.loc 1 334 10 is_stmt 0 view .LVU187
 616 00de 0020     		movs	r0, #0
 617              	.LVL44:
 618              	.L28:
 335:Drivers/STM32F7xx_HAL_Driver/Src/stm32f7xx_hal_adc_ex.c **** 
 619              		.loc 1 335 1 view .LVU188
 620 00e0 02B0     		add	sp, sp, #8
 621              	.LCFI7:
 622              		.cfi_remember_state
 623              		.cfi_def_cfa_offset 0
 624              		@ sp needed
 625 00e2 7047     		bx	lr
 626              	.LVL45:
 627              	.L35:
 628              	.LCFI8:
 629              		.cfi_restore_state
 250:Drivers/STM32F7xx_HAL_Driver/Src/stm32f7xx_hal_adc_ex.c ****   
 630              		.loc 1 250 3 view .LVU189
 631 00e4 0220     		movs	r0, #2
 632              	.LVL46:
 250:Drivers/STM32F7xx_HAL_Driver/Src/stm32f7xx_hal_adc_ex.c ****   
 633              		.loc 1 250 3 view .LVU190
 634 00e6 FBE7     		b	.L28
 635              	.LVL47:
 636              	.L36:
 334:Drivers/STM32F7xx_HAL_Driver/Src/stm32f7xx_hal_adc_ex.c **** }
 637              		.loc 1 334 10 view .LVU191
 638 00e8 0020     		movs	r0, #0
 639              	.LVL48:
 334:Drivers/STM32F7xx_HAL_Driver/Src/stm32f7xx_hal_adc_ex.c **** }
 640              		.loc 1 334 10 view .LVU192
 641 00ea F9E7     		b	.L28
 642              	.LVL49:
 643              	.L38:
 334:Drivers/STM32F7xx_HAL_Driver/Src/stm32f7xx_hal_adc_ex.c **** }
 644              		.loc 1 334 10 view .LVU193
 645 00ec 0020     		movs	r0, #0
 646 00ee F7E7     		b	.L28
 647              	.L42:
 648              		.align	2
 649              	.L41:
 650 00f0 00000000 		.word	SystemCoreClock
 651 00f4 83DE1B43 		.word	1125899907
 652 00f8 FECFFFFF 		.word	-12290
 653 00fc 00230140 		.word	1073816320
 654 0100 00200140 		.word	1073815552
ARM GAS  C:\Users\GUILLE~1\AppData\Local\Temp\ccXICf5i.s 			page 34


 655              		.cfi_endproc
 656              	.LFE247:
 658              		.section	.text.HAL_ADCEx_InjectedStop,"ax",%progbits
 659              		.align	1
 660              		.global	HAL_ADCEx_InjectedStop
 661              		.syntax unified
 662              		.thumb
 663              		.thumb_func
 664              		.fpu fpv5-sp-d16
 666              	HAL_ADCEx_InjectedStop:
 667              	.LVL50:
 668              	.LFB248:
 350:Drivers/STM32F7xx_HAL_Driver/Src/stm32f7xx_hal_adc_ex.c ****   HAL_StatusTypeDef tmp_hal_status = HAL_OK;
 669              		.loc 1 350 1 is_stmt 1 view -0
 670              		.cfi_startproc
 671              		@ args = 0, pretend = 0, frame = 0
 672              		@ frame_needed = 0, uses_anonymous_args = 0
 673              		@ link register save eliminated.
 350:Drivers/STM32F7xx_HAL_Driver/Src/stm32f7xx_hal_adc_ex.c ****   HAL_StatusTypeDef tmp_hal_status = HAL_OK;
 674              		.loc 1 350 1 is_stmt 0 view .LVU195
 675 0000 0346     		mov	r3, r0
 351:Drivers/STM32F7xx_HAL_Driver/Src/stm32f7xx_hal_adc_ex.c ****   
 676              		.loc 1 351 3 is_stmt 1 view .LVU196
 677              	.LVL51:
 354:Drivers/STM32F7xx_HAL_Driver/Src/stm32f7xx_hal_adc_ex.c **** 
 678              		.loc 1 354 3 view .LVU197
 357:Drivers/STM32F7xx_HAL_Driver/Src/stm32f7xx_hal_adc_ex.c ****     
 679              		.loc 1 357 3 view .LVU198
 357:Drivers/STM32F7xx_HAL_Driver/Src/stm32f7xx_hal_adc_ex.c ****     
 680              		.loc 1 357 3 view .LVU199
 681 0002 90F83C20 		ldrb	r2, [r0, #60]	@ zero_extendqisi2
 682 0006 012A     		cmp	r2, #1
 683 0008 27D0     		beq	.L47
 357:Drivers/STM32F7xx_HAL_Driver/Src/stm32f7xx_hal_adc_ex.c ****     
 684              		.loc 1 357 3 discriminator 2 view .LVU200
 685 000a 0122     		movs	r2, #1
 686 000c 80F83C20 		strb	r2, [r0, #60]
 357:Drivers/STM32F7xx_HAL_Driver/Src/stm32f7xx_hal_adc_ex.c ****     
 687              		.loc 1 357 3 discriminator 2 view .LVU201
 365:Drivers/STM32F7xx_HAL_Driver/Src/stm32f7xx_hal_adc_ex.c ****      HAL_IS_BIT_CLR(hadc->Instance->CR1, ADC_CR1_JAUTO)   )
 688              		.loc 1 365 3 discriminator 2 view .LVU202
 365:Drivers/STM32F7xx_HAL_Driver/Src/stm32f7xx_hal_adc_ex.c ****      HAL_IS_BIT_CLR(hadc->Instance->CR1, ADC_CR1_JAUTO)   )
 689              		.loc 1 365 12 is_stmt 0 discriminator 2 view .LVU203
 690 0010 026C     		ldr	r2, [r0, #64]
 365:Drivers/STM32F7xx_HAL_Driver/Src/stm32f7xx_hal_adc_ex.c ****      HAL_IS_BIT_CLR(hadc->Instance->CR1, ADC_CR1_JAUTO)   )
 691              		.loc 1 365 5 discriminator 2 view .LVU204
 692 0012 12F4807F 		tst	r2, #256
 693 0016 15D1     		bne	.L45
 366:Drivers/STM32F7xx_HAL_Driver/Src/stm32f7xx_hal_adc_ex.c ****   {
 694              		.loc 1 366 6 discriminator 1 view .LVU205
 695 0018 0268     		ldr	r2, [r0]
 696 001a 5168     		ldr	r1, [r2, #4]
 365:Drivers/STM32F7xx_HAL_Driver/Src/stm32f7xx_hal_adc_ex.c ****      HAL_IS_BIT_CLR(hadc->Instance->CR1, ADC_CR1_JAUTO)   )
 697              		.loc 1 365 57 discriminator 1 view .LVU206
 698 001c 11F4806F 		tst	r1, #1024
 699 0020 10D1     		bne	.L45
 370:Drivers/STM32F7xx_HAL_Driver/Src/stm32f7xx_hal_adc_ex.c ****     
ARM GAS  C:\Users\GUILLE~1\AppData\Local\Temp\ccXICf5i.s 			page 35


 700              		.loc 1 370 5 is_stmt 1 view .LVU207
 701 0022 9168     		ldr	r1, [r2, #8]
 702 0024 21F00101 		bic	r1, r1, #1
 703 0028 9160     		str	r1, [r2, #8]
 373:Drivers/STM32F7xx_HAL_Driver/Src/stm32f7xx_hal_adc_ex.c ****     {
 704              		.loc 1 373 5 view .LVU208
 373:Drivers/STM32F7xx_HAL_Driver/Src/stm32f7xx_hal_adc_ex.c ****     {
 705              		.loc 1 373 8 is_stmt 0 view .LVU209
 706 002a 0268     		ldr	r2, [r0]
 707 002c 9268     		ldr	r2, [r2, #8]
 373:Drivers/STM32F7xx_HAL_Driver/Src/stm32f7xx_hal_adc_ex.c ****     {
 708              		.loc 1 373 7 view .LVU210
 709 002e 12F0010F 		tst	r2, #1
 710 0032 10D1     		bne	.L48
 376:Drivers/STM32F7xx_HAL_Driver/Src/stm32f7xx_hal_adc_ex.c ****                         HAL_ADC_STATE_REG_BUSY | HAL_ADC_STATE_INJ_BUSY,
 711              		.loc 1 376 7 is_stmt 1 view .LVU211
 712 0034 016C     		ldr	r1, [r0, #64]
 713 0036 0A4A     		ldr	r2, .L49
 714 0038 0A40     		ands	r2, r2, r1
 715 003a 42F00102 		orr	r2, r2, #1
 716 003e 0264     		str	r2, [r0, #64]
 351:Drivers/STM32F7xx_HAL_Driver/Src/stm32f7xx_hal_adc_ex.c ****   
 717              		.loc 1 351 21 is_stmt 0 view .LVU212
 718 0040 0020     		movs	r0, #0
 719              	.LVL52:
 351:Drivers/STM32F7xx_HAL_Driver/Src/stm32f7xx_hal_adc_ex.c ****   
 720              		.loc 1 351 21 view .LVU213
 721 0042 04E0     		b	.L46
 722              	.LVL53:
 723              	.L45:
 384:Drivers/STM32F7xx_HAL_Driver/Src/stm32f7xx_hal_adc_ex.c ****       
 724              		.loc 1 384 5 is_stmt 1 view .LVU214
 725 0044 1A6C     		ldr	r2, [r3, #64]
 726 0046 42F02002 		orr	r2, r2, #32
 727 004a 1A64     		str	r2, [r3, #64]
 386:Drivers/STM32F7xx_HAL_Driver/Src/stm32f7xx_hal_adc_ex.c ****   }
 728              		.loc 1 386 5 view .LVU215
 729              	.LVL54:
 386:Drivers/STM32F7xx_HAL_Driver/Src/stm32f7xx_hal_adc_ex.c ****   }
 730              		.loc 1 386 20 is_stmt 0 view .LVU216
 731 004c 0120     		movs	r0, #1
 732              	.LVL55:
 733              	.L46:
 390:Drivers/STM32F7xx_HAL_Driver/Src/stm32f7xx_hal_adc_ex.c ****   
 734              		.loc 1 390 3 is_stmt 1 view .LVU217
 390:Drivers/STM32F7xx_HAL_Driver/Src/stm32f7xx_hal_adc_ex.c ****   
 735              		.loc 1 390 3 view .LVU218
 736 004e 0022     		movs	r2, #0
 737 0050 83F83C20 		strb	r2, [r3, #60]
 390:Drivers/STM32F7xx_HAL_Driver/Src/stm32f7xx_hal_adc_ex.c ****   
 738              		.loc 1 390 3 view .LVU219
 393:Drivers/STM32F7xx_HAL_Driver/Src/stm32f7xx_hal_adc_ex.c **** }
 739              		.loc 1 393 3 view .LVU220
 393:Drivers/STM32F7xx_HAL_Driver/Src/stm32f7xx_hal_adc_ex.c **** }
 740              		.loc 1 393 10 is_stmt 0 view .LVU221
 741 0054 7047     		bx	lr
 742              	.LVL56:
ARM GAS  C:\Users\GUILLE~1\AppData\Local\Temp\ccXICf5i.s 			page 36


 743              	.L48:
 351:Drivers/STM32F7xx_HAL_Driver/Src/stm32f7xx_hal_adc_ex.c ****   
 744              		.loc 1 351 21 view .LVU222
 745 0056 0020     		movs	r0, #0
 746              	.LVL57:
 351:Drivers/STM32F7xx_HAL_Driver/Src/stm32f7xx_hal_adc_ex.c ****   
 747              		.loc 1 351 21 view .LVU223
 748 0058 F9E7     		b	.L46
 749              	.LVL58:
 750              	.L47:
 357:Drivers/STM32F7xx_HAL_Driver/Src/stm32f7xx_hal_adc_ex.c ****     
 751              		.loc 1 357 3 view .LVU224
 752 005a 0220     		movs	r0, #2
 753              	.LVL59:
 394:Drivers/STM32F7xx_HAL_Driver/Src/stm32f7xx_hal_adc_ex.c **** 
 754              		.loc 1 394 1 view .LVU225
 755 005c 7047     		bx	lr
 756              	.L50:
 757 005e 00BF     		.align	2
 758              	.L49:
 759 0060 FEEEFFFF 		.word	-4354
 760              		.cfi_endproc
 761              	.LFE248:
 763              		.section	.text.HAL_ADCEx_InjectedPollForConversion,"ax",%progbits
 764              		.align	1
 765              		.global	HAL_ADCEx_InjectedPollForConversion
 766              		.syntax unified
 767              		.thumb
 768              		.thumb_func
 769              		.fpu fpv5-sp-d16
 771              	HAL_ADCEx_InjectedPollForConversion:
 772              	.LVL60:
 773              	.LFB249:
 404:Drivers/STM32F7xx_HAL_Driver/Src/stm32f7xx_hal_adc_ex.c ****   uint32_t tickstart = 0;
 774              		.loc 1 404 1 is_stmt 1 view -0
 775              		.cfi_startproc
 776              		@ args = 0, pretend = 0, frame = 0
 777              		@ frame_needed = 0, uses_anonymous_args = 0
 404:Drivers/STM32F7xx_HAL_Driver/Src/stm32f7xx_hal_adc_ex.c ****   uint32_t tickstart = 0;
 778              		.loc 1 404 1 is_stmt 0 view .LVU227
 779 0000 70B5     		push	{r4, r5, r6, lr}
 780              	.LCFI9:
 781              		.cfi_def_cfa_offset 16
 782              		.cfi_offset 4, -16
 783              		.cfi_offset 5, -12
 784              		.cfi_offset 6, -8
 785              		.cfi_offset 14, -4
 786 0002 0446     		mov	r4, r0
 787 0004 0D46     		mov	r5, r1
 405:Drivers/STM32F7xx_HAL_Driver/Src/stm32f7xx_hal_adc_ex.c **** 
 788              		.loc 1 405 3 is_stmt 1 view .LVU228
 789              	.LVL61:
 408:Drivers/STM32F7xx_HAL_Driver/Src/stm32f7xx_hal_adc_ex.c **** 
 790              		.loc 1 408 3 view .LVU229
 408:Drivers/STM32F7xx_HAL_Driver/Src/stm32f7xx_hal_adc_ex.c **** 
 791              		.loc 1 408 15 is_stmt 0 view .LVU230
 792 0006 FFF7FEFF 		bl	HAL_GetTick
ARM GAS  C:\Users\GUILLE~1\AppData\Local\Temp\ccXICf5i.s 			page 37


 793              	.LVL62:
 408:Drivers/STM32F7xx_HAL_Driver/Src/stm32f7xx_hal_adc_ex.c **** 
 794              		.loc 1 408 15 view .LVU231
 795 000a 0646     		mov	r6, r0
 796              	.LVL63:
 411:Drivers/STM32F7xx_HAL_Driver/Src/stm32f7xx_hal_adc_ex.c ****   {
 797              		.loc 1 411 3 is_stmt 1 view .LVU232
 798              	.L53:
 411:Drivers/STM32F7xx_HAL_Driver/Src/stm32f7xx_hal_adc_ex.c ****   {
 799              		.loc 1 411 8 view .LVU233
 411:Drivers/STM32F7xx_HAL_Driver/Src/stm32f7xx_hal_adc_ex.c ****   {
 800              		.loc 1 411 11 is_stmt 0 view .LVU234
 801 000c 2368     		ldr	r3, [r4]
 802 000e 1A68     		ldr	r2, [r3]
 411:Drivers/STM32F7xx_HAL_Driver/Src/stm32f7xx_hal_adc_ex.c ****   {
 803              		.loc 1 411 8 view .LVU235
 804 0010 12F0040F 		tst	r2, #4
 805 0014 15D1     		bne	.L66
 414:Drivers/STM32F7xx_HAL_Driver/Src/stm32f7xx_hal_adc_ex.c ****     {
 806              		.loc 1 414 5 is_stmt 1 view .LVU236
 414:Drivers/STM32F7xx_HAL_Driver/Src/stm32f7xx_hal_adc_ex.c ****     {
 807              		.loc 1 414 7 is_stmt 0 view .LVU237
 808 0016 B5F1FF3F 		cmp	r5, #-1
 809 001a F7D0     		beq	.L53
 416:Drivers/STM32F7xx_HAL_Driver/Src/stm32f7xx_hal_adc_ex.c ****       {
 810              		.loc 1 416 7 is_stmt 1 view .LVU238
 416:Drivers/STM32F7xx_HAL_Driver/Src/stm32f7xx_hal_adc_ex.c ****       {
 811              		.loc 1 416 9 is_stmt 0 view .LVU239
 812 001c 5DB9     		cbnz	r5, .L67
 813              	.L54:
 419:Drivers/STM32F7xx_HAL_Driver/Src/stm32f7xx_hal_adc_ex.c ****         {
 814              		.loc 1 419 9 is_stmt 1 view .LVU240
 419:Drivers/STM32F7xx_HAL_Driver/Src/stm32f7xx_hal_adc_ex.c ****         {
 815              		.loc 1 419 14 is_stmt 0 view .LVU241
 816 001e 2368     		ldr	r3, [r4]
 817 0020 1B68     		ldr	r3, [r3]
 419:Drivers/STM32F7xx_HAL_Driver/Src/stm32f7xx_hal_adc_ex.c ****         {
 818              		.loc 1 419 11 view .LVU242
 819 0022 13F0040F 		tst	r3, #4
 820 0026 F1D1     		bne	.L53
 421:Drivers/STM32F7xx_HAL_Driver/Src/stm32f7xx_hal_adc_ex.c ****           /* Process unlocked */
 821              		.loc 1 421 11 is_stmt 1 view .LVU243
 421:Drivers/STM32F7xx_HAL_Driver/Src/stm32f7xx_hal_adc_ex.c ****           /* Process unlocked */
 822              		.loc 1 421 22 is_stmt 0 view .LVU244
 823 0028 0423     		movs	r3, #4
 824 002a 2364     		str	r3, [r4, #64]
 423:Drivers/STM32F7xx_HAL_Driver/Src/stm32f7xx_hal_adc_ex.c ****           return HAL_TIMEOUT;
 825              		.loc 1 423 11 is_stmt 1 view .LVU245
 423:Drivers/STM32F7xx_HAL_Driver/Src/stm32f7xx_hal_adc_ex.c ****           return HAL_TIMEOUT;
 826              		.loc 1 423 11 view .LVU246
 827 002c 0023     		movs	r3, #0
 828 002e 84F83C30 		strb	r3, [r4, #60]
 423:Drivers/STM32F7xx_HAL_Driver/Src/stm32f7xx_hal_adc_ex.c ****           return HAL_TIMEOUT;
 829              		.loc 1 423 11 view .LVU247
 424:Drivers/STM32F7xx_HAL_Driver/Src/stm32f7xx_hal_adc_ex.c ****         }
 830              		.loc 1 424 11 view .LVU248
 424:Drivers/STM32F7xx_HAL_Driver/Src/stm32f7xx_hal_adc_ex.c ****         }
ARM GAS  C:\Users\GUILLE~1\AppData\Local\Temp\ccXICf5i.s 			page 38


 831              		.loc 1 424 18 is_stmt 0 view .LVU249
 832 0032 0320     		movs	r0, #3
 833 0034 32E0     		b	.L56
 834              	.L67:
 416:Drivers/STM32F7xx_HAL_Driver/Src/stm32f7xx_hal_adc_ex.c ****       {
 835              		.loc 1 416 28 discriminator 1 view .LVU250
 836 0036 FFF7FEFF 		bl	HAL_GetTick
 837              	.LVL64:
 416:Drivers/STM32F7xx_HAL_Driver/Src/stm32f7xx_hal_adc_ex.c ****       {
 838              		.loc 1 416 42 discriminator 1 view .LVU251
 839 003a 801B     		subs	r0, r0, r6
 416:Drivers/STM32F7xx_HAL_Driver/Src/stm32f7xx_hal_adc_ex.c ****       {
 840              		.loc 1 416 24 discriminator 1 view .LVU252
 841 003c A842     		cmp	r0, r5
 842 003e E5D9     		bls	.L53
 843 0040 EDE7     		b	.L54
 844              	.L66:
 431:Drivers/STM32F7xx_HAL_Driver/Src/stm32f7xx_hal_adc_ex.c ****     
 845              		.loc 1 431 3 is_stmt 1 view .LVU253
 846 0042 6FF00C02 		mvn	r2, #12
 847 0046 1A60     		str	r2, [r3]
 434:Drivers/STM32F7xx_HAL_Driver/Src/stm32f7xx_hal_adc_ex.c ****   
 848              		.loc 1 434 3 view .LVU254
 849 0048 236C     		ldr	r3, [r4, #64]
 850 004a 43F40053 		orr	r3, r3, #8192
 851 004e 2364     		str	r3, [r4, #64]
 442:Drivers/STM32F7xx_HAL_Driver/Src/stm32f7xx_hal_adc_ex.c ****      (HAL_IS_BIT_CLR(hadc->Instance->JSQR, ADC_JSQR_JL)  ||
 852              		.loc 1 442 3 view .LVU255
 442:Drivers/STM32F7xx_HAL_Driver/Src/stm32f7xx_hal_adc_ex.c ****      (HAL_IS_BIT_CLR(hadc->Instance->JSQR, ADC_JSQR_JL)  ||
 853              		.loc 1 442 6 is_stmt 0 view .LVU256
 854 0050 2368     		ldr	r3, [r4]
 855 0052 9A68     		ldr	r2, [r3, #8]
 442:Drivers/STM32F7xx_HAL_Driver/Src/stm32f7xx_hal_adc_ex.c ****      (HAL_IS_BIT_CLR(hadc->Instance->JSQR, ADC_JSQR_JL)  ||
 856              		.loc 1 442 5 view .LVU257
 857 0054 12F4401F 		tst	r2, #3145728
 858 0058 1FD1     		bne	.L59
 443:Drivers/STM32F7xx_HAL_Driver/Src/stm32f7xx_hal_adc_ex.c ****       HAL_IS_BIT_CLR(hadc->Instance->CR2, ADC_CR2_EOCS)    ) &&
 859              		.loc 1 443 7 discriminator 1 view .LVU258
 860 005a 9A6B     		ldr	r2, [r3, #56]
 442:Drivers/STM32F7xx_HAL_Driver/Src/stm32f7xx_hal_adc_ex.c ****      (HAL_IS_BIT_CLR(hadc->Instance->JSQR, ADC_JSQR_JL)  ||
 861              		.loc 1 442 62 discriminator 1 view .LVU259
 862 005c 12F4401F 		tst	r2, #3145728
 863 0060 03D0     		beq	.L58
 444:Drivers/STM32F7xx_HAL_Driver/Src/stm32f7xx_hal_adc_ex.c ****      (HAL_IS_BIT_CLR(hadc->Instance->CR1, ADC_CR1_JAUTO) &&
 864              		.loc 1 444 7 view .LVU260
 865 0062 9A68     		ldr	r2, [r3, #8]
 443:Drivers/STM32F7xx_HAL_Driver/Src/stm32f7xx_hal_adc_ex.c ****       HAL_IS_BIT_CLR(hadc->Instance->CR2, ADC_CR2_EOCS)    ) &&
 866              		.loc 1 443 58 view .LVU261
 867 0064 12F4806F 		tst	r2, #1024
 868 0068 19D1     		bne	.L60
 869              	.L58:
 445:Drivers/STM32F7xx_HAL_Driver/Src/stm32f7xx_hal_adc_ex.c ****       (ADC_IS_SOFTWARE_START_REGULAR(hadc)       &&
 870              		.loc 1 445 7 view .LVU262
 871 006a 5A68     		ldr	r2, [r3, #4]
 444:Drivers/STM32F7xx_HAL_Driver/Src/stm32f7xx_hal_adc_ex.c ****      (HAL_IS_BIT_CLR(hadc->Instance->CR1, ADC_CR1_JAUTO) &&
 872              		.loc 1 444 62 view .LVU263
 873 006c 12F4806F 		tst	r2, #1024
ARM GAS  C:\Users\GUILLE~1\AppData\Local\Temp\ccXICf5i.s 			page 39


 874 0070 17D1     		bne	.L61
 446:Drivers/STM32F7xx_HAL_Driver/Src/stm32f7xx_hal_adc_ex.c ****       (hadc->Init.ContinuousConvMode == DISABLE)   )       )   )
 875              		.loc 1 446 8 view .LVU264
 876 0072 9B68     		ldr	r3, [r3, #8]
 445:Drivers/STM32F7xx_HAL_Driver/Src/stm32f7xx_hal_adc_ex.c ****       (ADC_IS_SOFTWARE_START_REGULAR(hadc)       &&
 877              		.loc 1 445 58 view .LVU265
 878 0074 13F0405F 		tst	r3, #805306368
 879 0078 15D1     		bne	.L62
 447:Drivers/STM32F7xx_HAL_Driver/Src/stm32f7xx_hal_adc_ex.c ****   {
 880              		.loc 1 447 18 view .LVU266
 881 007a A369     		ldr	r3, [r4, #24]
 446:Drivers/STM32F7xx_HAL_Driver/Src/stm32f7xx_hal_adc_ex.c ****       (hadc->Init.ContinuousConvMode == DISABLE)   )       )   )
 882              		.loc 1 446 50 view .LVU267
 883 007c ABB9     		cbnz	r3, .L63
 450:Drivers/STM32F7xx_HAL_Driver/Src/stm32f7xx_hal_adc_ex.c ****     
 884              		.loc 1 450 5 is_stmt 1 view .LVU268
 885 007e 236C     		ldr	r3, [r4, #64]
 886 0080 23F48053 		bic	r3, r3, #4096
 887 0084 2364     		str	r3, [r4, #64]
 452:Drivers/STM32F7xx_HAL_Driver/Src/stm32f7xx_hal_adc_ex.c ****     { 
 888              		.loc 1 452 5 view .LVU269
 452:Drivers/STM32F7xx_HAL_Driver/Src/stm32f7xx_hal_adc_ex.c ****     { 
 889              		.loc 1 452 9 is_stmt 0 view .LVU270
 890 0086 236C     		ldr	r3, [r4, #64]
 452:Drivers/STM32F7xx_HAL_Driver/Src/stm32f7xx_hal_adc_ex.c ****     { 
 891              		.loc 1 452 8 view .LVU271
 892 0088 13F4807F 		tst	r3, #256
 893 008c 0FD1     		bne	.L64
 454:Drivers/STM32F7xx_HAL_Driver/Src/stm32f7xx_hal_adc_ex.c ****     }
 894              		.loc 1 454 7 is_stmt 1 view .LVU272
 895 008e 236C     		ldr	r3, [r4, #64]
 896 0090 43F00103 		orr	r3, r3, #1
 897 0094 2364     		str	r3, [r4, #64]
 459:Drivers/STM32F7xx_HAL_Driver/Src/stm32f7xx_hal_adc_ex.c **** }      
 898              		.loc 1 459 10 is_stmt 0 view .LVU273
 899 0096 0020     		movs	r0, #0
 900 0098 00E0     		b	.L56
 901              	.L59:
 459:Drivers/STM32F7xx_HAL_Driver/Src/stm32f7xx_hal_adc_ex.c **** }      
 902              		.loc 1 459 10 view .LVU274
 903 009a 0020     		movs	r0, #0
 904              	.L56:
 460:Drivers/STM32F7xx_HAL_Driver/Src/stm32f7xx_hal_adc_ex.c ****   
 905              		.loc 1 460 1 view .LVU275
 906 009c 70BD     		pop	{r4, r5, r6, pc}
 907              	.LVL65:
 908              	.L60:
 459:Drivers/STM32F7xx_HAL_Driver/Src/stm32f7xx_hal_adc_ex.c **** }      
 909              		.loc 1 459 10 view .LVU276
 910 009e 0020     		movs	r0, #0
 911 00a0 FCE7     		b	.L56
 912              	.L61:
 913 00a2 0020     		movs	r0, #0
 914 00a4 FAE7     		b	.L56
 915              	.L62:
 916 00a6 0020     		movs	r0, #0
 917 00a8 F8E7     		b	.L56
ARM GAS  C:\Users\GUILLE~1\AppData\Local\Temp\ccXICf5i.s 			page 40


 918              	.L63:
 459:Drivers/STM32F7xx_HAL_Driver/Src/stm32f7xx_hal_adc_ex.c **** }      
 919              		.loc 1 459 10 view .LVU277
 920 00aa 0020     		movs	r0, #0
 921 00ac F6E7     		b	.L56
 922              	.L64:
 923 00ae 0020     		movs	r0, #0
 924 00b0 F4E7     		b	.L56
 925              		.cfi_endproc
 926              	.LFE249:
 928              		.section	.text.HAL_ADCEx_InjectedStop_IT,"ax",%progbits
 929              		.align	1
 930              		.global	HAL_ADCEx_InjectedStop_IT
 931              		.syntax unified
 932              		.thumb
 933              		.thumb_func
 934              		.fpu fpv5-sp-d16
 936              	HAL_ADCEx_InjectedStop_IT:
 937              	.LVL66:
 938              	.LFB250:
 475:Drivers/STM32F7xx_HAL_Driver/Src/stm32f7xx_hal_adc_ex.c ****   HAL_StatusTypeDef tmp_hal_status = HAL_OK;
 939              		.loc 1 475 1 is_stmt 1 view -0
 940              		.cfi_startproc
 941              		@ args = 0, pretend = 0, frame = 0
 942              		@ frame_needed = 0, uses_anonymous_args = 0
 943              		@ link register save eliminated.
 475:Drivers/STM32F7xx_HAL_Driver/Src/stm32f7xx_hal_adc_ex.c ****   HAL_StatusTypeDef tmp_hal_status = HAL_OK;
 944              		.loc 1 475 1 is_stmt 0 view .LVU279
 945 0000 0346     		mov	r3, r0
 476:Drivers/STM32F7xx_HAL_Driver/Src/stm32f7xx_hal_adc_ex.c ****   
 946              		.loc 1 476 3 is_stmt 1 view .LVU280
 947              	.LVL67:
 479:Drivers/STM32F7xx_HAL_Driver/Src/stm32f7xx_hal_adc_ex.c **** 
 948              		.loc 1 479 3 view .LVU281
 482:Drivers/STM32F7xx_HAL_Driver/Src/stm32f7xx_hal_adc_ex.c ****     
 949              		.loc 1 482 3 view .LVU282
 482:Drivers/STM32F7xx_HAL_Driver/Src/stm32f7xx_hal_adc_ex.c ****     
 950              		.loc 1 482 3 view .LVU283
 951 0002 90F83C20 		ldrb	r2, [r0, #60]	@ zero_extendqisi2
 952 0006 012A     		cmp	r2, #1
 953 0008 2BD0     		beq	.L72
 482:Drivers/STM32F7xx_HAL_Driver/Src/stm32f7xx_hal_adc_ex.c ****     
 954              		.loc 1 482 3 discriminator 2 view .LVU284
 955 000a 0122     		movs	r2, #1
 956 000c 80F83C20 		strb	r2, [r0, #60]
 482:Drivers/STM32F7xx_HAL_Driver/Src/stm32f7xx_hal_adc_ex.c ****     
 957              		.loc 1 482 3 discriminator 2 view .LVU285
 490:Drivers/STM32F7xx_HAL_Driver/Src/stm32f7xx_hal_adc_ex.c ****      HAL_IS_BIT_CLR(hadc->Instance->CR1, ADC_CR1_JAUTO)   )
 958              		.loc 1 490 3 discriminator 2 view .LVU286
 490:Drivers/STM32F7xx_HAL_Driver/Src/stm32f7xx_hal_adc_ex.c ****      HAL_IS_BIT_CLR(hadc->Instance->CR1, ADC_CR1_JAUTO)   )
 959              		.loc 1 490 12 is_stmt 0 discriminator 2 view .LVU287
 960 0010 026C     		ldr	r2, [r0, #64]
 490:Drivers/STM32F7xx_HAL_Driver/Src/stm32f7xx_hal_adc_ex.c ****      HAL_IS_BIT_CLR(hadc->Instance->CR1, ADC_CR1_JAUTO)   )
 961              		.loc 1 490 5 discriminator 2 view .LVU288
 962 0012 12F4807F 		tst	r2, #256
 963 0016 19D1     		bne	.L70
 491:Drivers/STM32F7xx_HAL_Driver/Src/stm32f7xx_hal_adc_ex.c ****   {
ARM GAS  C:\Users\GUILLE~1\AppData\Local\Temp\ccXICf5i.s 			page 41


 964              		.loc 1 491 6 discriminator 1 view .LVU289
 965 0018 0268     		ldr	r2, [r0]
 966 001a 5168     		ldr	r1, [r2, #4]
 490:Drivers/STM32F7xx_HAL_Driver/Src/stm32f7xx_hal_adc_ex.c ****      HAL_IS_BIT_CLR(hadc->Instance->CR1, ADC_CR1_JAUTO)   )
 967              		.loc 1 490 57 discriminator 1 view .LVU290
 968 001c 11F4806F 		tst	r1, #1024
 969 0020 14D1     		bne	.L70
 495:Drivers/STM32F7xx_HAL_Driver/Src/stm32f7xx_hal_adc_ex.c ****     
 970              		.loc 1 495 5 is_stmt 1 view .LVU291
 971 0022 9168     		ldr	r1, [r2, #8]
 972 0024 21F00101 		bic	r1, r1, #1
 973 0028 9160     		str	r1, [r2, #8]
 498:Drivers/STM32F7xx_HAL_Driver/Src/stm32f7xx_hal_adc_ex.c ****     {
 974              		.loc 1 498 5 view .LVU292
 498:Drivers/STM32F7xx_HAL_Driver/Src/stm32f7xx_hal_adc_ex.c ****     {
 975              		.loc 1 498 8 is_stmt 0 view .LVU293
 976 002a 0268     		ldr	r2, [r0]
 977 002c 9168     		ldr	r1, [r2, #8]
 498:Drivers/STM32F7xx_HAL_Driver/Src/stm32f7xx_hal_adc_ex.c ****     {
 978              		.loc 1 498 7 view .LVU294
 979 002e 11F0010F 		tst	r1, #1
 980 0032 14D1     		bne	.L73
 501:Drivers/STM32F7xx_HAL_Driver/Src/stm32f7xx_hal_adc_ex.c ****       
 981              		.loc 1 501 7 is_stmt 1 view .LVU295
 982 0034 5168     		ldr	r1, [r2, #4]
 983 0036 21F08001 		bic	r1, r1, #128
 984 003a 5160     		str	r1, [r2, #4]
 504:Drivers/STM32F7xx_HAL_Driver/Src/stm32f7xx_hal_adc_ex.c ****                         HAL_ADC_STATE_REG_BUSY | HAL_ADC_STATE_INJ_BUSY,
 985              		.loc 1 504 7 view .LVU296
 986 003c 016C     		ldr	r1, [r0, #64]
 987 003e 0A4A     		ldr	r2, .L74
 988 0040 0A40     		ands	r2, r2, r1
 989 0042 42F00102 		orr	r2, r2, #1
 990 0046 0264     		str	r2, [r0, #64]
 476:Drivers/STM32F7xx_HAL_Driver/Src/stm32f7xx_hal_adc_ex.c ****   
 991              		.loc 1 476 21 is_stmt 0 view .LVU297
 992 0048 0020     		movs	r0, #0
 993              	.LVL68:
 476:Drivers/STM32F7xx_HAL_Driver/Src/stm32f7xx_hal_adc_ex.c ****   
 994              		.loc 1 476 21 view .LVU298
 995 004a 04E0     		b	.L71
 996              	.LVL69:
 997              	.L70:
 512:Drivers/STM32F7xx_HAL_Driver/Src/stm32f7xx_hal_adc_ex.c ****       
 998              		.loc 1 512 5 is_stmt 1 view .LVU299
 999 004c 1A6C     		ldr	r2, [r3, #64]
 1000 004e 42F02002 		orr	r2, r2, #32
 1001 0052 1A64     		str	r2, [r3, #64]
 514:Drivers/STM32F7xx_HAL_Driver/Src/stm32f7xx_hal_adc_ex.c ****   }
 1002              		.loc 1 514 5 view .LVU300
 1003              	.LVL70:
 514:Drivers/STM32F7xx_HAL_Driver/Src/stm32f7xx_hal_adc_ex.c ****   }
 1004              		.loc 1 514 20 is_stmt 0 view .LVU301
 1005 0054 0120     		movs	r0, #1
 1006              	.LVL71:
 1007              	.L71:
 518:Drivers/STM32F7xx_HAL_Driver/Src/stm32f7xx_hal_adc_ex.c ****   
ARM GAS  C:\Users\GUILLE~1\AppData\Local\Temp\ccXICf5i.s 			page 42


 1008              		.loc 1 518 3 is_stmt 1 view .LVU302
 518:Drivers/STM32F7xx_HAL_Driver/Src/stm32f7xx_hal_adc_ex.c ****   
 1009              		.loc 1 518 3 view .LVU303
 1010 0056 0022     		movs	r2, #0
 1011 0058 83F83C20 		strb	r2, [r3, #60]
 518:Drivers/STM32F7xx_HAL_Driver/Src/stm32f7xx_hal_adc_ex.c ****   
 1012              		.loc 1 518 3 view .LVU304
 521:Drivers/STM32F7xx_HAL_Driver/Src/stm32f7xx_hal_adc_ex.c **** }
 1013              		.loc 1 521 3 view .LVU305
 521:Drivers/STM32F7xx_HAL_Driver/Src/stm32f7xx_hal_adc_ex.c **** }
 1014              		.loc 1 521 10 is_stmt 0 view .LVU306
 1015 005c 7047     		bx	lr
 1016              	.LVL72:
 1017              	.L73:
 476:Drivers/STM32F7xx_HAL_Driver/Src/stm32f7xx_hal_adc_ex.c ****   
 1018              		.loc 1 476 21 view .LVU307
 1019 005e 0020     		movs	r0, #0
 1020              	.LVL73:
 476:Drivers/STM32F7xx_HAL_Driver/Src/stm32f7xx_hal_adc_ex.c ****   
 1021              		.loc 1 476 21 view .LVU308
 1022 0060 F9E7     		b	.L71
 1023              	.LVL74:
 1024              	.L72:
 482:Drivers/STM32F7xx_HAL_Driver/Src/stm32f7xx_hal_adc_ex.c ****     
 1025              		.loc 1 482 3 view .LVU309
 1026 0062 0220     		movs	r0, #2
 1027              	.LVL75:
 522:Drivers/STM32F7xx_HAL_Driver/Src/stm32f7xx_hal_adc_ex.c **** 
 1028              		.loc 1 522 1 view .LVU310
 1029 0064 7047     		bx	lr
 1030              	.L75:
 1031 0066 00BF     		.align	2
 1032              	.L74:
 1033 0068 FEEEFFFF 		.word	-4354
 1034              		.cfi_endproc
 1035              	.LFE250:
 1037              		.section	.text.HAL_ADCEx_InjectedGetValue,"ax",%progbits
 1038              		.align	1
 1039              		.global	HAL_ADCEx_InjectedGetValue
 1040              		.syntax unified
 1041              		.thumb
 1042              		.thumb_func
 1043              		.fpu fpv5-sp-d16
 1045              	HAL_ADCEx_InjectedGetValue:
 1046              	.LVL76:
 1047              	.LFB251:
 537:Drivers/STM32F7xx_HAL_Driver/Src/stm32f7xx_hal_adc_ex.c ****   __IO uint32_t tmp = 0;
 1048              		.loc 1 537 1 is_stmt 1 view -0
 1049              		.cfi_startproc
 1050              		@ args = 0, pretend = 0, frame = 8
 1051              		@ frame_needed = 0, uses_anonymous_args = 0
 1052              		@ link register save eliminated.
 537:Drivers/STM32F7xx_HAL_Driver/Src/stm32f7xx_hal_adc_ex.c ****   __IO uint32_t tmp = 0;
 1053              		.loc 1 537 1 is_stmt 0 view .LVU312
 1054 0000 82B0     		sub	sp, sp, #8
 1055              	.LCFI10:
 1056              		.cfi_def_cfa_offset 8
ARM GAS  C:\Users\GUILLE~1\AppData\Local\Temp\ccXICf5i.s 			page 43


 538:Drivers/STM32F7xx_HAL_Driver/Src/stm32f7xx_hal_adc_ex.c ****   
 1057              		.loc 1 538 3 is_stmt 1 view .LVU313
 538:Drivers/STM32F7xx_HAL_Driver/Src/stm32f7xx_hal_adc_ex.c ****   
 1058              		.loc 1 538 17 is_stmt 0 view .LVU314
 1059 0002 0023     		movs	r3, #0
 1060 0004 0193     		str	r3, [sp, #4]
 541:Drivers/STM32F7xx_HAL_Driver/Src/stm32f7xx_hal_adc_ex.c ****   
 1061              		.loc 1 541 3 is_stmt 1 view .LVU315
 545:Drivers/STM32F7xx_HAL_Driver/Src/stm32f7xx_hal_adc_ex.c ****   
 1062              		.loc 1 545 3 view .LVU316
 1063 0006 0368     		ldr	r3, [r0]
 1064 0008 6FF00402 		mvn	r2, #4
 1065 000c 1A60     		str	r2, [r3]
 548:Drivers/STM32F7xx_HAL_Driver/Src/stm32f7xx_hal_adc_ex.c ****   {  
 1066              		.loc 1 548 3 view .LVU317
 1067 000e 0139     		subs	r1, r1, #1
 1068              	.LVL77:
 548:Drivers/STM32F7xx_HAL_Driver/Src/stm32f7xx_hal_adc_ex.c ****   {  
 1069              		.loc 1 548 3 is_stmt 0 view .LVU318
 1070 0010 0329     		cmp	r1, #3
 1071 0012 06D8     		bhi	.L77
 1072 0014 DFE801F0 		tbb	[pc, r1]
 1073              	.L79:
 1074 0018 10       		.byte	(.L82-.L79)/2
 1075 0019 0C       		.byte	(.L81-.L79)/2
 1076 001a 08       		.byte	(.L80-.L79)/2
 1077 001b 02       		.byte	(.L78-.L79)/2
 1078              		.p2align 1
 1079              	.L78:
 552:Drivers/STM32F7xx_HAL_Driver/Src/stm32f7xx_hal_adc_ex.c ****     }  
 1080              		.loc 1 552 7 is_stmt 1 view .LVU319
 552:Drivers/STM32F7xx_HAL_Driver/Src/stm32f7xx_hal_adc_ex.c ****     }  
 1081              		.loc 1 552 18 is_stmt 0 view .LVU320
 1082 001c 0368     		ldr	r3, [r0]
 552:Drivers/STM32F7xx_HAL_Driver/Src/stm32f7xx_hal_adc_ex.c ****     }  
 1083              		.loc 1 552 28 view .LVU321
 1084 001e 9B6C     		ldr	r3, [r3, #72]
 552:Drivers/STM32F7xx_HAL_Driver/Src/stm32f7xx_hal_adc_ex.c ****     }  
 1085              		.loc 1 552 11 view .LVU322
 1086 0020 0193     		str	r3, [sp, #4]
 554:Drivers/STM32F7xx_HAL_Driver/Src/stm32f7xx_hal_adc_ex.c ****     case ADC_INJECTED_RANK_3: 
 1087              		.loc 1 554 5 is_stmt 1 view .LVU323
 1088              	.L77:
 573:Drivers/STM32F7xx_HAL_Driver/Src/stm32f7xx_hal_adc_ex.c **** }
 1089              		.loc 1 573 3 view .LVU324
 573:Drivers/STM32F7xx_HAL_Driver/Src/stm32f7xx_hal_adc_ex.c **** }
 1090              		.loc 1 573 10 is_stmt 0 view .LVU325
 1091 0022 0198     		ldr	r0, [sp, #4]
 1092              	.LVL78:
 574:Drivers/STM32F7xx_HAL_Driver/Src/stm32f7xx_hal_adc_ex.c **** 
 1093              		.loc 1 574 1 view .LVU326
 1094 0024 02B0     		add	sp, sp, #8
 1095              	.LCFI11:
 1096              		.cfi_remember_state
 1097              		.cfi_def_cfa_offset 0
 1098              		@ sp needed
 1099 0026 7047     		bx	lr
ARM GAS  C:\Users\GUILLE~1\AppData\Local\Temp\ccXICf5i.s 			page 44


 1100              	.LVL79:
 1101              	.L80:
 1102              	.LCFI12:
 1103              		.cfi_restore_state
 557:Drivers/STM32F7xx_HAL_Driver/Src/stm32f7xx_hal_adc_ex.c ****     }  
 1104              		.loc 1 557 7 is_stmt 1 view .LVU327
 557:Drivers/STM32F7xx_HAL_Driver/Src/stm32f7xx_hal_adc_ex.c ****     }  
 1105              		.loc 1 557 18 is_stmt 0 view .LVU328
 1106 0028 0368     		ldr	r3, [r0]
 557:Drivers/STM32F7xx_HAL_Driver/Src/stm32f7xx_hal_adc_ex.c ****     }  
 1107              		.loc 1 557 28 view .LVU329
 1108 002a 5B6C     		ldr	r3, [r3, #68]
 557:Drivers/STM32F7xx_HAL_Driver/Src/stm32f7xx_hal_adc_ex.c ****     }  
 1109              		.loc 1 557 11 view .LVU330
 1110 002c 0193     		str	r3, [sp, #4]
 559:Drivers/STM32F7xx_HAL_Driver/Src/stm32f7xx_hal_adc_ex.c ****     case ADC_INJECTED_RANK_2: 
 1111              		.loc 1 559 5 is_stmt 1 view .LVU331
 1112 002e F8E7     		b	.L77
 1113              	.L81:
 562:Drivers/STM32F7xx_HAL_Driver/Src/stm32f7xx_hal_adc_ex.c ****     }
 1114              		.loc 1 562 7 view .LVU332
 562:Drivers/STM32F7xx_HAL_Driver/Src/stm32f7xx_hal_adc_ex.c ****     }
 1115              		.loc 1 562 18 is_stmt 0 view .LVU333
 1116 0030 0368     		ldr	r3, [r0]
 562:Drivers/STM32F7xx_HAL_Driver/Src/stm32f7xx_hal_adc_ex.c ****     }
 1117              		.loc 1 562 28 view .LVU334
 1118 0032 1B6C     		ldr	r3, [r3, #64]
 562:Drivers/STM32F7xx_HAL_Driver/Src/stm32f7xx_hal_adc_ex.c ****     }
 1119              		.loc 1 562 11 view .LVU335
 1120 0034 0193     		str	r3, [sp, #4]
 564:Drivers/STM32F7xx_HAL_Driver/Src/stm32f7xx_hal_adc_ex.c ****     case ADC_INJECTED_RANK_1:
 1121              		.loc 1 564 5 is_stmt 1 view .LVU336
 1122 0036 F4E7     		b	.L77
 1123              	.L82:
 567:Drivers/STM32F7xx_HAL_Driver/Src/stm32f7xx_hal_adc_ex.c ****     }
 1124              		.loc 1 567 7 view .LVU337
 567:Drivers/STM32F7xx_HAL_Driver/Src/stm32f7xx_hal_adc_ex.c ****     }
 1125              		.loc 1 567 18 is_stmt 0 view .LVU338
 1126 0038 0368     		ldr	r3, [r0]
 567:Drivers/STM32F7xx_HAL_Driver/Src/stm32f7xx_hal_adc_ex.c ****     }
 1127              		.loc 1 567 28 view .LVU339
 1128 003a DB6B     		ldr	r3, [r3, #60]
 567:Drivers/STM32F7xx_HAL_Driver/Src/stm32f7xx_hal_adc_ex.c ****     }
 1129              		.loc 1 567 11 view .LVU340
 1130 003c 0193     		str	r3, [sp, #4]
 569:Drivers/STM32F7xx_HAL_Driver/Src/stm32f7xx_hal_adc_ex.c ****     default:
 1131              		.loc 1 569 5 is_stmt 1 view .LVU341
 1132 003e F0E7     		b	.L77
 1133              		.cfi_endproc
 1134              	.LFE251:
 1136              		.section	.text.HAL_ADCEx_MultiModeStart_DMA,"ax",%progbits
 1137              		.align	1
 1138              		.global	HAL_ADCEx_MultiModeStart_DMA
 1139              		.syntax unified
 1140              		.thumb
 1141              		.thumb_func
 1142              		.fpu fpv5-sp-d16
ARM GAS  C:\Users\GUILLE~1\AppData\Local\Temp\ccXICf5i.s 			page 45


 1144              	HAL_ADCEx_MultiModeStart_DMA:
 1145              	.LVL80:
 1146              	.LFB252:
 588:Drivers/STM32F7xx_HAL_Driver/Src/stm32f7xx_hal_adc_ex.c ****   __IO uint32_t counter = 0;
 1147              		.loc 1 588 1 view -0
 1148              		.cfi_startproc
 1149              		@ args = 0, pretend = 0, frame = 8
 1150              		@ frame_needed = 0, uses_anonymous_args = 0
 588:Drivers/STM32F7xx_HAL_Driver/Src/stm32f7xx_hal_adc_ex.c ****   __IO uint32_t counter = 0;
 1151              		.loc 1 588 1 is_stmt 0 view .LVU343
 1152 0000 30B5     		push	{r4, r5, lr}
 1153              	.LCFI13:
 1154              		.cfi_def_cfa_offset 12
 1155              		.cfi_offset 4, -12
 1156              		.cfi_offset 5, -8
 1157              		.cfi_offset 14, -4
 1158 0002 83B0     		sub	sp, sp, #12
 1159              	.LCFI14:
 1160              		.cfi_def_cfa_offset 24
 1161 0004 1346     		mov	r3, r2
 589:Drivers/STM32F7xx_HAL_Driver/Src/stm32f7xx_hal_adc_ex.c ****   
 1162              		.loc 1 589 3 is_stmt 1 view .LVU344
 589:Drivers/STM32F7xx_HAL_Driver/Src/stm32f7xx_hal_adc_ex.c ****   
 1163              		.loc 1 589 17 is_stmt 0 view .LVU345
 1164 0006 0022     		movs	r2, #0
 1165              	.LVL81:
 589:Drivers/STM32F7xx_HAL_Driver/Src/stm32f7xx_hal_adc_ex.c ****   
 1166              		.loc 1 589 17 view .LVU346
 1167 0008 0192     		str	r2, [sp, #4]
 592:Drivers/STM32F7xx_HAL_Driver/Src/stm32f7xx_hal_adc_ex.c ****   assert_param(IS_ADC_EXT_TRIG_EDGE(hadc->Init.ExternalTrigConvEdge));
 1168              		.loc 1 592 3 is_stmt 1 view .LVU347
 593:Drivers/STM32F7xx_HAL_Driver/Src/stm32f7xx_hal_adc_ex.c ****   assert_param(IS_FUNCTIONAL_STATE(hadc->Init.DMAContinuousRequests));
 1169              		.loc 1 593 3 view .LVU348
 594:Drivers/STM32F7xx_HAL_Driver/Src/stm32f7xx_hal_adc_ex.c ****   
 1170              		.loc 1 594 3 view .LVU349
 597:Drivers/STM32F7xx_HAL_Driver/Src/stm32f7xx_hal_adc_ex.c ****   
 1171              		.loc 1 597 3 view .LVU350
 597:Drivers/STM32F7xx_HAL_Driver/Src/stm32f7xx_hal_adc_ex.c ****   
 1172              		.loc 1 597 3 view .LVU351
 1173 000a 90F83C20 		ldrb	r2, [r0, #60]	@ zero_extendqisi2
 1174 000e 012A     		cmp	r2, #1
 1175 0010 7AD0     		beq	.L95
 1176 0012 0446     		mov	r4, r0
 597:Drivers/STM32F7xx_HAL_Driver/Src/stm32f7xx_hal_adc_ex.c ****   
 1177              		.loc 1 597 3 discriminator 2 view .LVU352
 1178 0014 0122     		movs	r2, #1
 1179 0016 80F83C20 		strb	r2, [r0, #60]
 597:Drivers/STM32F7xx_HAL_Driver/Src/stm32f7xx_hal_adc_ex.c ****   
 1180              		.loc 1 597 3 discriminator 2 view .LVU353
 601:Drivers/STM32F7xx_HAL_Driver/Src/stm32f7xx_hal_adc_ex.c ****   {  
 1181              		.loc 1 601 3 discriminator 2 view .LVU354
 601:Drivers/STM32F7xx_HAL_Driver/Src/stm32f7xx_hal_adc_ex.c ****   {  
 1182              		.loc 1 601 11 is_stmt 0 discriminator 2 view .LVU355
 1183 001a 0268     		ldr	r2, [r0]
 601:Drivers/STM32F7xx_HAL_Driver/Src/stm32f7xx_hal_adc_ex.c ****   {  
 1184              		.loc 1 601 21 discriminator 2 view .LVU356
 1185 001c 9068     		ldr	r0, [r2, #8]
ARM GAS  C:\Users\GUILLE~1\AppData\Local\Temp\ccXICf5i.s 			page 46


 1186              	.LVL82:
 601:Drivers/STM32F7xx_HAL_Driver/Src/stm32f7xx_hal_adc_ex.c ****   {  
 1187              		.loc 1 601 5 discriminator 2 view .LVU357
 1188 001e 10F0010F 		tst	r0, #1
 1189 0022 13D1     		bne	.L86
 604:Drivers/STM32F7xx_HAL_Driver/Src/stm32f7xx_hal_adc_ex.c ****     
 1190              		.loc 1 604 5 is_stmt 1 view .LVU358
 1191 0024 9068     		ldr	r0, [r2, #8]
 1192 0026 40F00100 		orr	r0, r0, #1
 1193 002a 9060     		str	r0, [r2, #8]
 608:Drivers/STM32F7xx_HAL_Driver/Src/stm32f7xx_hal_adc_ex.c ****     while(counter != 0)
 1194              		.loc 1 608 5 view .LVU359
 608:Drivers/STM32F7xx_HAL_Driver/Src/stm32f7xx_hal_adc_ex.c ****     while(counter != 0)
 1195              		.loc 1 608 53 is_stmt 0 view .LVU360
 1196 002c 384A     		ldr	r2, .L98
 1197 002e 1068     		ldr	r0, [r2]
 1198 0030 384A     		ldr	r2, .L98+4
 1199 0032 A2FB0020 		umull	r2, r0, r2, r0
 1200 0036 800C     		lsrs	r0, r0, #18
 608:Drivers/STM32F7xx_HAL_Driver/Src/stm32f7xx_hal_adc_ex.c ****     while(counter != 0)
 1201              		.loc 1 608 34 view .LVU361
 1202 0038 00EB4000 		add	r0, r0, r0, lsl #1
 608:Drivers/STM32F7xx_HAL_Driver/Src/stm32f7xx_hal_adc_ex.c ****     while(counter != 0)
 1203              		.loc 1 608 13 view .LVU362
 1204 003c 0190     		str	r0, [sp, #4]
 609:Drivers/STM32F7xx_HAL_Driver/Src/stm32f7xx_hal_adc_ex.c ****     {
 1205              		.loc 1 609 5 is_stmt 1 view .LVU363
 609:Drivers/STM32F7xx_HAL_Driver/Src/stm32f7xx_hal_adc_ex.c ****     {
 1206              		.loc 1 609 10 is_stmt 0 view .LVU364
 1207 003e 02E0     		b	.L87
 1208              	.L88:
 611:Drivers/STM32F7xx_HAL_Driver/Src/stm32f7xx_hal_adc_ex.c ****     }
 1209              		.loc 1 611 7 is_stmt 1 view .LVU365
 611:Drivers/STM32F7xx_HAL_Driver/Src/stm32f7xx_hal_adc_ex.c ****     }
 1210              		.loc 1 611 14 is_stmt 0 view .LVU366
 1211 0040 0198     		ldr	r0, [sp, #4]
 1212 0042 0138     		subs	r0, r0, #1
 1213 0044 0190     		str	r0, [sp, #4]
 1214              	.L87:
 609:Drivers/STM32F7xx_HAL_Driver/Src/stm32f7xx_hal_adc_ex.c ****     {
 1215              		.loc 1 609 10 is_stmt 1 view .LVU367
 609:Drivers/STM32F7xx_HAL_Driver/Src/stm32f7xx_hal_adc_ex.c ****     {
 1216              		.loc 1 609 19 is_stmt 0 view .LVU368
 1217 0046 0198     		ldr	r0, [sp, #4]
 609:Drivers/STM32F7xx_HAL_Driver/Src/stm32f7xx_hal_adc_ex.c ****     {
 1218              		.loc 1 609 10 view .LVU369
 1219 0048 0028     		cmp	r0, #0
 1220 004a F9D1     		bne	.L88
 1221              	.L86:
 616:Drivers/STM32F7xx_HAL_Driver/Src/stm32f7xx_hal_adc_ex.c ****   {
 1222              		.loc 1 616 3 is_stmt 1 view .LVU370
 616:Drivers/STM32F7xx_HAL_Driver/Src/stm32f7xx_hal_adc_ex.c ****   {
 1223              		.loc 1 616 6 is_stmt 0 view .LVU371
 1224 004c 2068     		ldr	r0, [r4]
 1225 004e 8268     		ldr	r2, [r0, #8]
 616:Drivers/STM32F7xx_HAL_Driver/Src/stm32f7xx_hal_adc_ex.c ****   {
 1226              		.loc 1 616 5 view .LVU372
ARM GAS  C:\Users\GUILLE~1\AppData\Local\Temp\ccXICf5i.s 			page 47


 1227 0050 12F0010F 		tst	r2, #1
 1228 0054 4DD0     		beq	.L89
 621:Drivers/STM32F7xx_HAL_Driver/Src/stm32f7xx_hal_adc_ex.c ****                       HAL_ADC_STATE_READY | HAL_ADC_STATE_REG_EOC | HAL_ADC_STATE_REG_OVR,
 1229              		.loc 1 621 5 is_stmt 1 view .LVU373
 1230 0056 256C     		ldr	r5, [r4, #64]
 1231 0058 2F4A     		ldr	r2, .L98+8
 1232 005a 2A40     		ands	r2, r2, r5
 1233 005c 42F48072 		orr	r2, r2, #256
 1234 0060 2264     		str	r2, [r4, #64]
 627:Drivers/STM32F7xx_HAL_Driver/Src/stm32f7xx_hal_adc_ex.c ****     {
 1235              		.loc 1 627 5 view .LVU374
 627:Drivers/STM32F7xx_HAL_Driver/Src/stm32f7xx_hal_adc_ex.c ****     {
 1236              		.loc 1 627 9 is_stmt 0 view .LVU375
 1237 0062 4268     		ldr	r2, [r0, #4]
 627:Drivers/STM32F7xx_HAL_Driver/Src/stm32f7xx_hal_adc_ex.c ****     {
 1238              		.loc 1 627 8 view .LVU376
 1239 0064 12F4806F 		tst	r2, #1024
 1240 0068 05D0     		beq	.L90
 629:Drivers/STM32F7xx_HAL_Driver/Src/stm32f7xx_hal_adc_ex.c ****     }
 1241              		.loc 1 629 7 is_stmt 1 view .LVU377
 1242 006a 226C     		ldr	r2, [r4, #64]
 1243 006c 22F44052 		bic	r2, r2, #12288
 1244 0070 42F48052 		orr	r2, r2, #4096
 1245 0074 2264     		str	r2, [r4, #64]
 1246              	.L90:
 633:Drivers/STM32F7xx_HAL_Driver/Src/stm32f7xx_hal_adc_ex.c ****     {
 1247              		.loc 1 633 5 view .LVU378
 633:Drivers/STM32F7xx_HAL_Driver/Src/stm32f7xx_hal_adc_ex.c ****     {
 1248              		.loc 1 633 9 is_stmt 0 view .LVU379
 1249 0076 226C     		ldr	r2, [r4, #64]
 633:Drivers/STM32F7xx_HAL_Driver/Src/stm32f7xx_hal_adc_ex.c ****     {
 1250              		.loc 1 633 8 view .LVU380
 1251 0078 12F4805F 		tst	r2, #4096
 1252 007c 30D0     		beq	.L91
 636:Drivers/STM32F7xx_HAL_Driver/Src/stm32f7xx_hal_adc_ex.c ****     }
 1253              		.loc 1 636 7 is_stmt 1 view .LVU381
 1254 007e 626C     		ldr	r2, [r4, #68]
 1255 0080 22F00602 		bic	r2, r2, #6
 1256 0084 6264     		str	r2, [r4, #68]
 1257              	.L92:
 647:Drivers/STM32F7xx_HAL_Driver/Src/stm32f7xx_hal_adc_ex.c ****     
 1258              		.loc 1 647 5 view .LVU382
 647:Drivers/STM32F7xx_HAL_Driver/Src/stm32f7xx_hal_adc_ex.c ****     
 1259              		.loc 1 647 5 view .LVU383
 1260 0086 0022     		movs	r2, #0
 1261 0088 84F83C20 		strb	r2, [r4, #60]
 647:Drivers/STM32F7xx_HAL_Driver/Src/stm32f7xx_hal_adc_ex.c ****     
 1262              		.loc 1 647 5 view .LVU384
 650:Drivers/STM32F7xx_HAL_Driver/Src/stm32f7xx_hal_adc_ex.c ****     
 1263              		.loc 1 650 5 view .LVU385
 650:Drivers/STM32F7xx_HAL_Driver/Src/stm32f7xx_hal_adc_ex.c ****     
 1264              		.loc 1 650 9 is_stmt 0 view .LVU386
 1265 008c A26B     		ldr	r2, [r4, #56]
 650:Drivers/STM32F7xx_HAL_Driver/Src/stm32f7xx_hal_adc_ex.c ****     
 1266              		.loc 1 650 40 view .LVU387
 1267 008e 2348     		ldr	r0, .L98+12
 1268 0090 D063     		str	r0, [r2, #60]
ARM GAS  C:\Users\GUILLE~1\AppData\Local\Temp\ccXICf5i.s 			page 48


 653:Drivers/STM32F7xx_HAL_Driver/Src/stm32f7xx_hal_adc_ex.c ****     
 1269              		.loc 1 653 5 is_stmt 1 view .LVU388
 653:Drivers/STM32F7xx_HAL_Driver/Src/stm32f7xx_hal_adc_ex.c ****     
 1270              		.loc 1 653 9 is_stmt 0 view .LVU389
 1271 0092 A26B     		ldr	r2, [r4, #56]
 653:Drivers/STM32F7xx_HAL_Driver/Src/stm32f7xx_hal_adc_ex.c ****     
 1272              		.loc 1 653 44 view .LVU390
 1273 0094 2248     		ldr	r0, .L98+16
 1274 0096 1064     		str	r0, [r2, #64]
 656:Drivers/STM32F7xx_HAL_Driver/Src/stm32f7xx_hal_adc_ex.c ****     
 1275              		.loc 1 656 5 is_stmt 1 view .LVU391
 656:Drivers/STM32F7xx_HAL_Driver/Src/stm32f7xx_hal_adc_ex.c ****     
 1276              		.loc 1 656 9 is_stmt 0 view .LVU392
 1277 0098 A26B     		ldr	r2, [r4, #56]
 656:Drivers/STM32F7xx_HAL_Driver/Src/stm32f7xx_hal_adc_ex.c ****     
 1278              		.loc 1 656 41 view .LVU393
 1279 009a 2248     		ldr	r0, .L98+20
 1280 009c D064     		str	r0, [r2, #76]
 663:Drivers/STM32F7xx_HAL_Driver/Src/stm32f7xx_hal_adc_ex.c **** 
 1281              		.loc 1 663 5 is_stmt 1 view .LVU394
 1282 009e 2268     		ldr	r2, [r4]
 1283 00a0 6FF00200 		mvn	r0, #2
 1284 00a4 1060     		str	r0, [r2]
 666:Drivers/STM32F7xx_HAL_Driver/Src/stm32f7xx_hal_adc_ex.c ****     
 1285              		.loc 1 666 5 view .LVU395
 1286 00a6 2068     		ldr	r0, [r4]
 1287 00a8 4268     		ldr	r2, [r0, #4]
 1288 00aa 42F08062 		orr	r2, r2, #67108864
 1289 00ae 4260     		str	r2, [r0, #4]
 668:Drivers/STM32F7xx_HAL_Driver/Src/stm32f7xx_hal_adc_ex.c ****     {
 1290              		.loc 1 668 5 view .LVU396
 668:Drivers/STM32F7xx_HAL_Driver/Src/stm32f7xx_hal_adc_ex.c ****     {
 1291              		.loc 1 668 19 is_stmt 0 view .LVU397
 1292 00b0 94F83020 		ldrb	r2, [r4, #48]	@ zero_extendqisi2
 668:Drivers/STM32F7xx_HAL_Driver/Src/stm32f7xx_hal_adc_ex.c ****     {
 1293              		.loc 1 668 8 view .LVU398
 1294 00b4 BAB1     		cbz	r2, .L93
 671:Drivers/STM32F7xx_HAL_Driver/Src/stm32f7xx_hal_adc_ex.c ****     }
 1295              		.loc 1 671 7 is_stmt 1 view .LVU399
 671:Drivers/STM32F7xx_HAL_Driver/Src/stm32f7xx_hal_adc_ex.c ****     }
 1296              		.loc 1 671 16 is_stmt 0 view .LVU400
 1297 00b6 1C48     		ldr	r0, .L98+24
 1298 00b8 4268     		ldr	r2, [r0, #4]
 1299 00ba 42F40052 		orr	r2, r2, #8192
 1300 00be 4260     		str	r2, [r0, #4]
 1301              	.L94:
 680:Drivers/STM32F7xx_HAL_Driver/Src/stm32f7xx_hal_adc_ex.c ****     
 1302              		.loc 1 680 5 is_stmt 1 view .LVU401
 1303 00c0 0A46     		mov	r2, r1
 1304 00c2 1A49     		ldr	r1, .L98+28
 1305              	.LVL83:
 680:Drivers/STM32F7xx_HAL_Driver/Src/stm32f7xx_hal_adc_ex.c ****     
 1306              		.loc 1 680 5 is_stmt 0 view .LVU402
 1307 00c4 A06B     		ldr	r0, [r4, #56]
 1308 00c6 FFF7FEFF 		bl	HAL_DMA_Start_IT
 1309              	.LVL84:
 683:Drivers/STM32F7xx_HAL_Driver/Src/stm32f7xx_hal_adc_ex.c ****     {
ARM GAS  C:\Users\GUILLE~1\AppData\Local\Temp\ccXICf5i.s 			page 49


 1310              		.loc 1 683 5 is_stmt 1 view .LVU403
 683:Drivers/STM32F7xx_HAL_Driver/Src/stm32f7xx_hal_adc_ex.c ****     {
 1311              		.loc 1 683 13 is_stmt 0 view .LVU404
 1312 00ca 2368     		ldr	r3, [r4]
 683:Drivers/STM32F7xx_HAL_Driver/Src/stm32f7xx_hal_adc_ex.c ****     {
 1313              		.loc 1 683 23 view .LVU405
 1314 00cc 9A68     		ldr	r2, [r3, #8]
 683:Drivers/STM32F7xx_HAL_Driver/Src/stm32f7xx_hal_adc_ex.c ****     {
 1315              		.loc 1 683 7 view .LVU406
 1316 00ce 12F0405F 		tst	r2, #805306368
 1317 00d2 1BD1     		bne	.L96
 686:Drivers/STM32F7xx_HAL_Driver/Src/stm32f7xx_hal_adc_ex.c ****     }
 1318              		.loc 1 686 7 is_stmt 1 view .LVU407
 686:Drivers/STM32F7xx_HAL_Driver/Src/stm32f7xx_hal_adc_ex.c ****     }
 1319              		.loc 1 686 27 is_stmt 0 view .LVU408
 1320 00d4 9A68     		ldr	r2, [r3, #8]
 1321 00d6 42F08042 		orr	r2, r2, #1073741824
 1322 00da 9A60     		str	r2, [r3, #8]
 699:Drivers/STM32F7xx_HAL_Driver/Src/stm32f7xx_hal_adc_ex.c **** }
 1323              		.loc 1 699 10 view .LVU409
 1324 00dc 0020     		movs	r0, #0
 1325 00de 11E0     		b	.L85
 1326              	.LVL85:
 1327              	.L91:
 641:Drivers/STM32F7xx_HAL_Driver/Src/stm32f7xx_hal_adc_ex.c ****     }
 1328              		.loc 1 641 7 is_stmt 1 view .LVU410
 1329 00e0 0022     		movs	r2, #0
 1330 00e2 6264     		str	r2, [r4, #68]
 1331 00e4 CFE7     		b	.L92
 1332              	.L93:
 676:Drivers/STM32F7xx_HAL_Driver/Src/stm32f7xx_hal_adc_ex.c ****     }
 1333              		.loc 1 676 7 view .LVU411
 676:Drivers/STM32F7xx_HAL_Driver/Src/stm32f7xx_hal_adc_ex.c ****     }
 1334              		.loc 1 676 16 is_stmt 0 view .LVU412
 1335 00e6 1048     		ldr	r0, .L98+24
 1336 00e8 4268     		ldr	r2, [r0, #4]
 1337 00ea 22F40052 		bic	r2, r2, #8192
 1338 00ee 4260     		str	r2, [r0, #4]
 1339 00f0 E6E7     		b	.L94
 1340              	.L89:
 692:Drivers/STM32F7xx_HAL_Driver/Src/stm32f7xx_hal_adc_ex.c ****     
 1341              		.loc 1 692 5 is_stmt 1 view .LVU413
 1342 00f2 236C     		ldr	r3, [r4, #64]
 1343              	.LVL86:
 692:Drivers/STM32F7xx_HAL_Driver/Src/stm32f7xx_hal_adc_ex.c ****     
 1344              		.loc 1 692 5 is_stmt 0 view .LVU414
 1345 00f4 43F01003 		orr	r3, r3, #16
 1346 00f8 2364     		str	r3, [r4, #64]
 695:Drivers/STM32F7xx_HAL_Driver/Src/stm32f7xx_hal_adc_ex.c ****   }
 1347              		.loc 1 695 5 is_stmt 1 view .LVU415
 1348 00fa 636C     		ldr	r3, [r4, #68]
 1349 00fc 43F00103 		orr	r3, r3, #1
 1350 0100 6364     		str	r3, [r4, #68]
 699:Drivers/STM32F7xx_HAL_Driver/Src/stm32f7xx_hal_adc_ex.c **** }
 1351              		.loc 1 699 10 is_stmt 0 view .LVU416
 1352 0102 0020     		movs	r0, #0
 1353              	.LVL87:
ARM GAS  C:\Users\GUILLE~1\AppData\Local\Temp\ccXICf5i.s 			page 50


 1354              	.L85:
 700:Drivers/STM32F7xx_HAL_Driver/Src/stm32f7xx_hal_adc_ex.c **** 
 1355              		.loc 1 700 1 view .LVU417
 1356 0104 03B0     		add	sp, sp, #12
 1357              	.LCFI15:
 1358              		.cfi_remember_state
 1359              		.cfi_def_cfa_offset 12
 1360              		@ sp needed
 1361 0106 30BD     		pop	{r4, r5, pc}
 1362              	.LVL88:
 1363              	.L95:
 1364              	.LCFI16:
 1365              		.cfi_restore_state
 597:Drivers/STM32F7xx_HAL_Driver/Src/stm32f7xx_hal_adc_ex.c ****   
 1366              		.loc 1 597 3 view .LVU418
 1367 0108 0220     		movs	r0, #2
 1368              	.LVL89:
 597:Drivers/STM32F7xx_HAL_Driver/Src/stm32f7xx_hal_adc_ex.c ****   
 1369              		.loc 1 597 3 view .LVU419
 1370 010a FBE7     		b	.L85
 1371              	.LVL90:
 1372              	.L96:
 699:Drivers/STM32F7xx_HAL_Driver/Src/stm32f7xx_hal_adc_ex.c **** }
 1373              		.loc 1 699 10 view .LVU420
 1374 010c 0020     		movs	r0, #0
 1375 010e F9E7     		b	.L85
 1376              	.L99:
 1377              		.align	2
 1378              	.L98:
 1379 0110 00000000 		.word	SystemCoreClock
 1380 0114 83DE1B43 		.word	1125899907
 1381 0118 FEF8FFFF 		.word	-1794
 1382 011c 00000000 		.word	ADC_MultiModeDMAConvCplt
 1383 0120 00000000 		.word	ADC_MultiModeDMAHalfConvCplt
 1384 0124 00000000 		.word	ADC_MultiModeDMAError
 1385 0128 00230140 		.word	1073816320
 1386 012c 08230140 		.word	1073816328
 1387              		.cfi_endproc
 1388              	.LFE252:
 1390              		.section	.text.HAL_ADCEx_MultiModeStop_DMA,"ax",%progbits
 1391              		.align	1
 1392              		.global	HAL_ADCEx_MultiModeStop_DMA
 1393              		.syntax unified
 1394              		.thumb
 1395              		.thumb_func
 1396              		.fpu fpv5-sp-d16
 1398              	HAL_ADCEx_MultiModeStop_DMA:
 1399              	.LVL91:
 1400              	.LFB253:
 709:Drivers/STM32F7xx_HAL_Driver/Src/stm32f7xx_hal_adc_ex.c ****   HAL_StatusTypeDef tmp_hal_status = HAL_OK;
 1401              		.loc 1 709 1 is_stmt 1 view -0
 1402              		.cfi_startproc
 1403              		@ args = 0, pretend = 0, frame = 0
 1404              		@ frame_needed = 0, uses_anonymous_args = 0
 710:Drivers/STM32F7xx_HAL_Driver/Src/stm32f7xx_hal_adc_ex.c ****   
 1405              		.loc 1 710 3 view .LVU422
 713:Drivers/STM32F7xx_HAL_Driver/Src/stm32f7xx_hal_adc_ex.c ****   
ARM GAS  C:\Users\GUILLE~1\AppData\Local\Temp\ccXICf5i.s 			page 51


 1406              		.loc 1 713 3 view .LVU423
 716:Drivers/STM32F7xx_HAL_Driver/Src/stm32f7xx_hal_adc_ex.c ****   
 1407              		.loc 1 716 3 view .LVU424
 716:Drivers/STM32F7xx_HAL_Driver/Src/stm32f7xx_hal_adc_ex.c ****   
 1408              		.loc 1 716 3 view .LVU425
 1409 0000 90F83C30 		ldrb	r3, [r0, #60]	@ zero_extendqisi2
 1410 0004 012B     		cmp	r3, #1
 1411 0006 27D0     		beq	.L103
 709:Drivers/STM32F7xx_HAL_Driver/Src/stm32f7xx_hal_adc_ex.c ****   HAL_StatusTypeDef tmp_hal_status = HAL_OK;
 1412              		.loc 1 709 1 is_stmt 0 discriminator 2 view .LVU426
 1413 0008 10B5     		push	{r4, lr}
 1414              	.LCFI17:
 1415              		.cfi_def_cfa_offset 8
 1416              		.cfi_offset 4, -8
 1417              		.cfi_offset 14, -4
 1418 000a 0446     		mov	r4, r0
 716:Drivers/STM32F7xx_HAL_Driver/Src/stm32f7xx_hal_adc_ex.c ****   
 1419              		.loc 1 716 3 is_stmt 1 discriminator 2 view .LVU427
 1420 000c 0123     		movs	r3, #1
 1421 000e 80F83C30 		strb	r3, [r0, #60]
 716:Drivers/STM32F7xx_HAL_Driver/Src/stm32f7xx_hal_adc_ex.c ****   
 1422              		.loc 1 716 3 discriminator 2 view .LVU428
 720:Drivers/STM32F7xx_HAL_Driver/Src/stm32f7xx_hal_adc_ex.c ****   
 1423              		.loc 1 720 3 discriminator 2 view .LVU429
 1424 0012 0268     		ldr	r2, [r0]
 1425 0014 9368     		ldr	r3, [r2, #8]
 1426 0016 23F00103 		bic	r3, r3, #1
 1427 001a 9360     		str	r3, [r2, #8]
 723:Drivers/STM32F7xx_HAL_Driver/Src/stm32f7xx_hal_adc_ex.c ****   {
 1428              		.loc 1 723 3 discriminator 2 view .LVU430
 723:Drivers/STM32F7xx_HAL_Driver/Src/stm32f7xx_hal_adc_ex.c ****   {
 1429              		.loc 1 723 6 is_stmt 0 discriminator 2 view .LVU431
 1430 001c 0368     		ldr	r3, [r0]
 1431 001e 9B68     		ldr	r3, [r3, #8]
 723:Drivers/STM32F7xx_HAL_Driver/Src/stm32f7xx_hal_adc_ex.c ****   {
 1432              		.loc 1 723 5 discriminator 2 view .LVU432
 1433 0020 13F0010F 		tst	r3, #1
 1434 0024 04D0     		beq	.L109
 710:Drivers/STM32F7xx_HAL_Driver/Src/stm32f7xx_hal_adc_ex.c ****   
 1435              		.loc 1 710 21 view .LVU433
 1436 0026 0020     		movs	r0, #0
 1437              	.LVL92:
 1438              	.L102:
 742:Drivers/STM32F7xx_HAL_Driver/Src/stm32f7xx_hal_adc_ex.c ****   
 1439              		.loc 1 742 3 is_stmt 1 view .LVU434
 742:Drivers/STM32F7xx_HAL_Driver/Src/stm32f7xx_hal_adc_ex.c ****   
 1440              		.loc 1 742 3 view .LVU435
 1441 0028 0023     		movs	r3, #0
 1442 002a 84F83C30 		strb	r3, [r4, #60]
 742:Drivers/STM32F7xx_HAL_Driver/Src/stm32f7xx_hal_adc_ex.c ****   
 1443              		.loc 1 742 3 view .LVU436
 745:Drivers/STM32F7xx_HAL_Driver/Src/stm32f7xx_hal_adc_ex.c **** }
 1444              		.loc 1 745 3 view .LVU437
 746:Drivers/STM32F7xx_HAL_Driver/Src/stm32f7xx_hal_adc_ex.c **** 
 1445              		.loc 1 746 1 is_stmt 0 view .LVU438
 1446 002e 10BD     		pop	{r4, pc}
 1447              	.LVL93:
ARM GAS  C:\Users\GUILLE~1\AppData\Local\Temp\ccXICf5i.s 			page 52


 1448              	.L109:
 726:Drivers/STM32F7xx_HAL_Driver/Src/stm32f7xx_hal_adc_ex.c ****     
 1449              		.loc 1 726 5 is_stmt 1 view .LVU439
 726:Drivers/STM32F7xx_HAL_Driver/Src/stm32f7xx_hal_adc_ex.c ****     
 1450              		.loc 1 726 14 is_stmt 0 view .LVU440
 1451 0030 0A4A     		ldr	r2, .L110
 1452 0032 5368     		ldr	r3, [r2, #4]
 1453 0034 23F40053 		bic	r3, r3, #8192
 1454 0038 5360     		str	r3, [r2, #4]
 730:Drivers/STM32F7xx_HAL_Driver/Src/stm32f7xx_hal_adc_ex.c ****     
 1455              		.loc 1 730 5 is_stmt 1 view .LVU441
 730:Drivers/STM32F7xx_HAL_Driver/Src/stm32f7xx_hal_adc_ex.c ****     
 1456              		.loc 1 730 22 is_stmt 0 view .LVU442
 1457 003a 806B     		ldr	r0, [r0, #56]
 1458              	.LVL94:
 730:Drivers/STM32F7xx_HAL_Driver/Src/stm32f7xx_hal_adc_ex.c ****     
 1459              		.loc 1 730 22 view .LVU443
 1460 003c FFF7FEFF 		bl	HAL_DMA_Abort
 1461              	.LVL95:
 733:Drivers/STM32F7xx_HAL_Driver/Src/stm32f7xx_hal_adc_ex.c ****     
 1462              		.loc 1 733 5 is_stmt 1 view .LVU444
 1463 0040 2268     		ldr	r2, [r4]
 1464 0042 5368     		ldr	r3, [r2, #4]
 1465 0044 23F08063 		bic	r3, r3, #67108864
 1466 0048 5360     		str	r3, [r2, #4]
 736:Drivers/STM32F7xx_HAL_Driver/Src/stm32f7xx_hal_adc_ex.c ****                       HAL_ADC_STATE_REG_BUSY | HAL_ADC_STATE_INJ_BUSY,
 1467              		.loc 1 736 5 view .LVU445
 1468 004a 226C     		ldr	r2, [r4, #64]
 1469 004c 044B     		ldr	r3, .L110+4
 1470 004e 1340     		ands	r3, r3, r2
 1471 0050 43F00103 		orr	r3, r3, #1
 1472 0054 2364     		str	r3, [r4, #64]
 1473 0056 E7E7     		b	.L102
 1474              	.LVL96:
 1475              	.L103:
 1476              	.LCFI18:
 1477              		.cfi_def_cfa_offset 0
 1478              		.cfi_restore 4
 1479              		.cfi_restore 14
 716:Drivers/STM32F7xx_HAL_Driver/Src/stm32f7xx_hal_adc_ex.c ****   
 1480              		.loc 1 716 3 is_stmt 0 view .LVU446
 1481 0058 0220     		movs	r0, #2
 1482              	.LVL97:
 746:Drivers/STM32F7xx_HAL_Driver/Src/stm32f7xx_hal_adc_ex.c **** 
 1483              		.loc 1 746 1 view .LVU447
 1484 005a 7047     		bx	lr
 1485              	.L111:
 1486              		.align	2
 1487              	.L110:
 1488 005c 00230140 		.word	1073816320
 1489 0060 FEEEFFFF 		.word	-4354
 1490              		.cfi_endproc
 1491              	.LFE253:
 1493              		.section	.text.HAL_ADCEx_MultiModeGetValue,"ax",%progbits
 1494              		.align	1
 1495              		.global	HAL_ADCEx_MultiModeGetValue
 1496              		.syntax unified
ARM GAS  C:\Users\GUILLE~1\AppData\Local\Temp\ccXICf5i.s 			page 53


 1497              		.thumb
 1498              		.thumb_func
 1499              		.fpu fpv5-sp-d16
 1501              	HAL_ADCEx_MultiModeGetValue:
 1502              	.LVL98:
 1503              	.LFB254:
 756:Drivers/STM32F7xx_HAL_Driver/Src/stm32f7xx_hal_adc_ex.c ****   /* Return the multi mode conversion value */
 1504              		.loc 1 756 1 is_stmt 1 view -0
 1505              		.cfi_startproc
 1506              		@ args = 0, pretend = 0, frame = 0
 1507              		@ frame_needed = 0, uses_anonymous_args = 0
 1508              		@ link register save eliminated.
 758:Drivers/STM32F7xx_HAL_Driver/Src/stm32f7xx_hal_adc_ex.c **** }
 1509              		.loc 1 758 3 view .LVU449
 758:Drivers/STM32F7xx_HAL_Driver/Src/stm32f7xx_hal_adc_ex.c **** }
 1510              		.loc 1 758 13 is_stmt 0 view .LVU450
 1511 0000 014B     		ldr	r3, .L113
 1512 0002 9868     		ldr	r0, [r3, #8]
 1513              	.LVL99:
 759:Drivers/STM32F7xx_HAL_Driver/Src/stm32f7xx_hal_adc_ex.c **** 
 1514              		.loc 1 759 1 view .LVU451
 1515 0004 7047     		bx	lr
 1516              	.L114:
 1517 0006 00BF     		.align	2
 1518              	.L113:
 1519 0008 00230140 		.word	1073816320
 1520              		.cfi_endproc
 1521              	.LFE254:
 1523              		.section	.text.HAL_ADCEx_InjectedConvCpltCallback,"ax",%progbits
 1524              		.align	1
 1525              		.weak	HAL_ADCEx_InjectedConvCpltCallback
 1526              		.syntax unified
 1527              		.thumb
 1528              		.thumb_func
 1529              		.fpu fpv5-sp-d16
 1531              	HAL_ADCEx_InjectedConvCpltCallback:
 1532              	.LVL100:
 1533              	.LFB255:
 768:Drivers/STM32F7xx_HAL_Driver/Src/stm32f7xx_hal_adc_ex.c ****   /* Prevent unused argument(s) compilation warning */
 1534              		.loc 1 768 1 is_stmt 1 view -0
 1535              		.cfi_startproc
 1536              		@ args = 0, pretend = 0, frame = 0
 1537              		@ frame_needed = 0, uses_anonymous_args = 0
 1538              		@ link register save eliminated.
 770:Drivers/STM32F7xx_HAL_Driver/Src/stm32f7xx_hal_adc_ex.c ****   /* NOTE : This function Should not be modified, when the callback is needed,
 1539              		.loc 1 770 3 view .LVU453
 774:Drivers/STM32F7xx_HAL_Driver/Src/stm32f7xx_hal_adc_ex.c **** 
 1540              		.loc 1 774 1 is_stmt 0 view .LVU454
 1541 0000 7047     		bx	lr
 1542              		.cfi_endproc
 1543              	.LFE255:
 1545              		.section	.text.HAL_ADCEx_InjectedConfigChannel,"ax",%progbits
 1546              		.align	1
 1547              		.global	HAL_ADCEx_InjectedConfigChannel
 1548              		.syntax unified
 1549              		.thumb
 1550              		.thumb_func
ARM GAS  C:\Users\GUILLE~1\AppData\Local\Temp\ccXICf5i.s 			page 54


 1551              		.fpu fpv5-sp-d16
 1553              	HAL_ADCEx_InjectedConfigChannel:
 1554              	.LVL101:
 1555              	.LFB256:
 785:Drivers/STM32F7xx_HAL_Driver/Src/stm32f7xx_hal_adc_ex.c ****   
 1556              		.loc 1 785 1 is_stmt 1 view -0
 1557              		.cfi_startproc
 1558              		@ args = 0, pretend = 0, frame = 0
 1559              		@ frame_needed = 0, uses_anonymous_args = 0
 1560              		@ link register save eliminated.
 792:Drivers/STM32F7xx_HAL_Driver/Src/stm32f7xx_hal_adc_ex.c ****   assert_param(IS_ADC_INJECTED_RANK(sConfigInjected->InjectedRank));
 1561              		.loc 1 792 3 view .LVU456
 793:Drivers/STM32F7xx_HAL_Driver/Src/stm32f7xx_hal_adc_ex.c ****   assert_param(IS_ADC_SAMPLE_TIME(sConfigInjected->InjectedSamplingTime));
 1562              		.loc 1 793 3 view .LVU457
 794:Drivers/STM32F7xx_HAL_Driver/Src/stm32f7xx_hal_adc_ex.c ****   assert_param(IS_ADC_EXT_INJEC_TRIG(sConfigInjected->ExternalTrigInjecConv));
 1563              		.loc 1 794 3 view .LVU458
 795:Drivers/STM32F7xx_HAL_Driver/Src/stm32f7xx_hal_adc_ex.c ****   assert_param(IS_ADC_INJECTED_LENGTH(sConfigInjected->InjectedNbrOfConversion));
 1564              		.loc 1 795 3 view .LVU459
 796:Drivers/STM32F7xx_HAL_Driver/Src/stm32f7xx_hal_adc_ex.c ****   assert_param(IS_FUNCTIONAL_STATE(sConfigInjected->AutoInjectedConv));
 1565              		.loc 1 796 3 view .LVU460
 797:Drivers/STM32F7xx_HAL_Driver/Src/stm32f7xx_hal_adc_ex.c ****   assert_param(IS_FUNCTIONAL_STATE(sConfigInjected->InjectedDiscontinuousConvMode));
 1566              		.loc 1 797 3 view .LVU461
 798:Drivers/STM32F7xx_HAL_Driver/Src/stm32f7xx_hal_adc_ex.c **** 
 1567              		.loc 1 798 3 view .LVU462
 805:Drivers/STM32F7xx_HAL_Driver/Src/stm32f7xx_hal_adc_ex.c ****   {
 1568              		.loc 1 805 3 view .LVU463
 807:Drivers/STM32F7xx_HAL_Driver/Src/stm32f7xx_hal_adc_ex.c ****   }
 1569              		.loc 1 807 5 view .LVU464
 811:Drivers/STM32F7xx_HAL_Driver/Src/stm32f7xx_hal_adc_ex.c ****   
 1570              		.loc 1 811 3 view .LVU465
 811:Drivers/STM32F7xx_HAL_Driver/Src/stm32f7xx_hal_adc_ex.c ****   
 1571              		.loc 1 811 3 view .LVU466
 1572 0000 90F83C30 		ldrb	r3, [r0, #60]	@ zero_extendqisi2
 1573 0004 012B     		cmp	r3, #1
 1574 0006 00F0F580 		beq	.L132
 785:Drivers/STM32F7xx_HAL_Driver/Src/stm32f7xx_hal_adc_ex.c ****   
 1575              		.loc 1 785 1 is_stmt 0 discriminator 2 view .LVU467
 1576 000a 30B4     		push	{r4, r5}
 1577              	.LCFI19:
 1578              		.cfi_def_cfa_offset 8
 1579              		.cfi_offset 4, -8
 1580              		.cfi_offset 5, -4
 811:Drivers/STM32F7xx_HAL_Driver/Src/stm32f7xx_hal_adc_ex.c ****   
 1581              		.loc 1 811 3 is_stmt 1 discriminator 2 view .LVU468
 1582 000c 0123     		movs	r3, #1
 1583 000e 80F83C30 		strb	r3, [r0, #60]
 811:Drivers/STM32F7xx_HAL_Driver/Src/stm32f7xx_hal_adc_ex.c ****   
 1584              		.loc 1 811 3 discriminator 2 view .LVU469
 814:Drivers/STM32F7xx_HAL_Driver/Src/stm32f7xx_hal_adc_ex.c ****   {
 1585              		.loc 1 814 3 discriminator 2 view .LVU470
 814:Drivers/STM32F7xx_HAL_Driver/Src/stm32f7xx_hal_adc_ex.c ****   {
 1586              		.loc 1 814 22 is_stmt 0 discriminator 2 view .LVU471
 1587 0012 0B68     		ldr	r3, [r1]
 814:Drivers/STM32F7xx_HAL_Driver/Src/stm32f7xx_hal_adc_ex.c ****   {
 1588              		.loc 1 814 6 discriminator 2 view .LVU472
 1589 0014 092B     		cmp	r3, #9
 1590 0016 7DD9     		bls	.L118
ARM GAS  C:\Users\GUILLE~1\AppData\Local\Temp\ccXICf5i.s 			page 55


 817:Drivers/STM32F7xx_HAL_Driver/Src/stm32f7xx_hal_adc_ex.c ****     
 1591              		.loc 1 817 5 is_stmt 1 view .LVU473
 817:Drivers/STM32F7xx_HAL_Driver/Src/stm32f7xx_hal_adc_ex.c ****     
 1592              		.loc 1 817 9 is_stmt 0 view .LVU474
 1593 0018 0568     		ldr	r5, [r0]
 817:Drivers/STM32F7xx_HAL_Driver/Src/stm32f7xx_hal_adc_ex.c ****     
 1594              		.loc 1 817 27 view .LVU475
 1595 001a EA68     		ldr	r2, [r5, #12]
 817:Drivers/STM32F7xx_HAL_Driver/Src/stm32f7xx_hal_adc_ex.c ****     
 1596              		.loc 1 817 31 view .LVU476
 1597 001c 9BB2     		uxth	r3, r3
 1598 001e 03EB4303 		add	r3, r3, r3, lsl #1
 1599 0022 1E3B     		subs	r3, r3, #30
 1600 0024 0724     		movs	r4, #7
 1601 0026 04FA03F3 		lsl	r3, r4, r3
 817:Drivers/STM32F7xx_HAL_Driver/Src/stm32f7xx_hal_adc_ex.c ****     
 1602              		.loc 1 817 27 view .LVU477
 1603 002a 22EA0303 		bic	r3, r2, r3
 1604 002e EB60     		str	r3, [r5, #12]
 820:Drivers/STM32F7xx_HAL_Driver/Src/stm32f7xx_hal_adc_ex.c ****   }
 1605              		.loc 1 820 5 is_stmt 1 view .LVU478
 820:Drivers/STM32F7xx_HAL_Driver/Src/stm32f7xx_hal_adc_ex.c ****   }
 1606              		.loc 1 820 9 is_stmt 0 view .LVU479
 1607 0030 0568     		ldr	r5, [r0]
 820:Drivers/STM32F7xx_HAL_Driver/Src/stm32f7xx_hal_adc_ex.c ****   }
 1608              		.loc 1 820 27 view .LVU480
 1609 0032 EA68     		ldr	r2, [r5, #12]
 820:Drivers/STM32F7xx_HAL_Driver/Src/stm32f7xx_hal_adc_ex.c ****   }
 1610              		.loc 1 820 30 view .LVU481
 1611 0034 8C68     		ldr	r4, [r1, #8]
 1612 0036 0B88     		ldrh	r3, [r1]
 1613 0038 03EB4303 		add	r3, r3, r3, lsl #1
 1614 003c 1E3B     		subs	r3, r3, #30
 1615 003e 04FA03F3 		lsl	r3, r4, r3
 820:Drivers/STM32F7xx_HAL_Driver/Src/stm32f7xx_hal_adc_ex.c ****   }
 1616              		.loc 1 820 27 view .LVU482
 1617 0042 1343     		orrs	r3, r3, r2
 1618 0044 EB60     		str	r3, [r5, #12]
 1619              	.L119:
 832:Drivers/STM32F7xx_HAL_Driver/Src/stm32f7xx_hal_adc_ex.c ****   hadc->Instance->JSQR |=  ADC_SQR1(sConfigInjected->InjectedNbrOfConversion);
 1620              		.loc 1 832 3 is_stmt 1 view .LVU483
 832:Drivers/STM32F7xx_HAL_Driver/Src/stm32f7xx_hal_adc_ex.c ****   hadc->Instance->JSQR |=  ADC_SQR1(sConfigInjected->InjectedNbrOfConversion);
 1621              		.loc 1 832 7 is_stmt 0 view .LVU484
 1622 0046 0268     		ldr	r2, [r0]
 832:Drivers/STM32F7xx_HAL_Driver/Src/stm32f7xx_hal_adc_ex.c ****   hadc->Instance->JSQR |=  ADC_SQR1(sConfigInjected->InjectedNbrOfConversion);
 1623              		.loc 1 832 24 view .LVU485
 1624 0048 936B     		ldr	r3, [r2, #56]
 1625 004a 23F44013 		bic	r3, r3, #3145728
 1626 004e 9363     		str	r3, [r2, #56]
 833:Drivers/STM32F7xx_HAL_Driver/Src/stm32f7xx_hal_adc_ex.c ****   
 1627              		.loc 1 833 3 is_stmt 1 view .LVU486
 833:Drivers/STM32F7xx_HAL_Driver/Src/stm32f7xx_hal_adc_ex.c ****   
 1628              		.loc 1 833 7 is_stmt 0 view .LVU487
 1629 0050 0468     		ldr	r4, [r0]
 833:Drivers/STM32F7xx_HAL_Driver/Src/stm32f7xx_hal_adc_ex.c ****   
 1630              		.loc 1 833 24 view .LVU488
 1631 0052 A36B     		ldr	r3, [r4, #56]
ARM GAS  C:\Users\GUILLE~1\AppData\Local\Temp\ccXICf5i.s 			page 56


 833:Drivers/STM32F7xx_HAL_Driver/Src/stm32f7xx_hal_adc_ex.c ****   
 1632              		.loc 1 833 28 view .LVU489
 1633 0054 0A69     		ldr	r2, [r1, #16]
 1634 0056 013A     		subs	r2, r2, #1
 833:Drivers/STM32F7xx_HAL_Driver/Src/stm32f7xx_hal_adc_ex.c ****   
 1635              		.loc 1 833 24 view .LVU490
 1636 0058 43EA0253 		orr	r3, r3, r2, lsl #20
 1637 005c A363     		str	r3, [r4, #56]
 838:Drivers/STM32F7xx_HAL_Driver/Src/stm32f7xx_hal_adc_ex.c ****    
 1638              		.loc 1 838 3 is_stmt 1 view .LVU491
 838:Drivers/STM32F7xx_HAL_Driver/Src/stm32f7xx_hal_adc_ex.c ****    
 1639              		.loc 1 838 7 is_stmt 0 view .LVU492
 1640 005e 0468     		ldr	r4, [r0]
 838:Drivers/STM32F7xx_HAL_Driver/Src/stm32f7xx_hal_adc_ex.c ****    
 1641              		.loc 1 838 24 view .LVU493
 1642 0060 A26B     		ldr	r2, [r4, #56]
 838:Drivers/STM32F7xx_HAL_Driver/Src/stm32f7xx_hal_adc_ex.c ****    
 1643              		.loc 1 838 28 view .LVU494
 1644 0062 4B68     		ldr	r3, [r1, #4]
 1645 0064 0D69     		ldr	r5, [r1, #16]
 1646 0066 5B1B     		subs	r3, r3, r5
 1647 0068 DBB2     		uxtb	r3, r3
 1648 006a 0333     		adds	r3, r3, #3
 1649 006c DBB2     		uxtb	r3, r3
 1650 006e 03EB8303 		add	r3, r3, r3, lsl #2
 1651 0072 4FF01F0C 		mov	ip, #31
 1652 0076 0CFA03F3 		lsl	r3, ip, r3
 838:Drivers/STM32F7xx_HAL_Driver/Src/stm32f7xx_hal_adc_ex.c ****    
 1653              		.loc 1 838 24 view .LVU495
 1654 007a 22EA0303 		bic	r3, r2, r3
 1655 007e A363     		str	r3, [r4, #56]
 841:Drivers/STM32F7xx_HAL_Driver/Src/stm32f7xx_hal_adc_ex.c **** 
 1656              		.loc 1 841 3 is_stmt 1 view .LVU496
 841:Drivers/STM32F7xx_HAL_Driver/Src/stm32f7xx_hal_adc_ex.c **** 
 1657              		.loc 1 841 7 is_stmt 0 view .LVU497
 1658 0080 0468     		ldr	r4, [r0]
 841:Drivers/STM32F7xx_HAL_Driver/Src/stm32f7xx_hal_adc_ex.c **** 
 1659              		.loc 1 841 24 view .LVU498
 1660 0082 A26B     		ldr	r2, [r4, #56]
 841:Drivers/STM32F7xx_HAL_Driver/Src/stm32f7xx_hal_adc_ex.c **** 
 1661              		.loc 1 841 27 view .LVU499
 1662 0084 4B68     		ldr	r3, [r1, #4]
 1663 0086 0D69     		ldr	r5, [r1, #16]
 1664 0088 5B1B     		subs	r3, r3, r5
 1665 008a DBB2     		uxtb	r3, r3
 1666 008c 0333     		adds	r3, r3, #3
 1667 008e DBB2     		uxtb	r3, r3
 1668 0090 03EB8303 		add	r3, r3, r3, lsl #2
 1669 0094 B1F800C0 		ldrh	ip, [r1]
 1670 0098 0CFA03F3 		lsl	r3, ip, r3
 841:Drivers/STM32F7xx_HAL_Driver/Src/stm32f7xx_hal_adc_ex.c **** 
 1671              		.loc 1 841 24 view .LVU500
 1672 009c 1343     		orrs	r3, r3, r2
 1673 009e A363     		str	r3, [r4, #56]
 848:Drivers/STM32F7xx_HAL_Driver/Src/stm32f7xx_hal_adc_ex.c ****   {  
 1674              		.loc 1 848 3 is_stmt 1 view .LVU501
 848:Drivers/STM32F7xx_HAL_Driver/Src/stm32f7xx_hal_adc_ex.c ****   {  
ARM GAS  C:\Users\GUILLE~1\AppData\Local\Temp\ccXICf5i.s 			page 57


 1675              		.loc 1 848 21 is_stmt 0 view .LVU502
 1676 00a0 8A69     		ldr	r2, [r1, #24]
 848:Drivers/STM32F7xx_HAL_Driver/Src/stm32f7xx_hal_adc_ex.c ****   {  
 1677              		.loc 1 848 5 view .LVU503
 1678 00a2 554B     		ldr	r3, .L140
 1679 00a4 9A42     		cmp	r2, r3
 1680 00a6 4BD0     		beq	.L120
 851:Drivers/STM32F7xx_HAL_Driver/Src/stm32f7xx_hal_adc_ex.c ****     hadc->Instance->CR2 |=  sConfigInjected->ExternalTrigInjecConv;
 1681              		.loc 1 851 5 is_stmt 1 view .LVU504
 851:Drivers/STM32F7xx_HAL_Driver/Src/stm32f7xx_hal_adc_ex.c ****     hadc->Instance->CR2 |=  sConfigInjected->ExternalTrigInjecConv;
 1682              		.loc 1 851 9 is_stmt 0 view .LVU505
 1683 00a8 0268     		ldr	r2, [r0]
 851:Drivers/STM32F7xx_HAL_Driver/Src/stm32f7xx_hal_adc_ex.c ****     hadc->Instance->CR2 |=  sConfigInjected->ExternalTrigInjecConv;
 1684              		.loc 1 851 25 view .LVU506
 1685 00aa 9368     		ldr	r3, [r2, #8]
 1686 00ac 23F47023 		bic	r3, r3, #983040
 1687 00b0 9360     		str	r3, [r2, #8]
 852:Drivers/STM32F7xx_HAL_Driver/Src/stm32f7xx_hal_adc_ex.c ****     
 1688              		.loc 1 852 5 is_stmt 1 view .LVU507
 852:Drivers/STM32F7xx_HAL_Driver/Src/stm32f7xx_hal_adc_ex.c ****     
 1689              		.loc 1 852 9 is_stmt 0 view .LVU508
 1690 00b2 0268     		ldr	r2, [r0]
 852:Drivers/STM32F7xx_HAL_Driver/Src/stm32f7xx_hal_adc_ex.c ****     
 1691              		.loc 1 852 25 view .LVU509
 1692 00b4 9368     		ldr	r3, [r2, #8]
 852:Drivers/STM32F7xx_HAL_Driver/Src/stm32f7xx_hal_adc_ex.c ****     
 1693              		.loc 1 852 44 view .LVU510
 1694 00b6 8C69     		ldr	r4, [r1, #24]
 852:Drivers/STM32F7xx_HAL_Driver/Src/stm32f7xx_hal_adc_ex.c ****     
 1695              		.loc 1 852 25 view .LVU511
 1696 00b8 2343     		orrs	r3, r3, r4
 1697 00ba 9360     		str	r3, [r2, #8]
 855:Drivers/STM32F7xx_HAL_Driver/Src/stm32f7xx_hal_adc_ex.c ****     hadc->Instance->CR2 |= sConfigInjected->ExternalTrigInjecConvEdge;
 1698              		.loc 1 855 5 is_stmt 1 view .LVU512
 855:Drivers/STM32F7xx_HAL_Driver/Src/stm32f7xx_hal_adc_ex.c ****     hadc->Instance->CR2 |= sConfigInjected->ExternalTrigInjecConvEdge;
 1699              		.loc 1 855 9 is_stmt 0 view .LVU513
 1700 00bc 0268     		ldr	r2, [r0]
 855:Drivers/STM32F7xx_HAL_Driver/Src/stm32f7xx_hal_adc_ex.c ****     hadc->Instance->CR2 |= sConfigInjected->ExternalTrigInjecConvEdge;
 1701              		.loc 1 855 25 view .LVU514
 1702 00be 9368     		ldr	r3, [r2, #8]
 1703 00c0 23F44013 		bic	r3, r3, #3145728
 1704 00c4 9360     		str	r3, [r2, #8]
 856:Drivers/STM32F7xx_HAL_Driver/Src/stm32f7xx_hal_adc_ex.c ****   }
 1705              		.loc 1 856 5 is_stmt 1 view .LVU515
 856:Drivers/STM32F7xx_HAL_Driver/Src/stm32f7xx_hal_adc_ex.c ****   }
 1706              		.loc 1 856 9 is_stmt 0 view .LVU516
 1707 00c6 0268     		ldr	r2, [r0]
 856:Drivers/STM32F7xx_HAL_Driver/Src/stm32f7xx_hal_adc_ex.c ****   }
 1708              		.loc 1 856 25 view .LVU517
 1709 00c8 9368     		ldr	r3, [r2, #8]
 856:Drivers/STM32F7xx_HAL_Driver/Src/stm32f7xx_hal_adc_ex.c ****   }
 1710              		.loc 1 856 43 view .LVU518
 1711 00ca CC69     		ldr	r4, [r1, #28]
 856:Drivers/STM32F7xx_HAL_Driver/Src/stm32f7xx_hal_adc_ex.c ****   }
 1712              		.loc 1 856 25 view .LVU519
 1713 00cc 2343     		orrs	r3, r3, r4
 1714 00ce 9360     		str	r3, [r2, #8]
ARM GAS  C:\Users\GUILLE~1\AppData\Local\Temp\ccXICf5i.s 			page 58


 1715              	.L121:
 865:Drivers/STM32F7xx_HAL_Driver/Src/stm32f7xx_hal_adc_ex.c ****   {
 1716              		.loc 1 865 3 is_stmt 1 view .LVU520
 865:Drivers/STM32F7xx_HAL_Driver/Src/stm32f7xx_hal_adc_ex.c ****   {
 1717              		.loc 1 865 22 is_stmt 0 view .LVU521
 1718 00d0 4B7D     		ldrb	r3, [r1, #21]	@ zero_extendqisi2
 865:Drivers/STM32F7xx_HAL_Driver/Src/stm32f7xx_hal_adc_ex.c ****   {
 1719              		.loc 1 865 6 view .LVU522
 1720 00d2 002B     		cmp	r3, #0
 1721 00d4 3FD0     		beq	.L122
 868:Drivers/STM32F7xx_HAL_Driver/Src/stm32f7xx_hal_adc_ex.c ****   }
 1722              		.loc 1 868 5 is_stmt 1 view .LVU523
 868:Drivers/STM32F7xx_HAL_Driver/Src/stm32f7xx_hal_adc_ex.c ****   }
 1723              		.loc 1 868 9 is_stmt 0 view .LVU524
 1724 00d6 0268     		ldr	r2, [r0]
 868:Drivers/STM32F7xx_HAL_Driver/Src/stm32f7xx_hal_adc_ex.c ****   }
 1725              		.loc 1 868 25 view .LVU525
 1726 00d8 5368     		ldr	r3, [r2, #4]
 1727 00da 43F48063 		orr	r3, r3, #1024
 1728 00de 5360     		str	r3, [r2, #4]
 1729              	.L123:
 876:Drivers/STM32F7xx_HAL_Driver/Src/stm32f7xx_hal_adc_ex.c ****   {
 1730              		.loc 1 876 3 is_stmt 1 view .LVU526
 876:Drivers/STM32F7xx_HAL_Driver/Src/stm32f7xx_hal_adc_ex.c ****   {
 1731              		.loc 1 876 22 is_stmt 0 view .LVU527
 1732 00e0 0B7D     		ldrb	r3, [r1, #20]	@ zero_extendqisi2
 876:Drivers/STM32F7xx_HAL_Driver/Src/stm32f7xx_hal_adc_ex.c ****   {
 1733              		.loc 1 876 6 view .LVU528
 1734 00e2 002B     		cmp	r3, #0
 1735 00e4 3DD0     		beq	.L124
 879:Drivers/STM32F7xx_HAL_Driver/Src/stm32f7xx_hal_adc_ex.c ****   }
 1736              		.loc 1 879 5 is_stmt 1 view .LVU529
 879:Drivers/STM32F7xx_HAL_Driver/Src/stm32f7xx_hal_adc_ex.c ****   }
 1737              		.loc 1 879 9 is_stmt 0 view .LVU530
 1738 00e6 0268     		ldr	r2, [r0]
 879:Drivers/STM32F7xx_HAL_Driver/Src/stm32f7xx_hal_adc_ex.c ****   }
 1739              		.loc 1 879 25 view .LVU531
 1740 00e8 5368     		ldr	r3, [r2, #4]
 1741 00ea 43F48053 		orr	r3, r3, #4096
 1742 00ee 5360     		str	r3, [r2, #4]
 1743              	.L125:
 887:Drivers/STM32F7xx_HAL_Driver/Src/stm32f7xx_hal_adc_ex.c ****   {
 1744              		.loc 1 887 3 is_stmt 1 view .LVU532
 887:Drivers/STM32F7xx_HAL_Driver/Src/stm32f7xx_hal_adc_ex.c ****   {
 1745              		.loc 1 887 25 is_stmt 0 view .LVU533
 1746 00f0 4B68     		ldr	r3, [r1, #4]
 887:Drivers/STM32F7xx_HAL_Driver/Src/stm32f7xx_hal_adc_ex.c ****   {
 1747              		.loc 1 887 3 view .LVU534
 1748 00f2 022B     		cmp	r3, #2
 1749 00f4 53D0     		beq	.L126
 1750 00f6 032B     		cmp	r3, #3
 1751 00f8 5CD0     		beq	.L127
 1752 00fa 012B     		cmp	r3, #1
 1753 00fc 37D0     		beq	.L137
 906:Drivers/STM32F7xx_HAL_Driver/Src/stm32f7xx_hal_adc_ex.c ****       hadc->Instance->JOFR4 |= sConfigInjected->InjectedOffset;
 1754              		.loc 1 906 7 is_stmt 1 view .LVU535
 906:Drivers/STM32F7xx_HAL_Driver/Src/stm32f7xx_hal_adc_ex.c ****       hadc->Instance->JOFR4 |= sConfigInjected->InjectedOffset;
ARM GAS  C:\Users\GUILLE~1\AppData\Local\Temp\ccXICf5i.s 			page 59


 1755              		.loc 1 906 11 is_stmt 0 view .LVU536
 1756 00fe 0268     		ldr	r2, [r0]
 906:Drivers/STM32F7xx_HAL_Driver/Src/stm32f7xx_hal_adc_ex.c ****       hadc->Instance->JOFR4 |= sConfigInjected->InjectedOffset;
 1757              		.loc 1 906 29 view .LVU537
 1758 0100 146A     		ldr	r4, [r2, #32]
 1759 0102 3E4B     		ldr	r3, .L140+4
 1760 0104 2340     		ands	r3, r3, r4
 1761 0106 1362     		str	r3, [r2, #32]
 907:Drivers/STM32F7xx_HAL_Driver/Src/stm32f7xx_hal_adc_ex.c ****       break;
 1762              		.loc 1 907 7 is_stmt 1 view .LVU538
 907:Drivers/STM32F7xx_HAL_Driver/Src/stm32f7xx_hal_adc_ex.c ****       break;
 1763              		.loc 1 907 11 is_stmt 0 view .LVU539
 1764 0108 0268     		ldr	r2, [r0]
 907:Drivers/STM32F7xx_HAL_Driver/Src/stm32f7xx_hal_adc_ex.c ****       break;
 1765              		.loc 1 907 29 view .LVU540
 1766 010a 136A     		ldr	r3, [r2, #32]
 907:Drivers/STM32F7xx_HAL_Driver/Src/stm32f7xx_hal_adc_ex.c ****       break;
 1767              		.loc 1 907 47 view .LVU541
 1768 010c CC68     		ldr	r4, [r1, #12]
 907:Drivers/STM32F7xx_HAL_Driver/Src/stm32f7xx_hal_adc_ex.c ****       break;
 1769              		.loc 1 907 29 view .LVU542
 1770 010e 2343     		orrs	r3, r3, r4
 1771 0110 1362     		str	r3, [r2, #32]
 908:Drivers/STM32F7xx_HAL_Driver/Src/stm32f7xx_hal_adc_ex.c ****   }
 1772              		.loc 1 908 7 is_stmt 1 view .LVU543
 1773 0112 36E0     		b	.L129
 1774              	.L118:
 825:Drivers/STM32F7xx_HAL_Driver/Src/stm32f7xx_hal_adc_ex.c ****     
 1775              		.loc 1 825 5 view .LVU544
 825:Drivers/STM32F7xx_HAL_Driver/Src/stm32f7xx_hal_adc_ex.c ****     
 1776              		.loc 1 825 9 is_stmt 0 view .LVU545
 1777 0114 0568     		ldr	r5, [r0]
 825:Drivers/STM32F7xx_HAL_Driver/Src/stm32f7xx_hal_adc_ex.c ****     
 1778              		.loc 1 825 27 view .LVU546
 1779 0116 2A69     		ldr	r2, [r5, #16]
 825:Drivers/STM32F7xx_HAL_Driver/Src/stm32f7xx_hal_adc_ex.c ****     
 1780              		.loc 1 825 31 view .LVU547
 1781 0118 9BB2     		uxth	r3, r3
 1782 011a 03EB4303 		add	r3, r3, r3, lsl #1
 1783 011e 0724     		movs	r4, #7
 1784 0120 04FA03F3 		lsl	r3, r4, r3
 825:Drivers/STM32F7xx_HAL_Driver/Src/stm32f7xx_hal_adc_ex.c ****     
 1785              		.loc 1 825 27 view .LVU548
 1786 0124 22EA0303 		bic	r3, r2, r3
 1787 0128 2B61     		str	r3, [r5, #16]
 828:Drivers/STM32F7xx_HAL_Driver/Src/stm32f7xx_hal_adc_ex.c ****   }
 1788              		.loc 1 828 5 is_stmt 1 view .LVU549
 828:Drivers/STM32F7xx_HAL_Driver/Src/stm32f7xx_hal_adc_ex.c ****   }
 1789              		.loc 1 828 9 is_stmt 0 view .LVU550
 1790 012a 0568     		ldr	r5, [r0]
 828:Drivers/STM32F7xx_HAL_Driver/Src/stm32f7xx_hal_adc_ex.c ****   }
 1791              		.loc 1 828 27 view .LVU551
 1792 012c 2A69     		ldr	r2, [r5, #16]
 828:Drivers/STM32F7xx_HAL_Driver/Src/stm32f7xx_hal_adc_ex.c ****   }
 1793              		.loc 1 828 30 view .LVU552
 1794 012e 8C68     		ldr	r4, [r1, #8]
 1795 0130 0B88     		ldrh	r3, [r1]
ARM GAS  C:\Users\GUILLE~1\AppData\Local\Temp\ccXICf5i.s 			page 60


 1796 0132 03EB4303 		add	r3, r3, r3, lsl #1
 1797 0136 04FA03F3 		lsl	r3, r4, r3
 828:Drivers/STM32F7xx_HAL_Driver/Src/stm32f7xx_hal_adc_ex.c ****   }
 1798              		.loc 1 828 27 view .LVU553
 1799 013a 1343     		orrs	r3, r3, r2
 1800 013c 2B61     		str	r3, [r5, #16]
 1801 013e 82E7     		b	.L119
 1802              	.L120:
 861:Drivers/STM32F7xx_HAL_Driver/Src/stm32f7xx_hal_adc_ex.c ****     hadc->Instance->CR2 &= ~(ADC_CR2_JEXTEN);  
 1803              		.loc 1 861 5 is_stmt 1 view .LVU554
 861:Drivers/STM32F7xx_HAL_Driver/Src/stm32f7xx_hal_adc_ex.c ****     hadc->Instance->CR2 &= ~(ADC_CR2_JEXTEN);  
 1804              		.loc 1 861 9 is_stmt 0 view .LVU555
 1805 0140 0268     		ldr	r2, [r0]
 861:Drivers/STM32F7xx_HAL_Driver/Src/stm32f7xx_hal_adc_ex.c ****     hadc->Instance->CR2 &= ~(ADC_CR2_JEXTEN);  
 1806              		.loc 1 861 25 view .LVU556
 1807 0142 9368     		ldr	r3, [r2, #8]
 1808 0144 23F47023 		bic	r3, r3, #983040
 1809 0148 9360     		str	r3, [r2, #8]
 862:Drivers/STM32F7xx_HAL_Driver/Src/stm32f7xx_hal_adc_ex.c ****   }
 1810              		.loc 1 862 5 is_stmt 1 view .LVU557
 862:Drivers/STM32F7xx_HAL_Driver/Src/stm32f7xx_hal_adc_ex.c ****   }
 1811              		.loc 1 862 9 is_stmt 0 view .LVU558
 1812 014a 0268     		ldr	r2, [r0]
 862:Drivers/STM32F7xx_HAL_Driver/Src/stm32f7xx_hal_adc_ex.c ****   }
 1813              		.loc 1 862 25 view .LVU559
 1814 014c 9368     		ldr	r3, [r2, #8]
 1815 014e 23F44013 		bic	r3, r3, #3145728
 1816 0152 9360     		str	r3, [r2, #8]
 1817 0154 BCE7     		b	.L121
 1818              	.L122:
 873:Drivers/STM32F7xx_HAL_Driver/Src/stm32f7xx_hal_adc_ex.c ****   }
 1819              		.loc 1 873 5 is_stmt 1 view .LVU560
 873:Drivers/STM32F7xx_HAL_Driver/Src/stm32f7xx_hal_adc_ex.c ****   }
 1820              		.loc 1 873 9 is_stmt 0 view .LVU561
 1821 0156 0268     		ldr	r2, [r0]
 873:Drivers/STM32F7xx_HAL_Driver/Src/stm32f7xx_hal_adc_ex.c ****   }
 1822              		.loc 1 873 25 view .LVU562
 1823 0158 5368     		ldr	r3, [r2, #4]
 1824 015a 23F48063 		bic	r3, r3, #1024
 1825 015e 5360     		str	r3, [r2, #4]
 1826 0160 BEE7     		b	.L123
 1827              	.L124:
 884:Drivers/STM32F7xx_HAL_Driver/Src/stm32f7xx_hal_adc_ex.c ****   }
 1828              		.loc 1 884 5 is_stmt 1 view .LVU563
 884:Drivers/STM32F7xx_HAL_Driver/Src/stm32f7xx_hal_adc_ex.c ****   }
 1829              		.loc 1 884 9 is_stmt 0 view .LVU564
 1830 0162 0268     		ldr	r2, [r0]
 884:Drivers/STM32F7xx_HAL_Driver/Src/stm32f7xx_hal_adc_ex.c ****   }
 1831              		.loc 1 884 25 view .LVU565
 1832 0164 5368     		ldr	r3, [r2, #4]
 1833 0166 23F48053 		bic	r3, r3, #4096
 1834 016a 5360     		str	r3, [r2, #4]
 1835 016c C0E7     		b	.L125
 1836              	.L137:
 891:Drivers/STM32F7xx_HAL_Driver/Src/stm32f7xx_hal_adc_ex.c ****       hadc->Instance->JOFR1 |= sConfigInjected->InjectedOffset;
 1837              		.loc 1 891 7 is_stmt 1 view .LVU566
 891:Drivers/STM32F7xx_HAL_Driver/Src/stm32f7xx_hal_adc_ex.c ****       hadc->Instance->JOFR1 |= sConfigInjected->InjectedOffset;
ARM GAS  C:\Users\GUILLE~1\AppData\Local\Temp\ccXICf5i.s 			page 61


 1838              		.loc 1 891 11 is_stmt 0 view .LVU567
 1839 016e 0268     		ldr	r2, [r0]
 891:Drivers/STM32F7xx_HAL_Driver/Src/stm32f7xx_hal_adc_ex.c ****       hadc->Instance->JOFR1 |= sConfigInjected->InjectedOffset;
 1840              		.loc 1 891 29 view .LVU568
 1841 0170 5469     		ldr	r4, [r2, #20]
 1842 0172 224B     		ldr	r3, .L140+4
 1843 0174 2340     		ands	r3, r3, r4
 1844 0176 5361     		str	r3, [r2, #20]
 892:Drivers/STM32F7xx_HAL_Driver/Src/stm32f7xx_hal_adc_ex.c ****       break;
 1845              		.loc 1 892 7 is_stmt 1 view .LVU569
 892:Drivers/STM32F7xx_HAL_Driver/Src/stm32f7xx_hal_adc_ex.c ****       break;
 1846              		.loc 1 892 11 is_stmt 0 view .LVU570
 1847 0178 0268     		ldr	r2, [r0]
 892:Drivers/STM32F7xx_HAL_Driver/Src/stm32f7xx_hal_adc_ex.c ****       break;
 1848              		.loc 1 892 29 view .LVU571
 1849 017a 5369     		ldr	r3, [r2, #20]
 892:Drivers/STM32F7xx_HAL_Driver/Src/stm32f7xx_hal_adc_ex.c ****       break;
 1850              		.loc 1 892 47 view .LVU572
 1851 017c CC68     		ldr	r4, [r1, #12]
 892:Drivers/STM32F7xx_HAL_Driver/Src/stm32f7xx_hal_adc_ex.c ****       break;
 1852              		.loc 1 892 29 view .LVU573
 1853 017e 2343     		orrs	r3, r3, r4
 1854 0180 5361     		str	r3, [r2, #20]
 893:Drivers/STM32F7xx_HAL_Driver/Src/stm32f7xx_hal_adc_ex.c ****     case 2:
 1855              		.loc 1 893 7 is_stmt 1 view .LVU574
 1856              	.L129:
 912:Drivers/STM32F7xx_HAL_Driver/Src/stm32f7xx_hal_adc_ex.c ****   {
 1857              		.loc 1 912 3 view .LVU575
 912:Drivers/STM32F7xx_HAL_Driver/Src/stm32f7xx_hal_adc_ex.c ****   {
 1858              		.loc 1 912 12 is_stmt 0 view .LVU576
 1859 0182 0268     		ldr	r2, [r0]
 912:Drivers/STM32F7xx_HAL_Driver/Src/stm32f7xx_hal_adc_ex.c ****   {
 1860              		.loc 1 912 6 view .LVU577
 1861 0184 1E4B     		ldr	r3, .L140+8
 1862 0186 9A42     		cmp	r2, r3
 1863 0188 1FD0     		beq	.L138
 1864              	.L130:
 919:Drivers/STM32F7xx_HAL_Driver/Src/stm32f7xx_hal_adc_ex.c ****   {
 1865              		.loc 1 919 3 is_stmt 1 view .LVU578
 919:Drivers/STM32F7xx_HAL_Driver/Src/stm32f7xx_hal_adc_ex.c ****   {
 1866              		.loc 1 919 12 is_stmt 0 view .LVU579
 1867 018a 0268     		ldr	r2, [r0]
 919:Drivers/STM32F7xx_HAL_Driver/Src/stm32f7xx_hal_adc_ex.c ****   {
 1868              		.loc 1 919 6 view .LVU580
 1869 018c 1C4B     		ldr	r3, .L140+8
 1870 018e 9A42     		cmp	r2, r3
 1871 0190 24D0     		beq	.L139
 1872              	.L131:
 926:Drivers/STM32F7xx_HAL_Driver/Src/stm32f7xx_hal_adc_ex.c ****   
 1873              		.loc 1 926 3 is_stmt 1 view .LVU581
 926:Drivers/STM32F7xx_HAL_Driver/Src/stm32f7xx_hal_adc_ex.c ****   
 1874              		.loc 1 926 3 view .LVU582
 1875 0192 0023     		movs	r3, #0
 1876 0194 80F83C30 		strb	r3, [r0, #60]
 926:Drivers/STM32F7xx_HAL_Driver/Src/stm32f7xx_hal_adc_ex.c ****   
 1877              		.loc 1 926 3 view .LVU583
 929:Drivers/STM32F7xx_HAL_Driver/Src/stm32f7xx_hal_adc_ex.c **** }
ARM GAS  C:\Users\GUILLE~1\AppData\Local\Temp\ccXICf5i.s 			page 62


 1878              		.loc 1 929 3 view .LVU584
 929:Drivers/STM32F7xx_HAL_Driver/Src/stm32f7xx_hal_adc_ex.c **** }
 1879              		.loc 1 929 10 is_stmt 0 view .LVU585
 1880 0198 1846     		mov	r0, r3
 1881              	.LVL102:
 930:Drivers/STM32F7xx_HAL_Driver/Src/stm32f7xx_hal_adc_ex.c **** 
 1882              		.loc 1 930 1 view .LVU586
 1883 019a 30BC     		pop	{r4, r5}
 1884              	.LCFI20:
 1885              		.cfi_remember_state
 1886              		.cfi_restore 5
 1887              		.cfi_restore 4
 1888              		.cfi_def_cfa_offset 0
 1889 019c 7047     		bx	lr
 1890              	.LVL103:
 1891              	.L126:
 1892              	.LCFI21:
 1893              		.cfi_restore_state
 896:Drivers/STM32F7xx_HAL_Driver/Src/stm32f7xx_hal_adc_ex.c ****       hadc->Instance->JOFR2 |= sConfigInjected->InjectedOffset;
 1894              		.loc 1 896 7 is_stmt 1 view .LVU587
 896:Drivers/STM32F7xx_HAL_Driver/Src/stm32f7xx_hal_adc_ex.c ****       hadc->Instance->JOFR2 |= sConfigInjected->InjectedOffset;
 1895              		.loc 1 896 11 is_stmt 0 view .LVU588
 1896 019e 0268     		ldr	r2, [r0]
 896:Drivers/STM32F7xx_HAL_Driver/Src/stm32f7xx_hal_adc_ex.c ****       hadc->Instance->JOFR2 |= sConfigInjected->InjectedOffset;
 1897              		.loc 1 896 29 view .LVU589
 1898 01a0 9469     		ldr	r4, [r2, #24]
 1899 01a2 164B     		ldr	r3, .L140+4
 1900 01a4 2340     		ands	r3, r3, r4
 1901 01a6 9361     		str	r3, [r2, #24]
 897:Drivers/STM32F7xx_HAL_Driver/Src/stm32f7xx_hal_adc_ex.c ****       break;
 1902              		.loc 1 897 7 is_stmt 1 view .LVU590
 897:Drivers/STM32F7xx_HAL_Driver/Src/stm32f7xx_hal_adc_ex.c ****       break;
 1903              		.loc 1 897 11 is_stmt 0 view .LVU591
 1904 01a8 0268     		ldr	r2, [r0]
 897:Drivers/STM32F7xx_HAL_Driver/Src/stm32f7xx_hal_adc_ex.c ****       break;
 1905              		.loc 1 897 29 view .LVU592
 1906 01aa 9369     		ldr	r3, [r2, #24]
 897:Drivers/STM32F7xx_HAL_Driver/Src/stm32f7xx_hal_adc_ex.c ****       break;
 1907              		.loc 1 897 47 view .LVU593
 1908 01ac CC68     		ldr	r4, [r1, #12]
 897:Drivers/STM32F7xx_HAL_Driver/Src/stm32f7xx_hal_adc_ex.c ****       break;
 1909              		.loc 1 897 29 view .LVU594
 1910 01ae 2343     		orrs	r3, r3, r4
 1911 01b0 9361     		str	r3, [r2, #24]
 898:Drivers/STM32F7xx_HAL_Driver/Src/stm32f7xx_hal_adc_ex.c ****     case 3:
 1912              		.loc 1 898 7 is_stmt 1 view .LVU595
 1913 01b2 E6E7     		b	.L129
 1914              	.L127:
 901:Drivers/STM32F7xx_HAL_Driver/Src/stm32f7xx_hal_adc_ex.c ****       hadc->Instance->JOFR3 |= sConfigInjected->InjectedOffset;
 1915              		.loc 1 901 7 view .LVU596
 901:Drivers/STM32F7xx_HAL_Driver/Src/stm32f7xx_hal_adc_ex.c ****       hadc->Instance->JOFR3 |= sConfigInjected->InjectedOffset;
 1916              		.loc 1 901 11 is_stmt 0 view .LVU597
 1917 01b4 0268     		ldr	r2, [r0]
 901:Drivers/STM32F7xx_HAL_Driver/Src/stm32f7xx_hal_adc_ex.c ****       hadc->Instance->JOFR3 |= sConfigInjected->InjectedOffset;
 1918              		.loc 1 901 29 view .LVU598
 1919 01b6 D469     		ldr	r4, [r2, #28]
 1920 01b8 104B     		ldr	r3, .L140+4
ARM GAS  C:\Users\GUILLE~1\AppData\Local\Temp\ccXICf5i.s 			page 63


 1921 01ba 2340     		ands	r3, r3, r4
 1922 01bc D361     		str	r3, [r2, #28]
 902:Drivers/STM32F7xx_HAL_Driver/Src/stm32f7xx_hal_adc_ex.c ****       break;
 1923              		.loc 1 902 7 is_stmt 1 view .LVU599
 902:Drivers/STM32F7xx_HAL_Driver/Src/stm32f7xx_hal_adc_ex.c ****       break;
 1924              		.loc 1 902 11 is_stmt 0 view .LVU600
 1925 01be 0268     		ldr	r2, [r0]
 902:Drivers/STM32F7xx_HAL_Driver/Src/stm32f7xx_hal_adc_ex.c ****       break;
 1926              		.loc 1 902 29 view .LVU601
 1927 01c0 D369     		ldr	r3, [r2, #28]
 902:Drivers/STM32F7xx_HAL_Driver/Src/stm32f7xx_hal_adc_ex.c ****       break;
 1928              		.loc 1 902 47 view .LVU602
 1929 01c2 CC68     		ldr	r4, [r1, #12]
 902:Drivers/STM32F7xx_HAL_Driver/Src/stm32f7xx_hal_adc_ex.c ****       break;
 1930              		.loc 1 902 29 view .LVU603
 1931 01c4 2343     		orrs	r3, r3, r4
 1932 01c6 D361     		str	r3, [r2, #28]
 903:Drivers/STM32F7xx_HAL_Driver/Src/stm32f7xx_hal_adc_ex.c ****     default:
 1933              		.loc 1 903 7 is_stmt 1 view .LVU604
 1934 01c8 DBE7     		b	.L129
 1935              	.L138:
 912:Drivers/STM32F7xx_HAL_Driver/Src/stm32f7xx_hal_adc_ex.c ****   {
 1936              		.loc 1 912 51 is_stmt 0 discriminator 1 view .LVU605
 1937 01ca 0B68     		ldr	r3, [r1]
 912:Drivers/STM32F7xx_HAL_Driver/Src/stm32f7xx_hal_adc_ex.c ****   {
 1938              		.loc 1 912 32 discriminator 1 view .LVU606
 1939 01cc 122B     		cmp	r3, #18
 1940 01ce DCD1     		bne	.L130
 915:Drivers/STM32F7xx_HAL_Driver/Src/stm32f7xx_hal_adc_ex.c ****   }
 1941              		.loc 1 915 5 is_stmt 1 view .LVU607
 915:Drivers/STM32F7xx_HAL_Driver/Src/stm32f7xx_hal_adc_ex.c ****   }
 1942              		.loc 1 915 14 is_stmt 0 view .LVU608
 1943 01d0 0C4A     		ldr	r2, .L140+12
 1944 01d2 5368     		ldr	r3, [r2, #4]
 1945 01d4 43F48003 		orr	r3, r3, #4194304
 1946 01d8 5360     		str	r3, [r2, #4]
 1947 01da D6E7     		b	.L130
 1948              	.L139:
 919:Drivers/STM32F7xx_HAL_Driver/Src/stm32f7xx_hal_adc_ex.c ****   {
 1949              		.loc 1 919 52 discriminator 1 view .LVU609
 1950 01dc 0B68     		ldr	r3, [r1]
 919:Drivers/STM32F7xx_HAL_Driver/Src/stm32f7xx_hal_adc_ex.c ****   {
 1951              		.loc 1 919 32 discriminator 1 view .LVU610
 1952 01de 0A4A     		ldr	r2, .L140+16
 1953 01e0 112B     		cmp	r3, #17
 1954 01e2 18BF     		it	ne
 1955 01e4 9342     		cmpne	r3, r2
 1956 01e6 D4D1     		bne	.L131
 922:Drivers/STM32F7xx_HAL_Driver/Src/stm32f7xx_hal_adc_ex.c ****   }
 1957              		.loc 1 922 5 is_stmt 1 view .LVU611
 922:Drivers/STM32F7xx_HAL_Driver/Src/stm32f7xx_hal_adc_ex.c ****   }
 1958              		.loc 1 922 14 is_stmt 0 view .LVU612
 1959 01e8 064A     		ldr	r2, .L140+12
 1960 01ea 5368     		ldr	r3, [r2, #4]
 1961 01ec 43F40003 		orr	r3, r3, #8388608
 1962 01f0 5360     		str	r3, [r2, #4]
 1963 01f2 CEE7     		b	.L131
ARM GAS  C:\Users\GUILLE~1\AppData\Local\Temp\ccXICf5i.s 			page 64


 1964              	.L132:
 1965              	.LCFI22:
 1966              		.cfi_def_cfa_offset 0
 1967              		.cfi_restore 4
 1968              		.cfi_restore 5
 811:Drivers/STM32F7xx_HAL_Driver/Src/stm32f7xx_hal_adc_ex.c ****   
 1969              		.loc 1 811 3 view .LVU613
 1970 01f4 0220     		movs	r0, #2
 1971              	.LVL104:
 930:Drivers/STM32F7xx_HAL_Driver/Src/stm32f7xx_hal_adc_ex.c **** 
 1972              		.loc 1 930 1 view .LVU614
 1973 01f6 7047     		bx	lr
 1974              	.L141:
 1975              		.align	2
 1976              	.L140:
 1977 01f8 01000F00 		.word	983041
 1978 01fc 00F0FFFF 		.word	-4096
 1979 0200 00200140 		.word	1073815552
 1980 0204 00230140 		.word	1073816320
 1981 0208 12000010 		.word	268435474
 1982              		.cfi_endproc
 1983              	.LFE256:
 1985              		.section	.text.HAL_ADCEx_MultiModeConfigChannel,"ax",%progbits
 1986              		.align	1
 1987              		.global	HAL_ADCEx_MultiModeConfigChannel
 1988              		.syntax unified
 1989              		.thumb
 1990              		.thumb_func
 1991              		.fpu fpv5-sp-d16
 1993              	HAL_ADCEx_MultiModeConfigChannel:
 1994              	.LVL105:
 1995              	.LFB257:
 941:Drivers/STM32F7xx_HAL_Driver/Src/stm32f7xx_hal_adc_ex.c ****   /* Check the parameters */
 1996              		.loc 1 941 1 is_stmt 1 view -0
 1997              		.cfi_startproc
 1998              		@ args = 0, pretend = 0, frame = 0
 1999              		@ frame_needed = 0, uses_anonymous_args = 0
 2000              		@ link register save eliminated.
 943:Drivers/STM32F7xx_HAL_Driver/Src/stm32f7xx_hal_adc_ex.c ****   assert_param(IS_ADC_DMA_ACCESS_MODE(multimode->DMAAccessMode));
 2001              		.loc 1 943 3 view .LVU616
 944:Drivers/STM32F7xx_HAL_Driver/Src/stm32f7xx_hal_adc_ex.c ****   assert_param(IS_ADC_SAMPLING_DELAY(multimode->TwoSamplingDelay));
 2002              		.loc 1 944 3 view .LVU617
 945:Drivers/STM32F7xx_HAL_Driver/Src/stm32f7xx_hal_adc_ex.c ****   
 2003              		.loc 1 945 3 view .LVU618
 948:Drivers/STM32F7xx_HAL_Driver/Src/stm32f7xx_hal_adc_ex.c ****   
 2004              		.loc 1 948 3 view .LVU619
 948:Drivers/STM32F7xx_HAL_Driver/Src/stm32f7xx_hal_adc_ex.c ****   
 2005              		.loc 1 948 3 view .LVU620
 2006 0000 90F83C30 		ldrb	r3, [r0, #60]	@ zero_extendqisi2
 2007 0004 012B     		cmp	r3, #1
 2008 0006 23D0     		beq	.L144
 941:Drivers/STM32F7xx_HAL_Driver/Src/stm32f7xx_hal_adc_ex.c ****   /* Check the parameters */
 2009              		.loc 1 941 1 is_stmt 0 discriminator 2 view .LVU621
 2010 0008 10B4     		push	{r4}
 2011              	.LCFI23:
 2012              		.cfi_def_cfa_offset 4
 2013              		.cfi_offset 4, -4
ARM GAS  C:\Users\GUILLE~1\AppData\Local\Temp\ccXICf5i.s 			page 65


 948:Drivers/STM32F7xx_HAL_Driver/Src/stm32f7xx_hal_adc_ex.c ****   
 2014              		.loc 1 948 3 is_stmt 1 discriminator 2 view .LVU622
 2015 000a 0123     		movs	r3, #1
 2016 000c 80F83C30 		strb	r3, [r0, #60]
 948:Drivers/STM32F7xx_HAL_Driver/Src/stm32f7xx_hal_adc_ex.c ****   
 2017              		.loc 1 948 3 discriminator 2 view .LVU623
 951:Drivers/STM32F7xx_HAL_Driver/Src/stm32f7xx_hal_adc_ex.c ****   ADC->CCR |= multimode->Mode;
 2018              		.loc 1 951 3 discriminator 2 view .LVU624
 951:Drivers/STM32F7xx_HAL_Driver/Src/stm32f7xx_hal_adc_ex.c ****   ADC->CCR |= multimode->Mode;
 2019              		.loc 1 951 12 is_stmt 0 discriminator 2 view .LVU625
 2020 0010 104B     		ldr	r3, .L149
 2021 0012 5A68     		ldr	r2, [r3, #4]
 2022 0014 22F01F02 		bic	r2, r2, #31
 2023 0018 5A60     		str	r2, [r3, #4]
 952:Drivers/STM32F7xx_HAL_Driver/Src/stm32f7xx_hal_adc_ex.c ****   
 2024              		.loc 1 952 3 is_stmt 1 discriminator 2 view .LVU626
 952:Drivers/STM32F7xx_HAL_Driver/Src/stm32f7xx_hal_adc_ex.c ****   
 2025              		.loc 1 952 12 is_stmt 0 discriminator 2 view .LVU627
 2026 001a 5A68     		ldr	r2, [r3, #4]
 2027 001c 0C68     		ldr	r4, [r1]
 2028 001e 2243     		orrs	r2, r2, r4
 2029 0020 5A60     		str	r2, [r3, #4]
 955:Drivers/STM32F7xx_HAL_Driver/Src/stm32f7xx_hal_adc_ex.c ****   ADC->CCR |= multimode->DMAAccessMode;
 2030              		.loc 1 955 3 is_stmt 1 discriminator 2 view .LVU628
 955:Drivers/STM32F7xx_HAL_Driver/Src/stm32f7xx_hal_adc_ex.c ****   ADC->CCR |= multimode->DMAAccessMode;
 2031              		.loc 1 955 12 is_stmt 0 discriminator 2 view .LVU629
 2032 0022 5A68     		ldr	r2, [r3, #4]
 2033 0024 22F44042 		bic	r2, r2, #49152
 2034 0028 5A60     		str	r2, [r3, #4]
 956:Drivers/STM32F7xx_HAL_Driver/Src/stm32f7xx_hal_adc_ex.c ****   
 2035              		.loc 1 956 3 is_stmt 1 discriminator 2 view .LVU630
 956:Drivers/STM32F7xx_HAL_Driver/Src/stm32f7xx_hal_adc_ex.c ****   
 2036              		.loc 1 956 12 is_stmt 0 discriminator 2 view .LVU631
 2037 002a 5A68     		ldr	r2, [r3, #4]
 2038 002c 4C68     		ldr	r4, [r1, #4]
 2039 002e 2243     		orrs	r2, r2, r4
 2040 0030 5A60     		str	r2, [r3, #4]
 959:Drivers/STM32F7xx_HAL_Driver/Src/stm32f7xx_hal_adc_ex.c ****   ADC->CCR |= multimode->TwoSamplingDelay;
 2041              		.loc 1 959 3 is_stmt 1 discriminator 2 view .LVU632
 959:Drivers/STM32F7xx_HAL_Driver/Src/stm32f7xx_hal_adc_ex.c ****   ADC->CCR |= multimode->TwoSamplingDelay;
 2042              		.loc 1 959 12 is_stmt 0 discriminator 2 view .LVU633
 2043 0032 5A68     		ldr	r2, [r3, #4]
 2044 0034 22F47062 		bic	r2, r2, #3840
 2045 0038 5A60     		str	r2, [r3, #4]
 960:Drivers/STM32F7xx_HAL_Driver/Src/stm32f7xx_hal_adc_ex.c ****   
 2046              		.loc 1 960 3 is_stmt 1 discriminator 2 view .LVU634
 960:Drivers/STM32F7xx_HAL_Driver/Src/stm32f7xx_hal_adc_ex.c ****   
 2047              		.loc 1 960 12 is_stmt 0 discriminator 2 view .LVU635
 2048 003a 5A68     		ldr	r2, [r3, #4]
 960:Drivers/STM32F7xx_HAL_Driver/Src/stm32f7xx_hal_adc_ex.c ****   
 2049              		.loc 1 960 24 discriminator 2 view .LVU636
 2050 003c 8968     		ldr	r1, [r1, #8]
 2051              	.LVL106:
 960:Drivers/STM32F7xx_HAL_Driver/Src/stm32f7xx_hal_adc_ex.c ****   
 2052              		.loc 1 960 12 discriminator 2 view .LVU637
 2053 003e 0A43     		orrs	r2, r2, r1
 2054 0040 5A60     		str	r2, [r3, #4]
ARM GAS  C:\Users\GUILLE~1\AppData\Local\Temp\ccXICf5i.s 			page 66


 963:Drivers/STM32F7xx_HAL_Driver/Src/stm32f7xx_hal_adc_ex.c ****   
 2055              		.loc 1 963 3 is_stmt 1 discriminator 2 view .LVU638
 963:Drivers/STM32F7xx_HAL_Driver/Src/stm32f7xx_hal_adc_ex.c ****   
 2056              		.loc 1 963 3 discriminator 2 view .LVU639
 2057 0042 0023     		movs	r3, #0
 2058 0044 80F83C30 		strb	r3, [r0, #60]
 963:Drivers/STM32F7xx_HAL_Driver/Src/stm32f7xx_hal_adc_ex.c ****   
 2059              		.loc 1 963 3 discriminator 2 view .LVU640
 966:Drivers/STM32F7xx_HAL_Driver/Src/stm32f7xx_hal_adc_ex.c **** }
 2060              		.loc 1 966 3 discriminator 2 view .LVU641
 966:Drivers/STM32F7xx_HAL_Driver/Src/stm32f7xx_hal_adc_ex.c **** }
 2061              		.loc 1 966 10 is_stmt 0 discriminator 2 view .LVU642
 2062 0048 1846     		mov	r0, r3
 2063              	.LVL107:
 967:Drivers/STM32F7xx_HAL_Driver/Src/stm32f7xx_hal_adc_ex.c **** 
 2064              		.loc 1 967 1 discriminator 2 view .LVU643
 2065 004a 5DF8044B 		ldr	r4, [sp], #4
 2066              	.LCFI24:
 2067              		.cfi_restore 4
 2068              		.cfi_def_cfa_offset 0
 2069 004e 7047     		bx	lr
 2070              	.LVL108:
 2071              	.L144:
 948:Drivers/STM32F7xx_HAL_Driver/Src/stm32f7xx_hal_adc_ex.c ****   
 2072              		.loc 1 948 3 view .LVU644
 2073 0050 0220     		movs	r0, #2
 2074              	.LVL109:
 967:Drivers/STM32F7xx_HAL_Driver/Src/stm32f7xx_hal_adc_ex.c **** 
 2075              		.loc 1 967 1 view .LVU645
 2076 0052 7047     		bx	lr
 2077              	.L150:
 2078              		.align	2
 2079              	.L149:
 2080 0054 00230140 		.word	1073816320
 2081              		.cfi_endproc
 2082              	.LFE257:
 2084              		.text
 2085              	.Letext0:
 2086              		.file 2 "c:\\program files (x86)\\gnu arm embedded toolchain\\10 2020-q4-major\\arm-none-eabi\\inc
 2087              		.file 3 "c:\\program files (x86)\\gnu arm embedded toolchain\\10 2020-q4-major\\arm-none-eabi\\inc
 2088              		.file 4 "Drivers/CMSIS/Device/ST/STM32F7xx/Include/stm32f746xx.h"
 2089              		.file 5 "Drivers/CMSIS/Device/ST/STM32F7xx/Include/stm32f7xx.h"
 2090              		.file 6 "Drivers/STM32F7xx_HAL_Driver/Inc/stm32f7xx_hal_def.h"
 2091              		.file 7 "Drivers/STM32F7xx_HAL_Driver/Inc/stm32f7xx_hal_dma.h"
 2092              		.file 8 "Drivers/STM32F7xx_HAL_Driver/Inc/stm32f7xx_hal_adc.h"
 2093              		.file 9 "Drivers/STM32F7xx_HAL_Driver/Inc/stm32f7xx_hal_adc_ex.h"
 2094              		.file 10 "Drivers/CMSIS/Device/ST/STM32F7xx/Include/system_stm32f7xx.h"
 2095              		.file 11 "Drivers/STM32F7xx_HAL_Driver/Inc/stm32f7xx_hal.h"
ARM GAS  C:\Users\GUILLE~1\AppData\Local\Temp\ccXICf5i.s 			page 67


DEFINED SYMBOLS
                            *ABS*:00000000 stm32f7xx_hal_adc_ex.c
C:\Users\GUILLE~1\AppData\Local\Temp\ccXICf5i.s:18     .text.ADC_MultiModeDMAError:00000000 $t
C:\Users\GUILLE~1\AppData\Local\Temp\ccXICf5i.s:25     .text.ADC_MultiModeDMAError:00000000 ADC_MultiModeDMAError
C:\Users\GUILLE~1\AppData\Local\Temp\ccXICf5i.s:61     .text.ADC_MultiModeDMAHalfConvCplt:00000000 $t
C:\Users\GUILLE~1\AppData\Local\Temp\ccXICf5i.s:67     .text.ADC_MultiModeDMAHalfConvCplt:00000000 ADC_MultiModeDMAHalfConvCplt
C:\Users\GUILLE~1\AppData\Local\Temp\ccXICf5i.s:94     .text.ADC_MultiModeDMAConvCplt:00000000 $t
C:\Users\GUILLE~1\AppData\Local\Temp\ccXICf5i.s:100    .text.ADC_MultiModeDMAConvCplt:00000000 ADC_MultiModeDMAConvCplt
C:\Users\GUILLE~1\AppData\Local\Temp\ccXICf5i.s:194    .text.HAL_ADCEx_InjectedStart:00000000 $t
C:\Users\GUILLE~1\AppData\Local\Temp\ccXICf5i.s:201    .text.HAL_ADCEx_InjectedStart:00000000 HAL_ADCEx_InjectedStart
C:\Users\GUILLE~1\AppData\Local\Temp\ccXICf5i.s:415    .text.HAL_ADCEx_InjectedStart:000000e8 $d
C:\Users\GUILLE~1\AppData\Local\Temp\ccXICf5i.s:424    .text.HAL_ADCEx_InjectedStart_IT:00000000 $t
C:\Users\GUILLE~1\AppData\Local\Temp\ccXICf5i.s:431    .text.HAL_ADCEx_InjectedStart_IT:00000000 HAL_ADCEx_InjectedStart_IT
C:\Users\GUILLE~1\AppData\Local\Temp\ccXICf5i.s:650    .text.HAL_ADCEx_InjectedStart_IT:000000f0 $d
C:\Users\GUILLE~1\AppData\Local\Temp\ccXICf5i.s:659    .text.HAL_ADCEx_InjectedStop:00000000 $t
C:\Users\GUILLE~1\AppData\Local\Temp\ccXICf5i.s:666    .text.HAL_ADCEx_InjectedStop:00000000 HAL_ADCEx_InjectedStop
C:\Users\GUILLE~1\AppData\Local\Temp\ccXICf5i.s:759    .text.HAL_ADCEx_InjectedStop:00000060 $d
C:\Users\GUILLE~1\AppData\Local\Temp\ccXICf5i.s:764    .text.HAL_ADCEx_InjectedPollForConversion:00000000 $t
C:\Users\GUILLE~1\AppData\Local\Temp\ccXICf5i.s:771    .text.HAL_ADCEx_InjectedPollForConversion:00000000 HAL_ADCEx_InjectedPollForConversion
C:\Users\GUILLE~1\AppData\Local\Temp\ccXICf5i.s:929    .text.HAL_ADCEx_InjectedStop_IT:00000000 $t
C:\Users\GUILLE~1\AppData\Local\Temp\ccXICf5i.s:936    .text.HAL_ADCEx_InjectedStop_IT:00000000 HAL_ADCEx_InjectedStop_IT
C:\Users\GUILLE~1\AppData\Local\Temp\ccXICf5i.s:1033   .text.HAL_ADCEx_InjectedStop_IT:00000068 $d
C:\Users\GUILLE~1\AppData\Local\Temp\ccXICf5i.s:1038   .text.HAL_ADCEx_InjectedGetValue:00000000 $t
C:\Users\GUILLE~1\AppData\Local\Temp\ccXICf5i.s:1045   .text.HAL_ADCEx_InjectedGetValue:00000000 HAL_ADCEx_InjectedGetValue
C:\Users\GUILLE~1\AppData\Local\Temp\ccXICf5i.s:1074   .text.HAL_ADCEx_InjectedGetValue:00000018 $d
C:\Users\GUILLE~1\AppData\Local\Temp\ccXICf5i.s:1078   .text.HAL_ADCEx_InjectedGetValue:0000001c $t
C:\Users\GUILLE~1\AppData\Local\Temp\ccXICf5i.s:1137   .text.HAL_ADCEx_MultiModeStart_DMA:00000000 $t
C:\Users\GUILLE~1\AppData\Local\Temp\ccXICf5i.s:1144   .text.HAL_ADCEx_MultiModeStart_DMA:00000000 HAL_ADCEx_MultiModeStart_DMA
C:\Users\GUILLE~1\AppData\Local\Temp\ccXICf5i.s:1379   .text.HAL_ADCEx_MultiModeStart_DMA:00000110 $d
C:\Users\GUILLE~1\AppData\Local\Temp\ccXICf5i.s:1391   .text.HAL_ADCEx_MultiModeStop_DMA:00000000 $t
C:\Users\GUILLE~1\AppData\Local\Temp\ccXICf5i.s:1398   .text.HAL_ADCEx_MultiModeStop_DMA:00000000 HAL_ADCEx_MultiModeStop_DMA
C:\Users\GUILLE~1\AppData\Local\Temp\ccXICf5i.s:1488   .text.HAL_ADCEx_MultiModeStop_DMA:0000005c $d
C:\Users\GUILLE~1\AppData\Local\Temp\ccXICf5i.s:1494   .text.HAL_ADCEx_MultiModeGetValue:00000000 $t
C:\Users\GUILLE~1\AppData\Local\Temp\ccXICf5i.s:1501   .text.HAL_ADCEx_MultiModeGetValue:00000000 HAL_ADCEx_MultiModeGetValue
C:\Users\GUILLE~1\AppData\Local\Temp\ccXICf5i.s:1519   .text.HAL_ADCEx_MultiModeGetValue:00000008 $d
C:\Users\GUILLE~1\AppData\Local\Temp\ccXICf5i.s:1524   .text.HAL_ADCEx_InjectedConvCpltCallback:00000000 $t
C:\Users\GUILLE~1\AppData\Local\Temp\ccXICf5i.s:1531   .text.HAL_ADCEx_InjectedConvCpltCallback:00000000 HAL_ADCEx_InjectedConvCpltCallback
C:\Users\GUILLE~1\AppData\Local\Temp\ccXICf5i.s:1546   .text.HAL_ADCEx_InjectedConfigChannel:00000000 $t
C:\Users\GUILLE~1\AppData\Local\Temp\ccXICf5i.s:1553   .text.HAL_ADCEx_InjectedConfigChannel:00000000 HAL_ADCEx_InjectedConfigChannel
C:\Users\GUILLE~1\AppData\Local\Temp\ccXICf5i.s:1977   .text.HAL_ADCEx_InjectedConfigChannel:000001f8 $d
C:\Users\GUILLE~1\AppData\Local\Temp\ccXICf5i.s:1986   .text.HAL_ADCEx_MultiModeConfigChannel:00000000 $t
C:\Users\GUILLE~1\AppData\Local\Temp\ccXICf5i.s:1993   .text.HAL_ADCEx_MultiModeConfigChannel:00000000 HAL_ADCEx_MultiModeConfigChannel
C:\Users\GUILLE~1\AppData\Local\Temp\ccXICf5i.s:2080   .text.HAL_ADCEx_MultiModeConfigChannel:00000054 $d

UNDEFINED SYMBOLS
HAL_ADC_ErrorCallback
HAL_ADC_ConvHalfCpltCallback
HAL_ADC_ConvCpltCallback
SystemCoreClock
HAL_GetTick
HAL_DMA_Start_IT
HAL_DMA_Abort
