ARM GAS  C:\Users\GUILLE~1\AppData\Local\Temp\ccR2Rbbo.s 			page 1


   1              		.cpu cortex-m7
   2              		.eabi_attribute 27, 1
   3              		.eabi_attribute 28, 1
   4              		.eabi_attribute 20, 1
   5              		.eabi_attribute 21, 1
   6              		.eabi_attribute 23, 3
   7              		.eabi_attribute 24, 1
   8              		.eabi_attribute 25, 1
   9              		.eabi_attribute 26, 1
  10              		.eabi_attribute 30, 1
  11              		.eabi_attribute 34, 1
  12              		.eabi_attribute 18, 4
  13              		.file	"task.c"
  14              		.text
  15              	.Ltext0:
  16              		.cfi_sections	.debug_frame
  17              		.section	.text.executeTask,"ax",%progbits
  18              		.align	1
  19              		.global	executeTask
  20              		.arch armv7e-m
  21              		.syntax unified
  22              		.thumb
  23              		.thumb_func
  24              		.fpu fpv5-sp-d16
  26              	executeTask:
  27              	.LVL0:
  28              	.LFB249:
  29              		.file 1 "Core/drogui/utils/src/task.c"
   1:Core/drogui/utils/src/task.c **** #include "task.h"
   2:Core/drogui/utils/src/task.c **** #include "serial.h"
   3:Core/drogui/utils/src/task.c **** #include "string.h"
   4:Core/drogui/utils/src/task.c **** #include "stdio.h"
   5:Core/drogui/utils/src/task.c **** #include <stdbool.h>
   6:Core/drogui/utils/src/task.c **** #include "registerMap.h"
   7:Core/drogui/utils/src/task.c **** 
   8:Core/drogui/utils/src/task.c **** int tasks_count = 0;
   9:Core/drogui/utils/src/task.c **** 
  10:Core/drogui/utils/src/task.c **** typedef struct _task{
  11:Core/drogui/utils/src/task.c **** 	uint32_t period, last_time;
  12:Core/drogui/utils/src/task.c **** 	int priority, ignored;
  13:Core/drogui/utils/src/task.c **** 	void (*function) ();
  14:Core/drogui/utils/src/task.c **** } task;
  15:Core/drogui/utils/src/task.c **** 
  16:Core/drogui/utils/src/task.c **** 
  17:Core/drogui/utils/src/task.c **** task Tasks[100];
  18:Core/drogui/utils/src/task.c **** 
  19:Core/drogui/utils/src/task.c **** 
  20:Core/drogui/utils/src/task.c **** void executeTask(task* t, int _id){
  30              		.loc 1 20 35 view -0
  31              		.cfi_startproc
  32              		@ args = 0, pretend = 0, frame = 0
  33              		@ frame_needed = 0, uses_anonymous_args = 0
  34              		.loc 1 20 35 is_stmt 0 view .LVU1
  35 0000 08B5     		push	{r3, lr}
  36              	.LCFI0:
  37              		.cfi_def_cfa_offset 8
  38              		.cfi_offset 3, -8
ARM GAS  C:\Users\GUILLE~1\AppData\Local\Temp\ccR2Rbbo.s 			page 2


  39              		.cfi_offset 14, -4
  21:Core/drogui/utils/src/task.c **** 	t->last_time = TIME;
  40              		.loc 1 21 2 is_stmt 1 view .LVU2
  41              		.loc 1 21 17 is_stmt 0 view .LVU3
  42 0002 034B     		ldr	r3, .L3
  43 0004 1B68     		ldr	r3, [r3]
  44 0006 5B6A     		ldr	r3, [r3, #36]
  45              		.loc 1 21 15 view .LVU4
  46 0008 4360     		str	r3, [r0, #4]
  22:Core/drogui/utils/src/task.c **** 	t->function();
  47              		.loc 1 22 2 is_stmt 1 view .LVU5
  48              		.loc 1 22 3 is_stmt 0 view .LVU6
  49 000a 0369     		ldr	r3, [r0, #16]
  50              		.loc 1 22 2 view .LVU7
  51 000c 9847     		blx	r3
  52              	.LVL1:
  23:Core/drogui/utils/src/task.c **** }
  53              		.loc 1 23 1 view .LVU8
  54 000e 08BD     		pop	{r3, pc}
  55              	.L4:
  56              		.align	2
  57              	.L3:
  58 0010 00000000 		.word	htim5
  59              		.cfi_endproc
  60              	.LFE249:
  62              		.section	.text.isTaskReady,"ax",%progbits
  63              		.align	1
  64              		.global	isTaskReady
  65              		.syntax unified
  66              		.thumb
  67              		.thumb_func
  68              		.fpu fpv5-sp-d16
  70              	isTaskReady:
  71              	.LVL2:
  72              	.LFB250:
  24:Core/drogui/utils/src/task.c **** 
  25:Core/drogui/utils/src/task.c **** bool isTaskReady(task* t){
  73              		.loc 1 25 26 is_stmt 1 view -0
  74              		.cfi_startproc
  75              		@ args = 0, pretend = 0, frame = 0
  76              		@ frame_needed = 0, uses_anonymous_args = 0
  77              		@ link register save eliminated.
  26:Core/drogui/utils/src/task.c **** 	return (TIME - (t->last_time)) > (t->period);
  78              		.loc 1 26 2 view .LVU10
  79              		.loc 1 26 10 is_stmt 0 view .LVU11
  80 0000 054B     		ldr	r3, .L6
  81 0002 1B68     		ldr	r3, [r3]
  82 0004 5B6A     		ldr	r3, [r3, #36]
  83              		.loc 1 26 19 view .LVU12
  84 0006 4268     		ldr	r2, [r0, #4]
  85              		.loc 1 26 15 view .LVU13
  86 0008 9B1A     		subs	r3, r3, r2
  87              		.loc 1 26 37 view .LVU14
  88 000a 0068     		ldr	r0, [r0]
  89              	.LVL3:
  27:Core/drogui/utils/src/task.c **** }
  90              		.loc 1 27 1 view .LVU15
ARM GAS  C:\Users\GUILLE~1\AppData\Local\Temp\ccR2Rbbo.s 			page 3


  91 000c 8342     		cmp	r3, r0
  92 000e 94BF     		ite	ls
  93 0010 0020     		movls	r0, #0
  94 0012 0120     		movhi	r0, #1
  95 0014 7047     		bx	lr
  96              	.L7:
  97 0016 00BF     		.align	2
  98              	.L6:
  99 0018 00000000 		.word	htim5
 100              		.cfi_endproc
 101              	.LFE250:
 103              		.section	.text.addTask,"ax",%progbits
 104              		.align	1
 105              		.global	addTask
 106              		.syntax unified
 107              		.thumb
 108              		.thumb_func
 109              		.fpu fpv5-sp-d16
 111              	addTask:
 112              	.LVL4:
 113              	.LFB251:
  28:Core/drogui/utils/src/task.c **** 
  29:Core/drogui/utils/src/task.c **** void addTask(void (*f) (), uint32_t period, int priority){
 114              		.loc 1 29 58 is_stmt 1 view -0
 115              		.cfi_startproc
 116              		@ args = 0, pretend = 0, frame = 0
 117              		@ frame_needed = 0, uses_anonymous_args = 0
 118              		.loc 1 29 58 is_stmt 0 view .LVU17
 119 0000 30B5     		push	{r4, r5, lr}
 120              	.LCFI1:
 121              		.cfi_def_cfa_offset 12
 122              		.cfi_offset 4, -12
 123              		.cfi_offset 5, -8
 124              		.cfi_offset 14, -4
  30:Core/drogui/utils/src/task.c **** 	Tasks[tasks_count].period = period;
 125              		.loc 1 30 2 is_stmt 1 view .LVU18
 126              		.loc 1 30 20 is_stmt 0 view .LVU19
 127 0002 094D     		ldr	r5, .L10
 128 0004 2B68     		ldr	r3, [r5]
 129              		.loc 1 30 28 view .LVU20
 130 0006 094C     		ldr	r4, .L10+4
 131 0008 03EB830E 		add	lr, r3, r3, lsl #2
 132 000c 04EB8E0C 		add	ip, r4, lr, lsl #2
 133 0010 44F82E10 		str	r1, [r4, lr, lsl #2]
  31:Core/drogui/utils/src/task.c **** 	Tasks[tasks_count].priority = priority;
 134              		.loc 1 31 2 is_stmt 1 view .LVU21
 135              		.loc 1 31 30 is_stmt 0 view .LVU22
 136 0014 CCF80820 		str	r2, [ip, #8]
  32:Core/drogui/utils/src/task.c **** 	Tasks[tasks_count].ignored = 0;
 137              		.loc 1 32 2 is_stmt 1 view .LVU23
 138              		.loc 1 32 29 is_stmt 0 view .LVU24
 139 0018 0022     		movs	r2, #0
 140              	.LVL5:
 141              		.loc 1 32 29 view .LVU25
 142 001a CCF80C20 		str	r2, [ip, #12]
  33:Core/drogui/utils/src/task.c **** 	Tasks[tasks_count++].function = f;
 143              		.loc 1 33 2 is_stmt 1 view .LVU26
ARM GAS  C:\Users\GUILLE~1\AppData\Local\Temp\ccR2Rbbo.s 			page 4


 144              		.loc 1 33 19 is_stmt 0 view .LVU27
 145 001e 5A1C     		adds	r2, r3, #1
 146 0020 2A60     		str	r2, [r5]
 147              		.loc 1 33 32 view .LVU28
 148 0022 CCF81000 		str	r0, [ip, #16]
  34:Core/drogui/utils/src/task.c **** }
 149              		.loc 1 34 1 view .LVU29
 150 0026 30BD     		pop	{r4, r5, pc}
 151              	.L11:
 152              		.align	2
 153              	.L10:
 154 0028 00000000 		.word	.LANCHOR0
 155 002c 00000000 		.word	.LANCHOR1
 156              		.cfi_endproc
 157              	.LFE251:
 159              		.section	.text.initRTOS,"ax",%progbits
 160              		.align	1
 161              		.global	initRTOS
 162              		.syntax unified
 163              		.thumb
 164              		.thumb_func
 165              		.fpu fpv5-sp-d16
 167              	initRTOS:
 168              	.LFB252:
  35:Core/drogui/utils/src/task.c **** char buffer3[100];
  36:Core/drogui/utils/src/task.c **** void initRTOS(){
 169              		.loc 1 36 16 is_stmt 1 view -0
 170              		.cfi_startproc
 171              		@ args = 0, pretend = 0, frame = 0
 172              		@ frame_needed = 0, uses_anonymous_args = 0
 173 0000 F8B5     		push	{r3, r4, r5, r6, r7, lr}
 174              	.LCFI2:
 175              		.cfi_def_cfa_offset 24
 176              		.cfi_offset 3, -24
 177              		.cfi_offset 4, -20
 178              		.cfi_offset 5, -16
 179              		.cfi_offset 6, -12
 180              		.cfi_offset 7, -8
 181              		.cfi_offset 14, -4
 182 0002 32E0     		b	.L19
 183              	.LVL6:
 184              	.L14:
 185              	.LBB2:
 186              	.LBB3:
  37:Core/drogui/utils/src/task.c **** 	while(1){
  38:Core/drogui/utils/src/task.c **** 
  39:Core/drogui/utils/src/task.c **** 		int max_score = 0, id = -1;
  40:Core/drogui/utils/src/task.c **** 
  41:Core/drogui/utils/src/task.c **** 		for(int i = 0; i < tasks_count; i++){
 187              		.loc 1 41 35 discriminator 2 view .LVU31
 188              		.loc 1 41 36 is_stmt 0 discriminator 2 view .LVU32
 189 0004 0134     		adds	r4, r4, #1
 190              	.LVL7:
 191              	.L13:
 192              		.loc 1 41 18 is_stmt 1 discriminator 1 view .LVU33
 193              		.loc 1 41 20 is_stmt 0 discriminator 1 view .LVU34
 194 0006 234B     		ldr	r3, .L27
ARM GAS  C:\Users\GUILLE~1\AppData\Local\Temp\ccR2Rbbo.s 			page 5


 195 0008 1B68     		ldr	r3, [r3]
 196              		.loc 1 41 3 discriminator 1 view .LVU35
 197 000a A342     		cmp	r3, r4
 198 000c 10DD     		ble	.L23
 199              	.LBB4:
  42:Core/drogui/utils/src/task.c **** 			int score = Tasks[i].priority + Tasks[i].ignored;
 200              		.loc 1 42 4 is_stmt 1 view .LVU36
 201              		.loc 1 42 24 is_stmt 0 view .LVU37
 202 000e 04EB8400 		add	r0, r4, r4, lsl #2
 203 0012 214B     		ldr	r3, .L27+4
 204 0014 03EB8000 		add	r0, r3, r0, lsl #2
 205 0018 8368     		ldr	r3, [r0, #8]
 206              		.loc 1 42 44 view .LVU38
 207 001a C768     		ldr	r7, [r0, #12]
 208              		.loc 1 42 8 view .LVU39
 209 001c 1F44     		add	r7, r7, r3
 210              	.LVL8:
  43:Core/drogui/utils/src/task.c **** 			//serialPrintf("rtos %d %d %ld\n", TIME, score, Tasks[i].period), HAL_Delay(100);
  44:Core/drogui/utils/src/task.c **** 
  45:Core/drogui/utils/src/task.c **** 			if(isTaskReady(&Tasks[i]) && max_score < score)
 211              		.loc 1 45 4 is_stmt 1 view .LVU40
 212              		.loc 1 45 7 is_stmt 0 view .LVU41
 213 001e FFF7FEFF 		bl	isTaskReady
 214              	.LVL9:
 215              		.loc 1 45 6 view .LVU42
 216 0022 0028     		cmp	r0, #0
 217 0024 EED0     		beq	.L14
 218              		.loc 1 45 30 discriminator 1 view .LVU43
 219 0026 BE42     		cmp	r6, r7
 220 0028 ECDA     		bge	.L14
  46:Core/drogui/utils/src/task.c **** 				max_score = score, id = i;
 221              		.loc 1 46 27 view .LVU44
 222 002a 2546     		mov	r5, r4
 223              	.LVL10:
 224              		.loc 1 46 15 view .LVU45
 225 002c 3E46     		mov	r6, r7
 226              	.LVL11:
 227              		.loc 1 46 15 view .LVU46
 228 002e E9E7     		b	.L14
 229              	.LVL12:
 230              	.L23:
 231              		.loc 1 46 15 view .LVU47
 232              	.LBE4:
 233              	.LBE3:
 234              	.LBB5:
  47:Core/drogui/utils/src/task.c **** 		}
  48:Core/drogui/utils/src/task.c **** 
  49:Core/drogui/utils/src/task.c **** 		for(int i = 0; i < tasks_count; i++){
 235              		.loc 1 49 11 view .LVU48
 236 0030 0024     		movs	r4, #0
 237              	.LVL13:
 238              		.loc 1 49 11 view .LVU49
 239 0032 08E0     		b	.L16
 240              	.LVL14:
 241              	.L25:
  50:Core/drogui/utils/src/task.c **** 			if(isTaskReady(&Tasks[i]) && i != id)
  51:Core/drogui/utils/src/task.c **** 				Tasks[i].ignored++;
ARM GAS  C:\Users\GUILLE~1\AppData\Local\Temp\ccR2Rbbo.s 			page 6


 242              		.loc 1 51 5 is_stmt 1 view .LVU50
 243              		.loc 1 51 13 is_stmt 0 view .LVU51
 244 0034 04EB8403 		add	r3, r4, r4, lsl #2
 245 0038 174A     		ldr	r2, .L27+4
 246 003a 02EB8303 		add	r3, r2, r3, lsl #2
 247 003e DA68     		ldr	r2, [r3, #12]
 248              		.loc 1 51 21 view .LVU52
 249 0040 0132     		adds	r2, r2, #1
 250 0042 DA60     		str	r2, [r3, #12]
 251              	.L17:
  49:Core/drogui/utils/src/task.c **** 			if(isTaskReady(&Tasks[i]) && i != id)
 252              		.loc 1 49 35 is_stmt 1 discriminator 2 view .LVU53
  49:Core/drogui/utils/src/task.c **** 			if(isTaskReady(&Tasks[i]) && i != id)
 253              		.loc 1 49 36 is_stmt 0 discriminator 2 view .LVU54
 254 0044 0134     		adds	r4, r4, #1
 255              	.LVL15:
 256              	.L16:
  49:Core/drogui/utils/src/task.c **** 			if(isTaskReady(&Tasks[i]) && i != id)
 257              		.loc 1 49 18 is_stmt 1 discriminator 1 view .LVU55
  49:Core/drogui/utils/src/task.c **** 			if(isTaskReady(&Tasks[i]) && i != id)
 258              		.loc 1 49 20 is_stmt 0 discriminator 1 view .LVU56
 259 0046 134B     		ldr	r3, .L27
 260 0048 1B68     		ldr	r3, [r3]
  49:Core/drogui/utils/src/task.c **** 			if(isTaskReady(&Tasks[i]) && i != id)
 261              		.loc 1 49 3 discriminator 1 view .LVU57
 262 004a A342     		cmp	r3, r4
 263 004c 0BDD     		ble	.L24
  50:Core/drogui/utils/src/task.c **** 			if(isTaskReady(&Tasks[i]) && i != id)
 264              		.loc 1 50 4 is_stmt 1 view .LVU58
  50:Core/drogui/utils/src/task.c **** 			if(isTaskReady(&Tasks[i]) && i != id)
 265              		.loc 1 50 7 is_stmt 0 view .LVU59
 266 004e 04EB8403 		add	r3, r4, r4, lsl #2
 267 0052 1148     		ldr	r0, .L27+4
 268 0054 00EB8300 		add	r0, r0, r3, lsl #2
 269 0058 FFF7FEFF 		bl	isTaskReady
 270              	.LVL16:
  50:Core/drogui/utils/src/task.c **** 			if(isTaskReady(&Tasks[i]) && i != id)
 271              		.loc 1 50 6 view .LVU60
 272 005c 0028     		cmp	r0, #0
 273 005e F1D0     		beq	.L17
  50:Core/drogui/utils/src/task.c **** 			if(isTaskReady(&Tasks[i]) && i != id)
 274              		.loc 1 50 30 discriminator 1 view .LVU61
 275 0060 A542     		cmp	r5, r4
 276 0062 E7D1     		bne	.L25
 277 0064 EEE7     		b	.L17
 278              	.L24:
  50:Core/drogui/utils/src/task.c **** 			if(isTaskReady(&Tasks[i]) && i != id)
 279              		.loc 1 50 30 discriminator 1 view .LVU62
 280              	.LBE5:
  52:Core/drogui/utils/src/task.c **** 		}
  53:Core/drogui/utils/src/task.c **** 
  54:Core/drogui/utils/src/task.c **** 		if(id >= 0){
 281              		.loc 1 54 3 is_stmt 1 view .LVU63
 282              		.loc 1 54 5 is_stmt 0 view .LVU64
 283 0066 002D     		cmp	r5, #0
 284 0068 04DA     		bge	.L26
 285              	.LVL17:
ARM GAS  C:\Users\GUILLE~1\AppData\Local\Temp\ccR2Rbbo.s 			page 7


 286              	.L19:
 287              		.loc 1 54 5 view .LVU65
 288              	.LBE2:
  37:Core/drogui/utils/src/task.c **** 
 289              		.loc 1 37 2 is_stmt 1 view .LVU66
 290              	.LBB8:
  39:Core/drogui/utils/src/task.c **** 
 291              		.loc 1 39 3 view .LVU67
  41:Core/drogui/utils/src/task.c **** 			int score = Tasks[i].priority + Tasks[i].ignored;
 292              		.loc 1 41 3 view .LVU68
 293              	.LBB6:
  41:Core/drogui/utils/src/task.c **** 			int score = Tasks[i].priority + Tasks[i].ignored;
 294              		.loc 1 41 7 view .LVU69
  41:Core/drogui/utils/src/task.c **** 			int score = Tasks[i].priority + Tasks[i].ignored;
 295              		.loc 1 41 11 is_stmt 0 view .LVU70
 296 006a 0024     		movs	r4, #0
 297              	.LBE6:
  39:Core/drogui/utils/src/task.c **** 
 298              		.loc 1 39 22 view .LVU71
 299 006c 4FF0FF35 		mov	r5, #-1
  39:Core/drogui/utils/src/task.c **** 
 300              		.loc 1 39 7 view .LVU72
 301 0070 2646     		mov	r6, r4
 302              	.LBB7:
  41:Core/drogui/utils/src/task.c **** 			int score = Tasks[i].priority + Tasks[i].ignored;
 303              		.loc 1 41 3 view .LVU73
 304 0072 C8E7     		b	.L13
 305              	.LVL18:
 306              	.L26:
  41:Core/drogui/utils/src/task.c **** 			int score = Tasks[i].priority + Tasks[i].ignored;
 307              		.loc 1 41 3 view .LVU74
 308              	.LBE7:
  55:Core/drogui/utils/src/task.c **** 			//sprintf(buffer3, "Init %d\t%lu;\n",id,TIME - Tasks[id].last_time);
  56:Core/drogui/utils/src/task.c **** 			executeTask(&Tasks[id],id), Tasks[id].ignored = 0;
 309              		.loc 1 56 4 is_stmt 1 view .LVU75
 310 0074 084C     		ldr	r4, .L27+4
 311              	.LVL19:
 312              		.loc 1 56 4 is_stmt 0 view .LVU76
 313 0076 AE00     		lsls	r6, r5, #2
 314              	.LVL20:
 315              		.loc 1 56 4 view .LVU77
 316 0078 05EB8500 		add	r0, r5, r5, lsl #2
 317 007c 2946     		mov	r1, r5
 318 007e 04EB8000 		add	r0, r4, r0, lsl #2
 319 0082 FFF7FEFF 		bl	executeTask
 320              	.LVL21:
 321              		.loc 1 56 50 view .LVU78
 322 0086 3544     		add	r5, r5, r6
 323              	.LVL22:
 324              		.loc 1 56 50 view .LVU79
 325 0088 04EB8504 		add	r4, r4, r5, lsl #2
 326 008c 0023     		movs	r3, #0
 327 008e E360     		str	r3, [r4, #12]
 328 0090 EBE7     		b	.L19
 329              	.L28:
 330 0092 00BF     		.align	2
 331              	.L27:
ARM GAS  C:\Users\GUILLE~1\AppData\Local\Temp\ccR2Rbbo.s 			page 8


 332 0094 00000000 		.word	.LANCHOR0
 333 0098 00000000 		.word	.LANCHOR1
 334              	.LBE8:
 335              		.cfi_endproc
 336              	.LFE252:
 338              		.global	buffer3
 339              		.global	Tasks
 340              		.global	tasks_count
 341              		.section	.bss.Tasks,"aw",%nobits
 342              		.align	2
 343              		.set	.LANCHOR1,. + 0
 346              	Tasks:
 347 0000 00000000 		.space	2000
 347      00000000 
 347      00000000 
 347      00000000 
 347      00000000 
 348              		.section	.bss.buffer3,"aw",%nobits
 349              		.align	2
 352              	buffer3:
 353 0000 00000000 		.space	100
 353      00000000 
 353      00000000 
 353      00000000 
 353      00000000 
 354              		.section	.bss.tasks_count,"aw",%nobits
 355              		.align	2
 356              		.set	.LANCHOR0,. + 0
 359              	tasks_count:
 360 0000 00000000 		.space	4
 361              		.text
 362              	.Letext0:
 363              		.file 2 "c:\\program files (x86)\\gnu arm embedded toolchain\\10 2020-q4-major\\arm-none-eabi\\inc
 364              		.file 3 "c:\\program files (x86)\\gnu arm embedded toolchain\\10 2020-q4-major\\arm-none-eabi\\inc
 365              		.file 4 "Drivers/CMSIS/Device/ST/STM32F7xx/Include/stm32f746xx.h"
 366              		.file 5 "Drivers/STM32F7xx_HAL_Driver/Inc/stm32f7xx_hal_def.h"
 367              		.file 6 "Drivers/STM32F7xx_HAL_Driver/Inc/stm32f7xx_hal_dma.h"
 368              		.file 7 "Drivers/STM32F7xx_HAL_Driver/Inc/stm32f7xx_hal_tim.h"
 369              		.file 8 "Core/Inc/tim.h"
ARM GAS  C:\Users\GUILLE~1\AppData\Local\Temp\ccR2Rbbo.s 			page 9

