ARM GAS  C:\Users\GUILLE~1\AppData\Local\Temp\ccHd2v5Y.s 			page 1


   1              		.cpu cortex-m7
   2              		.eabi_attribute 27, 1
   3              		.eabi_attribute 28, 1
   4              		.eabi_attribute 20, 1
   5              		.eabi_attribute 21, 1
   6              		.eabi_attribute 23, 3
   7              		.eabi_attribute 24, 1
   8              		.eabi_attribute 25, 1
   9              		.eabi_attribute 26, 1
  10              		.eabi_attribute 30, 1
  11              		.eabi_attribute 34, 1
  12              		.eabi_attribute 18, 4
  13              		.file	"teraranger.c"
  14              		.text
  15              	.Ltext0:
  16              		.cfi_sections	.debug_frame
  17              		.section	.text.initTeraRanger,"ax",%progbits
  18              		.align	1
  19              		.global	initTeraRanger
  20              		.arch armv7e-m
  21              		.syntax unified
  22              		.thumb
  23              		.thumb_func
  24              		.fpu fpv5-sp-d16
  26              	initTeraRanger:
  27              	.LVL0:
  28              	.LFB246:
  29              		.file 1 "Core/drogui/sensor/range/src/teraranger.c"
   1:Core/drogui/sensor/range/src/teraranger.c **** #include "teraranger.h"
   2:Core/drogui/sensor/range/src/teraranger.c **** #include "serial.h"
   3:Core/drogui/sensor/range/src/teraranger.c **** #include "task.h"
   4:Core/drogui/sensor/range/src/teraranger.c **** 
   5:Core/drogui/sensor/range/src/teraranger.c **** char bin_mode[] = {0x00, 0x11, 0x02, 0x4C};
   6:Core/drogui/sensor/range/src/teraranger.c **** 
   7:Core/drogui/sensor/range/src/teraranger.c **** static const uint8_t crc_table[] = {
   8:Core/drogui/sensor/range/src/teraranger.c **** 	0x00, 0x07, 0x0e, 0x09, 0x1c, 0x1b, 0x12, 0x15, 0x38, 0x3f, 0x36, 0x31,
   9:Core/drogui/sensor/range/src/teraranger.c **** 	0x24, 0x23, 0x2a, 0x2d, 0x70, 0x77, 0x7e, 0x79, 0x6c, 0x6b, 0x62, 0x65,
  10:Core/drogui/sensor/range/src/teraranger.c **** 	0x48, 0x4f, 0x46, 0x41, 0x54, 0x53, 0x5a, 0x5d, 0xe0, 0xe7, 0xee, 0xe9,
  11:Core/drogui/sensor/range/src/teraranger.c **** 	0xfc, 0xfb, 0xf2, 0xf5, 0xd8, 0xdf, 0xd6, 0xd1, 0xc4, 0xc3, 0xca, 0xcd,
  12:Core/drogui/sensor/range/src/teraranger.c **** 	0x90, 0x97, 0x9e, 0x99, 0x8c, 0x8b, 0x82, 0x85, 0xa8, 0xaf, 0xa6, 0xa1,
  13:Core/drogui/sensor/range/src/teraranger.c **** 	0xb4, 0xb3, 0xba, 0xbd, 0xc7, 0xc0, 0xc9, 0xce, 0xdb, 0xdc, 0xd5, 0xd2,
  14:Core/drogui/sensor/range/src/teraranger.c **** 	0xff, 0xf8, 0xf1, 0xf6, 0xe3, 0xe4, 0xed, 0xea, 0xb7, 0xb0, 0xb9, 0xbe,
  15:Core/drogui/sensor/range/src/teraranger.c **** 	0xab, 0xac, 0xa5, 0xa2, 0x8f, 0x88, 0x81, 0x86, 0x93, 0x94, 0x9d, 0x9a,
  16:Core/drogui/sensor/range/src/teraranger.c **** 	0x27, 0x20, 0x29, 0x2e, 0x3b, 0x3c, 0x35, 0x32, 0x1f, 0x18, 0x11, 0x16,
  17:Core/drogui/sensor/range/src/teraranger.c **** 	0x03, 0x04, 0x0d, 0x0a, 0x57, 0x50, 0x59, 0x5e, 0x4b, 0x4c, 0x45, 0x42,
  18:Core/drogui/sensor/range/src/teraranger.c **** 	0x6f, 0x68, 0x61, 0x66, 0x73, 0x74, 0x7d, 0x7a, 0x89, 0x8e, 0x87, 0x80,
  19:Core/drogui/sensor/range/src/teraranger.c **** 	0x95, 0x92, 0x9b, 0x9c, 0xb1, 0xb6, 0xbf, 0xb8, 0xad, 0xaa, 0xa3, 0xa4,
  20:Core/drogui/sensor/range/src/teraranger.c **** 	0xf9, 0xfe, 0xf7, 0xf0, 0xe5, 0xe2, 0xeb, 0xec, 0xc1, 0xc6, 0xcf, 0xc8,
  21:Core/drogui/sensor/range/src/teraranger.c **** 	0xdd, 0xda, 0xd3, 0xd4, 0x69, 0x6e, 0x67, 0x60, 0x75, 0x72, 0x7b, 0x7c,
  22:Core/drogui/sensor/range/src/teraranger.c **** 	0x51, 0x56, 0x5f, 0x58, 0x4d, 0x4a, 0x43, 0x44, 0x19, 0x1e, 0x17, 0x10,
  23:Core/drogui/sensor/range/src/teraranger.c **** 	0x05, 0x02, 0x0b, 0x0c, 0x21, 0x26, 0x2f, 0x28, 0x3d, 0x3a, 0x33, 0x34,
  24:Core/drogui/sensor/range/src/teraranger.c **** 	0x4e, 0x49, 0x40, 0x47, 0x52, 0x55, 0x5c, 0x5b, 0x76, 0x71, 0x78, 0x7f,
  25:Core/drogui/sensor/range/src/teraranger.c **** 	0x6a, 0x6d, 0x64, 0x63, 0x3e, 0x39, 0x30, 0x37, 0x22, 0x25, 0x2c, 0x2b,
  26:Core/drogui/sensor/range/src/teraranger.c **** 	0x06, 0x01, 0x08, 0x0f, 0x1a, 0x1d, 0x14, 0x13, 0xae, 0xa9, 0xa0, 0xa7,
  27:Core/drogui/sensor/range/src/teraranger.c **** 	0xb2, 0xb5, 0xbc, 0xbb, 0x96, 0x91, 0x98, 0x9f, 0x8a, 0x8d, 0x84, 0x83,
  28:Core/drogui/sensor/range/src/teraranger.c **** 	0xde, 0xd9, 0xd0, 0xd7, 0xc2, 0xc5, 0xcc, 0xcb, 0xe6, 0xe1, 0xe8, 0xef,
  29:Core/drogui/sensor/range/src/teraranger.c **** 	0xfa, 0xfd, 0xf4, 0xf3
ARM GAS  C:\Users\GUILLE~1\AppData\Local\Temp\ccHd2v5Y.s 			page 2


  30:Core/drogui/sensor/range/src/teraranger.c **** };
  31:Core/drogui/sensor/range/src/teraranger.c **** 
  32:Core/drogui/sensor/range/src/teraranger.c **** void initTeraRanger(tRanger *tera, serial *ser){
  30              		.loc 1 32 48 view -0
  31              		.cfi_startproc
  32              		@ args = 0, pretend = 0, frame = 0
  33              		@ frame_needed = 0, uses_anonymous_args = 0
  34              		.loc 1 32 48 is_stmt 0 view .LVU1
  35 0000 70B5     		push	{r4, r5, r6, lr}
  36              	.LCFI0:
  37              		.cfi_def_cfa_offset 16
  38              		.cfi_offset 4, -16
  39              		.cfi_offset 5, -12
  40              		.cfi_offset 6, -8
  41              		.cfi_offset 14, -4
  42 0002 0646     		mov	r6, r0
  43 0004 0D46     		mov	r5, r1
  33:Core/drogui/sensor/range/src/teraranger.c **** 	changeBaudrate(ser, 115200);
  44              		.loc 1 33 2 is_stmt 1 view .LVU2
  45 0006 4FF4E131 		mov	r1, #115200
  46              	.LVL1:
  47              		.loc 1 33 2 is_stmt 0 view .LVU3
  48 000a 2846     		mov	r0, r5
  49              	.LVL2:
  50              		.loc 1 33 2 view .LVU4
  51 000c FFF7FEFF 		bl	changeBaudrate
  52              	.LVL3:
  34:Core/drogui/sensor/range/src/teraranger.c **** 
  35:Core/drogui/sensor/range/src/teraranger.c **** 	for(int i = 0; i < 4; i++) serialWrite(ser, bin_mode[i]);
  53              		.loc 1 35 2 is_stmt 1 view .LVU5
  54              	.LBB2:
  55              		.loc 1 35 6 view .LVU6
  56              		.loc 1 35 10 is_stmt 0 view .LVU7
  57 0010 0024     		movs	r4, #0
  58              		.loc 1 35 2 view .LVU8
  59 0012 05E0     		b	.L2
  60              	.LVL4:
  61              	.L3:
  62              		.loc 1 35 29 is_stmt 1 discriminator 3 view .LVU9
  63 0014 094B     		ldr	r3, .L5
  64 0016 195D     		ldrb	r1, [r3, r4]	@ zero_extendqisi2
  65 0018 2846     		mov	r0, r5
  66 001a FFF7FEFF 		bl	serialWrite
  67              	.LVL5:
  68              		.loc 1 35 24 discriminator 3 view .LVU10
  69              		.loc 1 35 25 is_stmt 0 discriminator 3 view .LVU11
  70 001e 0134     		adds	r4, r4, #1
  71              	.LVL6:
  72              	.L2:
  73              		.loc 1 35 17 is_stmt 1 discriminator 1 view .LVU12
  74              		.loc 1 35 2 is_stmt 0 discriminator 1 view .LVU13
  75 0020 032C     		cmp	r4, #3
  76 0022 F7DD     		ble	.L3
  77              	.LBE2:
  36:Core/drogui/sensor/range/src/teraranger.c **** 
  37:Core/drogui/sensor/range/src/teraranger.c **** 	tera->distance = 0;
  78              		.loc 1 37 2 is_stmt 1 view .LVU14
ARM GAS  C:\Users\GUILLE~1\AppData\Local\Temp\ccHd2v5Y.s 			page 3


  79              		.loc 1 37 17 is_stmt 0 view .LVU15
  80 0024 0023     		movs	r3, #0
  81 0026 B381     		strh	r3, [r6, #12]	@ movhi
  38:Core/drogui/sensor/range/src/teraranger.c **** 	tera->rcv_pack.ser = ser;
  82              		.loc 1 38 2 is_stmt 1 view .LVU16
  83              		.loc 1 38 21 is_stmt 0 view .LVU17
  84 0028 B560     		str	r5, [r6, #8]
  39:Core/drogui/sensor/range/src/teraranger.c **** 	tera->rcv_pack.chksum = 0;
  85              		.loc 1 39 2 is_stmt 1 view .LVU18
  86              		.loc 1 39 24 is_stmt 0 view .LVU19
  87 002a B371     		strb	r3, [r6, #6]
  40:Core/drogui/sensor/range/src/teraranger.c **** 	tera->last_tim = TIME;
  88              		.loc 1 40 2 is_stmt 1 view .LVU20
  89              		.loc 1 40 19 is_stmt 0 view .LVU21
  90 002c 044B     		ldr	r3, .L5+4
  91 002e 1B68     		ldr	r3, [r3]
  92 0030 5B6A     		ldr	r3, [r3, #36]
  93              		.loc 1 40 17 view .LVU22
  94 0032 7361     		str	r3, [r6, #20]
  41:Core/drogui/sensor/range/src/teraranger.c **** 	tera->threshold = 500000;
  95              		.loc 1 41 2 is_stmt 1 view .LVU23
  96              		.loc 1 41 18 is_stmt 0 view .LVU24
  97 0034 034B     		ldr	r3, .L5+8
  98 0036 3361     		str	r3, [r6, #16]
  42:Core/drogui/sensor/range/src/teraranger.c **** }
  99              		.loc 1 42 1 view .LVU25
 100 0038 70BD     		pop	{r4, r5, r6, pc}
 101              	.LVL7:
 102              	.L6:
 103              		.loc 1 42 1 view .LVU26
 104 003a 00BF     		.align	2
 105              	.L5:
 106 003c 00000000 		.word	.LANCHOR0
 107 0040 00000000 		.word	htim5
 108 0044 20A10700 		.word	500000
 109              		.cfi_endproc
 110              	.LFE246:
 112              		.section	.text.crc8_tera,"ax",%progbits
 113              		.align	1
 114              		.global	crc8_tera
 115              		.syntax unified
 116              		.thumb
 117              		.thumb_func
 118              		.fpu fpv5-sp-d16
 120              	crc8_tera:
 121              	.LVL8:
 122              	.LFB247:
  43:Core/drogui/sensor/range/src/teraranger.c **** 
  44:Core/drogui/sensor/range/src/teraranger.c **** uint8_t crc8_tera(int len, uint8_t* msg){
 123              		.loc 1 44 41 is_stmt 1 view -0
 124              		.cfi_startproc
 125              		@ args = 0, pretend = 0, frame = 0
 126              		@ frame_needed = 0, uses_anonymous_args = 0
 127              		@ link register save eliminated.
 128              		.loc 1 44 41 is_stmt 0 view .LVU28
 129 0000 8446     		mov	ip, r0
  45:Core/drogui/sensor/range/src/teraranger.c **** 	uint16_t crc8 = 0;
ARM GAS  C:\Users\GUILLE~1\AppData\Local\Temp\ccHd2v5Y.s 			page 4


 130              		.loc 1 45 2 is_stmt 1 view .LVU29
 131              	.LVL9:
  46:Core/drogui/sensor/range/src/teraranger.c **** 	for(int i = 0; i < len; i++){
 132              		.loc 1 46 2 view .LVU30
 133              	.LBB3:
 134              		.loc 1 46 6 view .LVU31
 135              		.loc 1 46 10 is_stmt 0 view .LVU32
 136 0002 0023     		movs	r3, #0
 137              	.LBE3:
  45:Core/drogui/sensor/range/src/teraranger.c **** 	uint16_t crc8 = 0;
 138              		.loc 1 45 11 view .LVU33
 139 0004 1846     		mov	r0, r3
 140              	.LVL10:
 141              	.LBB5:
 142              		.loc 1 46 2 view .LVU34
 143 0006 04E0     		b	.L8
 144              	.LVL11:
 145              	.L9:
 146              	.LBB4:
  47:Core/drogui/sensor/range/src/teraranger.c **** 
  48:Core/drogui/sensor/range/src/teraranger.c **** 		uint8_t aux = (crc8 ^ msg[i]) & 0xFF;
 147              		.loc 1 48 3 is_stmt 1 discriminator 3 view .LVU35
 148              		.loc 1 48 28 is_stmt 0 discriminator 3 view .LVU36
 149 0008 CA5C     		ldrb	r2, [r1, r3]	@ zero_extendqisi2
 150              		.loc 1 48 11 discriminator 3 view .LVU37
 151 000a 5040     		eors	r0, r0, r2
 152              	.LVL12:
  49:Core/drogui/sensor/range/src/teraranger.c **** 		crc8 = ((crc8 << 8) ^ crc_table[aux]) & (0xFF);
 153              		.loc 1 49 3 is_stmt 1 discriminator 3 view .LVU38
 154              		.loc 1 49 8 is_stmt 0 discriminator 3 view .LVU39
 155 000c 024A     		ldr	r2, .L10
 156 000e 105C     		ldrb	r0, [r2, r0]	@ zero_extendqisi2
 157              	.LVL13:
 158              		.loc 1 49 8 discriminator 3 view .LVU40
 159              	.LBE4:
  46:Core/drogui/sensor/range/src/teraranger.c **** 	for(int i = 0; i < len; i++){
 160              		.loc 1 46 26 is_stmt 1 discriminator 3 view .LVU41
  46:Core/drogui/sensor/range/src/teraranger.c **** 	for(int i = 0; i < len; i++){
 161              		.loc 1 46 27 is_stmt 0 discriminator 3 view .LVU42
 162 0010 0133     		adds	r3, r3, #1
 163              	.LVL14:
 164              	.L8:
  46:Core/drogui/sensor/range/src/teraranger.c **** 	for(int i = 0; i < len; i++){
 165              		.loc 1 46 17 is_stmt 1 discriminator 1 view .LVU43
  46:Core/drogui/sensor/range/src/teraranger.c **** 	for(int i = 0; i < len; i++){
 166              		.loc 1 46 2 is_stmt 0 discriminator 1 view .LVU44
 167 0012 6345     		cmp	r3, ip
 168 0014 F8DB     		blt	.L9
 169              	.LBE5:
  50:Core/drogui/sensor/range/src/teraranger.c **** 	}
  51:Core/drogui/sensor/range/src/teraranger.c **** 	return (uint8_t) crc8;
 170              		.loc 1 51 2 is_stmt 1 view .LVU45
  52:Core/drogui/sensor/range/src/teraranger.c **** }
 171              		.loc 1 52 1 is_stmt 0 view .LVU46
 172 0016 7047     		bx	lr
 173              	.L11:
 174              		.align	2
ARM GAS  C:\Users\GUILLE~1\AppData\Local\Temp\ccHd2v5Y.s 			page 5


 175              	.L10:
 176 0018 00000000 		.word	.LANCHOR1
 177              		.cfi_endproc
 178              	.LFE247:
 180              		.section	.text.calcChecksum,"ax",%progbits
 181              		.align	1
 182              		.syntax unified
 183              		.thumb
 184              		.thumb_func
 185              		.fpu fpv5-sp-d16
 187              	calcChecksum:
 188              	.LVL15:
 189              	.LFB248:
  53:Core/drogui/sensor/range/src/teraranger.c **** 
  54:Core/drogui/sensor/range/src/teraranger.c **** static void calcChecksum(tRPacket *tpacket){
 190              		.loc 1 54 44 is_stmt 1 view -0
 191              		.cfi_startproc
 192              		@ args = 0, pretend = 0, frame = 0
 193              		@ frame_needed = 0, uses_anonymous_args = 0
 194              		.loc 1 54 44 is_stmt 0 view .LVU48
 195 0000 10B5     		push	{r4, lr}
 196              	.LCFI1:
 197              		.cfi_def_cfa_offset 8
 198              		.cfi_offset 4, -8
 199              		.cfi_offset 14, -4
 200 0002 0446     		mov	r4, r0
  55:Core/drogui/sensor/range/src/teraranger.c **** 	tpacket -> chksum = crc8_tera(3, tpacket -> chksumBuff);
 201              		.loc 1 55 2 is_stmt 1 view .LVU49
 202              		.loc 1 55 22 is_stmt 0 view .LVU50
 203 0004 C11C     		adds	r1, r0, #3
 204 0006 0320     		movs	r0, #3
 205              	.LVL16:
 206              		.loc 1 55 22 view .LVU51
 207 0008 FFF7FEFF 		bl	crc8_tera
 208              	.LVL17:
 209              		.loc 1 55 20 view .LVU52
 210 000c A071     		strb	r0, [r4, #6]
  56:Core/drogui/sensor/range/src/teraranger.c **** }
 211              		.loc 1 56 1 view .LVU53
 212 000e 10BD     		pop	{r4, pc}
 213              		.loc 1 56 1 view .LVU54
 214              		.cfi_endproc
 215              	.LFE248:
 217              		.section	.text.readTRanger,"ax",%progbits
 218              		.align	1
 219              		.global	readTRanger
 220              		.syntax unified
 221              		.thumb
 222              		.thumb_func
 223              		.fpu fpv5-sp-d16
 225              	readTRanger:
 226              	.LVL18:
 227              	.LFB249:
  57:Core/drogui/sensor/range/src/teraranger.c **** 
  58:Core/drogui/sensor/range/src/teraranger.c **** SENSOR_STATUS readTRanger(tRPacket *tpacket, uint32_t timeout){
 228              		.loc 1 58 63 is_stmt 1 view -0
 229              		.cfi_startproc
ARM GAS  C:\Users\GUILLE~1\AppData\Local\Temp\ccHd2v5Y.s 			page 6


 230              		@ args = 0, pretend = 0, frame = 0
 231              		@ frame_needed = 0, uses_anonymous_args = 0
 232              		.loc 1 58 63 is_stmt 0 view .LVU56
 233 0000 2DE9F041 		push	{r4, r5, r6, r7, r8, lr}
 234              	.LCFI2:
 235              		.cfi_def_cfa_offset 24
 236              		.cfi_offset 4, -24
 237              		.cfi_offset 5, -20
 238              		.cfi_offset 6, -16
 239              		.cfi_offset 7, -12
 240              		.cfi_offset 8, -8
 241              		.cfi_offset 14, -4
 242 0004 0446     		mov	r4, r0
 243 0006 0E46     		mov	r6, r1
 244 0008 4FF00008 		mov	r8, #0
  59:Core/drogui/sensor/range/src/teraranger.c **** 	uint8_t sync = 0;
 245              		.loc 1 59 2 is_stmt 1 view .LVU57
 246              	.LVL19:
  60:Core/drogui/sensor/range/src/teraranger.c **** 	uint8_t checksum;
 247              		.loc 1 60 2 view .LVU58
  61:Core/drogui/sensor/range/src/teraranger.c **** 	uint32_t tim = TIME;
 248              		.loc 1 61 2 view .LVU59
 249              		.loc 1 61 17 is_stmt 0 view .LVU60
 250 000c 284B     		ldr	r3, .L35
 251 000e 1B68     		ldr	r3, [r3]
 252              		.loc 1 61 11 view .LVU61
 253 0010 5F6A     		ldr	r7, [r3, #36]
 254              	.LVL20:
  62:Core/drogui/sensor/range/src/teraranger.c **** 	bool flag = false;
 255              		.loc 1 62 2 is_stmt 1 view .LVU62
  63:Core/drogui/sensor/range/src/teraranger.c **** 
  64:Core/drogui/sensor/range/src/teraranger.c **** 
  65:Core/drogui/sensor/range/src/teraranger.c **** 	while(TIME - tim < timeout){
 256              		.loc 1 65 2 view .LVU63
  59:Core/drogui/sensor/range/src/teraranger.c **** 	uint8_t checksum;
 257              		.loc 1 59 10 is_stmt 0 view .LVU64
 258 0012 4546     		mov	r5, r8
 259              		.loc 1 65 7 view .LVU65
 260 0014 01E0     		b	.L15
 261              	.LVL21:
 262              	.L16:
  66:Core/drogui/sensor/range/src/teraranger.c **** 		if(serialAvailable(tpacket->ser)) sync = serialRead(tpacket->ser);
  67:Core/drogui/sensor/range/src/teraranger.c **** 
  68:Core/drogui/sensor/range/src/teraranger.c **** 		if(sync == TR_SYNCH){
 263              		.loc 1 68 3 is_stmt 1 view .LVU66
 264              		.loc 1 68 5 is_stmt 0 view .LVU67
 265 0016 542D     		cmp	r5, #84
 266 0018 0FD0     		beq	.L30
 267              	.LVL22:
 268              	.L15:
  65:Core/drogui/sensor/range/src/teraranger.c **** 		if(serialAvailable(tpacket->ser)) sync = serialRead(tpacket->ser);
 269              		.loc 1 65 7 is_stmt 1 view .LVU68
  65:Core/drogui/sensor/range/src/teraranger.c **** 		if(serialAvailable(tpacket->ser)) sync = serialRead(tpacket->ser);
 270              		.loc 1 65 8 is_stmt 0 view .LVU69
 271 001a 254B     		ldr	r3, .L35
 272 001c 1B68     		ldr	r3, [r3]
 273 001e 5B6A     		ldr	r3, [r3, #36]
ARM GAS  C:\Users\GUILLE~1\AppData\Local\Temp\ccHd2v5Y.s 			page 7


  65:Core/drogui/sensor/range/src/teraranger.c **** 		if(serialAvailable(tpacket->ser)) sync = serialRead(tpacket->ser);
 274              		.loc 1 65 13 view .LVU70
 275 0020 DB1B     		subs	r3, r3, r7
  65:Core/drogui/sensor/range/src/teraranger.c **** 		if(serialAvailable(tpacket->ser)) sync = serialRead(tpacket->ser);
 276              		.loc 1 65 7 view .LVU71
 277 0022 B342     		cmp	r3, r6
 278 0024 37D2     		bcs	.L31
  66:Core/drogui/sensor/range/src/teraranger.c **** 		if(serialAvailable(tpacket->ser)) sync = serialRead(tpacket->ser);
 279              		.loc 1 66 3 is_stmt 1 view .LVU72
  66:Core/drogui/sensor/range/src/teraranger.c **** 		if(serialAvailable(tpacket->ser)) sync = serialRead(tpacket->ser);
 280              		.loc 1 66 6 is_stmt 0 view .LVU73
 281 0026 A068     		ldr	r0, [r4, #8]
 282 0028 FFF7FEFF 		bl	serialAvailable
 283              	.LVL23:
  66:Core/drogui/sensor/range/src/teraranger.c **** 		if(serialAvailable(tpacket->ser)) sync = serialRead(tpacket->ser);
 284              		.loc 1 66 5 view .LVU74
 285 002c 0028     		cmp	r0, #0
 286 002e F2D0     		beq	.L16
  66:Core/drogui/sensor/range/src/teraranger.c **** 		if(serialAvailable(tpacket->ser)) sync = serialRead(tpacket->ser);
 287              		.loc 1 66 37 is_stmt 1 discriminator 1 view .LVU75
  66:Core/drogui/sensor/range/src/teraranger.c **** 		if(serialAvailable(tpacket->ser)) sync = serialRead(tpacket->ser);
 288              		.loc 1 66 44 is_stmt 0 discriminator 1 view .LVU76
 289 0030 A068     		ldr	r0, [r4, #8]
 290 0032 FFF7FEFF 		bl	serialRead
 291              	.LVL24:
 292 0036 0546     		mov	r5, r0
 293              	.LVL25:
  66:Core/drogui/sensor/range/src/teraranger.c **** 		if(serialAvailable(tpacket->ser)) sync = serialRead(tpacket->ser);
 294              		.loc 1 66 44 discriminator 1 view .LVU77
 295 0038 EDE7     		b	.L16
 296              	.L30:
  69:Core/drogui/sensor/range/src/teraranger.c **** 			tpacket->chksumBuff[0] = TR_SYNCH;
 297              		.loc 1 69 4 is_stmt 1 view .LVU78
 298              		.loc 1 69 27 is_stmt 0 view .LVU79
 299 003a 5423     		movs	r3, #84
 300 003c E370     		strb	r3, [r4, #3]
  70:Core/drogui/sensor/range/src/teraranger.c **** 			for(int i = 0; i < 2 ; i++){
 301              		.loc 1 70 4 is_stmt 1 view .LVU80
 302              	.LBB6:
 303              		.loc 1 70 8 view .LVU81
 304              	.LVL26:
 305              		.loc 1 70 12 is_stmt 0 view .LVU82
 306 003e 0025     		movs	r5, #0
 307              	.LVL27:
 308              	.L17:
 309              		.loc 1 70 19 is_stmt 1 discriminator 1 view .LVU83
 310              		.loc 1 70 4 is_stmt 0 discriminator 1 view .LVU84
 311 0040 012D     		cmp	r5, #1
 312 0042 13DC     		bgt	.L21
 313              	.L20:
  71:Core/drogui/sensor/range/src/teraranger.c **** 				while(!serialAvailable(tpacket->ser)){
 314              		.loc 1 71 10 is_stmt 1 view .LVU85
 315              		.loc 1 71 12 is_stmt 0 view .LVU86
 316 0044 A068     		ldr	r0, [r4, #8]
 317 0046 FFF7FEFF 		bl	serialAvailable
 318              	.LVL28:
 319              		.loc 1 71 10 view .LVU87
ARM GAS  C:\Users\GUILLE~1\AppData\Local\Temp\ccHd2v5Y.s 			page 8


 320 004a 38B9     		cbnz	r0, .L32
  72:Core/drogui/sensor/range/src/teraranger.c **** 					if( TIME - tim > timeout ) return TIMEOUT;
 321              		.loc 1 72 6 is_stmt 1 view .LVU88
 322              		.loc 1 72 10 is_stmt 0 view .LVU89
 323 004c 184B     		ldr	r3, .L35
 324 004e 1B68     		ldr	r3, [r3]
 325 0050 5B6A     		ldr	r3, [r3, #36]
 326              		.loc 1 72 15 view .LVU90
 327 0052 DB1B     		subs	r3, r3, r7
 328              		.loc 1 72 8 view .LVU91
 329 0054 B342     		cmp	r3, r6
 330 0056 F5D9     		bls	.L20
 331              		.loc 1 72 40 view .LVU92
 332 0058 0120     		movs	r0, #1
 333 005a 22E0     		b	.L18
 334              	.L32:
  73:Core/drogui/sensor/range/src/teraranger.c **** 				}
  74:Core/drogui/sensor/range/src/teraranger.c **** 				tpacket->chksumBuff[i+1] = tpacket->payload[i] = serialRead(tpacket->ser);
 335              		.loc 1 74 5 is_stmt 1 discriminator 2 view .LVU93
 336              		.loc 1 74 54 is_stmt 0 discriminator 2 view .LVU94
 337 005c A068     		ldr	r0, [r4, #8]
 338 005e FFF7FEFF 		bl	serialRead
 339              	.LVL29:
 340              		.loc 1 74 52 discriminator 2 view .LVU95
 341 0062 6055     		strb	r0, [r4, r5]
 342              		.loc 1 74 26 discriminator 2 view .LVU96
 343 0064 0135     		adds	r5, r5, #1
 344              	.LVL30:
 345              		.loc 1 74 30 discriminator 2 view .LVU97
 346 0066 6319     		adds	r3, r4, r5
 347 0068 D870     		strb	r0, [r3, #3]
  70:Core/drogui/sensor/range/src/teraranger.c **** 				while(!serialAvailable(tpacket->ser)){
 348              		.loc 1 70 27 is_stmt 1 discriminator 2 view .LVU98
 349              	.LVL31:
  70:Core/drogui/sensor/range/src/teraranger.c **** 				while(!serialAvailable(tpacket->ser)){
 350              		.loc 1 70 27 is_stmt 0 discriminator 2 view .LVU99
 351 006a E9E7     		b	.L17
 352              	.LVL32:
 353              	.L21:
  70:Core/drogui/sensor/range/src/teraranger.c **** 				while(!serialAvailable(tpacket->ser)){
 354              		.loc 1 70 27 discriminator 2 view .LVU100
 355              	.LBE6:
  75:Core/drogui/sensor/range/src/teraranger.c **** 
  76:Core/drogui/sensor/range/src/teraranger.c **** 			}
  77:Core/drogui/sensor/range/src/teraranger.c **** 
  78:Core/drogui/sensor/range/src/teraranger.c **** 			while(!serialAvailable(tpacket->ser)){
 356              		.loc 1 78 9 is_stmt 1 view .LVU101
 357              		.loc 1 78 11 is_stmt 0 view .LVU102
 358 006c A068     		ldr	r0, [r4, #8]
 359 006e FFF7FEFF 		bl	serialAvailable
 360              	.LVL33:
 361              		.loc 1 78 9 view .LVU103
 362 0072 0546     		mov	r5, r0
 363 0074 38B9     		cbnz	r0, .L33
  79:Core/drogui/sensor/range/src/teraranger.c **** 				if( TIME - tim > timeout ) return TIMEOUT;
 364              		.loc 1 79 5 is_stmt 1 view .LVU104
 365              		.loc 1 79 9 is_stmt 0 view .LVU105
ARM GAS  C:\Users\GUILLE~1\AppData\Local\Temp\ccHd2v5Y.s 			page 9


 366 0076 0E4B     		ldr	r3, .L35
 367 0078 1B68     		ldr	r3, [r3]
 368 007a 5B6A     		ldr	r3, [r3, #36]
 369              		.loc 1 79 14 view .LVU106
 370 007c DB1B     		subs	r3, r3, r7
 371              		.loc 1 79 7 view .LVU107
 372 007e B342     		cmp	r3, r6
 373 0080 F4D9     		bls	.L21
 374              		.loc 1 79 39 view .LVU108
 375 0082 0120     		movs	r0, #1
 376 0084 0DE0     		b	.L18
 377              	.L33:
  80:Core/drogui/sensor/range/src/teraranger.c **** 			}
  81:Core/drogui/sensor/range/src/teraranger.c **** 
  82:Core/drogui/sensor/range/src/teraranger.c **** 			checksum = serialRead(tpacket->ser);
 378              		.loc 1 82 4 is_stmt 1 view .LVU109
 379              		.loc 1 82 15 is_stmt 0 view .LVU110
 380 0086 A068     		ldr	r0, [r4, #8]
 381 0088 FFF7FEFF 		bl	serialRead
 382              	.LVL34:
 383 008c 8046     		mov	r8, r0
 384              	.LVL35:
  83:Core/drogui/sensor/range/src/teraranger.c **** 
  84:Core/drogui/sensor/range/src/teraranger.c **** 			calcChecksum(tpacket);
 385              		.loc 1 84 4 is_stmt 1 view .LVU111
 386 008e 2046     		mov	r0, r4
 387 0090 FFF7FEFF 		bl	calcChecksum
 388              	.LVL36:
  85:Core/drogui/sensor/range/src/teraranger.c **** 			flag = 1;
 389              		.loc 1 85 4 view .LVU112
  86:Core/drogui/sensor/range/src/teraranger.c **** 		}
  87:Core/drogui/sensor/range/src/teraranger.c **** 
  88:Core/drogui/sensor/range/src/teraranger.c **** 		if(flag == 1) break;
 390              		.loc 1 88 3 view .LVU113
 391 0094 00E0     		b	.L23
 392              	.LVL37:
 393              	.L31:
 394              		.loc 1 88 3 is_stmt 0 view .LVU114
 395 0096 0025     		movs	r5, #0
 396              	.LVL38:
 397              	.L23:
  89:Core/drogui/sensor/range/src/teraranger.c **** 
  90:Core/drogui/sensor/range/src/teraranger.c **** 	}
  91:Core/drogui/sensor/range/src/teraranger.c **** 
  92:Core/drogui/sensor/range/src/teraranger.c **** 	if(flag == 0) return TIMEOUT;
 398              		.loc 1 92 2 is_stmt 1 view .LVU115
 399              		.loc 1 92 4 is_stmt 0 view .LVU116
 400 0098 3DB1     		cbz	r5, .L27
  93:Core/drogui/sensor/range/src/teraranger.c **** 	if(tpacket->chksum == checksum) return OK;
 401              		.loc 1 93 2 is_stmt 1 view .LVU117
 402              		.loc 1 93 12 is_stmt 0 view .LVU118
 403 009a A379     		ldrb	r3, [r4, #6]	@ zero_extendqisi2
 404              		.loc 1 93 4 view .LVU119
 405 009c 4345     		cmp	r3, r8
 406 009e 02D0     		beq	.L34
  94:Core/drogui/sensor/range/src/teraranger.c **** 	else return WRG_CHKSUM;
 407              		.loc 1 94 14 view .LVU120
ARM GAS  C:\Users\GUILLE~1\AppData\Local\Temp\ccHd2v5Y.s 			page 10


 408 00a0 0420     		movs	r0, #4
 409              	.LVL39:
 410              	.L18:
  95:Core/drogui/sensor/range/src/teraranger.c **** }
 411              		.loc 1 95 1 view .LVU121
 412 00a2 BDE8F081 		pop	{r4, r5, r6, r7, r8, pc}
 413              	.LVL40:
 414              	.L34:
  93:Core/drogui/sensor/range/src/teraranger.c **** 	if(tpacket->chksum == checksum) return OK;
 415              		.loc 1 93 41 view .LVU122
 416 00a6 0320     		movs	r0, #3
 417 00a8 FBE7     		b	.L18
 418              	.L27:
  92:Core/drogui/sensor/range/src/teraranger.c **** 	if(tpacket->chksum == checksum) return OK;
 419              		.loc 1 92 23 view .LVU123
 420 00aa 0120     		movs	r0, #1
 421 00ac F9E7     		b	.L18
 422              	.L36:
 423 00ae 00BF     		.align	2
 424              	.L35:
 425 00b0 00000000 		.word	htim5
 426              		.cfi_endproc
 427              	.LFE249:
 429              		.section	.text.readTeraRange,"ax",%progbits
 430              		.align	1
 431              		.global	readTeraRange
 432              		.syntax unified
 433              		.thumb
 434              		.thumb_func
 435              		.fpu fpv5-sp-d16
 437              	readTeraRange:
 438              	.LVL41:
 439              	.LFB250:
  96:Core/drogui/sensor/range/src/teraranger.c **** 
  97:Core/drogui/sensor/range/src/teraranger.c **** SENSOR_STATUS readTeraRange(tRanger *tera){
 440              		.loc 1 97 43 is_stmt 1 view -0
 441              		.cfi_startproc
 442              		@ args = 0, pretend = 0, frame = 0
 443              		@ frame_needed = 0, uses_anonymous_args = 0
 444              		.loc 1 97 43 is_stmt 0 view .LVU125
 445 0000 38B5     		push	{r3, r4, r5, lr}
 446              	.LCFI3:
 447              		.cfi_def_cfa_offset 16
 448              		.cfi_offset 3, -16
 449              		.cfi_offset 4, -12
 450              		.cfi_offset 5, -8
 451              		.cfi_offset 14, -4
 452 0002 0446     		mov	r4, r0
  98:Core/drogui/sensor/range/src/teraranger.c **** 	if(serialAvailable(tera->rcv_pack.ser)){
 453              		.loc 1 98 2 is_stmt 1 view .LVU126
 454              		.loc 1 98 5 is_stmt 0 view .LVU127
 455 0004 8068     		ldr	r0, [r0, #8]
 456              	.LVL42:
 457              		.loc 1 98 5 view .LVU128
 458 0006 FFF7FEFF 		bl	serialAvailable
 459              	.LVL43:
 460              		.loc 1 98 4 view .LVU129
ARM GAS  C:\Users\GUILLE~1\AppData\Local\Temp\ccHd2v5Y.s 			page 11


 461 000a 50B9     		cbnz	r0, .L43
  99:Core/drogui/sensor/range/src/teraranger.c **** 
 100:Core/drogui/sensor/range/src/teraranger.c **** 		int ret = readTRanger(&(tera->rcv_pack), 1000);
 101:Core/drogui/sensor/range/src/teraranger.c **** 		serialFlush(tera->rcv_pack.ser);
 102:Core/drogui/sensor/range/src/teraranger.c **** 
 103:Core/drogui/sensor/range/src/teraranger.c **** 		if( ret != OK){
 104:Core/drogui/sensor/range/src/teraranger.c **** 			if(TIME - tera->last_tim > tera->threshold) return CRASHED;
 105:Core/drogui/sensor/range/src/teraranger.c **** 			return ret;
 106:Core/drogui/sensor/range/src/teraranger.c **** 		}
 107:Core/drogui/sensor/range/src/teraranger.c **** 
 108:Core/drogui/sensor/range/src/teraranger.c **** 		tera->distance = ((uint16_t) tera->rcv_pack.payload[0] << 8) | tera->rcv_pack.payload[1];
 109:Core/drogui/sensor/range/src/teraranger.c **** 		tera->last_tim = TIME;
 110:Core/drogui/sensor/range/src/teraranger.c **** 		return OK;
 111:Core/drogui/sensor/range/src/teraranger.c **** 	}
 112:Core/drogui/sensor/range/src/teraranger.c **** 	if(TIME - tera->last_tim > tera->threshold) return CRASHED;
 462              		.loc 1 112 2 is_stmt 1 view .LVU130
 463              		.loc 1 112 5 is_stmt 0 view .LVU131
 464 000c 154B     		ldr	r3, .L44
 465 000e 1B68     		ldr	r3, [r3]
 466 0010 5B6A     		ldr	r3, [r3, #36]
 467              		.loc 1 112 16 view .LVU132
 468 0012 6269     		ldr	r2, [r4, #20]
 469              		.loc 1 112 10 view .LVU133
 470 0014 9B1A     		subs	r3, r3, r2
 471              		.loc 1 112 33 view .LVU134
 472 0016 2269     		ldr	r2, [r4, #16]
 473              		.loc 1 112 4 view .LVU135
 474 0018 9342     		cmp	r3, r2
 475 001a 21D8     		bhi	.L41
 113:Core/drogui/sensor/range/src/teraranger.c **** 	return NO_DATA;
 476              		.loc 1 113 9 view .LVU136
 477 001c 0025     		movs	r5, #0
 478              	.L40:
 114:Core/drogui/sensor/range/src/teraranger.c **** }
 479              		.loc 1 114 1 view .LVU137
 480 001e 2846     		mov	r0, r5
 481 0020 38BD     		pop	{r3, r4, r5, pc}
 482              	.LVL44:
 483              	.L43:
 484              	.LBB7:
 100:Core/drogui/sensor/range/src/teraranger.c **** 		serialFlush(tera->rcv_pack.ser);
 485              		.loc 1 100 3 is_stmt 1 view .LVU138
 100:Core/drogui/sensor/range/src/teraranger.c **** 		serialFlush(tera->rcv_pack.ser);
 486              		.loc 1 100 13 is_stmt 0 view .LVU139
 487 0022 4FF47A71 		mov	r1, #1000
 488 0026 2046     		mov	r0, r4
 489 0028 FFF7FEFF 		bl	readTRanger
 490              	.LVL45:
 491 002c 0546     		mov	r5, r0
 492              	.LVL46:
 101:Core/drogui/sensor/range/src/teraranger.c **** 
 493              		.loc 1 101 3 is_stmt 1 view .LVU140
 494 002e A068     		ldr	r0, [r4, #8]
 495 0030 FFF7FEFF 		bl	serialFlush
 496              	.LVL47:
 103:Core/drogui/sensor/range/src/teraranger.c **** 			if(TIME - tera->last_tim > tera->threshold) return CRASHED;
 497              		.loc 1 103 3 view .LVU141
ARM GAS  C:\Users\GUILLE~1\AppData\Local\Temp\ccHd2v5Y.s 			page 12


 103:Core/drogui/sensor/range/src/teraranger.c **** 			if(TIME - tera->last_tim > tera->threshold) return CRASHED;
 498              		.loc 1 103 5 is_stmt 0 view .LVU142
 499 0034 032D     		cmp	r5, #3
 500 0036 09D0     		beq	.L39
 104:Core/drogui/sensor/range/src/teraranger.c **** 			return ret;
 501              		.loc 1 104 4 is_stmt 1 view .LVU143
 104:Core/drogui/sensor/range/src/teraranger.c **** 			return ret;
 502              		.loc 1 104 7 is_stmt 0 view .LVU144
 503 0038 0A4B     		ldr	r3, .L44
 504 003a 1B68     		ldr	r3, [r3]
 505 003c 5B6A     		ldr	r3, [r3, #36]
 104:Core/drogui/sensor/range/src/teraranger.c **** 			return ret;
 506              		.loc 1 104 18 view .LVU145
 507 003e 6269     		ldr	r2, [r4, #20]
 104:Core/drogui/sensor/range/src/teraranger.c **** 			return ret;
 508              		.loc 1 104 12 view .LVU146
 509 0040 9B1A     		subs	r3, r3, r2
 104:Core/drogui/sensor/range/src/teraranger.c **** 			return ret;
 510              		.loc 1 104 35 view .LVU147
 511 0042 2269     		ldr	r2, [r4, #16]
 104:Core/drogui/sensor/range/src/teraranger.c **** 			return ret;
 512              		.loc 1 104 6 view .LVU148
 513 0044 9342     		cmp	r3, r2
 514 0046 EAD9     		bls	.L40
 104:Core/drogui/sensor/range/src/teraranger.c **** 			return ret;
 515              		.loc 1 104 55 view .LVU149
 516 0048 0525     		movs	r5, #5
 517              	.LVL48:
 104:Core/drogui/sensor/range/src/teraranger.c **** 			return ret;
 518              		.loc 1 104 55 view .LVU150
 519 004a E8E7     		b	.L40
 520              	.LVL49:
 521              	.L39:
 108:Core/drogui/sensor/range/src/teraranger.c **** 		tera->last_tim = TIME;
 522              		.loc 1 108 3 is_stmt 1 view .LVU151
 108:Core/drogui/sensor/range/src/teraranger.c **** 		tera->last_tim = TIME;
 523              		.loc 1 108 54 is_stmt 0 view .LVU152
 524 004c 2278     		ldrb	r2, [r4]	@ zero_extendqisi2
 108:Core/drogui/sensor/range/src/teraranger.c **** 		tera->last_tim = TIME;
 525              		.loc 1 108 88 view .LVU153
 526 004e 6378     		ldrb	r3, [r4, #1]	@ zero_extendqisi2
 108:Core/drogui/sensor/range/src/teraranger.c **** 		tera->last_tim = TIME;
 527              		.loc 1 108 64 view .LVU154
 528 0050 43EA0223 		orr	r3, r3, r2, lsl #8
 108:Core/drogui/sensor/range/src/teraranger.c **** 		tera->last_tim = TIME;
 529              		.loc 1 108 18 view .LVU155
 530 0054 A381     		strh	r3, [r4, #12]	@ movhi
 109:Core/drogui/sensor/range/src/teraranger.c **** 		return OK;
 531              		.loc 1 109 3 is_stmt 1 view .LVU156
 109:Core/drogui/sensor/range/src/teraranger.c **** 		return OK;
 532              		.loc 1 109 20 is_stmt 0 view .LVU157
 533 0056 034B     		ldr	r3, .L44
 534 0058 1B68     		ldr	r3, [r3]
 535 005a 5B6A     		ldr	r3, [r3, #36]
 109:Core/drogui/sensor/range/src/teraranger.c **** 		return OK;
 536              		.loc 1 109 18 view .LVU158
 537 005c 6361     		str	r3, [r4, #20]
ARM GAS  C:\Users\GUILLE~1\AppData\Local\Temp\ccHd2v5Y.s 			page 13


 110:Core/drogui/sensor/range/src/teraranger.c **** 	}
 538              		.loc 1 110 3 is_stmt 1 view .LVU159
 110:Core/drogui/sensor/range/src/teraranger.c **** 	}
 539              		.loc 1 110 10 is_stmt 0 view .LVU160
 540 005e DEE7     		b	.L40
 541              	.LVL50:
 542              	.L41:
 110:Core/drogui/sensor/range/src/teraranger.c **** 	}
 543              		.loc 1 110 10 view .LVU161
 544              	.LBE7:
 112:Core/drogui/sensor/range/src/teraranger.c **** 	return NO_DATA;
 545              		.loc 1 112 53 view .LVU162
 546 0060 0525     		movs	r5, #5
 547 0062 DCE7     		b	.L40
 548              	.L45:
 549              		.align	2
 550              	.L44:
 551 0064 00000000 		.word	htim5
 552              		.cfi_endproc
 553              	.LFE250:
 555              		.global	bin_mode
 556              		.section	.data.bin_mode,"aw"
 557              		.align	2
 558              		.set	.LANCHOR0,. + 0
 561              	bin_mode:
 562 0000 0011024C 		.ascii	"\000\021\002L"
 563              		.section	.rodata.crc_table,"a"
 564              		.align	2
 565              		.set	.LANCHOR1,. + 0
 568              	crc_table:
 569 0000 00070E09 		.ascii	"\000\007\016\011\034\033\022\0258?61$#*-pw~ylkbeHOF"
 569      1C1B1215 
 569      383F3631 
 569      24232A2D 
 569      70777E79 
 570 001b 4154535A 		.ascii	"ATSZ]\340\347\356\351\374\373\362\365\330\337\326\321"
 570      5DE0E7EE 
 570      E9FCFBF2 
 570      F5D8DFD6 
 570      D1
 571 002c C4C3CACD 		.ascii	"\304\303\312\315\220\227\236\231\214\213\202\205\250"
 571      90979E99 
 571      8C8B8285 
 571      A8
 572 0039 AFA6A1B4 		.ascii	"\257\246\241\264\263\272\275\307\300\311\316\333\334"
 572      B3BABDC7 
 572      C0C9CEDB 
 572      DC
 573 0046 D5D2FFF8 		.ascii	"\325\322\377\370\361\366\343\344\355\352\267\260\271"
 573      F1F6E3E4 
 573      EDEAB7B0 
 573      B9
 574 0053 BEABACA5 		.ascii	"\276\253\254\245\242\217\210\201\206\223\224\235\232"
 574      A28F8881 
 574      8693949D 
 574      9A
 575 0060 2720292E 		.ascii	"' ).;<52\037\030\021\026\003\004\015\012WPY^KLEBoha"
ARM GAS  C:\Users\GUILLE~1\AppData\Local\Temp\ccHd2v5Y.s 			page 14


 575      3B3C3532 
 575      1F181116 
 575      03040D0A 
 575      5750595E 
 576 007b 6673747D 		.ascii	"fst}z\211\216\207\200\225\222\233\234\261\266\277\270"
 576      7A898E87 
 576      8095929B 
 576      9CB1B6BF 
 576      B8
 577 008c ADAAA3A4 		.ascii	"\255\252\243\244\371\376\367\360\345\342\353\354\301"
 577      F9FEF7F0 
 577      E5E2EBEC 
 577      C1
 578 0099 C6CFC8DD 		.ascii	"\306\317\310\335\332\323\324ing`ur{|QV_XMJCD\031\036"
 578      DAD3D469 
 578      6E676075 
 578      727B7C51 
 578      565F584D 
 579 00b2 17100502 		.ascii	"\027\020\005\002\013\014!&/(=:34NI@GRU\\[vqx\177jmd"
 579      0B0C2126 
 579      2F283D3A 
 579      33344E49 
 579      40475255 
 580 00cf 633E3930 		.ascii	"c>907\"%,+\006\001\010\017\032\035\024\023\256\251\240"
 580      3722252C 
 580      2B060108 
 580      0F1A1D14 
 580      13AEA9A0 
 581 00e3 A7B2B5BC 		.ascii	"\247\262\265\274\273\226\221\230\237\212\215\204\203"
 581      BB969198 
 581      9F8A8D84 
 581      83
 582 00f0 DED9D0D7 		.ascii	"\336\331\320\327\302\305\314\313\346\341\350\357\372"
 582      C2C5CCCB 
 582      E6E1E8EF 
 582      FA
 583 00fd FDF4F3   		.ascii	"\375\364\363"
 584              		.text
 585              	.Letext0:
 586              		.file 2 "c:\\program files (x86)\\gnu arm embedded toolchain\\10 2020-q4-major\\arm-none-eabi\\inc
 587              		.file 3 "c:\\program files (x86)\\gnu arm embedded toolchain\\10 2020-q4-major\\arm-none-eabi\\inc
 588              		.file 4 "Drivers/CMSIS/Device/ST/STM32F7xx/Include/stm32f746xx.h"
 589              		.file 5 "Drivers/STM32F7xx_HAL_Driver/Inc/stm32f7xx_hal_def.h"
 590              		.file 6 "Drivers/STM32F7xx_HAL_Driver/Inc/stm32f7xx_hal_dma.h"
 591              		.file 7 "Drivers/STM32F7xx_HAL_Driver/Inc/stm32f7xx_hal_tim.h"
 592              		.file 8 "Core/drogui/utils/include/utils.h"
 593              		.file 9 "Core/drogui/interfaces/include/serial.h"
 594              		.file 10 "Core/drogui/sensor/range/include/teraranger.h"
 595              		.file 11 "Core/Inc/tim.h"
ARM GAS  C:\Users\GUILLE~1\AppData\Local\Temp\ccHd2v5Y.s 			page 15

