ARM GAS  C:\Users\GUILLE~1\AppData\Local\Temp\ccW62srv.s 			page 1


   1              		.cpu cortex-m7
   2              		.eabi_attribute 27, 1
   3              		.eabi_attribute 28, 1
   4              		.eabi_attribute 20, 1
   5              		.eabi_attribute 21, 1
   6              		.eabi_attribute 23, 3
   7              		.eabi_attribute 24, 1
   8              		.eabi_attribute 25, 1
   9              		.eabi_attribute 26, 1
  10              		.eabi_attribute 30, 1
  11              		.eabi_attribute 34, 1
  12              		.eabi_attribute 18, 4
  13              		.file	"BMP388.c"
  14              		.text
  15              	.Ltext0:
  16              		.cfi_sections	.debug_frame
  17              		.section	.text.buildCalib,"ax",%progbits
  18              		.align	1
  19              		.global	buildCalib
  20              		.arch armv7e-m
  21              		.syntax unified
  22              		.thumb
  23              		.thumb_func
  24              		.fpu fpv5-sp-d16
  26              	buildCalib:
  27              	.LVL0:
  28              	.LFB177:
  29              		.file 1 "Core/drogui/src/BMP388.c"
   1:Core/drogui/src/BMP388.c **** #include "BMP388.h"
   2:Core/drogui/src/BMP388.c **** #include "i2c.h"
   3:Core/drogui/src/BMP388.c **** #include "matlib.h"
   4:Core/drogui/src/BMP388.c **** #include "registerMap.h"
   5:Core/drogui/src/BMP388.c **** #include "utils.h"
   6:Core/drogui/src/BMP388.c **** #include <stdio.h>
   7:Core/drogui/src/BMP388.c **** #include <string.h>
   8:Core/drogui/src/BMP388.c **** #include "usart.h"
   9:Core/drogui/src/BMP388.c **** char buffs[100] = "";
  10:Core/drogui/src/BMP388.c **** 
  11:Core/drogui/src/BMP388.c **** typedef struct _calib{
  12:Core/drogui/src/BMP388.c ****     uint16_t T1, T2;
  13:Core/drogui/src/BMP388.c ****     int8_t T3;
  14:Core/drogui/src/BMP388.c ****     
  15:Core/drogui/src/BMP388.c ****     int16_t P1, P2, P9;
  16:Core/drogui/src/BMP388.c ****     int8_t P3, P4, P7, P8, P10, P11;
  17:Core/drogui/src/BMP388.c ****     uint16_t P5, P6;
  18:Core/drogui/src/BMP388.c ****     
  19:Core/drogui/src/BMP388.c ****     int64_t T_fine;
  20:Core/drogui/src/BMP388.c **** 
  21:Core/drogui/src/BMP388.c **** } calib;
  22:Core/drogui/src/BMP388.c **** 
  23:Core/drogui/src/BMP388.c **** 
  24:Core/drogui/src/BMP388.c **** void buildCalib(uint8_t* buff, calib * cal){
  30              		.loc 1 24 44 view -0
  31              		.cfi_startproc
  32              		@ args = 0, pretend = 0, frame = 0
  33              		@ frame_needed = 0, uses_anonymous_args = 0
  34              		@ link register save eliminated.
ARM GAS  C:\Users\GUILLE~1\AppData\Local\Temp\ccW62srv.s 			page 2


  25:Core/drogui/src/BMP388.c ****     cal -> T1 = (uint16_t) (buff[1] << 8 | buff[0]);
  35              		.loc 1 25 5 view .LVU1
  36              		.loc 1 25 33 is_stmt 0 view .LVU2
  37 0000 4278     		ldrb	r2, [r0, #1]	@ zero_extendqisi2
  38              		.loc 1 25 48 view .LVU3
  39 0002 0378     		ldrb	r3, [r0]	@ zero_extendqisi2
  40              		.loc 1 25 17 view .LVU4
  41 0004 43EA0223 		orr	r3, r3, r2, lsl #8
  42              		.loc 1 25 15 view .LVU5
  43 0008 0B80     		strh	r3, [r1]	@ movhi
  26:Core/drogui/src/BMP388.c ****     cal -> T2 = (uint16_t) (buff[3] << 8 | buff[2]);
  44              		.loc 1 26 5 is_stmt 1 view .LVU6
  45              		.loc 1 26 33 is_stmt 0 view .LVU7
  46 000a C278     		ldrb	r2, [r0, #3]	@ zero_extendqisi2
  47              		.loc 1 26 48 view .LVU8
  48 000c 8378     		ldrb	r3, [r0, #2]	@ zero_extendqisi2
  49              		.loc 1 26 17 view .LVU9
  50 000e 43EA0223 		orr	r3, r3, r2, lsl #8
  51              		.loc 1 26 15 view .LVU10
  52 0012 4B80     		strh	r3, [r1, #2]	@ movhi
  27:Core/drogui/src/BMP388.c ****     cal -> T3 = (int8_t) (buff[4]);
  53              		.loc 1 27 5 is_stmt 1 view .LVU11
  54              		.loc 1 27 17 is_stmt 0 view .LVU12
  55 0014 90F90430 		ldrsb	r3, [r0, #4]
  56              		.loc 1 27 15 view .LVU13
  57 0018 0B71     		strb	r3, [r1, #4]
  28:Core/drogui/src/BMP388.c **** 
  29:Core/drogui/src/BMP388.c ****     cal -> P1 =  (int16_t) (buff[6]<< 8 | buff[5]);
  58              		.loc 1 29 5 is_stmt 1 view .LVU14
  59              		.loc 1 29 33 is_stmt 0 view .LVU15
  60 001a 8279     		ldrb	r2, [r0, #6]	@ zero_extendqisi2
  61              		.loc 1 29 47 view .LVU16
  62 001c 4379     		ldrb	r3, [r0, #5]	@ zero_extendqisi2
  63              		.loc 1 29 18 view .LVU17
  64 001e 43EA0223 		orr	r3, r3, r2, lsl #8
  65              		.loc 1 29 15 view .LVU18
  66 0022 CB80     		strh	r3, [r1, #6]	@ movhi
  30:Core/drogui/src/BMP388.c ****     cal -> P2 =  (int16_t) (buff[8] << 8 | buff[7]);
  67              		.loc 1 30 5 is_stmt 1 view .LVU19
  68              		.loc 1 30 33 is_stmt 0 view .LVU20
  69 0024 027A     		ldrb	r2, [r0, #8]	@ zero_extendqisi2
  70              		.loc 1 30 48 view .LVU21
  71 0026 C379     		ldrb	r3, [r0, #7]	@ zero_extendqisi2
  72              		.loc 1 30 18 view .LVU22
  73 0028 43EA0223 		orr	r3, r3, r2, lsl #8
  74              		.loc 1 30 15 view .LVU23
  75 002c 0B81     		strh	r3, [r1, #8]	@ movhi
  31:Core/drogui/src/BMP388.c ****     cal -> P3 =  (int8_t) (buff[9]);
  76              		.loc 1 31 5 is_stmt 1 view .LVU24
  77              		.loc 1 31 18 is_stmt 0 view .LVU25
  78 002e 90F90930 		ldrsb	r3, [r0, #9]
  79              		.loc 1 31 15 view .LVU26
  80 0032 0B73     		strb	r3, [r1, #12]
  32:Core/drogui/src/BMP388.c ****     cal -> P4 =  (int8_t) (buff[10]);
  81              		.loc 1 32 5 is_stmt 1 view .LVU27
  82              		.loc 1 32 18 is_stmt 0 view .LVU28
  83 0034 90F90A30 		ldrsb	r3, [r0, #10]
ARM GAS  C:\Users\GUILLE~1\AppData\Local\Temp\ccW62srv.s 			page 3


  84              		.loc 1 32 15 view .LVU29
  85 0038 4B73     		strb	r3, [r1, #13]
  33:Core/drogui/src/BMP388.c ****     cal -> P5 =  (uint16_t) (buff[12] << 8 | buff[11]);
  86              		.loc 1 33 5 is_stmt 1 view .LVU30
  87              		.loc 1 33 34 is_stmt 0 view .LVU31
  88 003a 027B     		ldrb	r2, [r0, #12]	@ zero_extendqisi2
  89              		.loc 1 33 50 view .LVU32
  90 003c C37A     		ldrb	r3, [r0, #11]	@ zero_extendqisi2
  91              		.loc 1 33 18 view .LVU33
  92 003e 43EA0223 		orr	r3, r3, r2, lsl #8
  93              		.loc 1 33 15 view .LVU34
  94 0042 4B82     		strh	r3, [r1, #18]	@ movhi
  34:Core/drogui/src/BMP388.c ****     cal -> P6 =  (uint16_t) (buff[14] << 8 | buff[13]);
  95              		.loc 1 34 5 is_stmt 1 view .LVU35
  96              		.loc 1 34 34 is_stmt 0 view .LVU36
  97 0044 827B     		ldrb	r2, [r0, #14]	@ zero_extendqisi2
  98              		.loc 1 34 50 view .LVU37
  99 0046 437B     		ldrb	r3, [r0, #13]	@ zero_extendqisi2
 100              		.loc 1 34 18 view .LVU38
 101 0048 43EA0223 		orr	r3, r3, r2, lsl #8
 102              		.loc 1 34 15 view .LVU39
 103 004c 8B82     		strh	r3, [r1, #20]	@ movhi
  35:Core/drogui/src/BMP388.c ****     cal -> P7 =  (int8_t) (buff[15]);
 104              		.loc 1 35 5 is_stmt 1 view .LVU40
 105              		.loc 1 35 18 is_stmt 0 view .LVU41
 106 004e 90F90F30 		ldrsb	r3, [r0, #15]
 107              		.loc 1 35 15 view .LVU42
 108 0052 8B73     		strb	r3, [r1, #14]
  36:Core/drogui/src/BMP388.c ****     cal -> P8 =  (int8_t) (buff[16]);
 109              		.loc 1 36 5 is_stmt 1 view .LVU43
 110              		.loc 1 36 18 is_stmt 0 view .LVU44
 111 0054 90F91030 		ldrsb	r3, [r0, #16]
 112              		.loc 1 36 15 view .LVU45
 113 0058 CB73     		strb	r3, [r1, #15]
  37:Core/drogui/src/BMP388.c ****     cal -> P9 =  (int16_t) (buff[18] << 8 | buff[17]);
 114              		.loc 1 37 5 is_stmt 1 view .LVU46
 115              		.loc 1 37 33 is_stmt 0 view .LVU47
 116 005a 827C     		ldrb	r2, [r0, #18]	@ zero_extendqisi2
 117              		.loc 1 37 49 view .LVU48
 118 005c 437C     		ldrb	r3, [r0, #17]	@ zero_extendqisi2
 119              		.loc 1 37 18 view .LVU49
 120 005e 43EA0223 		orr	r3, r3, r2, lsl #8
 121              		.loc 1 37 15 view .LVU50
 122 0062 4B81     		strh	r3, [r1, #10]	@ movhi
  38:Core/drogui/src/BMP388.c ****     cal -> P10 = (int8_t) (buff[19]);
 123              		.loc 1 38 5 is_stmt 1 view .LVU51
 124              		.loc 1 38 18 is_stmt 0 view .LVU52
 125 0064 90F91330 		ldrsb	r3, [r0, #19]
 126              		.loc 1 38 16 view .LVU53
 127 0068 0B74     		strb	r3, [r1, #16]
  39:Core/drogui/src/BMP388.c ****     cal -> P11 = (int8_t) (buff[20]);    
 128              		.loc 1 39 5 is_stmt 1 view .LVU54
 129              		.loc 1 39 18 is_stmt 0 view .LVU55
 130 006a 90F91430 		ldrsb	r3, [r0, #20]
 131              		.loc 1 39 16 view .LVU56
 132 006e 4B74     		strb	r3, [r1, #17]
  40:Core/drogui/src/BMP388.c **** }
ARM GAS  C:\Users\GUILLE~1\AppData\Local\Temp\ccW62srv.s 			page 4


 133              		.loc 1 40 1 view .LVU57
 134 0070 7047     		bx	lr
 135              		.cfi_endproc
 136              	.LFE177:
 138              		.section	.text.initBmp388,"ax",%progbits
 139              		.align	1
 140              		.global	initBmp388
 141              		.syntax unified
 142              		.thumb
 143              		.thumb_func
 144              		.fpu fpv5-sp-d16
 146              	initBmp388:
 147              	.LVL1:
 148              	.LFB178:
  41:Core/drogui/src/BMP388.c **** 
  42:Core/drogui/src/BMP388.c **** calib calib_bmp;
  43:Core/drogui/src/BMP388.c **** 
  44:Core/drogui/src/BMP388.c **** void initBmp388(bmp388* b, int ntemp){
 149              		.loc 1 44 38 is_stmt 1 view -0
 150              		.cfi_startproc
 151              		@ args = 0, pretend = 0, frame = 24
 152              		@ frame_needed = 0, uses_anonymous_args = 0
 153              		.loc 1 44 38 is_stmt 0 view .LVU59
 154 0000 30B5     		push	{r4, r5, lr}
 155              	.LCFI0:
 156              		.cfi_def_cfa_offset 12
 157              		.cfi_offset 4, -12
 158              		.cfi_offset 5, -8
 159              		.cfi_offset 14, -4
 160 0002 87B0     		sub	sp, sp, #28
 161              	.LCFI1:
 162              		.cfi_def_cfa_offset 40
 163 0004 0446     		mov	r4, r0
 164 0006 0D46     		mov	r5, r1
  45:Core/drogui/src/BMP388.c ****     
  46:Core/drogui/src/BMP388.c ****     uint8_t buff[21];
 165              		.loc 1 46 5 is_stmt 1 view .LVU60
  47:Core/drogui/src/BMP388.c ****     I2CwriteByte(BMP388_DEFAULT_ADDRESS, BMP388_REG_PWR_CTRL, 0x33);
 166              		.loc 1 47 5 view .LVU61
 167 0008 3322     		movs	r2, #51
 168 000a 1B21     		movs	r1, #27
 169              	.LVL2:
 170              		.loc 1 47 5 is_stmt 0 view .LVU62
 171 000c 7720     		movs	r0, #119
 172              	.LVL3:
 173              		.loc 1 47 5 view .LVU63
 174 000e FFF7FEFF 		bl	I2CwriteByte
 175              	.LVL4:
  48:Core/drogui/src/BMP388.c ****     HAL_Delay(10);
 176              		.loc 1 48 5 is_stmt 1 view .LVU64
 177 0012 0A20     		movs	r0, #10
 178 0014 FFF7FEFF 		bl	HAL_Delay
 179              	.LVL5:
  49:Core/drogui/src/BMP388.c ****     I2CwriteByte(BMP388_DEFAULT_ADDRESS, BMP388_REG_OSR, 0x00);
 180              		.loc 1 49 5 view .LVU65
 181 0018 0022     		movs	r2, #0
 182 001a 1C21     		movs	r1, #28
ARM GAS  C:\Users\GUILLE~1\AppData\Local\Temp\ccW62srv.s 			page 5


 183 001c 7720     		movs	r0, #119
 184 001e FFF7FEFF 		bl	I2CwriteByte
 185              	.LVL6:
  50:Core/drogui/src/BMP388.c ****     HAL_Delay(10);
 186              		.loc 1 50 5 view .LVU66
 187 0022 0A20     		movs	r0, #10
 188 0024 FFF7FEFF 		bl	HAL_Delay
 189              	.LVL7:
  51:Core/drogui/src/BMP388.c ****     I2CwriteByte(BMP388_DEFAULT_ADDRESS, BMP388_REG_ODR, 0x00);
 190              		.loc 1 51 5 view .LVU67
 191 0028 0022     		movs	r2, #0
 192 002a 1D21     		movs	r1, #29
 193 002c 7720     		movs	r0, #119
 194 002e FFF7FEFF 		bl	I2CwriteByte
 195              	.LVL8:
  52:Core/drogui/src/BMP388.c ****     HAL_Delay(10);
 196              		.loc 1 52 5 view .LVU68
 197 0032 0A20     		movs	r0, #10
 198 0034 FFF7FEFF 		bl	HAL_Delay
 199              	.LVL9:
  53:Core/drogui/src/BMP388.c ****     I2Cread(BMP388_DEFAULT_ADDRESS, BMP388_REG_CALIB_DATA, 21, buff);
 200              		.loc 1 53 5 view .LVU69
 201 0038 6B46     		mov	r3, sp
 202 003a 1522     		movs	r2, #21
 203 003c 3121     		movs	r1, #49
 204 003e 7720     		movs	r0, #119
 205 0040 FFF7FEFF 		bl	I2Cread
 206              	.LVL10:
  54:Core/drogui/src/BMP388.c ****     buildCalib(buff, &calib_bmp);
 207              		.loc 1 54 5 view .LVU70
 208 0044 0C49     		ldr	r1, .L4
 209 0046 6846     		mov	r0, sp
 210 0048 FFF7FEFF 		bl	buildCalib
 211              	.LVL11:
  55:Core/drogui/src/BMP388.c ****     initMvAvgFilter(&(b->f), 25);
 212              		.loc 1 55 5 view .LVU71
 213 004c 1921     		movs	r1, #25
 214 004e 04F13000 		add	r0, r4, #48
 215 0052 FFF7FEFF 		bl	initMvAvgFilter
 216              	.LVL12:
  56:Core/drogui/src/BMP388.c ****     b -> temp = b -> press = b -> altitude = b -> cont = 0;
 217              		.loc 1 56 5 view .LVU72
 218              		.loc 1 56 56 is_stmt 0 view .LVU73
 219 0056 0023     		movs	r3, #0
 220 0058 6360     		str	r3, [r4, #4]
 221              		.loc 1 56 44 view .LVU74
 222 005a 0023     		movs	r3, #0
 223 005c E360     		str	r3, [r4, #12]	@ float
 224              		.loc 1 56 28 view .LVU75
 225 005e 0020     		movs	r0, #0
 226 0060 0021     		movs	r1, #0
 227 0062 C4E90801 		strd	r0, [r4, #32]
 228              		.loc 1 56 15 view .LVU76
 229 0066 C4E90601 		strd	r0, [r4, #24]
  57:Core/drogui/src/BMP388.c ****     b -> alt_offset = b -> seaLevel = b -> raw_altitude =  0;
 230              		.loc 1 57 5 is_stmt 1 view .LVU77
 231              		.loc 1 57 57 is_stmt 0 view .LVU78
ARM GAS  C:\Users\GUILLE~1\AppData\Local\Temp\ccW62srv.s 			page 6


 232 006a 2361     		str	r3, [r4, #16]	@ float
 233              		.loc 1 57 37 view .LVU79
 234 006c C4E90A01 		strd	r0, [r4, #40]
 235              		.loc 1 57 21 view .LVU80
 236 0070 A360     		str	r3, [r4, #8]	@ float
  58:Core/drogui/src/BMP388.c ****     b -> temp_cont = ntemp;
 237              		.loc 1 58 5 is_stmt 1 view .LVU81
 238              		.loc 1 58 20 is_stmt 0 view .LVU82
 239 0072 2560     		str	r5, [r4]
  59:Core/drogui/src/BMP388.c **** }
 240              		.loc 1 59 1 view .LVU83
 241 0074 07B0     		add	sp, sp, #28
 242              	.LCFI2:
 243              		.cfi_def_cfa_offset 12
 244              		@ sp needed
 245 0076 30BD     		pop	{r4, r5, pc}
 246              	.LVL13:
 247              	.L5:
 248              		.loc 1 59 1 view .LVU84
 249              		.align	2
 250              	.L4:
 251 0078 00000000 		.word	.LANCHOR0
 252              		.cfi_endproc
 253              	.LFE178:
 255              		.section	.text.bmp388CompensateTemp,"ax",%progbits
 256              		.align	1
 257              		.global	bmp388CompensateTemp
 258              		.syntax unified
 259              		.thumb
 260              		.thumb_func
 261              		.fpu fpv5-sp-d16
 263              	bmp388CompensateTemp:
 264              	.LVL14:
 265              	.LFB179:
  60:Core/drogui/src/BMP388.c **** 
  61:Core/drogui/src/BMP388.c **** int64_t bmp388CompensateTemp( uint32_t u32RegData){
 266              		.loc 1 61 51 is_stmt 1 view -0
 267              		.cfi_startproc
 268              		@ args = 0, pretend = 0, frame = 0
 269              		@ frame_needed = 0, uses_anonymous_args = 0
 270              		@ link register save eliminated.
 271              		.loc 1 61 51 is_stmt 0 view .LVU86
 272 0000 10B4     		push	{r4}
 273              	.LCFI3:
 274              		.cfi_def_cfa_offset 4
 275              		.cfi_offset 4, -4
  62:Core/drogui/src/BMP388.c **** 
  63:Core/drogui/src/BMP388.c ****   uint64_t partial_data1;
 276              		.loc 1 63 3 is_stmt 1 view .LVU87
  64:Core/drogui/src/BMP388.c ****   uint64_t partial_data2;
 277              		.loc 1 64 3 view .LVU88
  65:Core/drogui/src/BMP388.c ****   uint64_t partial_data3;
 278              		.loc 1 65 3 view .LVU89
  66:Core/drogui/src/BMP388.c ****   int64_t partial_data4;
 279              		.loc 1 66 3 view .LVU90
  67:Core/drogui/src/BMP388.c ****   int64_t partial_data5;
 280              		.loc 1 67 3 view .LVU91
ARM GAS  C:\Users\GUILLE~1\AppData\Local\Temp\ccW62srv.s 			page 7


  68:Core/drogui/src/BMP388.c ****   int64_t partial_data6;
 281              		.loc 1 68 3 view .LVU92
  69:Core/drogui/src/BMP388.c ****   int64_t comp_temp;
 282              		.loc 1 69 3 view .LVU93
  70:Core/drogui/src/BMP388.c **** 
  71:Core/drogui/src/BMP388.c ****   partial_data1 = (uint64_t)(u32RegData - (256 * (uint64_t)(calib_bmp.T1)));
 283              		.loc 1 71 3 view .LVU94
 284              		.loc 1 71 70 is_stmt 0 view .LVU95
 285 0002 264C     		ldr	r4, .L12
 286 0004 2388     		ldrh	r3, [r4]
 287              		.loc 1 71 48 view .LVU96
 288 0006 1B02     		lsls	r3, r3, #8
 289              		.loc 1 71 17 view .LVU97
 290 0008 C01A     		subs	r0, r0, r3
 291              	.LVL15:
 292              		.loc 1 71 17 view .LVU98
 293 000a 61EB0101 		sbc	r1, r1, r1
 294              	.LVL16:
  72:Core/drogui/src/BMP388.c ****   partial_data2 = (uint64_t)(calib_bmp.T2 * partial_data1);
 295              		.loc 1 72 3 is_stmt 1 view .LVU99
 296              		.loc 1 72 39 is_stmt 0 view .LVU100
 297 000e 6388     		ldrh	r3, [r4, #2]
 298              		.loc 1 72 17 view .LVU101
 299 0010 A3FB002C 		umull	r2, ip, r3, r0
 300 0014 03FB01CC 		mla	ip, r3, r1, ip
 301              	.LVL17:
  73:Core/drogui/src/BMP388.c ****   partial_data3 = (uint64_t)(partial_data1 * partial_data1);
 302              		.loc 1 73 3 is_stmt 1 view .LVU102
 303              		.loc 1 73 17 is_stmt 0 view .LVU103
 304 0018 00FB01F1 		mul	r1, r0, r1
 305              	.LVL18:
 306              		.loc 1 73 17 view .LVU104
 307 001c A0FB0003 		umull	r0, r3, r0, r0
 308              	.LVL19:
 309              		.loc 1 73 17 view .LVU105
 310 0020 03EB4103 		add	r3, r3, r1, lsl #1
 311              	.LVL20:
  74:Core/drogui/src/BMP388.c ****   partial_data4 = (int64_t)(((int64_t)partial_data3) * ((int64_t)calib_bmp.T3));
 312              		.loc 1 74 3 is_stmt 1 view .LVU106
 313              		.loc 1 74 75 is_stmt 0 view .LVU107
 314 0024 94F90410 		ldrsb	r1, [r4, #4]
 315              		.loc 1 74 57 view .LVU108
 316 0028 CC17     		asrs	r4, r1, #31
 317              		.loc 1 74 17 view .LVU109
 318 002a 01FB03F3 		mul	r3, r1, r3
 319              	.LVL21:
 320              		.loc 1 74 17 view .LVU110
 321 002e 00FB0433 		mla	r3, r0, r4, r3
 322 0032 A1FB0010 		umull	r1, r0, r1, r0
 323              	.LVL22:
 324              		.loc 1 74 17 view .LVU111
 325 0036 1844     		add	r0, r0, r3
 326              	.LVL23:
  75:Core/drogui/src/BMP388.c ****   partial_data5 = ((int64_t)(((int64_t)partial_data2) * 262144) + (int64_t)partial_data4);
 327              		.loc 1 75 3 is_stmt 1 view .LVU112
 328              		.loc 1 75 20 is_stmt 0 view .LVU113
 329 0038 4FEA8C43 		lsl	r3, ip, #18
ARM GAS  C:\Users\GUILLE~1\AppData\Local\Temp\ccW62srv.s 			page 8


 330 003c 43EA9233 		orr	r3, r3, r2, lsr #14
 331 0040 9204     		lsls	r2, r2, #18
 332              	.LVL24:
 333              		.loc 1 75 17 view .LVU114
 334 0042 5218     		adds	r2, r2, r1
 335              	.LVL25:
 336              		.loc 1 75 17 view .LVU115
 337 0044 40EB0303 		adc	r3, r0, r3
 338              	.LVL26:
  76:Core/drogui/src/BMP388.c ****   partial_data6 = (int64_t)(((int64_t)partial_data5) / 4294967296);
 339              		.loc 1 76 3 is_stmt 1 view .LVU116
 340              		.loc 1 76 17 is_stmt 0 view .LVU117
 341 0048 1046     		mov	r0, r2
 342              	.LVL27:
 343              		.loc 1 76 17 view .LVU118
 344 004a 1A46     		mov	r2, r3
 345              	.LVL28:
 346              		.loc 1 76 17 view .LVU119
 347 004c 002B     		cmp	r3, #0
 348 004e 1ADB     		blt	.L10
 349              	.LVL29:
 350              	.L7:
 351              		.loc 1 76 17 view .LVU120
 352 0050 D317     		asrs	r3, r2, #31
 353              	.LVL30:
  77:Core/drogui/src/BMP388.c **** 
  78:Core/drogui/src/BMP388.c ****   calib_bmp.T_fine = partial_data6;
 354              		.loc 1 78 3 is_stmt 1 view .LVU121
 355              		.loc 1 78 20 is_stmt 0 view .LVU122
 356 0052 1249     		ldr	r1, .L12
 357              	.LVL31:
 358              		.loc 1 78 20 view .LVU123
 359 0054 8A61     		str	r2, [r1, #24]
 360 0056 CB61     		str	r3, [r1, #28]
  79:Core/drogui/src/BMP388.c ****   comp_temp = (int64_t)((partial_data6 * 25)  / 16384);
 361              		.loc 1 79 3 is_stmt 1 view .LVU124
 362              		.loc 1 79 40 is_stmt 0 view .LVU125
 363 0058 9018     		adds	r0, r2, r2
 364 005a 43EB0301 		adc	r1, r3, r3
 365 005e 8018     		adds	r0, r0, r2
 366 0060 43EB0101 		adc	r1, r3, r1
 367 0064 C900     		lsls	r1, r1, #3
 368 0066 41EA5071 		orr	r1, r1, r0, lsr #29
 369 006a C000     		lsls	r0, r0, #3
 370 006c 8018     		adds	r0, r0, r2
 371 006e 43EB0103 		adc	r3, r3, r1
 372              	.LVL32:
 373              		.loc 1 79 13 view .LVU126
 374 0072 1946     		mov	r1, r3
 375 0074 002B     		cmp	r3, #0
 376 0076 0ADB     		blt	.L11
 377              	.LVL33:
 378              	.L8:
 379              		.loc 1 79 13 view .LVU127
 380 0078 800B     		lsrs	r0, r0, #14
 381              	.LVL34:
  80:Core/drogui/src/BMP388.c ****   return comp_temp;   
ARM GAS  C:\Users\GUILLE~1\AppData\Local\Temp\ccW62srv.s 			page 9


 382              		.loc 1 80 3 is_stmt 1 view .LVU128
  81:Core/drogui/src/BMP388.c **** }
 383              		.loc 1 81 1 is_stmt 0 view .LVU129
 384 007a 40EA8140 		orr	r0, r0, r1, lsl #18
 385              	.LVL35:
 386              		.loc 1 81 1 view .LVU130
 387 007e 8913     		asrs	r1, r1, #14
 388              	.LVL36:
 389              		.loc 1 81 1 view .LVU131
 390 0080 5DF8044B 		ldr	r4, [sp], #4
 391              	.LCFI4:
 392              		.cfi_remember_state
 393              		.cfi_restore 4
 394              		.cfi_def_cfa_offset 0
 395              	.LVL37:
 396              		.loc 1 81 1 view .LVU132
 397 0084 7047     		bx	lr
 398              	.LVL38:
 399              	.L10:
 400              	.LCFI5:
 401              		.cfi_restore_state
  76:Core/drogui/src/BMP388.c **** 
 402              		.loc 1 76 17 view .LVU133
 403 0086 0138     		subs	r0, r0, #1
 404              	.LVL39:
  76:Core/drogui/src/BMP388.c **** 
 405              		.loc 1 76 17 view .LVU134
 406 0088 43F10002 		adc	r2, r3, #0
 407              	.LVL40:
  76:Core/drogui/src/BMP388.c **** 
 408              		.loc 1 76 17 view .LVU135
 409 008c E0E7     		b	.L7
 410              	.LVL41:
 411              	.L11:
  79:Core/drogui/src/BMP388.c ****   return comp_temp;   
 412              		.loc 1 79 13 view .LVU136
 413 008e 43F6FF72 		movw	r2, #16383
 414              	.LVL42:
  79:Core/drogui/src/BMP388.c ****   return comp_temp;   
 415              		.loc 1 79 13 view .LVU137
 416 0092 8018     		adds	r0, r0, r2
 417 0094 43F10001 		adc	r1, r3, #0
 418 0098 EEE7     		b	.L8
 419              	.L13:
 420 009a 00BF     		.align	2
 421              	.L12:
 422 009c 00000000 		.word	.LANCHOR0
 423              		.cfi_endproc
 424              	.LFE179:
 426              		.section	.text.bmp388CompensatePress,"ax",%progbits
 427              		.align	1
 428              		.global	bmp388CompensatePress
 429              		.syntax unified
 430              		.thumb
 431              		.thumb_func
 432              		.fpu fpv5-sp-d16
 434              	bmp388CompensatePress:
ARM GAS  C:\Users\GUILLE~1\AppData\Local\Temp\ccW62srv.s 			page 10


 435              	.LVL43:
 436              	.LFB180:
  82:Core/drogui/src/BMP388.c **** 
  83:Core/drogui/src/BMP388.c **** int64_t bmp388CompensatePress(uint32_t u32RegData){
 437              		.loc 1 83 51 is_stmt 1 view -0
 438              		.cfi_startproc
 439              		@ args = 0, pretend = 0, frame = 8
 440              		@ frame_needed = 0, uses_anonymous_args = 0
 441              		.loc 1 83 51 is_stmt 0 view .LVU139
 442 0000 2DE9F04F 		push	{r4, r5, r6, r7, r8, r9, r10, fp, lr}
 443              	.LCFI6:
 444              		.cfi_def_cfa_offset 36
 445              		.cfi_offset 4, -36
 446              		.cfi_offset 5, -32
 447              		.cfi_offset 6, -28
 448              		.cfi_offset 7, -24
 449              		.cfi_offset 8, -20
 450              		.cfi_offset 9, -16
 451              		.cfi_offset 10, -12
 452              		.cfi_offset 11, -8
 453              		.cfi_offset 14, -4
 454 0004 83B0     		sub	sp, sp, #12
 455              	.LCFI7:
 456              		.cfi_def_cfa_offset 48
  84:Core/drogui/src/BMP388.c **** 
  85:Core/drogui/src/BMP388.c ****   int64_t partial_data1;
 457              		.loc 1 85 3 is_stmt 1 view .LVU140
  86:Core/drogui/src/BMP388.c ****   int64_t partial_data2;
 458              		.loc 1 86 3 view .LVU141
  87:Core/drogui/src/BMP388.c ****   int64_t partial_data3;
 459              		.loc 1 87 3 view .LVU142
  88:Core/drogui/src/BMP388.c ****   int64_t partial_data4;
 460              		.loc 1 88 3 view .LVU143
  89:Core/drogui/src/BMP388.c ****   int64_t partial_data5;
 461              		.loc 1 89 3 view .LVU144
  90:Core/drogui/src/BMP388.c ****   int64_t partial_data6;
 462              		.loc 1 90 3 view .LVU145
  91:Core/drogui/src/BMP388.c ****   int64_t offset;
 463              		.loc 1 91 3 view .LVU146
  92:Core/drogui/src/BMP388.c ****   int64_t sensitivity;
 464              		.loc 1 92 3 view .LVU147
  93:Core/drogui/src/BMP388.c ****   uint64_t comp_press;
 465              		.loc 1 93 3 view .LVU148
  94:Core/drogui/src/BMP388.c **** 
  95:Core/drogui/src/BMP388.c ****   partial_data1 = calib_bmp.T_fine * calib_bmp.T_fine;
 466              		.loc 1 95 3 view .LVU149
 467              		.loc 1 95 28 is_stmt 0 view .LVU150
 468 0006 AD4B     		ldr	r3, .L36
 469 0008 9A69     		ldr	r2, [r3, #24]
 470 000a D3F81C80 		ldr	r8, [r3, #28]
 471              		.loc 1 95 17 view .LVU151
 472 000e 02FB08F3 		mul	r3, r2, r8
 473 0012 A2FB0241 		umull	r4, r1, r2, r2
 474 0016 01EB4301 		add	r1, r1, r3, lsl #1
 475              	.LVL44:
  96:Core/drogui/src/BMP388.c ****   partial_data2 = partial_data1 / 64;
 476              		.loc 1 96 3 is_stmt 1 view .LVU152
ARM GAS  C:\Users\GUILLE~1\AppData\Local\Temp\ccW62srv.s 			page 11


 477              		.loc 1 96 17 is_stmt 0 view .LVU153
 478 001a 2346     		mov	r3, r4
 479 001c 0D46     		mov	r5, r1
 480 001e 0029     		cmp	r1, #0
 481 0020 C0F21A81 		blt	.L26
 482              	.L15:
 483              		.loc 1 96 17 view .LVU154
 484 0024 9B09     		lsrs	r3, r3, #6
 485 0026 43EA8563 		orr	r3, r3, r5, lsl #26
 486 002a AD11     		asrs	r5, r5, #6
 487              	.LVL45:
  97:Core/drogui/src/BMP388.c ****   partial_data3 = (partial_data2 * calib_bmp.T_fine) / 256;
 488              		.loc 1 97 3 is_stmt 1 view .LVU155
 489              		.loc 1 97 34 is_stmt 0 view .LVU156
 490 002c 02FB05F5 		mul	r5, r2, r5
 491              	.LVL46:
 492              		.loc 1 97 34 view .LVU157
 493 0030 03FB0855 		mla	r5, r3, r8, r5
 494 0034 A2FB0336 		umull	r3, r6, r2, r3
 495              		.loc 1 97 34 view .LVU158
 496 0038 3544     		add	r5, r5, r6
 497              		.loc 1 97 17 view .LVU159
 498 003a AC46     		mov	ip, r5
 499 003c 002D     		cmp	r5, #0
 500 003e C0F20F81 		blt	.L27
 501              	.L16:
 502 0042 1D0A     		lsrs	r5, r3, #8
 503 0044 45EA0C65 		orr	r5, r5, ip, lsl #24
 504 0048 4FEA2C2C 		asr	ip, ip, #8
 505 004c 2E46     		mov	r6, r5
 506              	.LVL47:
  98:Core/drogui/src/BMP388.c ****   partial_data4 = (calib_bmp.P8 * partial_data3) / 32;
 507              		.loc 1 98 3 is_stmt 1 view .LVU160
 508              		.loc 1 98 29 is_stmt 0 view .LVU161
 509 004e 9B4B     		ldr	r3, .L36
 510 0050 93F90F30 		ldrsb	r3, [r3, #15]
 511 0054 4FEAE37E 		asr	lr, r3, #31
 512              		.loc 1 98 33 view .LVU162
 513 0058 03FB0CF7 		mul	r7, r3, ip
 514 005c 05FB0E75 		mla	r5, r5, lr, r7
 515              	.LVL48:
 516              		.loc 1 98 33 view .LVU163
 517 0060 A3FB0637 		umull	r3, r7, r3, r6
 518 0064 3D44     		add	r5, r5, r7
 519              		.loc 1 98 17 view .LVU164
 520 0066 AB46     		mov	fp, r5
 521 0068 002D     		cmp	r5, #0
 522 006a C0F2FD80 		blt	.L28
 523              	.L17:
 524 006e 5B09     		lsrs	r3, r3, #5
 525              	.LVL49:
  99:Core/drogui/src/BMP388.c ****   partial_data5 = (calib_bmp.P7 * partial_data1) * 16;
 526              		.loc 1 99 3 is_stmt 1 view .LVU165
 527              		.loc 1 99 29 is_stmt 0 view .LVU166
 528 0070 DFF848A2 		ldr	r10, .L36
 529 0074 9AF90E70 		ldrsb	r7, [r10, #14]
 530 0078 4FEAE77E 		asr	lr, r7, #31
ARM GAS  C:\Users\GUILLE~1\AppData\Local\Temp\ccW62srv.s 			page 12


 531              		.loc 1 99 33 view .LVU167
 532 007c 07FB01F5 		mul	r5, r7, r1
 533 0080 04FB0E55 		mla	r5, r4, lr, r5
 534 0084 A7FB04E7 		umull	lr, r7, r7, r4
 535 0088 2F44     		add	r7, r7, r5
 536              		.loc 1 99 17 view .LVU168
 537 008a 3D01     		lsls	r5, r7, #4
 538 008c 45EA1E75 		orr	r5, r5, lr, lsr #28
 539 0090 0195     		str	r5, [sp, #4]
 540 0092 4FEA0E17 		lsl	r7, lr, #4
 541 0096 3D46     		mov	r5, r7
 542              	.LVL50:
 100:Core/drogui/src/BMP388.c ****   partial_data6 = (calib_bmp.P6 * calib_bmp.T_fine) * 4194304;
 543              		.loc 1 100 3 is_stmt 1 view .LVU169
 544              		.loc 1 100 29 is_stmt 0 view .LVU170
 545 0098 BAF814E0 		ldrh	lr, [r10, #20]
 546              		.loc 1 100 33 view .LVU171
 547 009c A2FB0E97 		umull	r9, r7, r2, lr
 548 00a0 0EFB0877 		mla	r7, lr, r8, r7
 549              		.loc 1 100 17 view .LVU172
 550 00a4 BF05     		lsls	r7, r7, #22
 551 00a6 47EA9927 		orr	r7, r7, r9, lsr #10
 552 00aa 4FEA8959 		lsl	r9, r9, #22
 553              	.LVL51:
 101:Core/drogui/src/BMP388.c ****   offset = (int64_t)((int64_t)(calib_bmp.P5) * (int64_t)140737488355328) + 
 554              		.loc 1 101 3 is_stmt 1 view .LVU173
 555              		.loc 1 101 41 is_stmt 0 view .LVU174
 556 00ae BAF812E0 		ldrh	lr, [r10, #18]
 557              		.loc 1 101 12 view .LVU175
 558 00b2 4FEACE3E 		lsl	lr, lr, #15
 559              		.loc 1 101 74 view .LVU176
 560 00b6 43EACB63 		orr	r3, r3, fp, lsl #27
 561              	.LVL52:
 562              		.loc 1 101 74 view .LVU177
 563 00ba 0EEB6B1B 		add	fp, lr, fp, asr #5
 564              	.LVL53:
 102:Core/drogui/src/BMP388.c ****             partial_data4 + partial_data5 + partial_data6;
 565              		.loc 1 102 27 view .LVU178
 566 00be 5B19     		adds	r3, r3, r5
 567              		.loc 1 102 27 view .LVU179
 568 00c0 019D     		ldr	r5, [sp, #4]
 569              	.LVL54:
 570              		.loc 1 102 27 view .LVU180
 571 00c2 4BEB050B 		adc	fp, fp, r5
 101:Core/drogui/src/BMP388.c ****   offset = (int64_t)((int64_t)(calib_bmp.P5) * (int64_t)140737488355328) + 
 572              		.loc 1 101 10 view .LVU181
 573 00c6 13EB0909 		adds	r9, r3, r9
 574              	.LVL55:
 101:Core/drogui/src/BMP388.c ****   offset = (int64_t)((int64_t)(calib_bmp.P5) * (int64_t)140737488355328) + 
 575              		.loc 1 101 10 view .LVU182
 576 00ca 4BEB0707 		adc	r7, fp, r7
 577              	.LVL56:
 103:Core/drogui/src/BMP388.c **** 
 104:Core/drogui/src/BMP388.c ****   partial_data2 = (((int64_t)calib_bmp.P4) * partial_data3) / 32;
 578              		.loc 1 104 3 is_stmt 1 view .LVU183
 579              		.loc 1 104 39 is_stmt 0 view .LVU184
 580 00ce 9AF90D50 		ldrsb	r5, [r10, #13]
ARM GAS  C:\Users\GUILLE~1\AppData\Local\Temp\ccW62srv.s 			page 13


 581              		.loc 1 104 21 view .LVU185
 582 00d2 EB17     		asrs	r3, r5, #31
 583              		.loc 1 104 44 view .LVU186
 584 00d4 05FB0CFC 		mul	ip, r5, ip
 585              	.LVL57:
 586              		.loc 1 104 44 view .LVU187
 587 00d8 06FB03CC 		mla	ip, r6, r3, ip
 588 00dc A5FB0656 		umull	r5, r6, r5, r6
 589              		.loc 1 104 44 view .LVU188
 590 00e0 6644     		add	r6, r6, ip
 591              		.loc 1 104 17 view .LVU189
 592 00e2 B646     		mov	lr, r6
 593 00e4 002E     		cmp	r6, #0
 594 00e6 C0F2C380 		blt	.L29
 595              	.L18:
 596 00ea 6D09     		lsrs	r5, r5, #5
 597              	.LVL58:
 105:Core/drogui/src/BMP388.c ****   partial_data4 = (calib_bmp.P3 * partial_data1) * 4;
 598              		.loc 1 105 3 is_stmt 1 view .LVU190
 599              		.loc 1 105 29 is_stmt 0 view .LVU191
 600 00ec 734E     		ldr	r6, .L36
 601 00ee 96F90CC0 		ldrsb	ip, [r6, #12]
 602 00f2 4FEAEC7A 		asr	r10, ip, #31
 603              		.loc 1 105 33 view .LVU192
 604 00f6 0CFB01F3 		mul	r3, ip, r1
 605 00fa 04FB0A33 		mla	r3, r4, r10, r3
 606 00fe ACFB0441 		umull	r4, r1, ip, r4
 607              	.LVL59:
 608              		.loc 1 105 33 view .LVU193
 609 0102 0B44     		add	r3, r3, r1
 610              		.loc 1 105 17 view .LVU194
 611 0104 9B00     		lsls	r3, r3, #2
 612 0106 43EA9473 		orr	r3, r3, r4, lsr #30
 613 010a A400     		lsls	r4, r4, #2
 614              	.LVL60:
 106:Core/drogui/src/BMP388.c ****   partial_data5 = ((int64_t)(calib_bmp.P2) - 16384) * ((int64_t)calib_bmp.T_fine) * 2097152;
 615              		.loc 1 106 3 is_stmt 1 view .LVU195
 616              		.loc 1 106 39 is_stmt 0 view .LVU196
 617 010c B6F90810 		ldrsh	r1, [r6, #8]
 618              		.loc 1 106 20 view .LVU197
 619 0110 4FEAE17C 		asr	ip, r1, #31
 620              		.loc 1 106 44 view .LVU198
 621 0114 B1F58041 		subs	r1, r1, #16384
 622 0118 4CF1FF3C 		adc	ip, ip, #-1
 623              		.loc 1 106 53 view .LVU199
 624 011c 02FB0CFC 		mul	ip, r2, ip
 625 0120 01FB08CC 		mla	ip, r1, r8, ip
 626 0124 A2FB011A 		umull	r1, r10, r2, r1
 627 0128 D444     		add	ip, ip, r10
 628              		.loc 1 106 17 view .LVU200
 629 012a 4FEA4C5C 		lsl	ip, ip, #21
 630 012e 4CEAD12C 		orr	ip, ip, r1, lsr #11
 631 0132 4905     		lsls	r1, r1, #21
 632              	.LVL61:
 107:Core/drogui/src/BMP388.c ****   sensitivity = (((int64_t)(calib_bmp.P1) - 16384) * (int64_t)70368744177664) + 
 633              		.loc 1 107 3 is_stmt 1 view .LVU201
 634              		.loc 1 107 38 is_stmt 0 view .LVU202
ARM GAS  C:\Users\GUILLE~1\AppData\Local\Temp\ccW62srv.s 			page 14


 635 0134 B6F90660 		ldrsh	r6, [r6, #6]
 636              		.loc 1 107 43 view .LVU203
 637 0138 B6F58046 		subs	r6, r6, #16384
 638              		.loc 1 107 52 view .LVU204
 639 013c B603     		lsls	r6, r6, #14
 640              		.loc 1 107 79 view .LVU205
 641 013e 45EACE65 		orr	r5, r5, lr, lsl #27
 642              	.LVL62:
 643              		.loc 1 107 79 view .LVU206
 644 0142 06EB6E16 		add	r6, r6, lr, asr #5
 108:Core/drogui/src/BMP388.c ****                 partial_data2 + partial_data4 + partial_data5;
 645              		.loc 1 108 31 view .LVU207
 646 0146 2D19     		adds	r5, r5, r4
 647              	.LVL63:
 648              		.loc 1 108 31 view .LVU208
 649 0148 46EB0303 		adc	r3, r6, r3
 650              	.LVL64:
 107:Core/drogui/src/BMP388.c ****   sensitivity = (((int64_t)(calib_bmp.P1) - 16384) * (int64_t)70368744177664) + 
 651              		.loc 1 107 15 view .LVU209
 652 014c 6D18     		adds	r5, r5, r1
 653 014e 43EB0C03 		adc	r3, r3, ip
 654              	.LVL65:
 109:Core/drogui/src/BMP388.c **** 
 110:Core/drogui/src/BMP388.c ****   partial_data1 = (sensitivity / 16777216) * u32RegData;
 655              		.loc 1 110 3 is_stmt 1 view .LVU210
 656              		.loc 1 110 32 is_stmt 0 view .LVU211
 657 0152 1C46     		mov	r4, r3
 658              	.LVL66:
 659              		.loc 1 110 32 view .LVU212
 660 0154 002B     		cmp	r3, #0
 661 0156 C0F28F80 		blt	.L30
 662              	.LVL67:
 663              	.L19:
 664              		.loc 1 110 32 view .LVU213
 665 015a 290E     		lsrs	r1, r5, #24
 666 015c 41EA0421 		orr	r1, r1, r4, lsl #8
 667 0160 2316     		asrs	r3, r4, #24
 668              		.loc 1 110 44 view .LVU214
 669 0162 0446     		mov	r4, r0
 670              		.loc 1 110 17 view .LVU215
 671 0164 A1FB0051 		umull	r5, r1, r1, r0
 672 0168 00FB0311 		mla	r1, r0, r3, r1
 673              	.LVL68:
 111:Core/drogui/src/BMP388.c ****   partial_data2 = (int64_t)(calib_bmp.P10) * (int64_t)(calib_bmp.T_fine);
 674              		.loc 1 111 3 is_stmt 1 view .LVU216
 675              		.loc 1 111 38 is_stmt 0 view .LVU217
 676 016c 534B     		ldr	r3, .L36
 677 016e 93F910C0 		ldrsb	ip, [r3, #16]
 678              	.LVL69:
 679              		.loc 1 111 19 view .LVU218
 680 0172 4FEAEC76 		asr	r6, ip, #31
 681              		.loc 1 111 17 view .LVU219
 682 0176 02FB06F6 		mul	r6, r2, r6
 683 017a 0CFB0868 		mla	r8, ip, r8, r6
 684              	.LVL70:
 685              		.loc 1 111 17 view .LVU220
 686 017e A2FB0C62 		umull	r6, r2, r2, ip
ARM GAS  C:\Users\GUILLE~1\AppData\Local\Temp\ccW62srv.s 			page 15


 687              	.LVL71:
 688              		.loc 1 111 17 view .LVU221
 689 0182 4244     		add	r2, r2, r8
 690              	.LVL72:
 112:Core/drogui/src/BMP388.c ****   partial_data3 = partial_data2 + (65536 * (int64_t)(calib_bmp.P9));
 691              		.loc 1 112 3 is_stmt 1 view .LVU222
 692              		.loc 1 112 63 is_stmt 0 view .LVU223
 693 0184 B3F90A30 		ldrsh	r3, [r3, #10]
 694              	.LVL73:
 695              		.loc 1 112 44 view .LVU224
 696 0188 4FEAE378 		asr	r8, r3, #31
 697              		.loc 1 112 42 view .LVU225
 698 018c 4FEA0848 		lsl	r8, r8, #16
 699 0190 48EA1348 		orr	r8, r8, r3, lsr #16
 700 0194 1B04     		lsls	r3, r3, #16
 701              		.loc 1 112 17 view .LVU226
 702 0196 9B19     		adds	r3, r3, r6
 703 0198 42EB0802 		adc	r2, r2, r8
 704              	.LVL74:
 113:Core/drogui/src/BMP388.c ****   partial_data4 = (partial_data3 * u32RegData) / 8192;
 705              		.loc 1 113 3 is_stmt 1 view .LVU227
 706              		.loc 1 113 34 is_stmt 0 view .LVU228
 707 019c A0FB0338 		umull	r3, r8, r0, r3
 708              	.LVL75:
 709              		.loc 1 113 34 view .LVU229
 710 01a0 00FB0282 		mla	r2, r0, r2, r8
 711              	.LVL76:
 712              		.loc 1 113 17 view .LVU230
 713 01a4 1646     		mov	r6, r2
 714              	.LVL77:
 715              		.loc 1 113 17 view .LVU231
 716 01a6 002A     		cmp	r2, #0
 717              	.LVL78:
 718              		.loc 1 113 17 view .LVU232
 719 01a8 6CDB     		blt	.L31
 720              	.L20:
 721              		.loc 1 113 17 view .LVU233
 722 01aa 5B0B     		lsrs	r3, r3, #13
 723 01ac 43EAC643 		orr	r3, r3, r6, lsl #19
 724 01b0 7213     		asrs	r2, r6, #13
 725              	.LVL79:
 114:Core/drogui/src/BMP388.c ****   partial_data5 = (partial_data4 * u32RegData) / 512;
 726              		.loc 1 114 3 is_stmt 1 view .LVU234
 727              		.loc 1 114 34 is_stmt 0 view .LVU235
 728 01b2 A4FB0336 		umull	r3, r6, r4, r3
 729              	.LVL80:
 730              		.loc 1 114 34 view .LVU236
 731 01b6 00FB0266 		mla	r6, r0, r2, r6
 732              		.loc 1 114 17 view .LVU237
 733 01ba 3246     		mov	r2, r6
 734 01bc 002E     		cmp	r6, #0
 735 01be 67DB     		blt	.L32
 736              	.L21:
 737 01c0 5B0A     		lsrs	r3, r3, #9
 738 01c2 5612     		asrs	r6, r2, #9
 739 01c4 43EAC252 		orr	r2, r3, r2, lsl #23
 740              	.LVL81:
ARM GAS  C:\Users\GUILLE~1\AppData\Local\Temp\ccW62srv.s 			page 16


 115:Core/drogui/src/BMP388.c ****   partial_data6 = (int64_t)((uint64_t)u32RegData * (uint64_t)u32RegData);
 741              		.loc 1 115 3 is_stmt 1 view .LVU238
 742              		.loc 1 115 50 is_stmt 0 view .LVU239
 743 01c8 A0FB00EC 		umull	lr, ip, r0, r0
 744              	.LVL82:
 116:Core/drogui/src/BMP388.c ****   partial_data2 = ((int64_t)(calib_bmp.P11) * (int64_t)(partial_data6)) / 65536;
 745              		.loc 1 116 3 is_stmt 1 view .LVU240
 746              		.loc 1 116 39 is_stmt 0 view .LVU241
 747 01cc 3B4B     		ldr	r3, .L36
 748              	.LVL83:
 749              		.loc 1 116 39 view .LVU242
 750 01ce 93F91130 		ldrsb	r3, [r3, #17]
 751              	.LVL84:
 752              		.loc 1 116 20 view .LVU243
 753 01d2 4FEAE378 		asr	r8, r3, #31
 754              		.loc 1 116 45 view .LVU244
 755 01d6 03FB0CFC 		mul	ip, r3, ip
 756              	.LVL85:
 757              		.loc 1 116 45 view .LVU245
 758 01da 0EFB08CC 		mla	ip, lr, r8, ip
 759 01de A3FB0E3E 		umull	r3, lr, r3, lr
 760              	.LVL86:
 761              		.loc 1 116 45 view .LVU246
 762 01e2 F444     		add	ip, ip, lr
 763              		.loc 1 116 17 view .LVU247
 764 01e4 E646     		mov	lr, ip
 765 01e6 BCF1000F 		cmp	ip, #0
 766 01ea 57DB     		blt	.L33
 767              	.L22:
 768 01ec 1B0C     		lsrs	r3, r3, #16
 769 01ee 43EA0E43 		orr	r3, r3, lr, lsl #16
 770 01f2 4FEA2E4E 		asr	lr, lr, #16
 771              	.LVL87:
 117:Core/drogui/src/BMP388.c ****   partial_data3 = (partial_data2 * u32RegData) / 128;
 772              		.loc 1 117 3 is_stmt 1 view .LVU248
 773              		.loc 1 117 34 is_stmt 0 view .LVU249
 774 01f6 A4FB0343 		umull	r4, r3, r4, r3
 775              	.LVL88:
 776              		.loc 1 117 34 view .LVU250
 777 01fa 00FB0E30 		mla	r0, r0, lr, r3
 778              	.LVL89:
 779              		.loc 1 117 17 view .LVU251
 780 01fe 2346     		mov	r3, r4
 781 0200 0446     		mov	r4, r0
 782 0202 0028     		cmp	r0, #0
 783 0204 51DB     		blt	.L34
 784              	.L23:
 785 0206 DB09     		lsrs	r3, r3, #7
 786 0208 4FEAE41C 		asr	ip, r4, #7
 787 020c 43EA4463 		orr	r3, r3, r4, lsl #25
 788              	.LVL90:
 118:Core/drogui/src/BMP388.c ****   partial_data4 = (offset / 4) + partial_data1 + partial_data5 + partial_data3;
 789              		.loc 1 118 3 is_stmt 1 view .LVU252
 790              		.loc 1 118 27 is_stmt 0 view .LVU253
 791 0210 3846     		mov	r0, r7
 792 0212 002F     		cmp	r7, #0
 793 0214 4DDB     		blt	.L35
ARM GAS  C:\Users\GUILLE~1\AppData\Local\Temp\ccW62srv.s 			page 17


 794              	.LVL91:
 795              	.L24:
 796              		.loc 1 118 27 view .LVU254
 797 0216 4FEA9909 		lsr	r9, r9, #2
 798 021a 49EA8079 		orr	r9, r9, r0, lsl #30
 799              		.loc 1 118 32 view .LVU255
 800 021e 19EB0509 		adds	r9, r9, r5
 801 0222 41EBA000 		adc	r0, r1, r0, asr #2
 802              		.loc 1 118 48 view .LVU256
 803 0226 19EB0202 		adds	r2, r9, r2
 804              	.LVL92:
 805              		.loc 1 118 48 view .LVU257
 806 022a 40EB0600 		adc	r0, r0, r6
 807              		.loc 1 118 17 view .LVU258
 808 022e D218     		adds	r2, r2, r3
 809 0230 40EB0C00 		adc	r0, r0, ip
 810              	.LVL93:
 119:Core/drogui/src/BMP388.c ****   comp_press = (((uint64_t)partial_data4 * 25) / (uint64_t)1099511627776);
 811              		.loc 1 119 3 is_stmt 1 view .LVU259
 812              		.loc 1 119 42 is_stmt 0 view .LVU260
 813 0234 9318     		adds	r3, r2, r2
 814              	.LVL94:
 815              		.loc 1 119 42 view .LVU261
 816 0236 40EB0006 		adc	r6, r0, r0
 817 023a 9B18     		adds	r3, r3, r2
 818 023c 40EB0606 		adc	r6, r0, r6
 819 0240 F600     		lsls	r6, r6, #3
 820 0242 46EA5376 		orr	r6, r6, r3, lsr #29
 821 0246 DB00     		lsls	r3, r3, #3
 822 0248 9A18     		adds	r2, r3, r2
 823              	.LVL95:
 824              		.loc 1 119 42 view .LVU262
 825 024a 40EB0600 		adc	r0, r0, r6
 826              	.LVL96:
 120:Core/drogui/src/BMP388.c **** 
 121:Core/drogui/src/BMP388.c ****   return comp_press;
 827              		.loc 1 121 3 is_stmt 1 view .LVU263
 122:Core/drogui/src/BMP388.c **** }
 828              		.loc 1 122 1 is_stmt 0 view .LVU264
 829 024e 000A     		lsrs	r0, r0, #8
 830              	.LVL97:
 831              		.loc 1 122 1 view .LVU265
 832 0250 0021     		movs	r1, #0
 833              	.LVL98:
 834              		.loc 1 122 1 view .LVU266
 835 0252 03B0     		add	sp, sp, #12
 836              	.LCFI8:
 837              		.cfi_remember_state
 838              		.cfi_def_cfa_offset 36
 839              		@ sp needed
 840 0254 BDE8F08F 		pop	{r4, r5, r6, r7, r8, r9, r10, fp, pc}
 841              	.LVL99:
 842              	.L26:
 843              	.LCFI9:
 844              		.cfi_restore_state
  96:Core/drogui/src/BMP388.c ****   partial_data3 = (partial_data2 * calib_bmp.T_fine) / 256;
 845              		.loc 1 96 17 view .LVU267
ARM GAS  C:\Users\GUILLE~1\AppData\Local\Temp\ccW62srv.s 			page 18


 846 0258 3F33     		adds	r3, r3, #63
 847              	.LVL100:
  96:Core/drogui/src/BMP388.c ****   partial_data3 = (partial_data2 * calib_bmp.T_fine) / 256;
 848              		.loc 1 96 17 view .LVU268
 849 025a 41F10005 		adc	r5, r1, #0
 850 025e E1E6     		b	.L15
 851              	.L27:
  97:Core/drogui/src/BMP388.c ****   partial_data4 = (calib_bmp.P8 * partial_data3) / 32;
 852              		.loc 1 97 17 view .LVU269
 853 0260 FF33     		adds	r3, r3, #255
 854 0262 45F1000C 		adc	ip, r5, #0
 855 0266 ECE6     		b	.L16
 856              	.LVL101:
 857              	.L28:
  98:Core/drogui/src/BMP388.c ****   partial_data5 = (calib_bmp.P7 * partial_data1) * 16;
 858              		.loc 1 98 17 view .LVU270
 859 0268 1F33     		adds	r3, r3, #31
 860 026a 45F1000B 		adc	fp, r5, #0
 861 026e FEE6     		b	.L17
 862              	.LVL102:
 863              	.L29:
 104:Core/drogui/src/BMP388.c ****   partial_data4 = (calib_bmp.P3 * partial_data1) * 4;
 864              		.loc 1 104 17 view .LVU271
 865 0270 1F35     		adds	r5, r5, #31
 866 0272 46F1000E 		adc	lr, r6, #0
 867 0276 38E7     		b	.L18
 868              	.LVL103:
 869              	.L30:
 110:Core/drogui/src/BMP388.c ****   partial_data2 = (int64_t)(calib_bmp.P10) * (int64_t)(calib_bmp.T_fine);
 870              		.loc 1 110 32 view .LVU272
 871 0278 6FF07F41 		mvn	r1, #-16777216
 872              	.LVL104:
 110:Core/drogui/src/BMP388.c ****   partial_data2 = (int64_t)(calib_bmp.P10) * (int64_t)(calib_bmp.T_fine);
 873              		.loc 1 110 32 view .LVU273
 874 027c 6D18     		adds	r5, r5, r1
 875              	.LVL105:
 110:Core/drogui/src/BMP388.c ****   partial_data2 = (int64_t)(calib_bmp.P10) * (int64_t)(calib_bmp.T_fine);
 876              		.loc 1 110 32 view .LVU274
 877 027e 43F10004 		adc	r4, r3, #0
 878 0282 6AE7     		b	.L19
 879              	.LVL106:
 880              	.L31:
 113:Core/drogui/src/BMP388.c ****   partial_data5 = (partial_data4 * u32RegData) / 512;
 881              		.loc 1 113 17 view .LVU275
 882 0284 41F6FF76 		movw	r6, #8191
 883 0288 9B19     		adds	r3, r3, r6
 884 028a 42F10006 		adc	r6, r2, #0
 885 028e 8CE7     		b	.L20
 886              	.LVL107:
 887              	.L32:
 114:Core/drogui/src/BMP388.c ****   partial_data6 = (int64_t)((uint64_t)u32RegData * (uint64_t)u32RegData);
 888              		.loc 1 114 17 view .LVU276
 889 0290 40F2FF12 		movw	r2, #511
 890 0294 9B18     		adds	r3, r3, r2
 891 0296 46F10002 		adc	r2, r6, #0
 892 029a 91E7     		b	.L21
 893              	.LVL108:
ARM GAS  C:\Users\GUILLE~1\AppData\Local\Temp\ccW62srv.s 			page 19


 894              	.L33:
 116:Core/drogui/src/BMP388.c ****   partial_data3 = (partial_data2 * u32RegData) / 128;
 895              		.loc 1 116 17 view .LVU277
 896 029c 4FF6FF7E 		movw	lr, #65535
 897 02a0 13EB0E03 		adds	r3, r3, lr
 898 02a4 4CF1000E 		adc	lr, ip, #0
 899 02a8 A0E7     		b	.L22
 900              	.LVL109:
 901              	.L34:
 117:Core/drogui/src/BMP388.c ****   partial_data4 = (offset / 4) + partial_data1 + partial_data5 + partial_data3;
 902              		.loc 1 117 17 view .LVU278
 903 02aa 7F33     		adds	r3, r3, #127
 904 02ac 40F10004 		adc	r4, r0, #0
 905 02b0 A9E7     		b	.L23
 906              	.LVL110:
 907              	.L35:
 118:Core/drogui/src/BMP388.c ****   comp_press = (((uint64_t)partial_data4 * 25) / (uint64_t)1099511627776);
 908              		.loc 1 118 27 view .LVU279
 909 02b2 19F10309 		adds	r9, r9, #3
 910              	.LVL111:
 118:Core/drogui/src/BMP388.c ****   comp_press = (((uint64_t)partial_data4 * 25) / (uint64_t)1099511627776);
 911              		.loc 1 118 27 view .LVU280
 912 02b6 47F10000 		adc	r0, r7, #0
 913              	.LVL112:
 118:Core/drogui/src/BMP388.c ****   comp_press = (((uint64_t)partial_data4 * 25) / (uint64_t)1099511627776);
 914              		.loc 1 118 27 view .LVU281
 915 02ba ACE7     		b	.L24
 916              	.L37:
 917              		.align	2
 918              	.L36:
 919 02bc 00000000 		.word	.LANCHOR0
 920              		.cfi_endproc
 921              	.LFE180:
 923              		.section	.text.bmpReadTemperature,"ax",%progbits
 924              		.align	1
 925              		.global	bmpReadTemperature
 926              		.syntax unified
 927              		.thumb
 928              		.thumb_func
 929              		.fpu fpv5-sp-d16
 931              	bmpReadTemperature:
 932              	.LVL113:
 933              	.LFB181:
 123:Core/drogui/src/BMP388.c **** 
 124:Core/drogui/src/BMP388.c **** void bmpReadTemperature(bmp388* b){
 934              		.loc 1 124 35 is_stmt 1 view -0
 935              		.cfi_startproc
 936              		@ args = 0, pretend = 0, frame = 8
 937              		@ frame_needed = 0, uses_anonymous_args = 0
 938              		.loc 1 124 35 is_stmt 0 view .LVU283
 939 0000 10B5     		push	{r4, lr}
 940              	.LCFI10:
 941              		.cfi_def_cfa_offset 8
 942              		.cfi_offset 4, -8
 943              		.cfi_offset 14, -4
 944 0002 82B0     		sub	sp, sp, #8
 945              	.LCFI11:
ARM GAS  C:\Users\GUILLE~1\AppData\Local\Temp\ccW62srv.s 			page 20


 946              		.cfi_def_cfa_offset 16
 947 0004 0446     		mov	r4, r0
 125:Core/drogui/src/BMP388.c ****     uint8_t dat[3];
 948              		.loc 1 125 5 is_stmt 1 view .LVU284
 126:Core/drogui/src/BMP388.c ****     I2Cread(BMP388_DEFAULT_ADDRESS, BMP388_REG_DATA_TEMP, 3, dat);
 949              		.loc 1 126 5 view .LVU285
 950 0006 01AB     		add	r3, sp, #4
 951 0008 0322     		movs	r2, #3
 952 000a 0721     		movs	r1, #7
 953 000c 7720     		movs	r0, #119
 954              	.LVL114:
 955              		.loc 1 126 5 is_stmt 0 view .LVU286
 956 000e FFF7FEFF 		bl	I2Cread
 957              	.LVL115:
 127:Core/drogui/src/BMP388.c ****     b -> temp = bmp388CompensateTemp((uint32_t) (dat[2] << 16) | (dat[1]  << 8)  | (dat[0]) );
 958              		.loc 1 127 5 is_stmt 1 view .LVU287
 959              		.loc 1 127 53 is_stmt 0 view .LVU288
 960 0012 9DF80600 		ldrb	r0, [sp, #6]	@ zero_extendqisi2
 961              		.loc 1 127 70 view .LVU289
 962 0016 9DF80530 		ldrb	r3, [sp, #5]	@ zero_extendqisi2
 963              		.loc 1 127 75 view .LVU290
 964 001a 1B02     		lsls	r3, r3, #8
 965              		.loc 1 127 64 view .LVU291
 966 001c 43EA0043 		orr	r3, r3, r0, lsl #16
 967              		.loc 1 127 88 view .LVU292
 968 0020 9DF80400 		ldrb	r0, [sp, #4]	@ zero_extendqisi2
 969              		.loc 1 127 17 view .LVU293
 970 0024 1843     		orrs	r0, r0, r3
 971 0026 FFF7FEFF 		bl	bmp388CompensateTemp
 972              	.LVL116:
 973              		.loc 1 127 15 view .LVU294
 974 002a C4E90601 		strd	r0, [r4, #24]
 128:Core/drogui/src/BMP388.c **** }
 975              		.loc 1 128 1 view .LVU295
 976 002e 02B0     		add	sp, sp, #8
 977              	.LCFI12:
 978              		.cfi_def_cfa_offset 8
 979              		@ sp needed
 980 0030 10BD     		pop	{r4, pc}
 981              		.loc 1 128 1 view .LVU296
 982              		.cfi_endproc
 983              	.LFE181:
 985              		.section	.text.bmpReadPressure,"ax",%progbits
 986              		.align	1
 987              		.global	bmpReadPressure
 988              		.syntax unified
 989              		.thumb
 990              		.thumb_func
 991              		.fpu fpv5-sp-d16
 993              	bmpReadPressure:
 994              	.LVL117:
 995              	.LFB182:
 129:Core/drogui/src/BMP388.c **** 
 130:Core/drogui/src/BMP388.c **** void bmpReadPressure(bmp388* b){
 996              		.loc 1 130 32 is_stmt 1 view -0
 997              		.cfi_startproc
 998              		@ args = 0, pretend = 0, frame = 8
ARM GAS  C:\Users\GUILLE~1\AppData\Local\Temp\ccW62srv.s 			page 21


 999              		@ frame_needed = 0, uses_anonymous_args = 0
 1000              		.loc 1 130 32 is_stmt 0 view .LVU298
 1001 0000 10B5     		push	{r4, lr}
 1002              	.LCFI13:
 1003              		.cfi_def_cfa_offset 8
 1004              		.cfi_offset 4, -8
 1005              		.cfi_offset 14, -4
 1006 0002 82B0     		sub	sp, sp, #8
 1007              	.LCFI14:
 1008              		.cfi_def_cfa_offset 16
 1009 0004 0446     		mov	r4, r0
 131:Core/drogui/src/BMP388.c ****     uint8_t dat[3];
 1010              		.loc 1 131 5 is_stmt 1 view .LVU299
 132:Core/drogui/src/BMP388.c ****     I2Cread(BMP388_DEFAULT_ADDRESS, BMP388_REG_DATA_PRESS, 3, dat);
 1011              		.loc 1 132 5 view .LVU300
 1012 0006 01AB     		add	r3, sp, #4
 1013 0008 0322     		movs	r2, #3
 1014 000a 0421     		movs	r1, #4
 1015 000c 7720     		movs	r0, #119
 1016              	.LVL118:
 1017              		.loc 1 132 5 is_stmt 0 view .LVU301
 1018 000e FFF7FEFF 		bl	I2Cread
 1019              	.LVL119:
 133:Core/drogui/src/BMP388.c ****     b -> press = bmp388CompensatePress( (uint32_t)(dat[2] << 16) | (dat[1]  << 8)  | (dat[0]) );
 1020              		.loc 1 133 5 is_stmt 1 view .LVU302
 1021              		.loc 1 133 55 is_stmt 0 view .LVU303
 1022 0012 9DF80600 		ldrb	r0, [sp, #6]	@ zero_extendqisi2
 1023              		.loc 1 133 72 view .LVU304
 1024 0016 9DF80530 		ldrb	r3, [sp, #5]	@ zero_extendqisi2
 1025              		.loc 1 133 77 view .LVU305
 1026 001a 1B02     		lsls	r3, r3, #8
 1027              		.loc 1 133 66 view .LVU306
 1028 001c 43EA0043 		orr	r3, r3, r0, lsl #16
 1029              		.loc 1 133 90 view .LVU307
 1030 0020 9DF80400 		ldrb	r0, [sp, #4]	@ zero_extendqisi2
 1031              		.loc 1 133 18 view .LVU308
 1032 0024 1843     		orrs	r0, r0, r3
 1033 0026 FFF7FEFF 		bl	bmp388CompensatePress
 1034              	.LVL120:
 1035              		.loc 1 133 16 view .LVU309
 1036 002a C4E90801 		strd	r0, [r4, #32]
 134:Core/drogui/src/BMP388.c **** }
 1037              		.loc 1 134 1 view .LVU310
 1038 002e 02B0     		add	sp, sp, #8
 1039              	.LCFI15:
 1040              		.cfi_def_cfa_offset 8
 1041              		@ sp needed
 1042 0030 10BD     		pop	{r4, pc}
 1043              		.loc 1 134 1 view .LVU311
 1044              		.cfi_endproc
 1045              	.LFE182:
 1047              		.global	__aeabi_l2d
 1048              		.global	__aeabi_ddiv
 1049              		.global	__aeabi_dsub
 1050              		.global	__aeabi_dmul
 1051              		.global	__aeabi_d2f
 1052              		.section	.text.bmp388ReadAltitude,"ax",%progbits
ARM GAS  C:\Users\GUILLE~1\AppData\Local\Temp\ccW62srv.s 			page 22


 1053              		.align	1
 1054              		.global	bmp388ReadAltitude
 1055              		.syntax unified
 1056              		.thumb
 1057              		.thumb_func
 1058              		.fpu fpv5-sp-d16
 1060              	bmp388ReadAltitude:
 1061              	.LVL121:
 1062              	.LFB183:
 135:Core/drogui/src/BMP388.c **** 
 136:Core/drogui/src/BMP388.c **** 
 137:Core/drogui/src/BMP388.c **** void bmp388ReadAltitude(bmp388* b){
 1063              		.loc 1 137 35 is_stmt 1 view -0
 1064              		.cfi_startproc
 1065              		@ args = 0, pretend = 0, frame = 0
 1066              		@ frame_needed = 0, uses_anonymous_args = 0
 1067              		.loc 1 137 35 is_stmt 0 view .LVU313
 1068 0000 D0B5     		push	{r4, r6, r7, lr}
 1069              	.LCFI16:
 1070              		.cfi_def_cfa_offset 16
 1071              		.cfi_offset 4, -16
 1072              		.cfi_offset 6, -12
 1073              		.cfi_offset 7, -8
 1074              		.cfi_offset 14, -4
 1075 0002 0446     		mov	r4, r0
 138:Core/drogui/src/BMP388.c **** 
 139:Core/drogui/src/BMP388.c **** 
 140:Core/drogui/src/BMP388.c ****     if( b -> cont == 0) bmpReadTemperature(b);
 1076              		.loc 1 140 5 is_stmt 1 view .LVU314
 1077              		.loc 1 140 11 is_stmt 0 view .LVU315
 1078 0004 4368     		ldr	r3, [r0, #4]
 1079              		.loc 1 140 7 view .LVU316
 1080 0006 002B     		cmp	r3, #0
 1081 0008 45D0     		beq	.L46
 1082              	.LVL122:
 1083              	.L43:
 141:Core/drogui/src/BMP388.c ****     b -> cont = (b -> cont + 1)%(b -> temp_cont);
 1084              		.loc 1 141 5 is_stmt 1 view .LVU317
 1085              		.loc 1 141 20 is_stmt 0 view .LVU318
 1086 000a 6368     		ldr	r3, [r4, #4]
 1087              		.loc 1 141 28 view .LVU319
 1088 000c 0133     		adds	r3, r3, #1
 1089              		.loc 1 141 36 view .LVU320
 1090 000e 2268     		ldr	r2, [r4]
 1091              		.loc 1 141 32 view .LVU321
 1092 0010 93FBF2F1 		sdiv	r1, r3, r2
 1093 0014 02FB1133 		mls	r3, r2, r1, r3
 1094              		.loc 1 141 15 view .LVU322
 1095 0018 6360     		str	r3, [r4, #4]
 142:Core/drogui/src/BMP388.c **** 
 143:Core/drogui/src/BMP388.c ****     bmpReadPressure(b);
 1096              		.loc 1 143 5 is_stmt 1 view .LVU323
 1097 001a 2046     		mov	r0, r4
 1098 001c FFF7FEFF 		bl	bmpReadPressure
 1099              	.LVL123:
 144:Core/drogui/src/BMP388.c **** 
 145:Core/drogui/src/BMP388.c ****     if( b->seaLevel == 0 ) b->seaLevel = b->press;
ARM GAS  C:\Users\GUILLE~1\AppData\Local\Temp\ccW62srv.s 			page 23


 1100              		.loc 1 145 5 view .LVU324
 1101              		.loc 1 145 10 is_stmt 0 view .LVU325
 1102 0020 A26A     		ldr	r2, [r4, #40]
 1103 0022 E36A     		ldr	r3, [r4, #44]
 1104              		.loc 1 145 7 view .LVU326
 1105 0024 1343     		orrs	r3, r2, r3
 1106 0026 03D1     		bne	.L44
 1107              		.loc 1 145 28 is_stmt 1 discriminator 1 view .LVU327
 1108              		.loc 1 145 43 is_stmt 0 discriminator 1 view .LVU328
 1109 0028 D4E90823 		ldrd	r2, [r4, #32]
 1110              		.loc 1 145 40 discriminator 1 view .LVU329
 1111 002c C4E90A23 		strd	r2, [r4, #40]
 1112              	.L44:
 146:Core/drogui/src/BMP388.c **** 
 147:Core/drogui/src/BMP388.c ****     b -> raw_altitude = 44330.0 * (1.0 -  pow( 1.0*b->press / b->seaLevel,0.1903));
 1113              		.loc 1 147 5 is_stmt 1 view .LVU330
 1114              		.loc 1 147 51 is_stmt 0 view .LVU331
 1115 0030 D4E90801 		ldrd	r0, [r4, #32]
 1116 0034 FFF7FEFF 		bl	__aeabi_l2d
 1117              	.LVL124:
 1118 0038 0646     		mov	r6, r0
 1119 003a 0F46     		mov	r7, r1
 1120              		.loc 1 147 43 view .LVU332
 1121 003c D4E90A01 		ldrd	r0, [r4, #40]
 1122 0040 FFF7FEFF 		bl	__aeabi_l2d
 1123              	.LVL125:
 1124 0044 0246     		mov	r2, r0
 1125 0046 0B46     		mov	r3, r1
 1126 0048 3046     		mov	r0, r6
 1127 004a 3946     		mov	r1, r7
 1128 004c FFF7FEFF 		bl	__aeabi_ddiv
 1129              	.LVL126:
 1130 0050 9FED131B 		vldr.64	d1, .L47
 1131 0054 41EC100B 		vmov	d0, r0, r1
 1132 0058 FFF7FEFF 		bl	pow
 1133              	.LVL127:
 1134 005c 53EC102B 		vmov	r2, r3, d0
 1135              		.loc 1 147 40 view .LVU333
 1136 0060 0020     		movs	r0, #0
 1137 0062 1349     		ldr	r1, .L47+16
 1138 0064 FFF7FEFF 		bl	__aeabi_dsub
 1139              	.LVL128:
 1140              		.loc 1 147 33 view .LVU334
 1141 0068 0FA3     		adr	r3, .L47+8
 1142 006a D3E90023 		ldrd	r2, [r3]
 1143 006e FFF7FEFF 		bl	__aeabi_dmul
 1144              	.LVL129:
 1145 0072 FFF7FEFF 		bl	__aeabi_d2f
 1146              	.LVL130:
 1147 0076 00EE100A 		vmov	s0, r0
 1148              		.loc 1 147 23 view .LVU335
 1149 007a 2061     		str	r0, [r4, #16]	@ float
 148:Core/drogui/src/BMP388.c ****     b -> raw_altitude = computeMvAvgFilter( &(b->f), b->raw_altitude);
 1150              		.loc 1 148 5 is_stmt 1 view .LVU336
 1151              		.loc 1 148 25 is_stmt 0 view .LVU337
 1152 007c 04F13000 		add	r0, r4, #48
 1153 0080 FFF7FEFF 		bl	computeMvAvgFilter
ARM GAS  C:\Users\GUILLE~1\AppData\Local\Temp\ccW62srv.s 			page 24


 1154              	.LVL131:
 1155              		.loc 1 148 23 view .LVU338
 1156 0084 84ED040A 		vstr.32	s0, [r4, #16]
 149:Core/drogui/src/BMP388.c ****     b -> altitude = b -> raw_altitude + b -> alt_offset;
 1157              		.loc 1 149 5 is_stmt 1 view .LVU339
 1158              		.loc 1 149 43 is_stmt 0 view .LVU340
 1159 0088 D4ED027A 		vldr.32	s15, [r4, #8]
 1160              		.loc 1 149 39 view .LVU341
 1161 008c 30EE270A 		vadd.f32	s0, s0, s15
 1162              		.loc 1 149 19 view .LVU342
 1163 0090 84ED030A 		vstr.32	s0, [r4, #12]
 150:Core/drogui/src/BMP388.c **** }
 1164              		.loc 1 150 1 view .LVU343
 1165 0094 D0BD     		pop	{r4, r6, r7, pc}
 1166              	.LVL132:
 1167              	.L46:
 140:Core/drogui/src/BMP388.c ****     b -> cont = (b -> cont + 1)%(b -> temp_cont);
 1168              		.loc 1 140 25 is_stmt 1 discriminator 1 view .LVU344
 1169 0096 FFF7FEFF 		bl	bmpReadTemperature
 1170              	.LVL133:
 140:Core/drogui/src/BMP388.c ****     b -> cont = (b -> cont + 1)%(b -> temp_cont);
 1171              		.loc 1 140 25 is_stmt 0 discriminator 1 view .LVU345
 1172 009a B6E7     		b	.L43
 1173              	.L48:
 1174 009c AFF30080 		.align	3
 1175              	.L47:
 1176 00a0 EBE2361A 		.word	439804651
 1177 00a4 C05BC83F 		.word	1070095296
 1178 00a8 00000000 		.word	0
 1179 00ac 40A5E540 		.word	1088791872
 1180 00b0 0000F03F 		.word	1072693248
 1181              		.cfi_endproc
 1182              	.LFE183:
 1184              		.section	.text.updateBmp388Offset,"ax",%progbits
 1185              		.align	1
 1186              		.global	updateBmp388Offset
 1187              		.syntax unified
 1188              		.thumb
 1189              		.thumb_func
 1190              		.fpu fpv5-sp-d16
 1192              	updateBmp388Offset:
 1193              	.LVL134:
 1194              	.LFB184:
 151:Core/drogui/src/BMP388.c **** 
 152:Core/drogui/src/BMP388.c **** void updateBmp388Offset(bmp388 * b){    
 1195              		.loc 1 152 36 is_stmt 1 view -0
 1196              		.cfi_startproc
 1197              		@ args = 0, pretend = 0, frame = 0
 1198              		@ frame_needed = 0, uses_anonymous_args = 0
 1199              		@ link register save eliminated.
 153:Core/drogui/src/BMP388.c ****     b -> alt_offset = - b -> raw_altitude;
 1200              		.loc 1 153 5 view .LVU347
 1201              		.loc 1 153 27 is_stmt 0 view .LVU348
 1202 0000 D0ED047A 		vldr.32	s15, [r0, #16]
 1203              		.loc 1 153 23 view .LVU349
 1204 0004 F1EE677A 		vneg.f32	s15, s15
 1205              		.loc 1 153 21 view .LVU350
ARM GAS  C:\Users\GUILLE~1\AppData\Local\Temp\ccW62srv.s 			page 25


 1206 0008 C0ED027A 		vstr.32	s15, [r0, #8]
 154:Core/drogui/src/BMP388.c **** }
 1207              		.loc 1 154 1 view .LVU351
 1208 000c 7047     		bx	lr
 1209              		.cfi_endproc
 1210              	.LFE184:
 1212              		.global	calib_bmp
 1213              		.global	buffs
 1214              		.section	.bss.buffs,"aw",%nobits
 1215              		.align	2
 1218              	buffs:
 1219 0000 00000000 		.space	100
 1219      00000000 
 1219      00000000 
 1219      00000000 
 1219      00000000 
 1220              		.section	.bss.calib_bmp,"aw",%nobits
 1221              		.align	3
 1222              		.set	.LANCHOR0,. + 0
 1225              	calib_bmp:
 1226 0000 00000000 		.space	32
 1226      00000000 
 1226      00000000 
 1226      00000000 
 1226      00000000 
 1227              		.text
 1228              	.Letext0:
 1229              		.file 2 "c:\\program files (x86)\\gnu arm embedded toolchain\\10 2020-q4-major\\arm-none-eabi\\inc
 1230              		.file 3 "c:\\program files (x86)\\gnu arm embedded toolchain\\10 2020-q4-major\\arm-none-eabi\\inc
 1231              		.file 4 "Core/drogui/include/filter.h"
 1232              		.file 5 "Core/drogui/include/BMP388.h"
 1233              		.file 6 "Core/drogui/include/utils.h"
 1234              		.file 7 "Drivers/STM32F7xx_HAL_Driver/Inc/stm32f7xx_hal.h"
 1235              		.file 8 "c:\\program files (x86)\\gnu arm embedded toolchain\\10 2020-q4-major\\arm-none-eabi\\inc
ARM GAS  C:\Users\GUILLE~1\AppData\Local\Temp\ccW62srv.s 			page 26

