ARM GAS  C:\Users\GUILLE~1\AppData\Local\Temp\cc6N2eIu.s 			page 1


   1              		.cpu cortex-m7
   2              		.eabi_attribute 27, 1
   3              		.eabi_attribute 28, 1
   4              		.eabi_attribute 20, 1
   5              		.eabi_attribute 21, 1
   6              		.eabi_attribute 23, 3
   7              		.eabi_attribute 24, 1
   8              		.eabi_attribute 25, 1
   9              		.eabi_attribute 26, 1
  10              		.eabi_attribute 30, 1
  11              		.eabi_attribute 34, 1
  12              		.eabi_attribute 18, 4
  13              		.file	"controlTasks.c"
  14              		.text
  15              	.Ltext0:
  16              		.cfi_sections	.debug_frame
  17              		.section	.text.rpyControlTask,"ax",%progbits
  18              		.align	1
  19              		.global	rpyControlTask
  20              		.arch armv7e-m
  21              		.syntax unified
  22              		.thumb
  23              		.thumb_func
  24              		.fpu fpv5-sp-d16
  26              	rpyControlTask:
  27              	.LFB177:
  28              		.file 1 "Core/drogui/src/controlTasks.c"
   1:Core/drogui/src/controlTasks.c **** #include "controlTasks.h"
   2:Core/drogui/src/controlTasks.c **** #include "filter.h"
   3:Core/drogui/src/controlTasks.c **** #include "task.h"
   4:Core/drogui/src/controlTasks.c **** #include "scurve.h"
   5:Core/drogui/src/controlTasks.c **** #include "pwm.h"
   6:Core/drogui/src/controlTasks.c **** #include "serial.h"
   7:Core/drogui/src/controlTasks.c **** 
   8:Core/drogui/src/controlTasks.c **** 
   9:Core/drogui/src/controlTasks.c **** pwm m1, m2, m3, m4;
  10:Core/drogui/src/controlTasks.c **** pid roll2w, pitch2w, yaw2w; 
  11:Core/drogui/src/controlTasks.c **** pid wroll_control, wpitch_control, wyaw_control;
  12:Core/drogui/src/controlTasks.c **** pid z_control, x_control, y_control;
  13:Core/drogui/src/controlTasks.c **** 
  14:Core/drogui/src/controlTasks.c **** filter filter_wroll, filter_wpitch, filter_wyaw;
  15:Core/drogui/src/controlTasks.c **** filter filter_R, filter_P, filter_Y, filter_H;
  16:Core/drogui/src/controlTasks.c **** 
  17:Core/drogui/src/controlTasks.c **** scurve z_sp, x_sp, y_sp, roll_sp, pitch_sp, yaw_sp, H_sp;
  18:Core/drogui/src/controlTasks.c **** 
  19:Core/drogui/src/controlTasks.c **** float  H, H_comp, R, P, Y, H_ref, X_C, Y_C, ANG_MAX = 3*PI/180.0;
  20:Core/drogui/src/controlTasks.c **** float M1,M2,M3,M4;
  21:Core/drogui/src/controlTasks.c **** 
  22:Core/drogui/src/controlTasks.c **** float wroll_ref, wpitch_ref, wyaw_ref;
  23:Core/drogui/src/controlTasks.c **** float roll_ref, pitch_ref, yaw_ref;
  24:Core/drogui/src/controlTasks.c **** float x_ref = 0, y_ref = 0, z_ref = 0;
  25:Core/drogui/src/controlTasks.c **** float Ixx = 0, Iyy = 0;
  26:Core/drogui/src/controlTasks.c **** //float aux_wref, aux_wref2;
  27:Core/drogui/src/controlTasks.c **** 
  28:Core/drogui/src/controlTasks.c **** void saturateM(float H){
  29:Core/drogui/src/controlTasks.c ****     float f_max = 1;
  30:Core/drogui/src/controlTasks.c ****     /*
ARM GAS  C:\Users\GUILLE~1\AppData\Local\Temp\cc6N2eIu.s 			page 2


  31:Core/drogui/src/controlTasks.c ****     float arr_M[] = {M1, M2, M3, M4};
  32:Core/drogui/src/controlTasks.c ****     for(int i = 0; i < 4 ; i++){
  33:Core/drogui/src/controlTasks.c ****         float delta = fmax(fmax(arr_M[i] + H - 10000, -arr_M[i]-H), 0);
  34:Core/drogui/src/controlTasks.c ****         f_max = fmax(f_max, fabs(arr_M[i] / (fabs(arr_M[i]) - delta + 0.0000001)) );
  35:Core/drogui/src/controlTasks.c ****     }*/
  36:Core/drogui/src/controlTasks.c **** 
  37:Core/drogui/src/controlTasks.c ****     M1 = sqrt(M1 / f_max + H);
  38:Core/drogui/src/controlTasks.c ****     M2 = sqrt(M2 / f_max + H);
  39:Core/drogui/src/controlTasks.c ****     M3 = sqrt(M3 / f_max + H);
  40:Core/drogui/src/controlTasks.c ****     M4 = sqrt(M4 / f_max + H);
  41:Core/drogui/src/controlTasks.c **** }
  42:Core/drogui/src/controlTasks.c **** 
  43:Core/drogui/src/controlTasks.c **** 
  44:Core/drogui/src/controlTasks.c **** void updatePID(){
  45:Core/drogui/src/controlTasks.c ****     int index = getReg(PID_INDEX), var = getReg(PID_VAR);
  46:Core/drogui/src/controlTasks.c **** 
  47:Core/drogui/src/controlTasks.c ****     switch(var){
  48:Core/drogui/src/controlTasks.c **** 
  49:Core/drogui/src/controlTasks.c ****         case PID_ROLL:
  50:Core/drogui/src/controlTasks.c ****             if(index == 0)
  51:Core/drogui/src/controlTasks.c ****                 roll2w.kp[0] = getReg(ROLL_KP),  roll2w.ki[0] = getReg(ROLL_KI),  roll2w.kd[0] = ge
  52:Core/drogui/src/controlTasks.c ****             else if(index == 1)
  53:Core/drogui/src/controlTasks.c ****                 wroll_control.kp[0] = getReg(ROLL_KP),  wroll_control.ki[0] = getReg(ROLL_KI),  wro
  54:Core/drogui/src/controlTasks.c **** 
  55:Core/drogui/src/controlTasks.c ****         break;
  56:Core/drogui/src/controlTasks.c ****         
  57:Core/drogui/src/controlTasks.c ****         case PID_PITCH:
  58:Core/drogui/src/controlTasks.c ****             if(index == 0)
  59:Core/drogui/src/controlTasks.c ****                 pitch2w.kp[0] = getReg(PITCH_KP),  pitch2w.ki[0] = getReg(PITCH_KI),  pitch2w.kd[0]
  60:Core/drogui/src/controlTasks.c ****             else if(index == 1)
  61:Core/drogui/src/controlTasks.c ****                 wpitch_control.kp[0] = getReg(PITCH_KP),  wpitch_control.ki[0] = getReg(PITCH_KI), 
  62:Core/drogui/src/controlTasks.c **** 
  63:Core/drogui/src/controlTasks.c ****         break;
  64:Core/drogui/src/controlTasks.c **** 
  65:Core/drogui/src/controlTasks.c ****         case PID_YAW:
  66:Core/drogui/src/controlTasks.c ****             if(index == 0)
  67:Core/drogui/src/controlTasks.c ****                 yaw2w.kp[0] = getReg(YAW_KP),  yaw2w.ki[0] = getReg(YAW_KI),  yaw2w.kd[0] = getReg(
  68:Core/drogui/src/controlTasks.c ****             else if(index == 1)
  69:Core/drogui/src/controlTasks.c ****                 wyaw_control.kp[0] = getReg(YAW_KP),  wyaw_control.ki[0] = getReg(YAW_KI),  wyaw_co
  70:Core/drogui/src/controlTasks.c **** 
  71:Core/drogui/src/controlTasks.c ****         break;
  72:Core/drogui/src/controlTasks.c **** 
  73:Core/drogui/src/controlTasks.c ****         case PID_X:
  74:Core/drogui/src/controlTasks.c ****             x_control.kp[0] = getReg(X_KP);
  75:Core/drogui/src/controlTasks.c ****             x_control.ki[0] = getReg(X_KI);
  76:Core/drogui/src/controlTasks.c ****             x_control.kd[0] = getReg(X_KD);
  77:Core/drogui/src/controlTasks.c ****         break;
  78:Core/drogui/src/controlTasks.c **** 
  79:Core/drogui/src/controlTasks.c ****         case PID_Y:
  80:Core/drogui/src/controlTasks.c ****             y_control.kp[0] = getReg(Y_KP);
  81:Core/drogui/src/controlTasks.c ****             y_control.ki[0] = getReg(Y_KI);
  82:Core/drogui/src/controlTasks.c ****             y_control.kd[0] = getReg(Y_KD);
  83:Core/drogui/src/controlTasks.c ****         break;
  84:Core/drogui/src/controlTasks.c **** 
  85:Core/drogui/src/controlTasks.c ****         case PID_Z:
  86:Core/drogui/src/controlTasks.c ****             z_control.kp[0] = getReg(Z_KP);
  87:Core/drogui/src/controlTasks.c ****             z_control.ki[0] = getReg(Z_KI);
ARM GAS  C:\Users\GUILLE~1\AppData\Local\Temp\cc6N2eIu.s 			page 3


  88:Core/drogui/src/controlTasks.c ****             z_control.kd[0] = getReg(Z_KD);
  89:Core/drogui/src/controlTasks.c ****         break;
  90:Core/drogui/src/controlTasks.c **** 
  91:Core/drogui/src/controlTasks.c ****     
  92:Core/drogui/src/controlTasks.c ****     }
  93:Core/drogui/src/controlTasks.c ****     roll2w.N_filt = pitch2w.N_filt = yaw2w.N_filt = wroll_control.N_filt = wpitch_control.N_filt = 
  94:Core/drogui/src/controlTasks.c **** }
  95:Core/drogui/src/controlTasks.c **** 
  96:Core/drogui/src/controlTasks.c **** 
  97:Core/drogui/src/controlTasks.c **** void wControlTask(){ 
  98:Core/drogui/src/controlTasks.c ****     
  99:Core/drogui/src/controlTasks.c ****     if(state == DESCEND || state == CONTROL_LOOP){
 100:Core/drogui/src/controlTasks.c ****         float wroll_err  = wroll_ref - gx;
 101:Core/drogui/src/controlTasks.c ****         float wpitch_err = wpitch_ref - gy;
 102:Core/drogui/src/controlTasks.c ****         float wyaw_err   = wyaw_ref - gz;
 103:Core/drogui/src/controlTasks.c ****         
 104:Core/drogui/src/controlTasks.c ****         R = computePid(&wroll_control, wroll_err, TIME, 0);
 105:Core/drogui/src/controlTasks.c ****         P = computePid(&wpitch_control, wpitch_err, TIME, 0);
 106:Core/drogui/src/controlTasks.c ****         Y = computePid(&wyaw_control, wyaw_err, TIME, 0);
 107:Core/drogui/src/controlTasks.c **** 
 108:Core/drogui/src/controlTasks.c ****         M1 = + R  - P - Y;
 109:Core/drogui/src/controlTasks.c ****         M2 = - R  - P + Y;
 110:Core/drogui/src/controlTasks.c ****         M3 = - R  + P - Y;
 111:Core/drogui/src/controlTasks.c ****         M4 = + R  + P + Y;
 112:Core/drogui/src/controlTasks.c **** 
 113:Core/drogui/src/controlTasks.c ****         saturateM(H_comp*100);
 114:Core/drogui/src/controlTasks.c ****     }
 115:Core/drogui/src/controlTasks.c **** 
 116:Core/drogui/src/controlTasks.c ****     
 117:Core/drogui/src/controlTasks.c **** 
 118:Core/drogui/src/controlTasks.c ****     if(state == SEC_STOP){
 119:Core/drogui/src/controlTasks.c ****         M1 = M2 = M3 = M4 = 0;
 120:Core/drogui/src/controlTasks.c ****     }
 121:Core/drogui/src/controlTasks.c **** 
 122:Core/drogui/src/controlTasks.c ****     if(state == ARM_MOTORS){
 123:Core/drogui/src/controlTasks.c ****         M1 = M2 = M3 = M4 = 30;
 124:Core/drogui/src/controlTasks.c ****         resetPid(&wroll_control, TIME);
 125:Core/drogui/src/controlTasks.c ****         resetPid(&wpitch_control, TIME);
 126:Core/drogui/src/controlTasks.c ****         resetPid(&wyaw_control, TIME);
 127:Core/drogui/src/controlTasks.c ****     }
 128:Core/drogui/src/controlTasks.c **** 
 129:Core/drogui/src/controlTasks.c ****     setPwm(&m1, fmin(fmax(M1,0), 100));
 130:Core/drogui/src/controlTasks.c ****     setPwm(&m2, fmin(fmax(M2,0), 100));
 131:Core/drogui/src/controlTasks.c ****     setPwm(&m3, fmin(fmax(M3,0), 100));
 132:Core/drogui/src/controlTasks.c ****     setPwm(&m4, fmin(fmax(M4,0), 100));
 133:Core/drogui/src/controlTasks.c ****     
 134:Core/drogui/src/controlTasks.c ****     setReg(DER_GYRO_X, wroll_control.errd);
 135:Core/drogui/src/controlTasks.c ****     setReg(DER_GYRO_Y, wpitch_control.errd);
 136:Core/drogui/src/controlTasks.c **** 
 137:Core/drogui/src/controlTasks.c ****     setReg(ROLL_U, R);
 138:Core/drogui/src/controlTasks.c ****     setReg(PITCH_U, P);
 139:Core/drogui/src/controlTasks.c ****     setReg(YAW_U, Y);
 140:Core/drogui/src/controlTasks.c ****     setReg(Z_U, H_comp);
 141:Core/drogui/src/controlTasks.c ****     
 142:Core/drogui/src/controlTasks.c ****     setReg(MOTOR_1, M1);
 143:Core/drogui/src/controlTasks.c ****     setReg(MOTOR_2, M2);
 144:Core/drogui/src/controlTasks.c ****     setReg(MOTOR_3, M3);
ARM GAS  C:\Users\GUILLE~1\AppData\Local\Temp\cc6N2eIu.s 			page 4


 145:Core/drogui/src/controlTasks.c ****     setReg(MOTOR_4, M4);
 146:Core/drogui/src/controlTasks.c **** 
 147:Core/drogui/src/controlTasks.c **** }
 148:Core/drogui/src/controlTasks.c **** 
 149:Core/drogui/src/controlTasks.c **** void rpyControlTask(){
  29              		.loc 1 149 22 view -0
  30              		.cfi_startproc
  31              		@ args = 0, pretend = 0, frame = 0
  32              		@ frame_needed = 0, uses_anonymous_args = 0
  33 0000 38B5     		push	{r3, r4, r5, lr}
  34              	.LCFI0:
  35              		.cfi_def_cfa_offset 16
  36              		.cfi_offset 3, -16
  37              		.cfi_offset 4, -12
  38              		.cfi_offset 5, -8
  39              		.cfi_offset 14, -4
  40 0002 2DED028B 		vpush.64	{d8}
  41              	.LCFI1:
  42              		.cfi_def_cfa_offset 24
  43              		.cfi_offset 80, -24
  44              		.cfi_offset 81, -20
 150:Core/drogui/src/controlTasks.c ****     if(state == CONTROL_LOOP || state == DESCEND){
  45              		.loc 1 150 5 view .LVU1
  46              		.loc 1 150 30 is_stmt 0 view .LVU2
  47 0006 984B     		ldr	r3, .L18
  48 0008 1B68     		ldr	r3, [r3]
  49              		.loc 1 150 7 view .LVU3
  50 000a 002B     		cmp	r3, #0
  51 000c 18BF     		it	ne
  52 000e 042B     		cmpne	r3, #4
  53 0010 42D0     		beq	.L13
  54              	.L2:
 151:Core/drogui/src/controlTasks.c ****         if(getReg(START_XYC) > 0){
 152:Core/drogui/src/controlTasks.c ****                 
 153:Core/drogui/src/controlTasks.c ****                 /*roll_ref = -Y_C*cos(raw_yaw) - X_C*sin(raw_yaw);
 154:Core/drogui/src/controlTasks.c ****                 pitch_ref = -Y_C*sin(raw_yaw) + X_C*cos(raw_yaw);
 155:Core/drogui/src/controlTasks.c **** 
 156:Core/drogui/src/controlTasks.c ****                 float rel = roll_ref/(pitch_ref + EPS);
 157:Core/drogui/src/controlTasks.c ****                 
 158:Core/drogui/src/controlTasks.c ****                 if( fabs(rel) < 1  &&  fabs(pitch_ref) >= ANG_MAX  ){
 159:Core/drogui/src/controlTasks.c ****                     pitch_ref = copysign(ANG_MAX, pitch_ref);
 160:Core/drogui/src/controlTasks.c ****                     roll_ref = pitch_ref * rel;
 161:Core/drogui/src/controlTasks.c ****                 }
 162:Core/drogui/src/controlTasks.c ****                 else if (fabs(rel) >= 1 && fabs(roll_ref) >= ANG_MAX  ){
 163:Core/drogui/src/controlTasks.c ****                     roll_ref = copysign(ANG_MAX, roll_ref);
 164:Core/drogui/src/controlTasks.c ****                     pitch_ref = roll_ref/rel;
 165:Core/drogui/src/controlTasks.c ****                 }
 166:Core/drogui/src/controlTasks.c ****                 */
 167:Core/drogui/src/controlTasks.c ****                 roll_ref = -Y_C;
 168:Core/drogui/src/controlTasks.c ****                 pitch_ref = X_C;
 169:Core/drogui/src/controlTasks.c ****         }
 170:Core/drogui/src/controlTasks.c ****         else{
 171:Core/drogui/src/controlTasks.c **** 
 172:Core/drogui/src/controlTasks.c ****             if(getReg(ROLL_REF) != roll_sp.fin) 
 173:Core/drogui/src/controlTasks.c ****                 setTrayectory(&roll_sp, roll_sp.fin, getReg(ROLL_REF), getReg(ROLL_PERIOD), TIME);
 174:Core/drogui/src/controlTasks.c ****             roll_ref =  getSetpoint(&roll_sp, TIME);
 175:Core/drogui/src/controlTasks.c **** 
ARM GAS  C:\Users\GUILLE~1\AppData\Local\Temp\cc6N2eIu.s 			page 5


 176:Core/drogui/src/controlTasks.c ****             if(getReg(PITCH_REF) != pitch_sp.fin) 
 177:Core/drogui/src/controlTasks.c ****                 setTrayectory(&pitch_sp, pitch_sp.fin, getReg(PITCH_REF), getReg(PITCH_PERIOD), TIM
 178:Core/drogui/src/controlTasks.c ****             pitch_ref =  getSetpoint(&pitch_sp, TIME);
 179:Core/drogui/src/controlTasks.c ****             
 180:Core/drogui/src/controlTasks.c ****         }
 181:Core/drogui/src/controlTasks.c ****         yaw_ref = getReg(YAW_REF);
 182:Core/drogui/src/controlTasks.c **** 
 183:Core/drogui/src/controlTasks.c ****         wroll_ref = computePid(&roll2w, angle_dif(roll_ref, roll), TIME, 0);
 184:Core/drogui/src/controlTasks.c ****         wpitch_ref = computePid(&pitch2w, angle_dif(pitch_ref, pitch),TIME, 0);
 185:Core/drogui/src/controlTasks.c ****         wyaw_ref = computePid(&yaw2w, angle_dif(yaw_ref, yaw),TIME, 0);
 186:Core/drogui/src/controlTasks.c ****     }
 187:Core/drogui/src/controlTasks.c ****     
 188:Core/drogui/src/controlTasks.c ****     if(state == SEC_STOP){
  55              		.loc 1 188 5 is_stmt 1 view .LVU4
  56              		.loc 1 188 14 is_stmt 0 view .LVU5
  57 0012 954B     		ldr	r3, .L18
  58 0014 1B68     		ldr	r3, [r3]
  59              		.loc 1 188 7 view .LVU6
  60 0016 012B     		cmp	r3, #1
  61 0018 00F0E480 		beq	.L14
  62              	.L8:
 189:Core/drogui/src/controlTasks.c ****         setTrayectory(&roll_sp, 0, 0, 1, TIME);
 190:Core/drogui/src/controlTasks.c ****         setTrayectory(&pitch_sp, 0, 0, 1, TIME);
 191:Core/drogui/src/controlTasks.c ****         setReg(ROLL_REF, 0), setReg(PITCH_REF, 0), setReg(YAW_REF, 0);
 192:Core/drogui/src/controlTasks.c ****     }
 193:Core/drogui/src/controlTasks.c **** 
 194:Core/drogui/src/controlTasks.c ****     if(state == ARM_MOTORS){
  63              		.loc 1 194 5 is_stmt 1 view .LVU7
  64              		.loc 1 194 14 is_stmt 0 view .LVU8
  65 001c 924B     		ldr	r3, .L18
  66 001e 1B68     		ldr	r3, [r3]
  67              		.loc 1 194 7 view .LVU9
  68 0020 032B     		cmp	r3, #3
  69 0022 00F00881 		beq	.L15
  70              	.L9:
 195:Core/drogui/src/controlTasks.c ****         wroll_ref = wpitch_ref = wyaw_ref = 0;
 196:Core/drogui/src/controlTasks.c ****         resetPid(&roll2w, TIME);
 197:Core/drogui/src/controlTasks.c ****         resetPid(&pitch2w, TIME);
 198:Core/drogui/src/controlTasks.c ****         resetPid(&yaw2w, TIME);
 199:Core/drogui/src/controlTasks.c ****     }
 200:Core/drogui/src/controlTasks.c ****     
 201:Core/drogui/src/controlTasks.c ****     setReg(DER_ROLL,roll2w.errd); 
  71              		.loc 1 201 5 is_stmt 1 view .LVU10
  72 0026 914B     		ldr	r3, .L18+4
  73 0028 93ED170A 		vldr.32	s0, [r3, #92]
  74 002c C020     		movs	r0, #192
  75 002e FFF7FEFF 		bl	setReg
  76              	.LVL0:
 202:Core/drogui/src/controlTasks.c ****     setReg(DER_PITCH,pitch2w.errd); 
  77              		.loc 1 202 5 view .LVU11
  78 0032 8F4B     		ldr	r3, .L18+8
  79 0034 93ED170A 		vldr.32	s0, [r3, #92]
  80 0038 C220     		movs	r0, #194
  81 003a FFF7FEFF 		bl	setReg
  82              	.LVL1:
 203:Core/drogui/src/controlTasks.c ****     setReg(DER_YAW,yaw2w.errd); 
  83              		.loc 1 203 5 view .LVU12
ARM GAS  C:\Users\GUILLE~1\AppData\Local\Temp\cc6N2eIu.s 			page 6


  84 003e 8D4B     		ldr	r3, .L18+12
  85 0040 93ED170A 		vldr.32	s0, [r3, #92]
  86 0044 C420     		movs	r0, #196
  87 0046 FFF7FEFF 		bl	setReg
  88              	.LVL2:
 204:Core/drogui/src/controlTasks.c **** 
 205:Core/drogui/src/controlTasks.c ****     setReg(GYRO_X_REF,wroll_ref);
  89              		.loc 1 205 5 view .LVU13
  90 004a 8B4B     		ldr	r3, .L18+16
  91 004c 93ED000A 		vldr.32	s0, [r3]
  92 0050 A220     		movs	r0, #162
  93 0052 FFF7FEFF 		bl	setReg
  94              	.LVL3:
 206:Core/drogui/src/controlTasks.c ****     setReg(GYRO_Y_REF,wpitch_ref);
  95              		.loc 1 206 5 view .LVU14
  96 0056 894B     		ldr	r3, .L18+20
  97 0058 93ED000A 		vldr.32	s0, [r3]
  98 005c A420     		movs	r0, #164
  99 005e FFF7FEFF 		bl	setReg
 100              	.LVL4:
 207:Core/drogui/src/controlTasks.c ****     setReg(GYRO_Z_REF,wyaw_ref);
 101              		.loc 1 207 5 view .LVU15
 102 0062 874B     		ldr	r3, .L18+24
 103 0064 93ED000A 		vldr.32	s0, [r3]
 104 0068 A620     		movs	r0, #166
 105 006a FFF7FEFF 		bl	setReg
 106              	.LVL5:
 208:Core/drogui/src/controlTasks.c ****     
 209:Core/drogui/src/controlTasks.c ****     setReg(ROLL_SCURVE, roll_ref);
 107              		.loc 1 209 5 view .LVU16
 108 006e 854B     		ldr	r3, .L18+28
 109 0070 93ED000A 		vldr.32	s0, [r3]
 110 0074 9620     		movs	r0, #150
 111 0076 FFF7FEFF 		bl	setReg
 112              	.LVL6:
 210:Core/drogui/src/controlTasks.c ****     setReg(PITCH_SCURVE, pitch_ref);
 113              		.loc 1 210 5 view .LVU17
 114 007a 834B     		ldr	r3, .L18+32
 115 007c 93ED000A 		vldr.32	s0, [r3]
 116 0080 9820     		movs	r0, #152
 117 0082 FFF7FEFF 		bl	setReg
 118              	.LVL7:
 211:Core/drogui/src/controlTasks.c ****     setReg(YAW_SCURVE, yaw_ref);
 119              		.loc 1 211 5 view .LVU18
 120 0086 814B     		ldr	r3, .L18+36
 121 0088 93ED000A 		vldr.32	s0, [r3]
 122 008c 9A20     		movs	r0, #154
 123 008e FFF7FEFF 		bl	setReg
 124              	.LVL8:
 212:Core/drogui/src/controlTasks.c **** }
 125              		.loc 1 212 1 is_stmt 0 view .LVU19
 126 0092 BDEC028B 		vldm	sp!, {d8}
 127              	.LCFI2:
 128              		.cfi_remember_state
 129              		.cfi_restore 80
 130              		.cfi_restore 81
 131              		.cfi_def_cfa_offset 16
ARM GAS  C:\Users\GUILLE~1\AppData\Local\Temp\cc6N2eIu.s 			page 7


 132 0096 38BD     		pop	{r3, r4, r5, pc}
 133              	.L13:
 134              	.LCFI3:
 135              		.cfi_restore_state
 151:Core/drogui/src/controlTasks.c ****                 
 136              		.loc 1 151 9 is_stmt 1 view .LVU20
 151:Core/drogui/src/controlTasks.c ****                 
 137              		.loc 1 151 12 is_stmt 0 view .LVU21
 138 0098 5A20     		movs	r0, #90
 139 009a FFF7FEFF 		bl	getReg
 140              	.LVL9:
 151:Core/drogui/src/controlTasks.c ****                 
 141              		.loc 1 151 11 view .LVU22
 142 009e B5EEC00A 		vcmpe.f32	s0, #0
 143 00a2 F1EE10FA 		vmrs	APSR_nzcv, FPSCR
 144 00a6 4ADD     		ble	.L11
 167:Core/drogui/src/controlTasks.c ****                 pitch_ref = X_C;
 145              		.loc 1 167 17 is_stmt 1 view .LVU23
 167:Core/drogui/src/controlTasks.c ****                 pitch_ref = X_C;
 146              		.loc 1 167 28 is_stmt 0 view .LVU24
 147 00a8 794B     		ldr	r3, .L18+40
 148 00aa D3ED007A 		vldr.32	s15, [r3]
 149 00ae F1EE677A 		vneg.f32	s15, s15
 167:Core/drogui/src/controlTasks.c ****                 pitch_ref = X_C;
 150              		.loc 1 167 26 view .LVU25
 151 00b2 744B     		ldr	r3, .L18+28
 152 00b4 C3ED007A 		vstr.32	s15, [r3]
 168:Core/drogui/src/controlTasks.c ****         }
 153              		.loc 1 168 17 is_stmt 1 view .LVU26
 168:Core/drogui/src/controlTasks.c ****         }
 154              		.loc 1 168 27 is_stmt 0 view .LVU27
 155 00b8 764B     		ldr	r3, .L18+44
 156 00ba 1A68     		ldr	r2, [r3]	@ float
 157 00bc 724B     		ldr	r3, .L18+32
 158 00be 1A60     		str	r2, [r3]	@ float
 159              	.L5:
 181:Core/drogui/src/controlTasks.c **** 
 160              		.loc 1 181 9 is_stmt 1 view .LVU28
 181:Core/drogui/src/controlTasks.c **** 
 161              		.loc 1 181 19 is_stmt 0 view .LVU29
 162 00c0 7620     		movs	r0, #118
 163 00c2 FFF7FEFF 		bl	getReg
 164              	.LVL10:
 181:Core/drogui/src/controlTasks.c **** 
 165              		.loc 1 181 17 view .LVU30
 166 00c6 714D     		ldr	r5, .L18+36
 167 00c8 85ED000A 		vstr.32	s0, [r5]
 183:Core/drogui/src/controlTasks.c ****         wpitch_ref = computePid(&pitch2w, angle_dif(pitch_ref, pitch),TIME, 0);
 168              		.loc 1 183 9 is_stmt 1 view .LVU31
 183:Core/drogui/src/controlTasks.c ****         wpitch_ref = computePid(&pitch2w, angle_dif(pitch_ref, pitch),TIME, 0);
 169              		.loc 1 183 21 is_stmt 0 view .LVU32
 170 00cc 724B     		ldr	r3, .L18+48
 171 00ce D3ED000A 		vldr.32	s1, [r3]
 172 00d2 6C4B     		ldr	r3, .L18+28
 173 00d4 93ED000A 		vldr.32	s0, [r3]
 174 00d8 FFF7FEFF 		bl	angle_dif
 175              	.LVL11:
ARM GAS  C:\Users\GUILLE~1\AppData\Local\Temp\cc6N2eIu.s 			page 8


 183:Core/drogui/src/controlTasks.c ****         wpitch_ref = computePid(&pitch2w, angle_dif(pitch_ref, pitch),TIME, 0);
 176              		.loc 1 183 68 view .LVU33
 177 00dc 6F4C     		ldr	r4, .L18+52
 178 00de 2368     		ldr	r3, [r4]
 179 00e0 596A     		ldr	r1, [r3, #36]
 183:Core/drogui/src/controlTasks.c ****         wpitch_ref = computePid(&pitch2w, angle_dif(pitch_ref, pitch),TIME, 0);
 180              		.loc 1 183 21 view .LVU34
 181 00e2 9FED6F8A 		vldr.32	s16, .L18+56
 182 00e6 F0EE480A 		vmov.f32	s1, s16
 183 00ea 6048     		ldr	r0, .L18+4
 184 00ec FFF7FEFF 		bl	computePid
 185              	.LVL12:
 183:Core/drogui/src/controlTasks.c ****         wpitch_ref = computePid(&pitch2w, angle_dif(pitch_ref, pitch),TIME, 0);
 186              		.loc 1 183 19 view .LVU35
 187 00f0 614B     		ldr	r3, .L18+16
 188 00f2 83ED000A 		vstr.32	s0, [r3]
 184:Core/drogui/src/controlTasks.c ****         wyaw_ref = computePid(&yaw2w, angle_dif(yaw_ref, yaw),TIME, 0);
 189              		.loc 1 184 9 is_stmt 1 view .LVU36
 184:Core/drogui/src/controlTasks.c ****         wyaw_ref = computePid(&yaw2w, angle_dif(yaw_ref, yaw),TIME, 0);
 190              		.loc 1 184 22 is_stmt 0 view .LVU37
 191 00f6 6B4B     		ldr	r3, .L18+60
 192 00f8 D3ED000A 		vldr.32	s1, [r3]
 193 00fc 624B     		ldr	r3, .L18+32
 194 00fe 93ED000A 		vldr.32	s0, [r3]
 195 0102 FFF7FEFF 		bl	angle_dif
 196              	.LVL13:
 184:Core/drogui/src/controlTasks.c ****         wyaw_ref = computePid(&yaw2w, angle_dif(yaw_ref, yaw),TIME, 0);
 197              		.loc 1 184 71 view .LVU38
 198 0106 2368     		ldr	r3, [r4]
 199 0108 596A     		ldr	r1, [r3, #36]
 184:Core/drogui/src/controlTasks.c ****         wyaw_ref = computePid(&yaw2w, angle_dif(yaw_ref, yaw),TIME, 0);
 200              		.loc 1 184 22 view .LVU39
 201 010a F0EE480A 		vmov.f32	s1, s16
 202 010e 5848     		ldr	r0, .L18+8
 203 0110 FFF7FEFF 		bl	computePid
 204              	.LVL14:
 184:Core/drogui/src/controlTasks.c ****         wyaw_ref = computePid(&yaw2w, angle_dif(yaw_ref, yaw),TIME, 0);
 205              		.loc 1 184 20 view .LVU40
 206 0114 594B     		ldr	r3, .L18+20
 207 0116 83ED000A 		vstr.32	s0, [r3]
 185:Core/drogui/src/controlTasks.c ****     }
 208              		.loc 1 185 9 is_stmt 1 view .LVU41
 185:Core/drogui/src/controlTasks.c ****     }
 209              		.loc 1 185 20 is_stmt 0 view .LVU42
 210 011a 634B     		ldr	r3, .L18+64
 211 011c D3ED000A 		vldr.32	s1, [r3]
 212 0120 95ED000A 		vldr.32	s0, [r5]
 213 0124 FFF7FEFF 		bl	angle_dif
 214              	.LVL15:
 185:Core/drogui/src/controlTasks.c ****     }
 215              		.loc 1 185 63 view .LVU43
 216 0128 2368     		ldr	r3, [r4]
 217 012a 596A     		ldr	r1, [r3, #36]
 185:Core/drogui/src/controlTasks.c ****     }
 218              		.loc 1 185 20 view .LVU44
 219 012c F0EE480A 		vmov.f32	s1, s16
 220 0130 5048     		ldr	r0, .L18+12
ARM GAS  C:\Users\GUILLE~1\AppData\Local\Temp\cc6N2eIu.s 			page 9


 221 0132 FFF7FEFF 		bl	computePid
 222              	.LVL16:
 185:Core/drogui/src/controlTasks.c ****     }
 223              		.loc 1 185 18 view .LVU45
 224 0136 524B     		ldr	r3, .L18+24
 225 0138 83ED000A 		vstr.32	s0, [r3]
 226 013c 69E7     		b	.L2
 227              	.L11:
 172:Core/drogui/src/controlTasks.c ****                 setTrayectory(&roll_sp, roll_sp.fin, getReg(ROLL_REF), getReg(ROLL_PERIOD), TIME);
 228              		.loc 1 172 13 is_stmt 1 view .LVU46
 172:Core/drogui/src/controlTasks.c ****                 setTrayectory(&roll_sp, roll_sp.fin, getReg(ROLL_REF), getReg(ROLL_PERIOD), TIME);
 229              		.loc 1 172 16 is_stmt 0 view .LVU47
 230 013e 7220     		movs	r0, #114
 231 0140 FFF7FEFF 		bl	getReg
 232              	.LVL17:
 172:Core/drogui/src/controlTasks.c ****                 setTrayectory(&roll_sp, roll_sp.fin, getReg(ROLL_REF), getReg(ROLL_PERIOD), TIME);
 233              		.loc 1 172 43 view .LVU48
 234 0144 594B     		ldr	r3, .L18+68
 235 0146 93ED018A 		vldr.32	s16, [r3, #4]
 172:Core/drogui/src/controlTasks.c ****                 setTrayectory(&roll_sp, roll_sp.fin, getReg(ROLL_REF), getReg(ROLL_PERIOD), TIME);
 236              		.loc 1 172 15 view .LVU49
 237 014a B4EE480A 		vcmp.f32	s0, s16
 238 014e F1EE10FA 		vmrs	APSR_nzcv, FPSCR
 239 0152 1DD1     		bne	.L16
 240              	.L6:
 174:Core/drogui/src/controlTasks.c **** 
 241              		.loc 1 174 13 is_stmt 1 view .LVU50
 174:Core/drogui/src/controlTasks.c **** 
 242              		.loc 1 174 47 is_stmt 0 view .LVU51
 243 0154 514B     		ldr	r3, .L18+52
 244 0156 1B68     		ldr	r3, [r3]
 245 0158 596A     		ldr	r1, [r3, #36]
 174:Core/drogui/src/controlTasks.c **** 
 246              		.loc 1 174 25 view .LVU52
 247 015a 5448     		ldr	r0, .L18+68
 248 015c FFF7FEFF 		bl	getSetpoint
 249              	.LVL18:
 174:Core/drogui/src/controlTasks.c **** 
 250              		.loc 1 174 22 view .LVU53
 251 0160 484B     		ldr	r3, .L18+28
 252 0162 83ED000A 		vstr.32	s0, [r3]
 176:Core/drogui/src/controlTasks.c ****                 setTrayectory(&pitch_sp, pitch_sp.fin, getReg(PITCH_REF), getReg(PITCH_PERIOD), TIM
 253              		.loc 1 176 13 is_stmt 1 view .LVU54
 176:Core/drogui/src/controlTasks.c ****                 setTrayectory(&pitch_sp, pitch_sp.fin, getReg(PITCH_REF), getReg(PITCH_PERIOD), TIM
 254              		.loc 1 176 16 is_stmt 0 view .LVU55
 255 0166 7420     		movs	r0, #116
 256 0168 FFF7FEFF 		bl	getReg
 257              	.LVL19:
 176:Core/drogui/src/controlTasks.c ****                 setTrayectory(&pitch_sp, pitch_sp.fin, getReg(PITCH_REF), getReg(PITCH_PERIOD), TIM
 258              		.loc 1 176 45 view .LVU56
 259 016c 504B     		ldr	r3, .L18+72
 260 016e 93ED018A 		vldr.32	s16, [r3, #4]
 176:Core/drogui/src/controlTasks.c ****                 setTrayectory(&pitch_sp, pitch_sp.fin, getReg(PITCH_REF), getReg(PITCH_PERIOD), TIM
 261              		.loc 1 176 15 view .LVU57
 262 0172 B4EE480A 		vcmp.f32	s0, s16
 263 0176 F1EE10FA 		vmrs	APSR_nzcv, FPSCR
 264 017a 1ED1     		bne	.L17
ARM GAS  C:\Users\GUILLE~1\AppData\Local\Temp\cc6N2eIu.s 			page 10


 265              	.L7:
 178:Core/drogui/src/controlTasks.c ****             
 266              		.loc 1 178 13 is_stmt 1 view .LVU58
 178:Core/drogui/src/controlTasks.c ****             
 267              		.loc 1 178 49 is_stmt 0 view .LVU59
 268 017c 474B     		ldr	r3, .L18+52
 269 017e 1B68     		ldr	r3, [r3]
 270 0180 596A     		ldr	r1, [r3, #36]
 178:Core/drogui/src/controlTasks.c ****             
 271              		.loc 1 178 26 view .LVU60
 272 0182 4B48     		ldr	r0, .L18+72
 273 0184 FFF7FEFF 		bl	getSetpoint
 274              	.LVL20:
 178:Core/drogui/src/controlTasks.c ****             
 275              		.loc 1 178 23 view .LVU61
 276 0188 3F4B     		ldr	r3, .L18+32
 277 018a 83ED000A 		vstr.32	s0, [r3]
 278 018e 97E7     		b	.L5
 279              	.L16:
 173:Core/drogui/src/controlTasks.c ****             roll_ref =  getSetpoint(&roll_sp, TIME);
 280              		.loc 1 173 17 is_stmt 1 view .LVU62
 281 0190 7220     		movs	r0, #114
 282 0192 FFF7FEFF 		bl	getReg
 283              	.LVL21:
 284 0196 F0EE408A 		vmov.f32	s17, s0
 285 019a 8A20     		movs	r0, #138
 286 019c FFF7FEFF 		bl	getReg
 287              	.LVL22:
 288 01a0 B0EE401A 		vmov.f32	s2, s0
 173:Core/drogui/src/controlTasks.c ****             roll_ref =  getSetpoint(&roll_sp, TIME);
 289              		.loc 1 173 93 is_stmt 0 view .LVU63
 290 01a4 3D4B     		ldr	r3, .L18+52
 291 01a6 1B68     		ldr	r3, [r3]
 292 01a8 596A     		ldr	r1, [r3, #36]
 173:Core/drogui/src/controlTasks.c ****             roll_ref =  getSetpoint(&roll_sp, TIME);
 293              		.loc 1 173 17 view .LVU64
 294 01aa F0EE680A 		vmov.f32	s1, s17
 295 01ae B0EE480A 		vmov.f32	s0, s16
 296 01b2 3E48     		ldr	r0, .L18+68
 297 01b4 FFF7FEFF 		bl	setTrayectory
 298              	.LVL23:
 299 01b8 CCE7     		b	.L6
 300              	.L17:
 177:Core/drogui/src/controlTasks.c ****             pitch_ref =  getSetpoint(&pitch_sp, TIME);
 301              		.loc 1 177 17 is_stmt 1 view .LVU65
 302 01ba 7420     		movs	r0, #116
 303 01bc FFF7FEFF 		bl	getReg
 304              	.LVL24:
 305 01c0 F0EE408A 		vmov.f32	s17, s0
 306 01c4 8C20     		movs	r0, #140
 307 01c6 FFF7FEFF 		bl	getReg
 308              	.LVL25:
 309 01ca B0EE401A 		vmov.f32	s2, s0
 177:Core/drogui/src/controlTasks.c ****             pitch_ref =  getSetpoint(&pitch_sp, TIME);
 310              		.loc 1 177 97 is_stmt 0 view .LVU66
 311 01ce 334B     		ldr	r3, .L18+52
 312 01d0 1B68     		ldr	r3, [r3]
ARM GAS  C:\Users\GUILLE~1\AppData\Local\Temp\cc6N2eIu.s 			page 11


 313 01d2 596A     		ldr	r1, [r3, #36]
 177:Core/drogui/src/controlTasks.c ****             pitch_ref =  getSetpoint(&pitch_sp, TIME);
 314              		.loc 1 177 17 view .LVU67
 315 01d4 F0EE680A 		vmov.f32	s1, s17
 316 01d8 B0EE480A 		vmov.f32	s0, s16
 317 01dc 3448     		ldr	r0, .L18+72
 318 01de FFF7FEFF 		bl	setTrayectory
 319              	.LVL26:
 320 01e2 CBE7     		b	.L7
 321              	.L14:
 189:Core/drogui/src/controlTasks.c ****         setTrayectory(&pitch_sp, 0, 0, 1, TIME);
 322              		.loc 1 189 9 is_stmt 1 view .LVU68
 189:Core/drogui/src/controlTasks.c ****         setTrayectory(&pitch_sp, 0, 0, 1, TIME);
 323              		.loc 1 189 42 is_stmt 0 view .LVU69
 324 01e4 2D4C     		ldr	r4, .L18+52
 325 01e6 2368     		ldr	r3, [r4]
 326 01e8 596A     		ldr	r1, [r3, #36]
 189:Core/drogui/src/controlTasks.c ****         setTrayectory(&pitch_sp, 0, 0, 1, TIME);
 327              		.loc 1 189 9 view .LVU70
 328 01ea 9FED2D8A 		vldr.32	s16, .L18+56
 329 01ee B7EE001A 		vmov.f32	s2, #1.0e+0
 330 01f2 F0EE480A 		vmov.f32	s1, s16
 331 01f6 B0EE480A 		vmov.f32	s0, s16
 332 01fa 2C48     		ldr	r0, .L18+68
 333 01fc FFF7FEFF 		bl	setTrayectory
 334              	.LVL27:
 190:Core/drogui/src/controlTasks.c ****         setReg(ROLL_REF, 0), setReg(PITCH_REF, 0), setReg(YAW_REF, 0);
 335              		.loc 1 190 9 is_stmt 1 view .LVU71
 190:Core/drogui/src/controlTasks.c ****         setReg(ROLL_REF, 0), setReg(PITCH_REF, 0), setReg(YAW_REF, 0);
 336              		.loc 1 190 43 is_stmt 0 view .LVU72
 337 0200 2368     		ldr	r3, [r4]
 338 0202 596A     		ldr	r1, [r3, #36]
 190:Core/drogui/src/controlTasks.c ****         setReg(ROLL_REF, 0), setReg(PITCH_REF, 0), setReg(YAW_REF, 0);
 339              		.loc 1 190 9 view .LVU73
 340 0204 B7EE001A 		vmov.f32	s2, #1.0e+0
 341 0208 F0EE480A 		vmov.f32	s1, s16
 342 020c B0EE480A 		vmov.f32	s0, s16
 343 0210 2748     		ldr	r0, .L18+72
 344 0212 FFF7FEFF 		bl	setTrayectory
 345              	.LVL28:
 191:Core/drogui/src/controlTasks.c ****     }
 346              		.loc 1 191 9 is_stmt 1 view .LVU74
 347 0216 B0EE480A 		vmov.f32	s0, s16
 348 021a 7220     		movs	r0, #114
 349 021c FFF7FEFF 		bl	setReg
 350              	.LVL29:
 191:Core/drogui/src/controlTasks.c ****     }
 351              		.loc 1 191 30 is_stmt 0 view .LVU75
 352 0220 B0EE480A 		vmov.f32	s0, s16
 353 0224 7420     		movs	r0, #116
 354 0226 FFF7FEFF 		bl	setReg
 355              	.LVL30:
 191:Core/drogui/src/controlTasks.c ****     }
 356              		.loc 1 191 52 view .LVU76
 357 022a B0EE480A 		vmov.f32	s0, s16
 358 022e 7620     		movs	r0, #118
 359 0230 FFF7FEFF 		bl	setReg
ARM GAS  C:\Users\GUILLE~1\AppData\Local\Temp\cc6N2eIu.s 			page 12


 360              	.LVL31:
 361 0234 F2E6     		b	.L8
 362              	.L15:
 195:Core/drogui/src/controlTasks.c ****         resetPid(&roll2w, TIME);
 363              		.loc 1 195 9 is_stmt 1 view .LVU77
 195:Core/drogui/src/controlTasks.c ****         resetPid(&roll2w, TIME);
 364              		.loc 1 195 43 is_stmt 0 view .LVU78
 365 0236 0023     		movs	r3, #0
 366 0238 114A     		ldr	r2, .L18+24
 367 023a 1360     		str	r3, [r2]	@ float
 195:Core/drogui/src/controlTasks.c ****         resetPid(&roll2w, TIME);
 368              		.loc 1 195 32 view .LVU79
 369 023c 0F4A     		ldr	r2, .L18+20
 370 023e 1360     		str	r3, [r2]	@ float
 195:Core/drogui/src/controlTasks.c ****         resetPid(&roll2w, TIME);
 371              		.loc 1 195 19 view .LVU80
 372 0240 0D4A     		ldr	r2, .L18+16
 373 0242 1360     		str	r3, [r2]	@ float
 196:Core/drogui/src/controlTasks.c ****         resetPid(&pitch2w, TIME);
 374              		.loc 1 196 9 is_stmt 1 view .LVU81
 196:Core/drogui/src/controlTasks.c ****         resetPid(&pitch2w, TIME);
 375              		.loc 1 196 27 is_stmt 0 view .LVU82
 376 0244 154C     		ldr	r4, .L18+52
 377 0246 2368     		ldr	r3, [r4]
 378 0248 596A     		ldr	r1, [r3, #36]
 196:Core/drogui/src/controlTasks.c ****         resetPid(&pitch2w, TIME);
 379              		.loc 1 196 9 view .LVU83
 380 024a 0848     		ldr	r0, .L18+4
 381 024c FFF7FEFF 		bl	resetPid
 382              	.LVL32:
 197:Core/drogui/src/controlTasks.c ****         resetPid(&yaw2w, TIME);
 383              		.loc 1 197 9 is_stmt 1 view .LVU84
 197:Core/drogui/src/controlTasks.c ****         resetPid(&yaw2w, TIME);
 384              		.loc 1 197 28 is_stmt 0 view .LVU85
 385 0250 2368     		ldr	r3, [r4]
 386 0252 596A     		ldr	r1, [r3, #36]
 197:Core/drogui/src/controlTasks.c ****         resetPid(&yaw2w, TIME);
 387              		.loc 1 197 9 view .LVU86
 388 0254 0648     		ldr	r0, .L18+8
 389 0256 FFF7FEFF 		bl	resetPid
 390              	.LVL33:
 198:Core/drogui/src/controlTasks.c ****     }
 391              		.loc 1 198 9 is_stmt 1 view .LVU87
 198:Core/drogui/src/controlTasks.c ****     }
 392              		.loc 1 198 26 is_stmt 0 view .LVU88
 393 025a 2368     		ldr	r3, [r4]
 394 025c 596A     		ldr	r1, [r3, #36]
 198:Core/drogui/src/controlTasks.c ****     }
 395              		.loc 1 198 9 view .LVU89
 396 025e 0548     		ldr	r0, .L18+12
 397 0260 FFF7FEFF 		bl	resetPid
 398              	.LVL34:
 399 0264 DFE6     		b	.L9
 400              	.L19:
 401 0266 00BF     		.align	2
 402              	.L18:
 403 0268 00000000 		.word	state
ARM GAS  C:\Users\GUILLE~1\AppData\Local\Temp\cc6N2eIu.s 			page 13


 404 026c 00000000 		.word	.LANCHOR7
 405 0270 00000000 		.word	.LANCHOR9
 406 0274 00000000 		.word	.LANCHOR11
 407 0278 00000000 		.word	.LANCHOR8
 408 027c 00000000 		.word	.LANCHOR10
 409 0280 00000000 		.word	.LANCHOR12
 410 0284 00000000 		.word	.LANCHOR1
 411 0288 00000000 		.word	.LANCHOR2
 412 028c 00000000 		.word	.LANCHOR6
 413 0290 00000000 		.word	.LANCHOR0
 414 0294 00000000 		.word	.LANCHOR3
 415 0298 00000000 		.word	roll
 416 029c 00000000 		.word	htim5
 417 02a0 00000000 		.word	0
 418 02a4 00000000 		.word	pitch
 419 02a8 00000000 		.word	yaw
 420 02ac 00000000 		.word	.LANCHOR4
 421 02b0 00000000 		.word	.LANCHOR5
 422              		.cfi_endproc
 423              	.LFE177:
 425              		.global	__aeabi_f2d
 426              		.global	__aeabi_dmul
 427              		.global	__aeabi_ddiv
 428              		.global	__aeabi_d2f
 429              		.section	.text.xyzControlTask,"ax",%progbits
 430              		.align	1
 431              		.global	xyzControlTask
 432              		.syntax unified
 433              		.thumb
 434              		.thumb_func
 435              		.fpu fpv5-sp-d16
 437              	xyzControlTask:
 438              	.LFB178:
 213:Core/drogui/src/controlTasks.c **** bool descend = false;
 214:Core/drogui/src/controlTasks.c **** 
 215:Core/drogui/src/controlTasks.c **** void xyzControlTask(){
 439              		.loc 1 215 22 is_stmt 1 view -0
 440              		.cfi_startproc
 441              		@ args = 0, pretend = 0, frame = 0
 442              		@ frame_needed = 0, uses_anonymous_args = 0
 443 0000 F8B5     		push	{r3, r4, r5, r6, r7, lr}
 444              	.LCFI4:
 445              		.cfi_def_cfa_offset 24
 446              		.cfi_offset 3, -24
 447              		.cfi_offset 4, -20
 448              		.cfi_offset 5, -16
 449              		.cfi_offset 6, -12
 450              		.cfi_offset 7, -8
 451              		.cfi_offset 14, -4
 452 0002 2DED028B 		vpush.64	{d8}
 453              	.LCFI5:
 454              		.cfi_def_cfa_offset 32
 455              		.cfi_offset 80, -32
 456              		.cfi_offset 81, -28
 216:Core/drogui/src/controlTasks.c **** 
 217:Core/drogui/src/controlTasks.c ****     if(state == CONTROL_LOOP){
 457              		.loc 1 217 5 view .LVU91
ARM GAS  C:\Users\GUILLE~1\AppData\Local\Temp\cc6N2eIu.s 			page 14


 458              		.loc 1 217 14 is_stmt 0 view .LVU92
 459 0006 B84B     		ldr	r3, .L39+8
 460 0008 1B68     		ldr	r3, [r3]
 461              		.loc 1 217 7 view .LVU93
 462 000a 042B     		cmp	r3, #4
 463 000c 54D0     		beq	.L32
 464              	.L21:
 218:Core/drogui/src/controlTasks.c ****         
 219:Core/drogui/src/controlTasks.c ****         if(getReg(X_REF) != x_sp.fin) 
 220:Core/drogui/src/controlTasks.c ****             setTrayectory(&x_sp, x_sp.fin, getReg(X_REF), getReg(X_PERIOD), TIME);
 221:Core/drogui/src/controlTasks.c ****         x_ref =  getSetpoint(&x_sp, TIME);
 222:Core/drogui/src/controlTasks.c **** 
 223:Core/drogui/src/controlTasks.c ****         if(getReg(Y_REF) != y_sp.fin) 
 224:Core/drogui/src/controlTasks.c ****             setTrayectory(&y_sp, y_sp.fin, getReg(Y_REF), getReg(Y_PERIOD), TIME);
 225:Core/drogui/src/controlTasks.c ****         y_ref =  getSetpoint(&y_sp, TIME);
 226:Core/drogui/src/controlTasks.c **** 
 227:Core/drogui/src/controlTasks.c ****         if(getReg(Z_REF) != z_sp.fin) 
 228:Core/drogui/src/controlTasks.c ****             setTrayectory(&z_sp, z_sp.fin, getReg(Z_REF), getReg(Z_PERIOD), TIME);
 229:Core/drogui/src/controlTasks.c ****         z_ref =  getSetpoint(&z_sp, TIME);
 230:Core/drogui/src/controlTasks.c **** 
 231:Core/drogui/src/controlTasks.c ****         X_C = computePid(&x_control, x_ref - xp, TIME, H);
 232:Core/drogui/src/controlTasks.c ****         Y_C = computePid(&y_control, y_ref - yp, TIME, H);
 233:Core/drogui/src/controlTasks.c **** 
 234:Core/drogui/src/controlTasks.c ****         H_ref = computePid(&z_control, z_ref - z, TIME,0) + getReg(Z_MG);
 235:Core/drogui/src/controlTasks.c ****         rampValue(&H, H_ref, 0.15);
 236:Core/drogui/src/controlTasks.c ****         H_comp = H/(cos(roll)*cos(pitch));
 237:Core/drogui/src/controlTasks.c ****     }
 238:Core/drogui/src/controlTasks.c ****     
 239:Core/drogui/src/controlTasks.c ****     if(state == DESCEND){
 465              		.loc 1 239 5 is_stmt 1 view .LVU94
 466              		.loc 1 239 14 is_stmt 0 view .LVU95
 467 000e B64B     		ldr	r3, .L39+8
 468 0010 1B68     		ldr	r3, [r3]
 469              		.loc 1 239 7 view .LVU96
 470 0012 002B     		cmp	r3, #0
 471 0014 40F05D81 		bne	.L25
 240:Core/drogui/src/controlTasks.c ****         if(!descend) 
 472              		.loc 1 240 9 is_stmt 1 view .LVU97
 473              		.loc 1 240 12 is_stmt 0 view .LVU98
 474 0018 B44B     		ldr	r3, .L39+12
 475 001a 1B78     		ldrb	r3, [r3]	@ zero_extendqisi2
 476              		.loc 1 240 11 view .LVU99
 477 001c 002B     		cmp	r3, #0
 478 001e 00F03181 		beq	.L33
 479              	.L26:
 241:Core/drogui/src/controlTasks.c ****             setTrayectory(&H_sp, H_comp, 0, fmin(z*10,3), TIME), descend = true;
 242:Core/drogui/src/controlTasks.c ****         H_comp = getSetpoint(&H_sp, TIME); 
 480              		.loc 1 242 9 is_stmt 1 view .LVU100
 481              		.loc 1 242 37 is_stmt 0 view .LVU101
 482 0022 B34B     		ldr	r3, .L39+16
 483 0024 1B68     		ldr	r3, [r3]
 484 0026 596A     		ldr	r1, [r3, #36]
 485              		.loc 1 242 18 view .LVU102
 486 0028 B248     		ldr	r0, .L39+20
 487 002a FFF7FEFF 		bl	getSetpoint
 488              	.LVL35:
 489              		.loc 1 242 16 view .LVU103
ARM GAS  C:\Users\GUILLE~1\AppData\Local\Temp\cc6N2eIu.s 			page 15


 490 002e B24B     		ldr	r3, .L39+24
 491 0030 83ED000A 		vstr.32	s0, [r3]
 243:Core/drogui/src/controlTasks.c ****         z_ref = 0;
 492              		.loc 1 243 9 is_stmt 1 view .LVU104
 493              		.loc 1 243 15 is_stmt 0 view .LVU105
 494 0034 B14B     		ldr	r3, .L39+28
 495 0036 0022     		movs	r2, #0
 496 0038 1A60     		str	r2, [r3]	@ float
 244:Core/drogui/src/controlTasks.c ****         
 245:Core/drogui/src/controlTasks.c ****         if(H_comp == 0) state = SEC_STOP;
 497              		.loc 1 245 9 is_stmt 1 view .LVU106
 498              		.loc 1 245 11 is_stmt 0 view .LVU107
 499 003a B5EE400A 		vcmp.f32	s0, #0
 500 003e F1EE10FA 		vmrs	APSR_nzcv, FPSCR
 501 0042 02D1     		bne	.L27
 502              		.loc 1 245 25 is_stmt 1 discriminator 1 view .LVU108
 503              		.loc 1 245 31 is_stmt 0 discriminator 1 view .LVU109
 504 0044 A84B     		ldr	r3, .L39+8
 505 0046 0122     		movs	r2, #1
 506 0048 1A60     		str	r2, [r3]
 507              	.L27:
 246:Core/drogui/src/controlTasks.c ****         
 247:Core/drogui/src/controlTasks.c ****         resetPid(&z_control, TIME);
 508              		.loc 1 247 9 is_stmt 1 view .LVU110
 509              		.loc 1 247 30 is_stmt 0 view .LVU111
 510 004a A94B     		ldr	r3, .L39+16
 511 004c 1B68     		ldr	r3, [r3]
 512 004e 596A     		ldr	r1, [r3, #36]
 513              		.loc 1 247 9 view .LVU112
 514 0050 AB48     		ldr	r0, .L39+32
 515 0052 FFF7FEFF 		bl	resetPid
 516              	.LVL36:
 517              	.L28:
 248:Core/drogui/src/controlTasks.c ****     
 249:Core/drogui/src/controlTasks.c ****     }else{
 250:Core/drogui/src/controlTasks.c ****         descend = false;   
 251:Core/drogui/src/controlTasks.c ****     }
 252:Core/drogui/src/controlTasks.c **** 
 253:Core/drogui/src/controlTasks.c ****     if(state == SEC_STOP){
 518              		.loc 1 253 5 is_stmt 1 view .LVU113
 519              		.loc 1 253 14 is_stmt 0 view .LVU114
 520 0056 A44B     		ldr	r3, .L39+8
 521 0058 1B68     		ldr	r3, [r3]
 522              		.loc 1 253 7 view .LVU115
 523 005a 012B     		cmp	r3, #1
 524 005c 00F07681 		beq	.L34
 525              	.L29:
 254:Core/drogui/src/controlTasks.c ****         setTrayectory(&x_sp, 0, 0, 0, TIME);
 255:Core/drogui/src/controlTasks.c ****         setTrayectory(&y_sp, 0, 0, 0, TIME);
 256:Core/drogui/src/controlTasks.c ****         setTrayectory(&z_sp, 0, 0, 0, TIME);
 257:Core/drogui/src/controlTasks.c ****         //setReg(X_REF, 0), setReg(Y_REF, 0), setReg(Z_REF, 0);
 258:Core/drogui/src/controlTasks.c ****         //setReg(Z_MG, 10);
 259:Core/drogui/src/controlTasks.c ****     }
 260:Core/drogui/src/controlTasks.c **** 
 261:Core/drogui/src/controlTasks.c ****     if(state == ARM_MOTORS){
 526              		.loc 1 261 5 is_stmt 1 view .LVU116
 527              		.loc 1 261 14 is_stmt 0 view .LVU117
ARM GAS  C:\Users\GUILLE~1\AppData\Local\Temp\cc6N2eIu.s 			page 16


 528 0060 A14B     		ldr	r3, .L39+8
 529 0062 1B68     		ldr	r3, [r3]
 530              		.loc 1 261 7 view .LVU118
 531 0064 032B     		cmp	r3, #3
 532 0066 00F09681 		beq	.L35
 533              	.L30:
 262:Core/drogui/src/controlTasks.c ****         resetPid(&x_control, TIME),
 263:Core/drogui/src/controlTasks.c ****         resetPid(&y_control, TIME),
 264:Core/drogui/src/controlTasks.c ****         resetPid(&z_control, TIME);
 265:Core/drogui/src/controlTasks.c ****         
 266:Core/drogui/src/controlTasks.c ****         H = 10;
 267:Core/drogui/src/controlTasks.c ****         H_comp = H/(cos(roll)*cos(pitch));
 268:Core/drogui/src/controlTasks.c ****     }
 269:Core/drogui/src/controlTasks.c **** 
 270:Core/drogui/src/controlTasks.c ****     
 271:Core/drogui/src/controlTasks.c ****     setReg(X_SCURVE, x_ref);
 534              		.loc 1 271 5 is_stmt 1 view .LVU119
 535 006a A64B     		ldr	r3, .L39+36
 536 006c 93ED000A 		vldr.32	s0, [r3]
 537 0070 9C20     		movs	r0, #156
 538 0072 FFF7FEFF 		bl	setReg
 539              	.LVL37:
 272:Core/drogui/src/controlTasks.c ****     setReg(Y_SCURVE, y_ref);
 540              		.loc 1 272 5 view .LVU120
 541 0076 A44B     		ldr	r3, .L39+40
 542 0078 93ED000A 		vldr.32	s0, [r3]
 543 007c 9E20     		movs	r0, #158
 544 007e FFF7FEFF 		bl	setReg
 545              	.LVL38:
 273:Core/drogui/src/controlTasks.c ****     setReg(Z_SCURVE, z_ref);
 546              		.loc 1 273 5 view .LVU121
 547 0082 9E4B     		ldr	r3, .L39+28
 548 0084 93ED000A 		vldr.32	s0, [r3]
 549 0088 A020     		movs	r0, #160
 550 008a FFF7FEFF 		bl	setReg
 551              	.LVL39:
 274:Core/drogui/src/controlTasks.c ****     setReg(DER_X,x_control.errd);
 552              		.loc 1 274 5 view .LVU122
 553 008e 9F4B     		ldr	r3, .L39+44
 554 0090 93ED170A 		vldr.32	s0, [r3, #92]
 555 0094 B420     		movs	r0, #180
 556 0096 FFF7FEFF 		bl	setReg
 557              	.LVL40:
 275:Core/drogui/src/controlTasks.c ****     setReg(DER_Y,y_control.errd);
 558              		.loc 1 275 5 view .LVU123
 559 009a 9D4B     		ldr	r3, .L39+48
 560 009c 93ED170A 		vldr.32	s0, [r3, #92]
 561 00a0 B620     		movs	r0, #182
 562 00a2 FFF7FEFF 		bl	setReg
 563              	.LVL41:
 276:Core/drogui/src/controlTasks.c ****     setReg(DER_Z,z_control.errd);
 564              		.loc 1 276 5 view .LVU124
 565 00a6 964B     		ldr	r3, .L39+32
 566 00a8 93ED170A 		vldr.32	s0, [r3, #92]
 567 00ac B820     		movs	r0, #184
 568 00ae FFF7FEFF 		bl	setReg
 569              	.LVL42:
ARM GAS  C:\Users\GUILLE~1\AppData\Local\Temp\cc6N2eIu.s 			page 17


 277:Core/drogui/src/controlTasks.c **** 
 278:Core/drogui/src/controlTasks.c **** }
 570              		.loc 1 278 1 is_stmt 0 view .LVU125
 571 00b2 BDEC028B 		vldm	sp!, {d8}
 572              	.LCFI6:
 573              		.cfi_remember_state
 574              		.cfi_restore 80
 575              		.cfi_restore 81
 576              		.cfi_def_cfa_offset 24
 577 00b6 F8BD     		pop	{r3, r4, r5, r6, r7, pc}
 578              	.L32:
 579              	.LCFI7:
 580              		.cfi_restore_state
 219:Core/drogui/src/controlTasks.c ****             setTrayectory(&x_sp, x_sp.fin, getReg(X_REF), getReg(X_PERIOD), TIME);
 581              		.loc 1 219 9 is_stmt 1 view .LVU126
 219:Core/drogui/src/controlTasks.c ****             setTrayectory(&x_sp, x_sp.fin, getReg(X_REF), getReg(X_PERIOD), TIME);
 582              		.loc 1 219 12 is_stmt 0 view .LVU127
 583 00b8 7820     		movs	r0, #120
 584 00ba FFF7FEFF 		bl	getReg
 585              	.LVL43:
 219:Core/drogui/src/controlTasks.c ****             setTrayectory(&x_sp, x_sp.fin, getReg(X_REF), getReg(X_PERIOD), TIME);
 586              		.loc 1 219 33 view .LVU128
 587 00be 954B     		ldr	r3, .L39+52
 588 00c0 93ED018A 		vldr.32	s16, [r3, #4]
 219:Core/drogui/src/controlTasks.c ****             setTrayectory(&x_sp, x_sp.fin, getReg(X_REF), getReg(X_PERIOD), TIME);
 589              		.loc 1 219 11 view .LVU129
 590 00c4 B4EE480A 		vcmp.f32	s0, s16
 591 00c8 F1EE10FA 		vmrs	APSR_nzcv, FPSCR
 592 00cc 40F09B80 		bne	.L36
 593              	.L22:
 221:Core/drogui/src/controlTasks.c **** 
 594              		.loc 1 221 9 is_stmt 1 view .LVU130
 221:Core/drogui/src/controlTasks.c **** 
 595              		.loc 1 221 37 is_stmt 0 view .LVU131
 596 00d0 874B     		ldr	r3, .L39+16
 597 00d2 1B68     		ldr	r3, [r3]
 598 00d4 596A     		ldr	r1, [r3, #36]
 221:Core/drogui/src/controlTasks.c **** 
 599              		.loc 1 221 18 view .LVU132
 600 00d6 8F48     		ldr	r0, .L39+52
 601 00d8 FFF7FEFF 		bl	getSetpoint
 602              	.LVL44:
 221:Core/drogui/src/controlTasks.c **** 
 603              		.loc 1 221 15 view .LVU133
 604 00dc 894B     		ldr	r3, .L39+36
 605 00de 83ED000A 		vstr.32	s0, [r3]
 223:Core/drogui/src/controlTasks.c ****             setTrayectory(&y_sp, y_sp.fin, getReg(Y_REF), getReg(Y_PERIOD), TIME);
 606              		.loc 1 223 9 is_stmt 1 view .LVU134
 223:Core/drogui/src/controlTasks.c ****             setTrayectory(&y_sp, y_sp.fin, getReg(Y_REF), getReg(Y_PERIOD), TIME);
 607              		.loc 1 223 12 is_stmt 0 view .LVU135
 608 00e2 7A20     		movs	r0, #122
 609 00e4 FFF7FEFF 		bl	getReg
 610              	.LVL45:
 223:Core/drogui/src/controlTasks.c ****             setTrayectory(&y_sp, y_sp.fin, getReg(Y_REF), getReg(Y_PERIOD), TIME);
 611              		.loc 1 223 33 view .LVU136
 612 00e8 8B4B     		ldr	r3, .L39+56
 613 00ea 93ED018A 		vldr.32	s16, [r3, #4]
ARM GAS  C:\Users\GUILLE~1\AppData\Local\Temp\cc6N2eIu.s 			page 18


 223:Core/drogui/src/controlTasks.c ****             setTrayectory(&y_sp, y_sp.fin, getReg(Y_REF), getReg(Y_PERIOD), TIME);
 614              		.loc 1 223 11 view .LVU137
 615 00ee B4EE480A 		vcmp.f32	s0, s16
 616 00f2 F1EE10FA 		vmrs	APSR_nzcv, FPSCR
 617 00f6 40F09B80 		bne	.L37
 618              	.L23:
 225:Core/drogui/src/controlTasks.c **** 
 619              		.loc 1 225 9 is_stmt 1 view .LVU138
 225:Core/drogui/src/controlTasks.c **** 
 620              		.loc 1 225 37 is_stmt 0 view .LVU139
 621 00fa 7D4B     		ldr	r3, .L39+16
 622 00fc 1B68     		ldr	r3, [r3]
 623 00fe 596A     		ldr	r1, [r3, #36]
 225:Core/drogui/src/controlTasks.c **** 
 624              		.loc 1 225 18 view .LVU140
 625 0100 8548     		ldr	r0, .L39+56
 626 0102 FFF7FEFF 		bl	getSetpoint
 627              	.LVL46:
 225:Core/drogui/src/controlTasks.c **** 
 628              		.loc 1 225 15 view .LVU141
 629 0106 804B     		ldr	r3, .L39+40
 630 0108 83ED000A 		vstr.32	s0, [r3]
 227:Core/drogui/src/controlTasks.c ****             setTrayectory(&z_sp, z_sp.fin, getReg(Z_REF), getReg(Z_PERIOD), TIME);
 631              		.loc 1 227 9 is_stmt 1 view .LVU142
 227:Core/drogui/src/controlTasks.c ****             setTrayectory(&z_sp, z_sp.fin, getReg(Z_REF), getReg(Z_PERIOD), TIME);
 632              		.loc 1 227 12 is_stmt 0 view .LVU143
 633 010c 7C20     		movs	r0, #124
 634 010e FFF7FEFF 		bl	getReg
 635              	.LVL47:
 227:Core/drogui/src/controlTasks.c ****             setTrayectory(&z_sp, z_sp.fin, getReg(Z_REF), getReg(Z_PERIOD), TIME);
 636              		.loc 1 227 33 view .LVU144
 637 0112 824B     		ldr	r3, .L39+60
 638 0114 93ED018A 		vldr.32	s16, [r3, #4]
 227:Core/drogui/src/controlTasks.c ****             setTrayectory(&z_sp, z_sp.fin, getReg(Z_REF), getReg(Z_PERIOD), TIME);
 639              		.loc 1 227 11 view .LVU145
 640 0118 B4EE480A 		vcmp.f32	s0, s16
 641 011c F1EE10FA 		vmrs	APSR_nzcv, FPSCR
 642 0120 40F09B80 		bne	.L38
 643              	.L24:
 229:Core/drogui/src/controlTasks.c **** 
 644              		.loc 1 229 9 is_stmt 1 view .LVU146
 229:Core/drogui/src/controlTasks.c **** 
 645              		.loc 1 229 37 is_stmt 0 view .LVU147
 646 0124 724D     		ldr	r5, .L39+16
 647 0126 2B68     		ldr	r3, [r5]
 648 0128 596A     		ldr	r1, [r3, #36]
 229:Core/drogui/src/controlTasks.c **** 
 649              		.loc 1 229 18 view .LVU148
 650 012a 7C48     		ldr	r0, .L39+60
 651 012c FFF7FEFF 		bl	getSetpoint
 652              	.LVL48:
 229:Core/drogui/src/controlTasks.c **** 
 653              		.loc 1 229 15 view .LVU149
 654 0130 724E     		ldr	r6, .L39+28
 655 0132 86ED000A 		vstr.32	s0, [r6]
 231:Core/drogui/src/controlTasks.c ****         Y_C = computePid(&y_control, y_ref - yp, TIME, H);
 656              		.loc 1 231 9 is_stmt 1 view .LVU150
ARM GAS  C:\Users\GUILLE~1\AppData\Local\Temp\cc6N2eIu.s 			page 19


 231:Core/drogui/src/controlTasks.c ****         Y_C = computePid(&y_control, y_ref - yp, TIME, H);
 657              		.loc 1 231 50 is_stmt 0 view .LVU151
 658 0136 2B68     		ldr	r3, [r5]
 659 0138 596A     		ldr	r1, [r3, #36]
 231:Core/drogui/src/controlTasks.c ****         Y_C = computePid(&y_control, y_ref - yp, TIME, H);
 660              		.loc 1 231 15 view .LVU152
 661 013a 794C     		ldr	r4, .L39+64
 662 013c 714B     		ldr	r3, .L39+36
 663 013e 93ED000A 		vldr.32	s0, [r3]
 664 0142 784B     		ldr	r3, .L39+68
 665 0144 D3ED007A 		vldr.32	s15, [r3]
 666 0148 D4ED000A 		vldr.32	s1, [r4]
 667 014c 30EE670A 		vsub.f32	s0, s0, s15
 668 0150 6E48     		ldr	r0, .L39+44
 669 0152 FFF7FEFF 		bl	computePid
 670              	.LVL49:
 231:Core/drogui/src/controlTasks.c ****         Y_C = computePid(&y_control, y_ref - yp, TIME, H);
 671              		.loc 1 231 13 view .LVU153
 672 0156 744B     		ldr	r3, .L39+72
 673 0158 83ED000A 		vstr.32	s0, [r3]
 232:Core/drogui/src/controlTasks.c **** 
 674              		.loc 1 232 9 is_stmt 1 view .LVU154
 232:Core/drogui/src/controlTasks.c **** 
 675              		.loc 1 232 50 is_stmt 0 view .LVU155
 676 015c 2B68     		ldr	r3, [r5]
 677 015e 596A     		ldr	r1, [r3, #36]
 232:Core/drogui/src/controlTasks.c **** 
 678              		.loc 1 232 15 view .LVU156
 679 0160 694B     		ldr	r3, .L39+40
 680 0162 93ED000A 		vldr.32	s0, [r3]
 681 0166 714B     		ldr	r3, .L39+76
 682 0168 D3ED007A 		vldr.32	s15, [r3]
 683 016c D4ED000A 		vldr.32	s1, [r4]
 684 0170 30EE670A 		vsub.f32	s0, s0, s15
 685 0174 6648     		ldr	r0, .L39+48
 686 0176 FFF7FEFF 		bl	computePid
 687              	.LVL50:
 232:Core/drogui/src/controlTasks.c **** 
 688              		.loc 1 232 13 view .LVU157
 689 017a 6D4B     		ldr	r3, .L39+80
 690 017c 83ED000A 		vstr.32	s0, [r3]
 234:Core/drogui/src/controlTasks.c ****         rampValue(&H, H_ref, 0.15);
 691              		.loc 1 234 9 is_stmt 1 view .LVU158
 234:Core/drogui/src/controlTasks.c ****         rampValue(&H, H_ref, 0.15);
 692              		.loc 1 234 51 is_stmt 0 view .LVU159
 693 0180 2B68     		ldr	r3, [r5]
 694 0182 596A     		ldr	r1, [r3, #36]
 234:Core/drogui/src/controlTasks.c ****         rampValue(&H, H_ref, 0.15);
 695              		.loc 1 234 17 view .LVU160
 696 0184 96ED000A 		vldr.32	s0, [r6]
 697 0188 6A4B     		ldr	r3, .L39+84
 698 018a D3ED007A 		vldr.32	s15, [r3]
 699 018e DFED6A0A 		vldr.32	s1, .L39+88
 700 0192 30EE670A 		vsub.f32	s0, s0, s15
 701 0196 5A48     		ldr	r0, .L39+32
 702 0198 FFF7FEFF 		bl	computePid
 703              	.LVL51:
ARM GAS  C:\Users\GUILLE~1\AppData\Local\Temp\cc6N2eIu.s 			page 20


 704 019c B0EE408A 		vmov.f32	s16, s0
 234:Core/drogui/src/controlTasks.c ****         rampValue(&H, H_ref, 0.15);
 705              		.loc 1 234 61 view .LVU161
 706 01a0 7020     		movs	r0, #112
 707 01a2 FFF7FEFF 		bl	getReg
 708              	.LVL52:
 234:Core/drogui/src/controlTasks.c ****         rampValue(&H, H_ref, 0.15);
 709              		.loc 1 234 59 view .LVU162
 710 01a6 38EE000A 		vadd.f32	s0, s16, s0
 234:Core/drogui/src/controlTasks.c ****         rampValue(&H, H_ref, 0.15);
 711              		.loc 1 234 15 view .LVU163
 712 01aa 644B     		ldr	r3, .L39+92
 713 01ac 83ED000A 		vstr.32	s0, [r3]
 235:Core/drogui/src/controlTasks.c ****         H_comp = H/(cos(roll)*cos(pitch));
 714              		.loc 1 235 9 is_stmt 1 view .LVU164
 715 01b0 DFED630A 		vldr.32	s1, .L39+96
 716 01b4 2046     		mov	r0, r4
 717 01b6 FFF7FEFF 		bl	rampValue
 718              	.LVL53:
 236:Core/drogui/src/controlTasks.c ****     }
 719              		.loc 1 236 9 view .LVU165
 236:Core/drogui/src/controlTasks.c ****     }
 720              		.loc 1 236 21 is_stmt 0 view .LVU166
 721 01ba 624B     		ldr	r3, .L39+100
 722 01bc 1868     		ldr	r0, [r3]	@ float
 723 01be FFF7FEFF 		bl	__aeabi_f2d
 724              	.LVL54:
 725 01c2 41EC100B 		vmov	d0, r0, r1
 726 01c6 FFF7FEFF 		bl	cos
 727              	.LVL55:
 728 01ca 57EC106B 		vmov	r6, r7, d0
 236:Core/drogui/src/controlTasks.c ****     }
 729              		.loc 1 236 31 view .LVU167
 730 01ce 5E4B     		ldr	r3, .L39+104
 731 01d0 1868     		ldr	r0, [r3]	@ float
 732 01d2 FFF7FEFF 		bl	__aeabi_f2d
 733              	.LVL56:
 734 01d6 41EC100B 		vmov	d0, r0, r1
 735 01da FFF7FEFF 		bl	cos
 736              	.LVL57:
 737 01de 53EC102B 		vmov	r2, r3, d0
 236:Core/drogui/src/controlTasks.c ****     }
 738              		.loc 1 236 30 view .LVU168
 739 01e2 3046     		mov	r0, r6
 740 01e4 3946     		mov	r1, r7
 741 01e6 FFF7FEFF 		bl	__aeabi_dmul
 742              	.LVL58:
 743 01ea 0646     		mov	r6, r0
 744 01ec 0F46     		mov	r7, r1
 236:Core/drogui/src/controlTasks.c ****     }
 745              		.loc 1 236 19 view .LVU169
 746 01ee 2068     		ldr	r0, [r4]	@ float
 747 01f0 FFF7FEFF 		bl	__aeabi_f2d
 748              	.LVL59:
 749 01f4 3246     		mov	r2, r6
 750 01f6 3B46     		mov	r3, r7
 751 01f8 FFF7FEFF 		bl	__aeabi_ddiv
ARM GAS  C:\Users\GUILLE~1\AppData\Local\Temp\cc6N2eIu.s 			page 21


 752              	.LVL60:
 753 01fc FFF7FEFF 		bl	__aeabi_d2f
 754              	.LVL61:
 236:Core/drogui/src/controlTasks.c ****     }
 755              		.loc 1 236 16 view .LVU170
 756 0200 3D4B     		ldr	r3, .L39+24
 757 0202 1860     		str	r0, [r3]	@ float
 758 0204 03E7     		b	.L21
 759              	.L36:
 220:Core/drogui/src/controlTasks.c ****         x_ref =  getSetpoint(&x_sp, TIME);
 760              		.loc 1 220 13 is_stmt 1 view .LVU171
 761 0206 7820     		movs	r0, #120
 762 0208 FFF7FEFF 		bl	getReg
 763              	.LVL62:
 764 020c F0EE408A 		vmov.f32	s17, s0
 765 0210 9020     		movs	r0, #144
 766 0212 FFF7FEFF 		bl	getReg
 767              	.LVL63:
 768 0216 B0EE401A 		vmov.f32	s2, s0
 220:Core/drogui/src/controlTasks.c ****         x_ref =  getSetpoint(&x_sp, TIME);
 769              		.loc 1 220 77 is_stmt 0 view .LVU172
 770 021a 354B     		ldr	r3, .L39+16
 771 021c 1B68     		ldr	r3, [r3]
 772 021e 596A     		ldr	r1, [r3, #36]
 220:Core/drogui/src/controlTasks.c ****         x_ref =  getSetpoint(&x_sp, TIME);
 773              		.loc 1 220 13 view .LVU173
 774 0220 F0EE680A 		vmov.f32	s1, s17
 775 0224 B0EE480A 		vmov.f32	s0, s16
 776 0228 3A48     		ldr	r0, .L39+52
 777 022a FFF7FEFF 		bl	setTrayectory
 778              	.LVL64:
 779 022e 4FE7     		b	.L22
 780              	.L37:
 224:Core/drogui/src/controlTasks.c ****         y_ref =  getSetpoint(&y_sp, TIME);
 781              		.loc 1 224 13 is_stmt 1 view .LVU174
 782 0230 7A20     		movs	r0, #122
 783 0232 FFF7FEFF 		bl	getReg
 784              	.LVL65:
 785 0236 F0EE408A 		vmov.f32	s17, s0
 786 023a 9220     		movs	r0, #146
 787 023c FFF7FEFF 		bl	getReg
 788              	.LVL66:
 789 0240 B0EE401A 		vmov.f32	s2, s0
 224:Core/drogui/src/controlTasks.c ****         y_ref =  getSetpoint(&y_sp, TIME);
 790              		.loc 1 224 77 is_stmt 0 view .LVU175
 791 0244 2A4B     		ldr	r3, .L39+16
 792 0246 1B68     		ldr	r3, [r3]
 793 0248 596A     		ldr	r1, [r3, #36]
 224:Core/drogui/src/controlTasks.c ****         y_ref =  getSetpoint(&y_sp, TIME);
 794              		.loc 1 224 13 view .LVU176
 795 024a F0EE680A 		vmov.f32	s1, s17
 796 024e B0EE480A 		vmov.f32	s0, s16
 797 0252 3148     		ldr	r0, .L39+56
 798 0254 FFF7FEFF 		bl	setTrayectory
 799              	.LVL67:
 800 0258 4FE7     		b	.L23
 801              	.L38:
ARM GAS  C:\Users\GUILLE~1\AppData\Local\Temp\cc6N2eIu.s 			page 22


 228:Core/drogui/src/controlTasks.c ****         z_ref =  getSetpoint(&z_sp, TIME);
 802              		.loc 1 228 13 is_stmt 1 view .LVU177
 803 025a 7C20     		movs	r0, #124
 804 025c FFF7FEFF 		bl	getReg
 805              	.LVL68:
 806 0260 F0EE408A 		vmov.f32	s17, s0
 807 0264 9420     		movs	r0, #148
 808 0266 FFF7FEFF 		bl	getReg
 809              	.LVL69:
 810 026a B0EE401A 		vmov.f32	s2, s0
 228:Core/drogui/src/controlTasks.c ****         z_ref =  getSetpoint(&z_sp, TIME);
 811              		.loc 1 228 77 is_stmt 0 view .LVU178
 812 026e 204B     		ldr	r3, .L39+16
 813 0270 1B68     		ldr	r3, [r3]
 814 0272 596A     		ldr	r1, [r3, #36]
 228:Core/drogui/src/controlTasks.c ****         z_ref =  getSetpoint(&z_sp, TIME);
 815              		.loc 1 228 13 view .LVU179
 816 0274 F0EE680A 		vmov.f32	s1, s17
 817 0278 B0EE480A 		vmov.f32	s0, s16
 818 027c 2748     		ldr	r0, .L39+60
 819 027e FFF7FEFF 		bl	setTrayectory
 820              	.LVL70:
 821 0282 4FE7     		b	.L24
 822              	.L33:
 241:Core/drogui/src/controlTasks.c ****         H_comp = getSetpoint(&H_sp, TIME); 
 823              		.loc 1 241 13 is_stmt 1 view .LVU180
 241:Core/drogui/src/controlTasks.c ****         H_comp = getSetpoint(&H_sp, TIME); 
 824              		.loc 1 241 51 is_stmt 0 view .LVU181
 825 0284 2B4B     		ldr	r3, .L39+84
 826 0286 93ED007A 		vldr.32	s14, [r3]
 241:Core/drogui/src/controlTasks.c ****         H_comp = getSetpoint(&H_sp, TIME); 
 827              		.loc 1 241 45 view .LVU182
 828 028a F2EE047A 		vmov.f32	s15, #1.0e+1
 829 028e 67EE277A 		vmul.f32	s15, s14, s15
 830 0292 17EE900A 		vmov	r0, s15
 831 0296 FFF7FEFF 		bl	__aeabi_f2d
 832              	.LVL71:
 833 029a 9FED111B 		vldr.64	d1, .L39
 834 029e 41EC100B 		vmov	d0, r0, r1
 835 02a2 FFF7FEFF 		bl	fmin
 836              	.LVL72:
 837 02a6 51EC100B 		vmov	r0, r1, d0
 241:Core/drogui/src/controlTasks.c ****         H_comp = getSetpoint(&H_sp, TIME); 
 838              		.loc 1 241 59 view .LVU183
 839 02aa 114B     		ldr	r3, .L39+16
 840 02ac 1B68     		ldr	r3, [r3]
 841 02ae 5C6A     		ldr	r4, [r3, #36]
 241:Core/drogui/src/controlTasks.c ****         H_comp = getSetpoint(&H_sp, TIME); 
 842              		.loc 1 241 13 view .LVU184
 843 02b0 FFF7FEFF 		bl	__aeabi_d2f
 844              	.LVL73:
 845 02b4 2146     		mov	r1, r4
 846 02b6 01EE100A 		vmov	s2, r0
 847 02ba DFED1F0A 		vldr.32	s1, .L39+88
 848 02be 0E4B     		ldr	r3, .L39+24
 849 02c0 93ED000A 		vldr.32	s0, [r3]
 850 02c4 0B48     		ldr	r0, .L39+20
ARM GAS  C:\Users\GUILLE~1\AppData\Local\Temp\cc6N2eIu.s 			page 23


 851 02c6 FFF7FEFF 		bl	setTrayectory
 852              	.LVL74:
 241:Core/drogui/src/controlTasks.c ****         H_comp = getSetpoint(&H_sp, TIME); 
 853              		.loc 1 241 74 view .LVU185
 854 02ca 084B     		ldr	r3, .L39+12
 855 02cc 0122     		movs	r2, #1
 856 02ce 1A70     		strb	r2, [r3]
 857 02d0 A7E6     		b	.L26
 858              	.L25:
 250:Core/drogui/src/controlTasks.c ****     }
 859              		.loc 1 250 9 is_stmt 1 view .LVU186
 250:Core/drogui/src/controlTasks.c ****     }
 860              		.loc 1 250 17 is_stmt 0 view .LVU187
 861 02d2 064B     		ldr	r3, .L39+12
 862 02d4 0022     		movs	r2, #0
 863 02d6 1A70     		strb	r2, [r3]
 864 02d8 BDE6     		b	.L28
 865              	.L40:
 866 02da 00BFAFF3 		.align	3
 866      0080
 867              	.L39:
 868 02e0 00000000 		.word	0
 869 02e4 00000840 		.word	1074266112
 870 02e8 00000000 		.word	state
 871 02ec 00000000 		.word	.LANCHOR25
 872 02f0 00000000 		.word	htim5
 873 02f4 00000000 		.word	.LANCHOR26
 874 02f8 00000000 		.word	.LANCHOR24
 875 02fc 00000000 		.word	.LANCHOR18
 876 0300 00000000 		.word	.LANCHOR22
 877 0304 00000000 		.word	.LANCHOR14
 878 0308 00000000 		.word	.LANCHOR16
 879 030c 00000000 		.word	.LANCHOR20
 880 0310 00000000 		.word	.LANCHOR21
 881 0314 00000000 		.word	.LANCHOR13
 882 0318 00000000 		.word	.LANCHOR15
 883 031c 00000000 		.word	.LANCHOR17
 884 0320 00000000 		.word	.LANCHOR19
 885 0324 00000000 		.word	xp
 886 0328 00000000 		.word	.LANCHOR3
 887 032c 00000000 		.word	yp
 888 0330 00000000 		.word	.LANCHOR0
 889 0334 00000000 		.word	z
 890 0338 00000000 		.word	0
 891 033c 00000000 		.word	.LANCHOR23
 892 0340 9A99193E 		.word	1041865114
 893 0344 00000000 		.word	roll
 894 0348 00000000 		.word	pitch
 895              	.L34:
 254:Core/drogui/src/controlTasks.c ****         setTrayectory(&y_sp, 0, 0, 0, TIME);
 896              		.loc 1 254 9 is_stmt 1 view .LVU188
 254:Core/drogui/src/controlTasks.c ****         setTrayectory(&y_sp, 0, 0, 0, TIME);
 897              		.loc 1 254 39 is_stmt 0 view .LVU189
 898 034c 2D4C     		ldr	r4, .L41
 899 034e 2368     		ldr	r3, [r4]
 900 0350 596A     		ldr	r1, [r3, #36]
 254:Core/drogui/src/controlTasks.c ****         setTrayectory(&y_sp, 0, 0, 0, TIME);
ARM GAS  C:\Users\GUILLE~1\AppData\Local\Temp\cc6N2eIu.s 			page 24


 901              		.loc 1 254 9 view .LVU190
 902 0352 9FED2D8A 		vldr.32	s16, .L41+4
 903 0356 B0EE481A 		vmov.f32	s2, s16
 904 035a F0EE480A 		vmov.f32	s1, s16
 905 035e B0EE480A 		vmov.f32	s0, s16
 906 0362 2A48     		ldr	r0, .L41+8
 907 0364 FFF7FEFF 		bl	setTrayectory
 908              	.LVL75:
 255:Core/drogui/src/controlTasks.c ****         setTrayectory(&z_sp, 0, 0, 0, TIME);
 909              		.loc 1 255 9 is_stmt 1 view .LVU191
 255:Core/drogui/src/controlTasks.c ****         setTrayectory(&z_sp, 0, 0, 0, TIME);
 910              		.loc 1 255 39 is_stmt 0 view .LVU192
 911 0368 2368     		ldr	r3, [r4]
 912 036a 596A     		ldr	r1, [r3, #36]
 255:Core/drogui/src/controlTasks.c ****         setTrayectory(&z_sp, 0, 0, 0, TIME);
 913              		.loc 1 255 9 view .LVU193
 914 036c B0EE481A 		vmov.f32	s2, s16
 915 0370 F0EE480A 		vmov.f32	s1, s16
 916 0374 B0EE480A 		vmov.f32	s0, s16
 917 0378 2548     		ldr	r0, .L41+12
 918 037a FFF7FEFF 		bl	setTrayectory
 919              	.LVL76:
 256:Core/drogui/src/controlTasks.c ****         //setReg(X_REF, 0), setReg(Y_REF, 0), setReg(Z_REF, 0);
 920              		.loc 1 256 9 is_stmt 1 view .LVU194
 256:Core/drogui/src/controlTasks.c ****         //setReg(X_REF, 0), setReg(Y_REF, 0), setReg(Z_REF, 0);
 921              		.loc 1 256 39 is_stmt 0 view .LVU195
 922 037e 2368     		ldr	r3, [r4]
 923 0380 596A     		ldr	r1, [r3, #36]
 256:Core/drogui/src/controlTasks.c ****         //setReg(X_REF, 0), setReg(Y_REF, 0), setReg(Z_REF, 0);
 924              		.loc 1 256 9 view .LVU196
 925 0382 B0EE481A 		vmov.f32	s2, s16
 926 0386 F0EE480A 		vmov.f32	s1, s16
 927 038a B0EE480A 		vmov.f32	s0, s16
 928 038e 2148     		ldr	r0, .L41+16
 929 0390 FFF7FEFF 		bl	setTrayectory
 930              	.LVL77:
 931 0394 64E6     		b	.L29
 932              	.L35:
 262:Core/drogui/src/controlTasks.c ****         resetPid(&y_control, TIME),
 933              		.loc 1 262 9 is_stmt 1 view .LVU197
 262:Core/drogui/src/controlTasks.c ****         resetPid(&y_control, TIME),
 934              		.loc 1 262 30 is_stmt 0 view .LVU198
 935 0396 1B4C     		ldr	r4, .L41
 936 0398 2368     		ldr	r3, [r4]
 937 039a 596A     		ldr	r1, [r3, #36]
 262:Core/drogui/src/controlTasks.c ****         resetPid(&y_control, TIME),
 938              		.loc 1 262 9 view .LVU199
 939 039c 1E48     		ldr	r0, .L41+20
 940 039e FFF7FEFF 		bl	resetPid
 941              	.LVL78:
 263:Core/drogui/src/controlTasks.c ****         resetPid(&z_control, TIME);
 942              		.loc 1 263 30 view .LVU200
 943 03a2 2368     		ldr	r3, [r4]
 944 03a4 596A     		ldr	r1, [r3, #36]
 263:Core/drogui/src/controlTasks.c ****         resetPid(&z_control, TIME);
 945              		.loc 1 263 9 view .LVU201
 946 03a6 1D48     		ldr	r0, .L41+24
ARM GAS  C:\Users\GUILLE~1\AppData\Local\Temp\cc6N2eIu.s 			page 25


 947 03a8 FFF7FEFF 		bl	resetPid
 948              	.LVL79:
 264:Core/drogui/src/controlTasks.c ****         
 949              		.loc 1 264 30 view .LVU202
 950 03ac 2368     		ldr	r3, [r4]
 951 03ae 596A     		ldr	r1, [r3, #36]
 264:Core/drogui/src/controlTasks.c ****         
 952              		.loc 1 264 9 view .LVU203
 953 03b0 1B48     		ldr	r0, .L41+28
 954 03b2 FFF7FEFF 		bl	resetPid
 955              	.LVL80:
 266:Core/drogui/src/controlTasks.c ****         H_comp = H/(cos(roll)*cos(pitch));
 956              		.loc 1 266 9 is_stmt 1 view .LVU204
 266:Core/drogui/src/controlTasks.c ****         H_comp = H/(cos(roll)*cos(pitch));
 957              		.loc 1 266 11 is_stmt 0 view .LVU205
 958 03b6 1B4B     		ldr	r3, .L41+32
 959 03b8 1B4A     		ldr	r2, .L41+36
 960 03ba 1A60     		str	r2, [r3]	@ float
 267:Core/drogui/src/controlTasks.c ****     }
 961              		.loc 1 267 9 is_stmt 1 view .LVU206
 267:Core/drogui/src/controlTasks.c ****     }
 962              		.loc 1 267 21 is_stmt 0 view .LVU207
 963 03bc 1B4B     		ldr	r3, .L41+40
 964 03be 1868     		ldr	r0, [r3]	@ float
 965 03c0 FFF7FEFF 		bl	__aeabi_f2d
 966              	.LVL81:
 967 03c4 41EC100B 		vmov	d0, r0, r1
 968 03c8 FFF7FEFF 		bl	cos
 969              	.LVL82:
 970 03cc 55EC104B 		vmov	r4, r5, d0
 267:Core/drogui/src/controlTasks.c ****     }
 971              		.loc 1 267 31 view .LVU208
 972 03d0 174B     		ldr	r3, .L41+44
 973 03d2 1868     		ldr	r0, [r3]	@ float
 974 03d4 FFF7FEFF 		bl	__aeabi_f2d
 975              	.LVL83:
 976 03d8 41EC100B 		vmov	d0, r0, r1
 977 03dc FFF7FEFF 		bl	cos
 978              	.LVL84:
 979 03e0 53EC102B 		vmov	r2, r3, d0
 267:Core/drogui/src/controlTasks.c ****     }
 980              		.loc 1 267 30 view .LVU209
 981 03e4 2046     		mov	r0, r4
 982 03e6 2946     		mov	r1, r5
 983 03e8 FFF7FEFF 		bl	__aeabi_dmul
 984              	.LVL85:
 985 03ec 0246     		mov	r2, r0
 986 03ee 0B46     		mov	r3, r1
 267:Core/drogui/src/controlTasks.c ****     }
 987              		.loc 1 267 19 view .LVU210
 988 03f0 0020     		movs	r0, #0
 989 03f2 1049     		ldr	r1, .L41+48
 990 03f4 FFF7FEFF 		bl	__aeabi_ddiv
 991              	.LVL86:
 992 03f8 FFF7FEFF 		bl	__aeabi_d2f
 993              	.LVL87:
 267:Core/drogui/src/controlTasks.c ****     }
ARM GAS  C:\Users\GUILLE~1\AppData\Local\Temp\cc6N2eIu.s 			page 26


 994              		.loc 1 267 16 view .LVU211
 995 03fc 0E4B     		ldr	r3, .L41+52
 996 03fe 1860     		str	r0, [r3]	@ float
 997 0400 33E6     		b	.L30
 998              	.L42:
 999 0402 00BF     		.align	2
 1000              	.L41:
 1001 0404 00000000 		.word	htim5
 1002 0408 00000000 		.word	0
 1003 040c 00000000 		.word	.LANCHOR13
 1004 0410 00000000 		.word	.LANCHOR15
 1005 0414 00000000 		.word	.LANCHOR17
 1006 0418 00000000 		.word	.LANCHOR20
 1007 041c 00000000 		.word	.LANCHOR21
 1008 0420 00000000 		.word	.LANCHOR22
 1009 0424 00000000 		.word	.LANCHOR19
 1010 0428 00002041 		.word	1092616192
 1011 042c 00000000 		.word	roll
 1012 0430 00000000 		.word	pitch
 1013 0434 00002440 		.word	1076101120
 1014 0438 00000000 		.word	.LANCHOR24
 1015              		.cfi_endproc
 1016              	.LFE178:
 1018              		.section	.text.saturateM,"ax",%progbits
 1019              		.align	1
 1020              		.global	saturateM
 1021              		.syntax unified
 1022              		.thumb
 1023              		.thumb_func
 1024              		.fpu fpv5-sp-d16
 1026              	saturateM:
 1027              	.LVL88:
 1028              	.LFB174:
  28:Core/drogui/src/controlTasks.c ****     float f_max = 1;
 1029              		.loc 1 28 24 is_stmt 1 view -0
 1030              		.cfi_startproc
 1031              		@ args = 0, pretend = 0, frame = 0
 1032              		@ frame_needed = 0, uses_anonymous_args = 0
  28:Core/drogui/src/controlTasks.c ****     float f_max = 1;
 1033              		.loc 1 28 24 is_stmt 0 view .LVU213
 1034 0000 10B5     		push	{r4, lr}
 1035              	.LCFI8:
 1036              		.cfi_def_cfa_offset 8
 1037              		.cfi_offset 4, -8
 1038              		.cfi_offset 14, -4
 1039 0002 2DED028B 		vpush.64	{d8}
 1040              	.LCFI9:
 1041              		.cfi_def_cfa_offset 16
 1042              		.cfi_offset 80, -16
 1043              		.cfi_offset 81, -12
 1044 0006 B0EE408A 		vmov.f32	s16, s0
  29:Core/drogui/src/controlTasks.c ****     /*
 1045              		.loc 1 29 5 is_stmt 1 view .LVU214
 1046              	.LVL89:
  37:Core/drogui/src/controlTasks.c ****     M2 = sqrt(M2 / f_max + H);
 1047              		.loc 1 37 5 view .LVU215
  37:Core/drogui/src/controlTasks.c ****     M2 = sqrt(M2 / f_max + H);
ARM GAS  C:\Users\GUILLE~1\AppData\Local\Temp\cc6N2eIu.s 			page 27


 1048              		.loc 1 37 18 is_stmt 0 view .LVU216
 1049 000a 254C     		ldr	r4, .L45
 1050 000c D4ED007A 		vldr.32	s15, [r4]
  37:Core/drogui/src/controlTasks.c ****     M2 = sqrt(M2 / f_max + H);
 1051              		.loc 1 37 10 view .LVU217
 1052 0010 77EE807A 		vadd.f32	s15, s15, s0
 1053 0014 17EE900A 		vmov	r0, s15
 1054 0018 FFF7FEFF 		bl	__aeabi_f2d
 1055              	.LVL90:
  37:Core/drogui/src/controlTasks.c ****     M2 = sqrt(M2 / f_max + H);
 1056              		.loc 1 37 10 view .LVU218
 1057 001c 41EC100B 		vmov	d0, r0, r1
 1058 0020 FFF7FEFF 		bl	sqrt
 1059              	.LVL91:
 1060 0024 51EC100B 		vmov	r0, r1, d0
 1061 0028 FFF7FEFF 		bl	__aeabi_d2f
 1062              	.LVL92:
  37:Core/drogui/src/controlTasks.c ****     M2 = sqrt(M2 / f_max + H);
 1063              		.loc 1 37 8 view .LVU219
 1064 002c 2060     		str	r0, [r4]	@ float
  38:Core/drogui/src/controlTasks.c ****     M3 = sqrt(M3 / f_max + H);
 1065              		.loc 1 38 5 is_stmt 1 view .LVU220
  38:Core/drogui/src/controlTasks.c ****     M3 = sqrt(M3 / f_max + H);
 1066              		.loc 1 38 18 is_stmt 0 view .LVU221
 1067 002e 1D4C     		ldr	r4, .L45+4
 1068 0030 D4ED007A 		vldr.32	s15, [r4]
  38:Core/drogui/src/controlTasks.c ****     M3 = sqrt(M3 / f_max + H);
 1069              		.loc 1 38 10 view .LVU222
 1070 0034 77EE887A 		vadd.f32	s15, s15, s16
 1071 0038 17EE900A 		vmov	r0, s15
 1072 003c FFF7FEFF 		bl	__aeabi_f2d
 1073              	.LVL93:
 1074 0040 41EC100B 		vmov	d0, r0, r1
 1075 0044 FFF7FEFF 		bl	sqrt
 1076              	.LVL94:
 1077 0048 51EC100B 		vmov	r0, r1, d0
 1078 004c FFF7FEFF 		bl	__aeabi_d2f
 1079              	.LVL95:
  38:Core/drogui/src/controlTasks.c ****     M3 = sqrt(M3 / f_max + H);
 1080              		.loc 1 38 8 view .LVU223
 1081 0050 2060     		str	r0, [r4]	@ float
  39:Core/drogui/src/controlTasks.c ****     M4 = sqrt(M4 / f_max + H);
 1082              		.loc 1 39 5 is_stmt 1 view .LVU224
  39:Core/drogui/src/controlTasks.c ****     M4 = sqrt(M4 / f_max + H);
 1083              		.loc 1 39 18 is_stmt 0 view .LVU225
 1084 0052 154C     		ldr	r4, .L45+8
 1085 0054 D4ED007A 		vldr.32	s15, [r4]
  39:Core/drogui/src/controlTasks.c ****     M4 = sqrt(M4 / f_max + H);
 1086              		.loc 1 39 10 view .LVU226
 1087 0058 77EE887A 		vadd.f32	s15, s15, s16
 1088 005c 17EE900A 		vmov	r0, s15
 1089 0060 FFF7FEFF 		bl	__aeabi_f2d
 1090              	.LVL96:
 1091 0064 41EC100B 		vmov	d0, r0, r1
 1092 0068 FFF7FEFF 		bl	sqrt
 1093              	.LVL97:
 1094 006c 51EC100B 		vmov	r0, r1, d0
ARM GAS  C:\Users\GUILLE~1\AppData\Local\Temp\cc6N2eIu.s 			page 28


 1095 0070 FFF7FEFF 		bl	__aeabi_d2f
 1096              	.LVL98:
  39:Core/drogui/src/controlTasks.c ****     M4 = sqrt(M4 / f_max + H);
 1097              		.loc 1 39 8 view .LVU227
 1098 0074 2060     		str	r0, [r4]	@ float
  40:Core/drogui/src/controlTasks.c **** }
 1099              		.loc 1 40 5 is_stmt 1 view .LVU228
  40:Core/drogui/src/controlTasks.c **** }
 1100              		.loc 1 40 18 is_stmt 0 view .LVU229
 1101 0076 0D4C     		ldr	r4, .L45+12
 1102 0078 D4ED007A 		vldr.32	s15, [r4]
  40:Core/drogui/src/controlTasks.c **** }
 1103              		.loc 1 40 10 view .LVU230
 1104 007c 77EE887A 		vadd.f32	s15, s15, s16
 1105 0080 17EE900A 		vmov	r0, s15
 1106 0084 FFF7FEFF 		bl	__aeabi_f2d
 1107              	.LVL99:
 1108 0088 41EC100B 		vmov	d0, r0, r1
 1109 008c FFF7FEFF 		bl	sqrt
 1110              	.LVL100:
 1111 0090 51EC100B 		vmov	r0, r1, d0
 1112 0094 FFF7FEFF 		bl	__aeabi_d2f
 1113              	.LVL101:
  40:Core/drogui/src/controlTasks.c **** }
 1114              		.loc 1 40 8 view .LVU231
 1115 0098 2060     		str	r0, [r4]	@ float
  41:Core/drogui/src/controlTasks.c **** 
 1116              		.loc 1 41 1 view .LVU232
 1117 009a BDEC028B 		vldm	sp!, {d8}
 1118              	.LCFI10:
 1119              		.cfi_restore 80
 1120              		.cfi_restore 81
 1121              		.cfi_def_cfa_offset 8
 1122              	.LVL102:
  41:Core/drogui/src/controlTasks.c **** 
 1123              		.loc 1 41 1 view .LVU233
 1124 009e 10BD     		pop	{r4, pc}
 1125              	.L46:
 1126              		.align	2
 1127              	.L45:
 1128 00a0 00000000 		.word	.LANCHOR27
 1129 00a4 00000000 		.word	.LANCHOR28
 1130 00a8 00000000 		.word	.LANCHOR29
 1131 00ac 00000000 		.word	.LANCHOR30
 1132              		.cfi_endproc
 1133              	.LFE174:
 1135              		.section	.text.wControlTask,"ax",%progbits
 1136              		.align	1
 1137              		.global	wControlTask
 1138              		.syntax unified
 1139              		.thumb
 1140              		.thumb_func
 1141              		.fpu fpv5-sp-d16
 1143              	wControlTask:
 1144              	.LFB176:
  97:Core/drogui/src/controlTasks.c ****     
 1145              		.loc 1 97 20 is_stmt 1 view -0
ARM GAS  C:\Users\GUILLE~1\AppData\Local\Temp\cc6N2eIu.s 			page 29


 1146              		.cfi_startproc
 1147              		@ args = 0, pretend = 0, frame = 0
 1148              		@ frame_needed = 0, uses_anonymous_args = 0
 1149 0000 F8B5     		push	{r3, r4, r5, r6, r7, lr}
 1150              	.LCFI11:
 1151              		.cfi_def_cfa_offset 24
 1152              		.cfi_offset 3, -24
 1153              		.cfi_offset 4, -20
 1154              		.cfi_offset 5, -16
 1155              		.cfi_offset 6, -12
 1156              		.cfi_offset 7, -8
 1157              		.cfi_offset 14, -4
 1158 0002 2DED048B 		vpush.64	{d8, d9}
 1159              	.LCFI12:
 1160              		.cfi_def_cfa_offset 40
 1161              		.cfi_offset 80, -40
 1162              		.cfi_offset 81, -36
 1163              		.cfi_offset 82, -32
 1164              		.cfi_offset 83, -28
  99:Core/drogui/src/controlTasks.c ****         float wroll_err  = wroll_ref - gx;
 1165              		.loc 1 99 5 view .LVU235
  99:Core/drogui/src/controlTasks.c ****         float wroll_err  = wroll_ref - gx;
 1166              		.loc 1 99 25 is_stmt 0 view .LVU236
 1167 0006 A84B     		ldr	r3, .L55+16
 1168 0008 1B68     		ldr	r3, [r3]
  99:Core/drogui/src/controlTasks.c ****         float wroll_err  = wroll_ref - gx;
 1169              		.loc 1 99 7 view .LVU237
 1170 000a 042B     		cmp	r3, #4
 1171 000c 18BF     		it	ne
 1172 000e 002B     		cmpne	r3, #0
 1173 0010 00F0B380 		beq	.L52
 1174              	.L48:
 118:Core/drogui/src/controlTasks.c ****         M1 = M2 = M3 = M4 = 0;
 1175              		.loc 1 118 5 is_stmt 1 view .LVU238
 118:Core/drogui/src/controlTasks.c ****         M1 = M2 = M3 = M4 = 0;
 1176              		.loc 1 118 14 is_stmt 0 view .LVU239
 1177 0014 A44B     		ldr	r3, .L55+16
 1178 0016 1B68     		ldr	r3, [r3]
 118:Core/drogui/src/controlTasks.c ****         M1 = M2 = M3 = M4 = 0;
 1179              		.loc 1 118 7 view .LVU240
 1180 0018 012B     		cmp	r3, #1
 1181 001a 00F01781 		beq	.L53
 1182              	.L49:
 122:Core/drogui/src/controlTasks.c ****         M1 = M2 = M3 = M4 = 30;
 1183              		.loc 1 122 5 is_stmt 1 view .LVU241
 122:Core/drogui/src/controlTasks.c ****         M1 = M2 = M3 = M4 = 30;
 1184              		.loc 1 122 7 is_stmt 0 view .LVU242
 1185 001e 032B     		cmp	r3, #3
 1186 0020 00F01E81 		beq	.L54
 1187              	.L50:
 129:Core/drogui/src/controlTasks.c ****     setPwm(&m2, fmin(fmax(M2,0), 100));
 1188              		.loc 1 129 5 is_stmt 1 view .LVU243
 129:Core/drogui/src/controlTasks.c ****     setPwm(&m2, fmin(fmax(M2,0), 100));
 1189              		.loc 1 129 17 is_stmt 0 view .LVU244
 1190 0024 9FED9C9B 		vldr.64	d9, .L55
 1191 0028 A04F     		ldr	r7, .L55+20
 1192 002a 3868     		ldr	r0, [r7]	@ float
ARM GAS  C:\Users\GUILLE~1\AppData\Local\Temp\cc6N2eIu.s 			page 30


 1193 002c FFF7FEFF 		bl	__aeabi_f2d
 1194              	.LVL103:
 1195 0030 B0EE491A 		vmov.f32	s2, s18
 1196 0034 F0EE691A 		vmov.f32	s3, s19
 1197 0038 41EC100B 		vmov	d0, r0, r1
 1198 003c FFF7FEFF 		bl	fmax
 1199              	.LVL104:
 1200 0040 9FED978B 		vldr.64	d8, .L55+8
 1201 0044 B0EE481A 		vmov.f32	s2, s16
 1202 0048 F0EE681A 		vmov.f32	s3, s17
 1203 004c FFF7FEFF 		bl	fmin
 1204              	.LVL105:
 1205 0050 51EC100B 		vmov	r0, r1, d0
 129:Core/drogui/src/controlTasks.c ****     setPwm(&m2, fmin(fmax(M2,0), 100));
 1206              		.loc 1 129 5 view .LVU245
 1207 0054 FFF7FEFF 		bl	__aeabi_d2f
 1208              	.LVL106:
 1209 0058 00EE100A 		vmov	s0, r0
 1210 005c 9448     		ldr	r0, .L55+24
 1211 005e FFF7FEFF 		bl	setPwm
 1212              	.LVL107:
 130:Core/drogui/src/controlTasks.c ****     setPwm(&m3, fmin(fmax(M3,0), 100));
 1213              		.loc 1 130 5 is_stmt 1 view .LVU246
 130:Core/drogui/src/controlTasks.c ****     setPwm(&m3, fmin(fmax(M3,0), 100));
 1214              		.loc 1 130 17 is_stmt 0 view .LVU247
 1215 0062 944E     		ldr	r6, .L55+28
 1216 0064 3068     		ldr	r0, [r6]	@ float
 1217 0066 FFF7FEFF 		bl	__aeabi_f2d
 1218              	.LVL108:
 1219 006a B0EE491A 		vmov.f32	s2, s18
 1220 006e F0EE691A 		vmov.f32	s3, s19
 1221 0072 41EC100B 		vmov	d0, r0, r1
 1222 0076 FFF7FEFF 		bl	fmax
 1223              	.LVL109:
 1224 007a B0EE481A 		vmov.f32	s2, s16
 1225 007e F0EE681A 		vmov.f32	s3, s17
 1226 0082 FFF7FEFF 		bl	fmin
 1227              	.LVL110:
 1228 0086 51EC100B 		vmov	r0, r1, d0
 130:Core/drogui/src/controlTasks.c ****     setPwm(&m3, fmin(fmax(M3,0), 100));
 1229              		.loc 1 130 5 view .LVU248
 1230 008a FFF7FEFF 		bl	__aeabi_d2f
 1231              	.LVL111:
 1232 008e 00EE100A 		vmov	s0, r0
 1233 0092 8948     		ldr	r0, .L55+32
 1234 0094 FFF7FEFF 		bl	setPwm
 1235              	.LVL112:
 131:Core/drogui/src/controlTasks.c ****     setPwm(&m4, fmin(fmax(M4,0), 100));
 1236              		.loc 1 131 5 is_stmt 1 view .LVU249
 131:Core/drogui/src/controlTasks.c ****     setPwm(&m4, fmin(fmax(M4,0), 100));
 1237              		.loc 1 131 17 is_stmt 0 view .LVU250
 1238 0098 884D     		ldr	r5, .L55+36
 1239 009a 2868     		ldr	r0, [r5]	@ float
 1240 009c FFF7FEFF 		bl	__aeabi_f2d
 1241              	.LVL113:
 1242 00a0 B0EE491A 		vmov.f32	s2, s18
 1243 00a4 F0EE691A 		vmov.f32	s3, s19
ARM GAS  C:\Users\GUILLE~1\AppData\Local\Temp\cc6N2eIu.s 			page 31


 1244 00a8 41EC100B 		vmov	d0, r0, r1
 1245 00ac FFF7FEFF 		bl	fmax
 1246              	.LVL114:
 1247 00b0 B0EE481A 		vmov.f32	s2, s16
 1248 00b4 F0EE681A 		vmov.f32	s3, s17
 1249 00b8 FFF7FEFF 		bl	fmin
 1250              	.LVL115:
 1251 00bc 51EC100B 		vmov	r0, r1, d0
 131:Core/drogui/src/controlTasks.c ****     setPwm(&m4, fmin(fmax(M4,0), 100));
 1252              		.loc 1 131 5 view .LVU251
 1253 00c0 FFF7FEFF 		bl	__aeabi_d2f
 1254              	.LVL116:
 1255 00c4 00EE100A 		vmov	s0, r0
 1256 00c8 7D48     		ldr	r0, .L55+40
 1257 00ca FFF7FEFF 		bl	setPwm
 1258              	.LVL117:
 132:Core/drogui/src/controlTasks.c ****     
 1259              		.loc 1 132 5 is_stmt 1 view .LVU252
 132:Core/drogui/src/controlTasks.c ****     
 1260              		.loc 1 132 17 is_stmt 0 view .LVU253
 1261 00ce 7D4C     		ldr	r4, .L55+44
 1262 00d0 2068     		ldr	r0, [r4]	@ float
 1263 00d2 FFF7FEFF 		bl	__aeabi_f2d
 1264              	.LVL118:
 1265 00d6 B0EE491A 		vmov.f32	s2, s18
 1266 00da F0EE691A 		vmov.f32	s3, s19
 1267 00de 41EC100B 		vmov	d0, r0, r1
 1268 00e2 FFF7FEFF 		bl	fmax
 1269              	.LVL119:
 1270 00e6 B0EE481A 		vmov.f32	s2, s16
 1271 00ea F0EE681A 		vmov.f32	s3, s17
 1272 00ee FFF7FEFF 		bl	fmin
 1273              	.LVL120:
 1274 00f2 51EC100B 		vmov	r0, r1, d0
 132:Core/drogui/src/controlTasks.c ****     
 1275              		.loc 1 132 5 view .LVU254
 1276 00f6 FFF7FEFF 		bl	__aeabi_d2f
 1277              	.LVL121:
 1278 00fa 00EE100A 		vmov	s0, r0
 1279 00fe 7248     		ldr	r0, .L55+48
 1280 0100 FFF7FEFF 		bl	setPwm
 1281              	.LVL122:
 134:Core/drogui/src/controlTasks.c ****     setReg(DER_GYRO_Y, wpitch_control.errd);
 1282              		.loc 1 134 5 is_stmt 1 view .LVU255
 1283 0104 714B     		ldr	r3, .L55+52
 1284 0106 93ED170A 		vldr.32	s0, [r3, #92]
 1285 010a E620     		movs	r0, #230
 1286 010c FFF7FEFF 		bl	setReg
 1287              	.LVL123:
 135:Core/drogui/src/controlTasks.c **** 
 1288              		.loc 1 135 5 view .LVU256
 1289 0110 6F4B     		ldr	r3, .L55+56
 1290 0112 93ED170A 		vldr.32	s0, [r3, #92]
 1291 0116 E820     		movs	r0, #232
 1292 0118 FFF7FEFF 		bl	setReg
 1293              	.LVL124:
 137:Core/drogui/src/controlTasks.c ****     setReg(PITCH_U, P);
ARM GAS  C:\Users\GUILLE~1\AppData\Local\Temp\cc6N2eIu.s 			page 32


 1294              		.loc 1 137 5 view .LVU257
 1295 011c 6D4B     		ldr	r3, .L55+60
 1296 011e 93ED000A 		vldr.32	s0, [r3]
 1297 0122 5C20     		movs	r0, #92
 1298 0124 FFF7FEFF 		bl	setReg
 1299              	.LVL125:
 138:Core/drogui/src/controlTasks.c ****     setReg(YAW_U, Y);
 1300              		.loc 1 138 5 view .LVU258
 1301 0128 6B4B     		ldr	r3, .L55+64
 1302 012a 93ED000A 		vldr.32	s0, [r3]
 1303 012e 5E20     		movs	r0, #94
 1304 0130 FFF7FEFF 		bl	setReg
 1305              	.LVL126:
 139:Core/drogui/src/controlTasks.c ****     setReg(Z_U, H_comp);
 1306              		.loc 1 139 5 view .LVU259
 1307 0134 694B     		ldr	r3, .L55+68
 1308 0136 93ED000A 		vldr.32	s0, [r3]
 1309 013a 6020     		movs	r0, #96
 1310 013c FFF7FEFF 		bl	setReg
 1311              	.LVL127:
 140:Core/drogui/src/controlTasks.c ****     
 1312              		.loc 1 140 5 view .LVU260
 1313 0140 674B     		ldr	r3, .L55+72
 1314 0142 93ED000A 		vldr.32	s0, [r3]
 1315 0146 6620     		movs	r0, #102
 1316 0148 FFF7FEFF 		bl	setReg
 1317              	.LVL128:
 142:Core/drogui/src/controlTasks.c ****     setReg(MOTOR_2, M2);
 1318              		.loc 1 142 5 view .LVU261
 1319 014c 97ED000A 		vldr.32	s0, [r7]
 1320 0150 6820     		movs	r0, #104
 1321 0152 FFF7FEFF 		bl	setReg
 1322              	.LVL129:
 143:Core/drogui/src/controlTasks.c ****     setReg(MOTOR_3, M3);
 1323              		.loc 1 143 5 view .LVU262
 1324 0156 96ED000A 		vldr.32	s0, [r6]
 1325 015a 6A20     		movs	r0, #106
 1326 015c FFF7FEFF 		bl	setReg
 1327              	.LVL130:
 144:Core/drogui/src/controlTasks.c ****     setReg(MOTOR_4, M4);
 1328              		.loc 1 144 5 view .LVU263
 1329 0160 95ED000A 		vldr.32	s0, [r5]
 1330 0164 6C20     		movs	r0, #108
 1331 0166 FFF7FEFF 		bl	setReg
 1332              	.LVL131:
 145:Core/drogui/src/controlTasks.c **** 
 1333              		.loc 1 145 5 view .LVU264
 1334 016a 94ED000A 		vldr.32	s0, [r4]
 1335 016e 6E20     		movs	r0, #110
 1336 0170 FFF7FEFF 		bl	setReg
 1337              	.LVL132:
 147:Core/drogui/src/controlTasks.c **** 
 1338              		.loc 1 147 1 is_stmt 0 view .LVU265
 1339 0174 BDEC048B 		vldm	sp!, {d8-d9}
 1340              	.LCFI13:
 1341              		.cfi_remember_state
 1342              		.cfi_restore 82
ARM GAS  C:\Users\GUILLE~1\AppData\Local\Temp\cc6N2eIu.s 			page 33


 1343              		.cfi_restore 83
 1344              		.cfi_restore 80
 1345              		.cfi_restore 81
 1346              		.cfi_def_cfa_offset 24
 1347 0178 F8BD     		pop	{r3, r4, r5, r6, r7, pc}
 1348              	.L52:
 1349              	.LCFI14:
 1350              		.cfi_restore_state
 1351              	.LBB2:
 100:Core/drogui/src/controlTasks.c ****         float wpitch_err = wpitch_ref - gy;
 1352              		.loc 1 100 9 is_stmt 1 view .LVU266
 100:Core/drogui/src/controlTasks.c ****         float wpitch_err = wpitch_ref - gy;
 1353              		.loc 1 100 38 is_stmt 0 view .LVU267
 1354 017a 5A4B     		ldr	r3, .L55+76
 1355 017c 93ED000A 		vldr.32	s0, [r3]
 1356 0180 594B     		ldr	r3, .L55+80
 1357 0182 D3ED007A 		vldr.32	s15, [r3]
 1358              	.LVL133:
 101:Core/drogui/src/controlTasks.c ****         float wyaw_err   = wyaw_ref - gz;
 1359              		.loc 1 101 9 is_stmt 1 view .LVU268
 101:Core/drogui/src/controlTasks.c ****         float wyaw_err   = wyaw_ref - gz;
 1360              		.loc 1 101 39 is_stmt 0 view .LVU269
 1361 0186 594B     		ldr	r3, .L55+84
 1362 0188 93ED009A 		vldr.32	s18, [r3]
 1363 018c 584B     		ldr	r3, .L55+88
 1364 018e 93ED007A 		vldr.32	s14, [r3]
 101:Core/drogui/src/controlTasks.c ****         float wyaw_err   = wyaw_ref - gz;
 1365              		.loc 1 101 15 view .LVU270
 1366 0192 39EE479A 		vsub.f32	s18, s18, s14
 1367              	.LVL134:
 102:Core/drogui/src/controlTasks.c ****         
 1368              		.loc 1 102 9 is_stmt 1 view .LVU271
 102:Core/drogui/src/controlTasks.c ****         
 1369              		.loc 1 102 37 is_stmt 0 view .LVU272
 1370 0196 574B     		ldr	r3, .L55+92
 1371 0198 93ED008A 		vldr.32	s16, [r3]
 1372 019c 564B     		ldr	r3, .L55+96
 1373 019e 93ED007A 		vldr.32	s14, [r3]
 102:Core/drogui/src/controlTasks.c ****         
 1374              		.loc 1 102 15 view .LVU273
 1375 01a2 38EE478A 		vsub.f32	s16, s16, s14
 1376              	.LVL135:
 104:Core/drogui/src/controlTasks.c ****         P = computePid(&wpitch_control, wpitch_err, TIME, 0);
 1377              		.loc 1 104 9 is_stmt 1 view .LVU274
 104:Core/drogui/src/controlTasks.c ****         P = computePid(&wpitch_control, wpitch_err, TIME, 0);
 1378              		.loc 1 104 51 is_stmt 0 view .LVU275
 1379 01a6 554C     		ldr	r4, .L55+100
 1380 01a8 2368     		ldr	r3, [r4]
 1381 01aa 596A     		ldr	r1, [r3, #36]
 104:Core/drogui/src/controlTasks.c ****         P = computePid(&wpitch_control, wpitch_err, TIME, 0);
 1382              		.loc 1 104 13 view .LVU276
 1383 01ac DFED548A 		vldr.32	s17, .L55+104
 1384 01b0 F0EE680A 		vmov.f32	s1, s17
 1385 01b4 30EE670A 		vsub.f32	s0, s0, s15
 1386              	.LVL136:
 104:Core/drogui/src/controlTasks.c ****         P = computePid(&wpitch_control, wpitch_err, TIME, 0);
 1387              		.loc 1 104 13 view .LVU277
ARM GAS  C:\Users\GUILLE~1\AppData\Local\Temp\cc6N2eIu.s 			page 34


 1388 01b8 4448     		ldr	r0, .L55+52
 1389 01ba FFF7FEFF 		bl	computePid
 1390              	.LVL137:
 104:Core/drogui/src/controlTasks.c ****         P = computePid(&wpitch_control, wpitch_err, TIME, 0);
 1391              		.loc 1 104 11 view .LVU278
 1392 01be 454E     		ldr	r6, .L55+60
 1393 01c0 86ED000A 		vstr.32	s0, [r6]
 105:Core/drogui/src/controlTasks.c ****         Y = computePid(&wyaw_control, wyaw_err, TIME, 0);
 1394              		.loc 1 105 9 is_stmt 1 view .LVU279
 105:Core/drogui/src/controlTasks.c ****         Y = computePid(&wyaw_control, wyaw_err, TIME, 0);
 1395              		.loc 1 105 53 is_stmt 0 view .LVU280
 1396 01c4 2368     		ldr	r3, [r4]
 1397 01c6 596A     		ldr	r1, [r3, #36]
 105:Core/drogui/src/controlTasks.c ****         Y = computePid(&wyaw_control, wyaw_err, TIME, 0);
 1398              		.loc 1 105 13 view .LVU281
 1399 01c8 F0EE680A 		vmov.f32	s1, s17
 1400 01cc B0EE490A 		vmov.f32	s0, s18
 1401 01d0 3F48     		ldr	r0, .L55+56
 1402 01d2 FFF7FEFF 		bl	computePid
 1403              	.LVL138:
 105:Core/drogui/src/controlTasks.c ****         Y = computePid(&wyaw_control, wyaw_err, TIME, 0);
 1404              		.loc 1 105 11 view .LVU282
 1405 01d6 404D     		ldr	r5, .L55+64
 1406 01d8 85ED000A 		vstr.32	s0, [r5]
 106:Core/drogui/src/controlTasks.c **** 
 1407              		.loc 1 106 9 is_stmt 1 view .LVU283
 106:Core/drogui/src/controlTasks.c **** 
 1408              		.loc 1 106 49 is_stmt 0 view .LVU284
 1409 01dc 2368     		ldr	r3, [r4]
 1410 01de 596A     		ldr	r1, [r3, #36]
 106:Core/drogui/src/controlTasks.c **** 
 1411              		.loc 1 106 13 view .LVU285
 1412 01e0 F0EE680A 		vmov.f32	s1, s17
 1413 01e4 B0EE480A 		vmov.f32	s0, s16
 1414 01e8 4648     		ldr	r0, .L55+108
 1415 01ea FFF7FEFF 		bl	computePid
 1416              	.LVL139:
 106:Core/drogui/src/controlTasks.c **** 
 1417              		.loc 1 106 11 view .LVU286
 1418 01ee 3B4B     		ldr	r3, .L55+68
 1419 01f0 83ED000A 		vstr.32	s0, [r3]
 108:Core/drogui/src/controlTasks.c ****         M2 = - R  - P + Y;
 1420              		.loc 1 108 9 is_stmt 1 view .LVU287
 108:Core/drogui/src/controlTasks.c ****         M2 = - R  - P + Y;
 1421              		.loc 1 108 19 is_stmt 0 view .LVU288
 1422 01f4 D6ED007A 		vldr.32	s15, [r6]
 1423 01f8 D5ED006A 		vldr.32	s13, [r5]
 1424 01fc 37EEE67A 		vsub.f32	s14, s15, s13
 108:Core/drogui/src/controlTasks.c ****         M2 = - R  - P + Y;
 1425              		.loc 1 108 23 view .LVU289
 1426 0200 37EE407A 		vsub.f32	s14, s14, s0
 108:Core/drogui/src/controlTasks.c ****         M2 = - R  - P + Y;
 1427              		.loc 1 108 12 view .LVU290
 1428 0204 294B     		ldr	r3, .L55+20
 1429 0206 83ED007A 		vstr.32	s14, [r3]
 109:Core/drogui/src/controlTasks.c ****         M3 = - R  + P - Y;
 1430              		.loc 1 109 9 is_stmt 1 view .LVU291
ARM GAS  C:\Users\GUILLE~1\AppData\Local\Temp\cc6N2eIu.s 			page 35


 109:Core/drogui/src/controlTasks.c ****         M3 = - R  + P - Y;
 1431              		.loc 1 109 14 is_stmt 0 view .LVU292
 1432 020a B1EE677A 		vneg.f32	s14, s15
 109:Core/drogui/src/controlTasks.c ****         M3 = - R  + P - Y;
 1433              		.loc 1 109 19 view .LVU293
 1434 020e 37EE667A 		vsub.f32	s14, s14, s13
 109:Core/drogui/src/controlTasks.c ****         M3 = - R  + P - Y;
 1435              		.loc 1 109 23 view .LVU294
 1436 0212 30EE077A 		vadd.f32	s14, s0, s14
 109:Core/drogui/src/controlTasks.c ****         M3 = - R  + P - Y;
 1437              		.loc 1 109 12 view .LVU295
 1438 0216 274B     		ldr	r3, .L55+28
 1439 0218 83ED007A 		vstr.32	s14, [r3]
 110:Core/drogui/src/controlTasks.c ****         M4 = + R  + P + Y;
 1440              		.loc 1 110 9 is_stmt 1 view .LVU296
 110:Core/drogui/src/controlTasks.c ****         M4 = + R  + P + Y;
 1441              		.loc 1 110 19 is_stmt 0 view .LVU297
 1442 021c 36EEE77A 		vsub.f32	s14, s13, s15
 110:Core/drogui/src/controlTasks.c ****         M4 = + R  + P + Y;
 1443              		.loc 1 110 23 view .LVU298
 1444 0220 37EE407A 		vsub.f32	s14, s14, s0
 110:Core/drogui/src/controlTasks.c ****         M4 = + R  + P + Y;
 1445              		.loc 1 110 12 view .LVU299
 1446 0224 254B     		ldr	r3, .L55+36
 1447 0226 83ED007A 		vstr.32	s14, [r3]
 111:Core/drogui/src/controlTasks.c **** 
 1448              		.loc 1 111 9 is_stmt 1 view .LVU300
 111:Core/drogui/src/controlTasks.c **** 
 1449              		.loc 1 111 19 is_stmt 0 view .LVU301
 1450 022a 77EEA67A 		vadd.f32	s15, s15, s13
 111:Core/drogui/src/controlTasks.c **** 
 1451              		.loc 1 111 23 view .LVU302
 1452 022e 30EE270A 		vadd.f32	s0, s0, s15
 111:Core/drogui/src/controlTasks.c **** 
 1453              		.loc 1 111 12 view .LVU303
 1454 0232 244B     		ldr	r3, .L55+44
 1455 0234 83ED000A 		vstr.32	s0, [r3]
 113:Core/drogui/src/controlTasks.c ****     }
 1456              		.loc 1 113 9 is_stmt 1 view .LVU304
 1457 0238 294B     		ldr	r3, .L55+72
 1458 023a 93ED000A 		vldr.32	s0, [r3]
 1459 023e DFED327A 		vldr.32	s15, .L55+112
 1460 0242 20EE270A 		vmul.f32	s0, s0, s15
 1461 0246 FFF7FEFF 		bl	saturateM
 1462              	.LVL140:
 1463 024a E3E6     		b	.L48
 1464              	.LVL141:
 1465              	.L53:
 113:Core/drogui/src/controlTasks.c ****     }
 1466              		.loc 1 113 9 is_stmt 0 view .LVU305
 1467              	.LBE2:
 119:Core/drogui/src/controlTasks.c ****     }
 1468              		.loc 1 119 9 is_stmt 1 view .LVU306
 119:Core/drogui/src/controlTasks.c ****     }
 1469              		.loc 1 119 27 is_stmt 0 view .LVU307
 1470 024c 0022     		movs	r2, #0
 1471 024e 1D49     		ldr	r1, .L55+44
ARM GAS  C:\Users\GUILLE~1\AppData\Local\Temp\cc6N2eIu.s 			page 36


 1472 0250 0A60     		str	r2, [r1]	@ float
 119:Core/drogui/src/controlTasks.c ****     }
 1473              		.loc 1 119 22 view .LVU308
 1474 0252 1A49     		ldr	r1, .L55+36
 1475 0254 0A60     		str	r2, [r1]	@ float
 119:Core/drogui/src/controlTasks.c ****     }
 1476              		.loc 1 119 17 view .LVU309
 1477 0256 1749     		ldr	r1, .L55+28
 1478 0258 0A60     		str	r2, [r1]	@ float
 119:Core/drogui/src/controlTasks.c ****     }
 1479              		.loc 1 119 12 view .LVU310
 1480 025a 1449     		ldr	r1, .L55+20
 1481 025c 0A60     		str	r2, [r1]	@ float
 1482 025e DEE6     		b	.L49
 1483              	.L54:
 123:Core/drogui/src/controlTasks.c ****         resetPid(&wroll_control, TIME);
 1484              		.loc 1 123 9 is_stmt 1 view .LVU311
 123:Core/drogui/src/controlTasks.c ****         resetPid(&wroll_control, TIME);
 1485              		.loc 1 123 27 is_stmt 0 view .LVU312
 1486 0260 2A4B     		ldr	r3, .L55+116
 1487 0262 184A     		ldr	r2, .L55+44
 1488 0264 1360     		str	r3, [r2]	@ float
 123:Core/drogui/src/controlTasks.c ****         resetPid(&wroll_control, TIME);
 1489              		.loc 1 123 22 view .LVU313
 1490 0266 154A     		ldr	r2, .L55+36
 1491 0268 1360     		str	r3, [r2]	@ float
 123:Core/drogui/src/controlTasks.c ****         resetPid(&wroll_control, TIME);
 1492              		.loc 1 123 17 view .LVU314
 1493 026a 124A     		ldr	r2, .L55+28
 1494 026c 1360     		str	r3, [r2]	@ float
 123:Core/drogui/src/controlTasks.c ****         resetPid(&wroll_control, TIME);
 1495              		.loc 1 123 12 view .LVU315
 1496 026e 0F4A     		ldr	r2, .L55+20
 1497 0270 1360     		str	r3, [r2]	@ float
 124:Core/drogui/src/controlTasks.c ****         resetPid(&wpitch_control, TIME);
 1498              		.loc 1 124 9 is_stmt 1 view .LVU316
 124:Core/drogui/src/controlTasks.c ****         resetPid(&wpitch_control, TIME);
 1499              		.loc 1 124 34 is_stmt 0 view .LVU317
 1500 0272 224C     		ldr	r4, .L55+100
 1501 0274 2368     		ldr	r3, [r4]
 1502 0276 596A     		ldr	r1, [r3, #36]
 124:Core/drogui/src/controlTasks.c ****         resetPid(&wpitch_control, TIME);
 1503              		.loc 1 124 9 view .LVU318
 1504 0278 1448     		ldr	r0, .L55+52
 1505 027a FFF7FEFF 		bl	resetPid
 1506              	.LVL142:
 125:Core/drogui/src/controlTasks.c ****         resetPid(&wyaw_control, TIME);
 1507              		.loc 1 125 9 is_stmt 1 view .LVU319
 125:Core/drogui/src/controlTasks.c ****         resetPid(&wyaw_control, TIME);
 1508              		.loc 1 125 35 is_stmt 0 view .LVU320
 1509 027e 2368     		ldr	r3, [r4]
 1510 0280 596A     		ldr	r1, [r3, #36]
 125:Core/drogui/src/controlTasks.c ****         resetPid(&wyaw_control, TIME);
 1511              		.loc 1 125 9 view .LVU321
 1512 0282 1348     		ldr	r0, .L55+56
 1513 0284 FFF7FEFF 		bl	resetPid
 1514              	.LVL143:
ARM GAS  C:\Users\GUILLE~1\AppData\Local\Temp\cc6N2eIu.s 			page 37


 126:Core/drogui/src/controlTasks.c ****     }
 1515              		.loc 1 126 9 is_stmt 1 view .LVU322
 126:Core/drogui/src/controlTasks.c ****     }
 1516              		.loc 1 126 33 is_stmt 0 view .LVU323
 1517 0288 2368     		ldr	r3, [r4]
 1518 028a 596A     		ldr	r1, [r3, #36]
 126:Core/drogui/src/controlTasks.c ****     }
 1519              		.loc 1 126 9 view .LVU324
 1520 028c 1D48     		ldr	r0, .L55+108
 1521 028e FFF7FEFF 		bl	resetPid
 1522              	.LVL144:
 1523 0292 C7E6     		b	.L50
 1524              	.L56:
 1525 0294 AFF30080 		.align	3
 1526              	.L55:
 1527 0298 00000000 		.word	0
 1528 029c 00000000 		.word	0
 1529 02a0 00000000 		.word	0
 1530 02a4 00005940 		.word	1079574528
 1531 02a8 00000000 		.word	state
 1532 02ac 00000000 		.word	.LANCHOR27
 1533 02b0 00000000 		.word	.LANCHOR37
 1534 02b4 00000000 		.word	.LANCHOR28
 1535 02b8 00000000 		.word	.LANCHOR38
 1536 02bc 00000000 		.word	.LANCHOR29
 1537 02c0 00000000 		.word	.LANCHOR39
 1538 02c4 00000000 		.word	.LANCHOR30
 1539 02c8 00000000 		.word	.LANCHOR40
 1540 02cc 00000000 		.word	.LANCHOR31
 1541 02d0 00000000 		.word	.LANCHOR33
 1542 02d4 00000000 		.word	.LANCHOR32
 1543 02d8 00000000 		.word	.LANCHOR34
 1544 02dc 00000000 		.word	.LANCHOR36
 1545 02e0 00000000 		.word	.LANCHOR24
 1546 02e4 00000000 		.word	.LANCHOR8
 1547 02e8 00000000 		.word	gx
 1548 02ec 00000000 		.word	.LANCHOR10
 1549 02f0 00000000 		.word	gy
 1550 02f4 00000000 		.word	.LANCHOR12
 1551 02f8 00000000 		.word	gz
 1552 02fc 00000000 		.word	htim5
 1553 0300 00000000 		.word	0
 1554 0304 00000000 		.word	.LANCHOR35
 1555 0308 0000C842 		.word	1120403456
 1556 030c 0000F041 		.word	1106247680
 1557              		.cfi_endproc
 1558              	.LFE176:
 1560              		.section	.text.updatePID,"ax",%progbits
 1561              		.align	1
 1562              		.global	updatePID
 1563              		.syntax unified
 1564              		.thumb
 1565              		.thumb_func
 1566              		.fpu fpv5-sp-d16
 1568              	updatePID:
 1569              	.LFB175:
  44:Core/drogui/src/controlTasks.c ****     int index = getReg(PID_INDEX), var = getReg(PID_VAR);
ARM GAS  C:\Users\GUILLE~1\AppData\Local\Temp\cc6N2eIu.s 			page 38


 1570              		.loc 1 44 17 is_stmt 1 view -0
 1571              		.cfi_startproc
 1572              		@ args = 0, pretend = 0, frame = 0
 1573              		@ frame_needed = 0, uses_anonymous_args = 0
 1574 0000 10B5     		push	{r4, lr}
 1575              	.LCFI15:
 1576              		.cfi_def_cfa_offset 8
 1577              		.cfi_offset 4, -8
 1578              		.cfi_offset 14, -4
 1579 0002 2DED028B 		vpush.64	{d8}
 1580              	.LCFI16:
 1581              		.cfi_def_cfa_offset 16
 1582              		.cfi_offset 80, -16
 1583              		.cfi_offset 81, -12
  45:Core/drogui/src/controlTasks.c **** 
 1584              		.loc 1 45 5 view .LVU326
  45:Core/drogui/src/controlTasks.c **** 
 1585              		.loc 1 45 17 is_stmt 0 view .LVU327
 1586 0006 5420     		movs	r0, #84
 1587 0008 FFF7FEFF 		bl	getReg
 1588              	.LVL145:
  45:Core/drogui/src/controlTasks.c **** 
 1589              		.loc 1 45 9 view .LVU328
 1590 000c BDEEC08A 		vcvt.s32.f32	s16, s0
 1591              	.LVL146:
  45:Core/drogui/src/controlTasks.c **** 
 1592              		.loc 1 45 42 view .LVU329
 1593 0010 5620     		movs	r0, #86
 1594 0012 FFF7FEFF 		bl	getReg
 1595              	.LVL147:
  45:Core/drogui/src/controlTasks.c **** 
 1596              		.loc 1 45 36 view .LVU330
 1597 0016 BDEEC00A 		vcvt.s32.f32	s0, s0
 1598              	.LVL148:
  47:Core/drogui/src/controlTasks.c **** 
 1599              		.loc 1 47 5 is_stmt 1 view .LVU331
 1600 001a 10EE103A 		vmov	r3, s0	@ int
 1601 001e 052B     		cmp	r3, #5
 1602 0020 00F28A80 		bhi	.L58
 1603 0024 DFE803F0 		tbb	[pc, r3]
 1604              	.L60:
 1605 0028 03       		.byte	(.L65-.L60)/2
 1606 0029 2A       		.byte	(.L64-.L60)/2
 1607 002a 51       		.byte	(.L63-.L60)/2
 1608 002b 78       		.byte	(.L62-.L60)/2
 1609 002c A0       		.byte	(.L61-.L60)/2
 1610 002d B1       		.byte	(.L59-.L60)/2
 1611              		.p2align 1
 1612              	.L65:
  50:Core/drogui/src/controlTasks.c ****                 roll2w.kp[0] = getReg(ROLL_KP),  roll2w.ki[0] = getReg(ROLL_KI),  roll2w.kd[0] = ge
 1613              		.loc 1 50 13 view .LVU332
  50:Core/drogui/src/controlTasks.c ****                 roll2w.kp[0] = getReg(ROLL_KP),  roll2w.ki[0] = getReg(ROLL_KI),  roll2w.kd[0] = ge
 1614              		.loc 1 50 15 is_stmt 0 view .LVU333
 1615 002e 18EE103A 		vmov	r3, s16	@ int
 1616 0032 93B1     		cbz	r3, .L70
 1617              	.LVL149:
  52:Core/drogui/src/controlTasks.c ****                 wroll_control.kp[0] = getReg(ROLL_KP),  wroll_control.ki[0] = getReg(ROLL_KI),  wro
ARM GAS  C:\Users\GUILLE~1\AppData\Local\Temp\cc6N2eIu.s 			page 39


 1618              		.loc 1 52 18 is_stmt 1 view .LVU334
  52:Core/drogui/src/controlTasks.c ****                 wroll_control.kp[0] = getReg(ROLL_KP),  wroll_control.ki[0] = getReg(ROLL_KI),  wro
 1619              		.loc 1 52 20 is_stmt 0 view .LVU335
 1620 0034 012B     		cmp	r3, #1
 1621 0036 7FD1     		bne	.L58
  53:Core/drogui/src/controlTasks.c **** 
 1622              		.loc 1 53 17 is_stmt 1 view .LVU336
  53:Core/drogui/src/controlTasks.c **** 
 1623              		.loc 1 53 39 is_stmt 0 view .LVU337
 1624 0038 3020     		movs	r0, #48
 1625 003a FFF7FEFF 		bl	getReg
 1626              	.LVL150:
  53:Core/drogui/src/controlTasks.c **** 
 1627              		.loc 1 53 37 view .LVU338
 1628 003e 5B4C     		ldr	r4, .L73
 1629 0040 84ED000A 		vstr.32	s0, [r4]
  53:Core/drogui/src/controlTasks.c **** 
 1630              		.loc 1 53 79 view .LVU339
 1631 0044 3220     		movs	r0, #50
 1632 0046 FFF7FEFF 		bl	getReg
 1633              	.LVL151:
  53:Core/drogui/src/controlTasks.c **** 
 1634              		.loc 1 53 77 view .LVU340
 1635 004a 84ED0A0A 		vstr.32	s0, [r4, #40]
  53:Core/drogui/src/controlTasks.c **** 
 1636              		.loc 1 53 119 view .LVU341
 1637 004e 3420     		movs	r0, #52
 1638 0050 FFF7FEFF 		bl	getReg
 1639              	.LVL152:
  53:Core/drogui/src/controlTasks.c **** 
 1640              		.loc 1 53 117 view .LVU342
 1641 0054 84ED050A 		vstr.32	s0, [r4, #20]
 1642 0058 6EE0     		b	.L58
 1643              	.LVL153:
 1644              	.L70:
  51:Core/drogui/src/controlTasks.c ****             else if(index == 1)
 1645              		.loc 1 51 17 is_stmt 1 view .LVU343
  51:Core/drogui/src/controlTasks.c ****             else if(index == 1)
 1646              		.loc 1 51 32 is_stmt 0 view .LVU344
 1647 005a 3020     		movs	r0, #48
 1648 005c FFF7FEFF 		bl	getReg
 1649              	.LVL154:
  51:Core/drogui/src/controlTasks.c ****             else if(index == 1)
 1650              		.loc 1 51 30 view .LVU345
 1651 0060 534C     		ldr	r4, .L73+4
 1652 0062 84ED000A 		vstr.32	s0, [r4]
  51:Core/drogui/src/controlTasks.c ****             else if(index == 1)
 1653              		.loc 1 51 65 view .LVU346
 1654 0066 3220     		movs	r0, #50
 1655 0068 FFF7FEFF 		bl	getReg
 1656              	.LVL155:
  51:Core/drogui/src/controlTasks.c ****             else if(index == 1)
 1657              		.loc 1 51 63 view .LVU347
 1658 006c 84ED0A0A 		vstr.32	s0, [r4, #40]
  51:Core/drogui/src/controlTasks.c ****             else if(index == 1)
 1659              		.loc 1 51 98 view .LVU348
 1660 0070 3420     		movs	r0, #52
ARM GAS  C:\Users\GUILLE~1\AppData\Local\Temp\cc6N2eIu.s 			page 40


 1661 0072 FFF7FEFF 		bl	getReg
 1662              	.LVL156:
  51:Core/drogui/src/controlTasks.c ****             else if(index == 1)
 1663              		.loc 1 51 96 view .LVU349
 1664 0076 84ED050A 		vstr.32	s0, [r4, #20]
 1665 007a 5DE0     		b	.L58
 1666              	.LVL157:
 1667              	.L64:
  58:Core/drogui/src/controlTasks.c ****                 pitch2w.kp[0] = getReg(PITCH_KP),  pitch2w.ki[0] = getReg(PITCH_KI),  pitch2w.kd[0]
 1668              		.loc 1 58 13 is_stmt 1 view .LVU350
  58:Core/drogui/src/controlTasks.c ****                 pitch2w.kp[0] = getReg(PITCH_KP),  pitch2w.ki[0] = getReg(PITCH_KI),  pitch2w.kd[0]
 1669              		.loc 1 58 15 is_stmt 0 view .LVU351
 1670 007c 18EE103A 		vmov	r3, s16	@ int
 1671              	.LVL158:
  58:Core/drogui/src/controlTasks.c ****                 pitch2w.kp[0] = getReg(PITCH_KP),  pitch2w.ki[0] = getReg(PITCH_KI),  pitch2w.kd[0]
 1672              		.loc 1 58 15 view .LVU352
 1673 0080 93B1     		cbz	r3, .L71
 1674              	.LVL159:
  60:Core/drogui/src/controlTasks.c ****                 wpitch_control.kp[0] = getReg(PITCH_KP),  wpitch_control.ki[0] = getReg(PITCH_KI), 
 1675              		.loc 1 60 18 is_stmt 1 view .LVU353
  60:Core/drogui/src/controlTasks.c ****                 wpitch_control.kp[0] = getReg(PITCH_KP),  wpitch_control.ki[0] = getReg(PITCH_KI), 
 1676              		.loc 1 60 20 is_stmt 0 view .LVU354
 1677 0082 012B     		cmp	r3, #1
 1678 0084 58D1     		bne	.L58
  61:Core/drogui/src/controlTasks.c **** 
 1679              		.loc 1 61 17 is_stmt 1 view .LVU355
  61:Core/drogui/src/controlTasks.c **** 
 1680              		.loc 1 61 40 is_stmt 0 view .LVU356
 1681 0086 3620     		movs	r0, #54
 1682 0088 FFF7FEFF 		bl	getReg
 1683              	.LVL160:
  61:Core/drogui/src/controlTasks.c **** 
 1684              		.loc 1 61 38 view .LVU357
 1685 008c 494C     		ldr	r4, .L73+8
 1686 008e 84ED000A 		vstr.32	s0, [r4]
  61:Core/drogui/src/controlTasks.c **** 
 1687              		.loc 1 61 82 view .LVU358
 1688 0092 3820     		movs	r0, #56
 1689 0094 FFF7FEFF 		bl	getReg
 1690              	.LVL161:
  61:Core/drogui/src/controlTasks.c **** 
 1691              		.loc 1 61 80 view .LVU359
 1692 0098 84ED0A0A 		vstr.32	s0, [r4, #40]
  61:Core/drogui/src/controlTasks.c **** 
 1693              		.loc 1 61 124 view .LVU360
 1694 009c 3A20     		movs	r0, #58
 1695 009e FFF7FEFF 		bl	getReg
 1696              	.LVL162:
  61:Core/drogui/src/controlTasks.c **** 
 1697              		.loc 1 61 122 view .LVU361
 1698 00a2 84ED050A 		vstr.32	s0, [r4, #20]
 1699 00a6 47E0     		b	.L58
 1700              	.LVL163:
 1701              	.L71:
  59:Core/drogui/src/controlTasks.c ****             else if(index == 1)
 1702              		.loc 1 59 17 is_stmt 1 view .LVU362
  59:Core/drogui/src/controlTasks.c ****             else if(index == 1)
ARM GAS  C:\Users\GUILLE~1\AppData\Local\Temp\cc6N2eIu.s 			page 41


 1703              		.loc 1 59 33 is_stmt 0 view .LVU363
 1704 00a8 3620     		movs	r0, #54
 1705 00aa FFF7FEFF 		bl	getReg
 1706              	.LVL164:
  59:Core/drogui/src/controlTasks.c ****             else if(index == 1)
 1707              		.loc 1 59 31 view .LVU364
 1708 00ae 424C     		ldr	r4, .L73+12
 1709 00b0 84ED000A 		vstr.32	s0, [r4]
  59:Core/drogui/src/controlTasks.c ****             else if(index == 1)
 1710              		.loc 1 59 68 view .LVU365
 1711 00b4 3820     		movs	r0, #56
 1712 00b6 FFF7FEFF 		bl	getReg
 1713              	.LVL165:
  59:Core/drogui/src/controlTasks.c ****             else if(index == 1)
 1714              		.loc 1 59 66 view .LVU366
 1715 00ba 84ED0A0A 		vstr.32	s0, [r4, #40]
  59:Core/drogui/src/controlTasks.c ****             else if(index == 1)
 1716              		.loc 1 59 103 view .LVU367
 1717 00be 3A20     		movs	r0, #58
 1718 00c0 FFF7FEFF 		bl	getReg
 1719              	.LVL166:
  59:Core/drogui/src/controlTasks.c ****             else if(index == 1)
 1720              		.loc 1 59 101 view .LVU368
 1721 00c4 84ED050A 		vstr.32	s0, [r4, #20]
 1722 00c8 36E0     		b	.L58
 1723              	.LVL167:
 1724              	.L63:
  66:Core/drogui/src/controlTasks.c ****                 yaw2w.kp[0] = getReg(YAW_KP),  yaw2w.ki[0] = getReg(YAW_KI),  yaw2w.kd[0] = getReg(
 1725              		.loc 1 66 13 is_stmt 1 view .LVU369
  66:Core/drogui/src/controlTasks.c ****                 yaw2w.kp[0] = getReg(YAW_KP),  yaw2w.ki[0] = getReg(YAW_KI),  yaw2w.kd[0] = getReg(
 1726              		.loc 1 66 15 is_stmt 0 view .LVU370
 1727 00ca 18EE103A 		vmov	r3, s16	@ int
 1728              	.LVL168:
  66:Core/drogui/src/controlTasks.c ****                 yaw2w.kp[0] = getReg(YAW_KP),  yaw2w.ki[0] = getReg(YAW_KI),  yaw2w.kd[0] = getReg(
 1729              		.loc 1 66 15 view .LVU371
 1730 00ce 93B1     		cbz	r3, .L72
 1731              	.LVL169:
  68:Core/drogui/src/controlTasks.c ****                 wyaw_control.kp[0] = getReg(YAW_KP),  wyaw_control.ki[0] = getReg(YAW_KI),  wyaw_co
 1732              		.loc 1 68 18 is_stmt 1 view .LVU372
  68:Core/drogui/src/controlTasks.c ****                 wyaw_control.kp[0] = getReg(YAW_KP),  wyaw_control.ki[0] = getReg(YAW_KI),  wyaw_co
 1733              		.loc 1 68 20 is_stmt 0 view .LVU373
 1734 00d0 012B     		cmp	r3, #1
 1735 00d2 31D1     		bne	.L58
  69:Core/drogui/src/controlTasks.c **** 
 1736              		.loc 1 69 17 is_stmt 1 view .LVU374
  69:Core/drogui/src/controlTasks.c **** 
 1737              		.loc 1 69 38 is_stmt 0 view .LVU375
 1738 00d4 3C20     		movs	r0, #60
 1739 00d6 FFF7FEFF 		bl	getReg
 1740              	.LVL170:
  69:Core/drogui/src/controlTasks.c **** 
 1741              		.loc 1 69 36 view .LVU376
 1742 00da 384C     		ldr	r4, .L73+16
 1743 00dc 84ED000A 		vstr.32	s0, [r4]
  69:Core/drogui/src/controlTasks.c **** 
 1744              		.loc 1 69 76 view .LVU377
 1745 00e0 3E20     		movs	r0, #62
ARM GAS  C:\Users\GUILLE~1\AppData\Local\Temp\cc6N2eIu.s 			page 42


 1746 00e2 FFF7FEFF 		bl	getReg
 1747              	.LVL171:
  69:Core/drogui/src/controlTasks.c **** 
 1748              		.loc 1 69 74 view .LVU378
 1749 00e6 84ED0A0A 		vstr.32	s0, [r4, #40]
  69:Core/drogui/src/controlTasks.c **** 
 1750              		.loc 1 69 114 view .LVU379
 1751 00ea 4020     		movs	r0, #64
 1752 00ec FFF7FEFF 		bl	getReg
 1753              	.LVL172:
  69:Core/drogui/src/controlTasks.c **** 
 1754              		.loc 1 69 112 view .LVU380
 1755 00f0 84ED050A 		vstr.32	s0, [r4, #20]
 1756 00f4 20E0     		b	.L58
 1757              	.LVL173:
 1758              	.L72:
  67:Core/drogui/src/controlTasks.c ****             else if(index == 1)
 1759              		.loc 1 67 17 is_stmt 1 view .LVU381
  67:Core/drogui/src/controlTasks.c ****             else if(index == 1)
 1760              		.loc 1 67 31 is_stmt 0 view .LVU382
 1761 00f6 3C20     		movs	r0, #60
 1762 00f8 FFF7FEFF 		bl	getReg
 1763              	.LVL174:
  67:Core/drogui/src/controlTasks.c ****             else if(index == 1)
 1764              		.loc 1 67 29 view .LVU383
 1765 00fc 304C     		ldr	r4, .L73+20
 1766 00fe 84ED000A 		vstr.32	s0, [r4]
  67:Core/drogui/src/controlTasks.c ****             else if(index == 1)
 1767              		.loc 1 67 62 view .LVU384
 1768 0102 3E20     		movs	r0, #62
 1769 0104 FFF7FEFF 		bl	getReg
 1770              	.LVL175:
  67:Core/drogui/src/controlTasks.c ****             else if(index == 1)
 1771              		.loc 1 67 60 view .LVU385
 1772 0108 84ED0A0A 		vstr.32	s0, [r4, #40]
  67:Core/drogui/src/controlTasks.c ****             else if(index == 1)
 1773              		.loc 1 67 93 view .LVU386
 1774 010c 4020     		movs	r0, #64
 1775 010e FFF7FEFF 		bl	getReg
 1776              	.LVL176:
  67:Core/drogui/src/controlTasks.c ****             else if(index == 1)
 1777              		.loc 1 67 91 view .LVU387
 1778 0112 84ED050A 		vstr.32	s0, [r4, #20]
 1779 0116 0FE0     		b	.L58
 1780              	.LVL177:
 1781              	.L62:
  74:Core/drogui/src/controlTasks.c ****             x_control.ki[0] = getReg(X_KI);
 1782              		.loc 1 74 13 is_stmt 1 view .LVU388
  74:Core/drogui/src/controlTasks.c ****             x_control.ki[0] = getReg(X_KI);
 1783              		.loc 1 74 31 is_stmt 0 view .LVU389
 1784 0118 4220     		movs	r0, #66
 1785 011a FFF7FEFF 		bl	getReg
 1786              	.LVL178:
  74:Core/drogui/src/controlTasks.c ****             x_control.ki[0] = getReg(X_KI);
 1787              		.loc 1 74 29 view .LVU390
 1788 011e 294C     		ldr	r4, .L73+24
 1789 0120 84ED000A 		vstr.32	s0, [r4]
ARM GAS  C:\Users\GUILLE~1\AppData\Local\Temp\cc6N2eIu.s 			page 43


  75:Core/drogui/src/controlTasks.c ****             x_control.kd[0] = getReg(X_KD);
 1790              		.loc 1 75 13 is_stmt 1 view .LVU391
  75:Core/drogui/src/controlTasks.c ****             x_control.kd[0] = getReg(X_KD);
 1791              		.loc 1 75 31 is_stmt 0 view .LVU392
 1792 0124 4420     		movs	r0, #68
 1793 0126 FFF7FEFF 		bl	getReg
 1794              	.LVL179:
  75:Core/drogui/src/controlTasks.c ****             x_control.kd[0] = getReg(X_KD);
 1795              		.loc 1 75 29 view .LVU393
 1796 012a 84ED0A0A 		vstr.32	s0, [r4, #40]
  76:Core/drogui/src/controlTasks.c ****         break;
 1797              		.loc 1 76 13 is_stmt 1 view .LVU394
  76:Core/drogui/src/controlTasks.c ****         break;
 1798              		.loc 1 76 31 is_stmt 0 view .LVU395
 1799 012e 4620     		movs	r0, #70
 1800 0130 FFF7FEFF 		bl	getReg
 1801              	.LVL180:
  76:Core/drogui/src/controlTasks.c ****         break;
 1802              		.loc 1 76 29 view .LVU396
 1803 0134 84ED050A 		vstr.32	s0, [r4, #20]
  77:Core/drogui/src/controlTasks.c **** 
 1804              		.loc 1 77 9 is_stmt 1 view .LVU397
 1805              	.L58:
  93:Core/drogui/src/controlTasks.c **** }
 1806              		.loc 1 93 5 view .LVU398
  93:Core/drogui/src/controlTasks.c **** }
 1807              		.loc 1 93 122 is_stmt 0 view .LVU399
 1808 0138 5820     		movs	r0, #88
 1809 013a FFF7FEFF 		bl	getReg
 1810              	.LVL181:
  93:Core/drogui/src/controlTasks.c **** }
 1811              		.loc 1 93 120 view .LVU400
 1812 013e 1F4B     		ldr	r3, .L73+16
 1813 0140 83ED270A 		vstr.32	s0, [r3, #156]
  93:Core/drogui/src/controlTasks.c **** }
 1814              		.loc 1 93 98 view .LVU401
 1815 0144 1B4B     		ldr	r3, .L73+8
 1816 0146 83ED270A 		vstr.32	s0, [r3, #156]
  93:Core/drogui/src/controlTasks.c **** }
 1817              		.loc 1 93 74 view .LVU402
 1818 014a 184B     		ldr	r3, .L73
 1819 014c 83ED270A 		vstr.32	s0, [r3, #156]
  93:Core/drogui/src/controlTasks.c **** }
 1820              		.loc 1 93 51 view .LVU403
 1821 0150 1B4B     		ldr	r3, .L73+20
 1822 0152 83ED270A 		vstr.32	s0, [r3, #156]
  93:Core/drogui/src/controlTasks.c **** }
 1823              		.loc 1 93 36 view .LVU404
 1824 0156 184B     		ldr	r3, .L73+12
 1825 0158 83ED270A 		vstr.32	s0, [r3, #156]
  93:Core/drogui/src/controlTasks.c **** }
 1826              		.loc 1 93 19 view .LVU405
 1827 015c 144B     		ldr	r3, .L73+4
 1828 015e 83ED270A 		vstr.32	s0, [r3, #156]
  94:Core/drogui/src/controlTasks.c **** 
 1829              		.loc 1 94 1 view .LVU406
 1830 0162 BDEC028B 		vldm	sp!, {d8}
ARM GAS  C:\Users\GUILLE~1\AppData\Local\Temp\cc6N2eIu.s 			page 44


 1831              	.LCFI17:
 1832              		.cfi_remember_state
 1833              		.cfi_restore 80
 1834              		.cfi_restore 81
 1835              		.cfi_def_cfa_offset 8
 1836              	.LVL182:
  94:Core/drogui/src/controlTasks.c **** 
 1837              		.loc 1 94 1 view .LVU407
 1838 0166 10BD     		pop	{r4, pc}
 1839              	.LVL183:
 1840              	.L61:
 1841              	.LCFI18:
 1842              		.cfi_restore_state
  80:Core/drogui/src/controlTasks.c ****             y_control.ki[0] = getReg(Y_KI);
 1843              		.loc 1 80 13 is_stmt 1 view .LVU408
  80:Core/drogui/src/controlTasks.c ****             y_control.ki[0] = getReg(Y_KI);
 1844              		.loc 1 80 31 is_stmt 0 view .LVU409
 1845 0168 4820     		movs	r0, #72
 1846 016a FFF7FEFF 		bl	getReg
 1847              	.LVL184:
  80:Core/drogui/src/controlTasks.c ****             y_control.ki[0] = getReg(Y_KI);
 1848              		.loc 1 80 29 view .LVU410
 1849 016e 164C     		ldr	r4, .L73+28
 1850 0170 84ED000A 		vstr.32	s0, [r4]
  81:Core/drogui/src/controlTasks.c ****             y_control.kd[0] = getReg(Y_KD);
 1851              		.loc 1 81 13 is_stmt 1 view .LVU411
  81:Core/drogui/src/controlTasks.c ****             y_control.kd[0] = getReg(Y_KD);
 1852              		.loc 1 81 31 is_stmt 0 view .LVU412
 1853 0174 4A20     		movs	r0, #74
 1854 0176 FFF7FEFF 		bl	getReg
 1855              	.LVL185:
  81:Core/drogui/src/controlTasks.c ****             y_control.kd[0] = getReg(Y_KD);
 1856              		.loc 1 81 29 view .LVU413
 1857 017a 84ED0A0A 		vstr.32	s0, [r4, #40]
  82:Core/drogui/src/controlTasks.c ****         break;
 1858              		.loc 1 82 13 is_stmt 1 view .LVU414
  82:Core/drogui/src/controlTasks.c ****         break;
 1859              		.loc 1 82 31 is_stmt 0 view .LVU415
 1860 017e 4C20     		movs	r0, #76
 1861 0180 FFF7FEFF 		bl	getReg
 1862              	.LVL186:
  82:Core/drogui/src/controlTasks.c ****         break;
 1863              		.loc 1 82 29 view .LVU416
 1864 0184 84ED050A 		vstr.32	s0, [r4, #20]
  83:Core/drogui/src/controlTasks.c **** 
 1865              		.loc 1 83 9 is_stmt 1 view .LVU417
 1866 0188 D6E7     		b	.L58
 1867              	.LVL187:
 1868              	.L59:
  86:Core/drogui/src/controlTasks.c ****             z_control.ki[0] = getReg(Z_KI);
 1869              		.loc 1 86 13 view .LVU418
  86:Core/drogui/src/controlTasks.c ****             z_control.ki[0] = getReg(Z_KI);
 1870              		.loc 1 86 31 is_stmt 0 view .LVU419
 1871 018a 4E20     		movs	r0, #78
 1872 018c FFF7FEFF 		bl	getReg
 1873              	.LVL188:
  86:Core/drogui/src/controlTasks.c ****             z_control.ki[0] = getReg(Z_KI);
ARM GAS  C:\Users\GUILLE~1\AppData\Local\Temp\cc6N2eIu.s 			page 45


 1874              		.loc 1 86 29 view .LVU420
 1875 0190 0E4C     		ldr	r4, .L73+32
 1876 0192 84ED000A 		vstr.32	s0, [r4]
  87:Core/drogui/src/controlTasks.c ****             z_control.kd[0] = getReg(Z_KD);
 1877              		.loc 1 87 13 is_stmt 1 view .LVU421
  87:Core/drogui/src/controlTasks.c ****             z_control.kd[0] = getReg(Z_KD);
 1878              		.loc 1 87 31 is_stmt 0 view .LVU422
 1879 0196 5020     		movs	r0, #80
 1880 0198 FFF7FEFF 		bl	getReg
 1881              	.LVL189:
  87:Core/drogui/src/controlTasks.c ****             z_control.kd[0] = getReg(Z_KD);
 1882              		.loc 1 87 29 view .LVU423
 1883 019c 84ED0A0A 		vstr.32	s0, [r4, #40]
  88:Core/drogui/src/controlTasks.c ****         break;
 1884              		.loc 1 88 13 is_stmt 1 view .LVU424
  88:Core/drogui/src/controlTasks.c ****         break;
 1885              		.loc 1 88 31 is_stmt 0 view .LVU425
 1886 01a0 5220     		movs	r0, #82
 1887 01a2 FFF7FEFF 		bl	getReg
 1888              	.LVL190:
  88:Core/drogui/src/controlTasks.c ****         break;
 1889              		.loc 1 88 29 view .LVU426
 1890 01a6 84ED050A 		vstr.32	s0, [r4, #20]
  89:Core/drogui/src/controlTasks.c **** 
 1891              		.loc 1 89 9 is_stmt 1 view .LVU427
 1892 01aa C5E7     		b	.L58
 1893              	.L74:
 1894              		.align	2
 1895              	.L73:
 1896 01ac 00000000 		.word	.LANCHOR31
 1897 01b0 00000000 		.word	.LANCHOR7
 1898 01b4 00000000 		.word	.LANCHOR33
 1899 01b8 00000000 		.word	.LANCHOR9
 1900 01bc 00000000 		.word	.LANCHOR35
 1901 01c0 00000000 		.word	.LANCHOR11
 1902 01c4 00000000 		.word	.LANCHOR20
 1903 01c8 00000000 		.word	.LANCHOR21
 1904 01cc 00000000 		.word	.LANCHOR22
 1905              		.cfi_endproc
 1906              	.LFE175:
 1908              		.section	.text.initControlTasks,"ax",%progbits
 1909              		.align	1
 1910              		.global	initControlTasks
 1911              		.syntax unified
 1912              		.thumb
 1913              		.thumb_func
 1914              		.fpu fpv5-sp-d16
 1916              	initControlTasks:
 1917              	.LFB179:
 279:Core/drogui/src/controlTasks.c **** 
 280:Core/drogui/src/controlTasks.c **** 
 281:Core/drogui/src/controlTasks.c **** void initControlTasks(){
 1918              		.loc 1 281 24 view -0
 1919              		.cfi_startproc
 1920              		@ args = 0, pretend = 0, frame = 0
 1921              		@ frame_needed = 0, uses_anonymous_args = 0
 1922 0000 2DE9F041 		push	{r4, r5, r6, r7, r8, lr}
ARM GAS  C:\Users\GUILLE~1\AppData\Local\Temp\cc6N2eIu.s 			page 46


 1923              	.LCFI19:
 1924              		.cfi_def_cfa_offset 24
 1925              		.cfi_offset 4, -24
 1926              		.cfi_offset 5, -20
 1927              		.cfi_offset 6, -16
 1928              		.cfi_offset 7, -12
 1929              		.cfi_offset 8, -8
 1930              		.cfi_offset 14, -4
 1931 0004 2DED068B 		vpush.64	{d8, d9, d10}
 1932              	.LCFI20:
 1933              		.cfi_def_cfa_offset 48
 1934              		.cfi_offset 80, -48
 1935              		.cfi_offset 81, -44
 1936              		.cfi_offset 82, -40
 1937              		.cfi_offset 83, -36
 1938              		.cfi_offset 84, -32
 1939              		.cfi_offset 85, -28
 1940 0008 82B0     		sub	sp, sp, #8
 1941              	.LCFI21:
 1942              		.cfi_def_cfa_offset 56
 282:Core/drogui/src/controlTasks.c ****     
 283:Core/drogui/src/controlTasks.c ****     initFilter(&filter_R, 3, k_3_200, v_3_200);
 1943              		.loc 1 283 5 view .LVU429
 1944 000a BC4D     		ldr	r5, .L77
 1945 000c BC4C     		ldr	r4, .L77+4
 1946 000e 2B46     		mov	r3, r5
 1947 0010 2246     		mov	r2, r4
 1948 0012 0321     		movs	r1, #3
 1949 0014 BB48     		ldr	r0, .L77+8
 1950 0016 FFF7FEFF 		bl	initFilter
 1951              	.LVL191:
 284:Core/drogui/src/controlTasks.c ****     initFilter(&filter_P, 3, k_3_200, v_3_200);
 1952              		.loc 1 284 5 view .LVU430
 1953 001a 2B46     		mov	r3, r5
 1954 001c 2246     		mov	r2, r4
 1955 001e 0321     		movs	r1, #3
 1956 0020 B948     		ldr	r0, .L77+12
 1957 0022 FFF7FEFF 		bl	initFilter
 1958              	.LVL192:
 285:Core/drogui/src/controlTasks.c ****     initFilter(&filter_Y, 3, k_3_200, v_3_200);
 1959              		.loc 1 285 5 view .LVU431
 1960 0026 2B46     		mov	r3, r5
 1961 0028 2246     		mov	r2, r4
 1962 002a 0321     		movs	r1, #3
 1963 002c B748     		ldr	r0, .L77+16
 1964 002e FFF7FEFF 		bl	initFilter
 1965              	.LVL193:
 286:Core/drogui/src/controlTasks.c ****     //initFilter(&filter_R, 3, k_3_200, v_3_200);
 287:Core/drogui/src/controlTasks.c **** 
 288:Core/drogui/src/controlTasks.c ****     initPwm(&m4, &htim3, TIM_CHANNEL_1, &(htim3.Instance->CCR1));
 1966              		.loc 1 288 5 view .LVU432
 1967              		.loc 1 288 48 is_stmt 0 view .LVU433
 1968 0032 B74C     		ldr	r4, .L77+20
 1969 0034 2368     		ldr	r3, [r4]
 1970              		.loc 1 288 5 view .LVU434
 1971 0036 3433     		adds	r3, r3, #52
 1972 0038 0022     		movs	r2, #0
ARM GAS  C:\Users\GUILLE~1\AppData\Local\Temp\cc6N2eIu.s 			page 47


 1973 003a 2146     		mov	r1, r4
 1974 003c B548     		ldr	r0, .L77+24
 1975 003e FFF7FEFF 		bl	initPwm
 1976              	.LVL194:
 289:Core/drogui/src/controlTasks.c ****     initPwm(&m1, &htim3, TIM_CHANNEL_2, &(htim3.Instance->CCR2));
 1977              		.loc 1 289 5 is_stmt 1 view .LVU435
 1978              		.loc 1 289 48 is_stmt 0 view .LVU436
 1979 0042 2368     		ldr	r3, [r4]
 1980              		.loc 1 289 5 view .LVU437
 1981 0044 3833     		adds	r3, r3, #56
 1982 0046 0422     		movs	r2, #4
 1983 0048 2146     		mov	r1, r4
 1984 004a B348     		ldr	r0, .L77+28
 1985 004c FFF7FEFF 		bl	initPwm
 1986              	.LVL195:
 290:Core/drogui/src/controlTasks.c ****     initPwm(&m3, &htim4, TIM_CHANNEL_3, &(htim4.Instance->CCR3));
 1987              		.loc 1 290 5 is_stmt 1 view .LVU438
 1988              		.loc 1 290 48 is_stmt 0 view .LVU439
 1989 0050 B24C     		ldr	r4, .L77+32
 1990 0052 2368     		ldr	r3, [r4]
 1991              		.loc 1 290 5 view .LVU440
 1992 0054 3C33     		adds	r3, r3, #60
 1993 0056 0822     		movs	r2, #8
 1994 0058 2146     		mov	r1, r4
 1995 005a B148     		ldr	r0, .L77+36
 1996 005c FFF7FEFF 		bl	initPwm
 1997              	.LVL196:
 291:Core/drogui/src/controlTasks.c ****     initPwm(&m2, &htim4, TIM_CHANNEL_4, &(htim4.Instance->CCR4));
 1998              		.loc 1 291 5 is_stmt 1 view .LVU441
 1999              		.loc 1 291 48 is_stmt 0 view .LVU442
 2000 0060 2368     		ldr	r3, [r4]
 2001              		.loc 1 291 5 view .LVU443
 2002 0062 4033     		adds	r3, r3, #64
 2003 0064 0C22     		movs	r2, #12
 2004 0066 2146     		mov	r1, r4
 2005 0068 AE48     		ldr	r0, .L77+40
 2006 006a FFF7FEFF 		bl	initPwm
 2007              	.LVL197:
 292:Core/drogui/src/controlTasks.c **** 
 293:Core/drogui/src/controlTasks.c ****     initPid(&z_control,  10, 750,    2, 0, 50 , 10, 30, (NORMAL | D_SG));
 2008              		.loc 1 293 5 is_stmt 1 view .LVU444
 2009 006e DFEDAE8A 		vldr.32	s17, .L77+44
 2010 0072 2022     		movs	r2, #32
 2011 0074 F3EE0E2A 		vmov.f32	s5, #3.0e+1
 2012 0078 B2EE042A 		vmov.f32	s4, #1.0e+1
 2013 007c F0EE681A 		vmov.f32	s3, s17
 2014 0080 0021     		movs	r1, #0
 2015 0082 B0EE001A 		vmov.f32	s2, #2.0e+0
 2016 0086 DFEDA90A 		vldr.32	s1, .L77+48
 2017 008a B0EE420A 		vmov.f32	s0, s4
 2018 008e A848     		ldr	r0, .L77+52
 2019 0090 FFF7FEFF 		bl	initPid
 2020              	.LVL198:
 294:Core/drogui/src/controlTasks.c ****     initPid(&x_control, 0.2, 1.5, 0.08, 0, 50 , 10, ANG_MAX, D_SG);
 2021              		.loc 1 294 5 view .LVU445
 2022 0094 A74C     		ldr	r4, .L77+56
 2023 0096 9FEDA89A 		vldr.32	s18, .L77+60
ARM GAS  C:\Users\GUILLE~1\AppData\Local\Temp\cc6N2eIu.s 			page 48


 2024 009a 9FEDA88A 		vldr.32	s16, .L77+64
 2025 009e 2022     		movs	r2, #32
 2026 00a0 D4ED002A 		vldr.32	s5, [r4]
 2027 00a4 B2EE042A 		vmov.f32	s4, #1.0e+1
 2028 00a8 F0EE681A 		vmov.f32	s3, s17
 2029 00ac 0021     		movs	r1, #0
 2030 00ae B0EE491A 		vmov.f32	s2, s18
 2031 00b2 F7EE080A 		vmov.f32	s1, #1.5e+0
 2032 00b6 B0EE480A 		vmov.f32	s0, s16
 2033 00ba A148     		ldr	r0, .L77+68
 2034 00bc FFF7FEFF 		bl	initPid
 2035              	.LVL199:
 295:Core/drogui/src/controlTasks.c ****     initPid(&y_control, 0.2, 1.5, 0.08, 0, 50 , 10, ANG_MAX, D_SG);
 2036              		.loc 1 295 5 view .LVU446
 2037 00c0 2022     		movs	r2, #32
 2038 00c2 D4ED002A 		vldr.32	s5, [r4]
 2039 00c6 B2EE042A 		vmov.f32	s4, #1.0e+1
 2040 00ca F0EE681A 		vmov.f32	s3, s17
 2041 00ce 0021     		movs	r1, #0
 2042 00d0 B0EE491A 		vmov.f32	s2, s18
 2043 00d4 F7EE080A 		vmov.f32	s1, #1.5e+0
 2044 00d8 B0EE480A 		vmov.f32	s0, s16
 2045 00dc 9948     		ldr	r0, .L77+72
 2046 00de FFF7FEFF 		bl	initPid
 2047              	.LVL200:
 296:Core/drogui/src/controlTasks.c **** 
 297:Core/drogui/src/controlTasks.c ****     initPidFilter(&roll2w,  500, -1000, 20, TIME, 50, pi/9, 3000, (D_SG | D_FILTER), 4, k_1_20, v_1
 2048              		.loc 1 297 5 view .LVU447
 2049              		.loc 1 297 45 is_stmt 0 view .LVU448
 2050 00e2 994C     		ldr	r4, .L77+76
 2051 00e4 2368     		ldr	r3, [r4]
 2052 00e6 596A     		ldr	r1, [r3, #36]
 2053              		.loc 1 297 5 view .LVU449
 2054 00e8 9FED989A 		vldr.32	s18, .L77+80
 2055 00ec 9FED98AA 		vldr.32	s20, .L77+84
 2056 00f0 9FED988A 		vldr.32	s16, .L77+88
 2057 00f4 DFED989A 		vldr.32	s19, .L77+92
 2058 00f8 984E     		ldr	r6, .L77+96
 2059 00fa 0196     		str	r6, [sp, #4]
 2060 00fc 984D     		ldr	r5, .L77+100
 2061 00fe 0095     		str	r5, [sp]
 2062 0100 0423     		movs	r3, #4
 2063 0102 2822     		movs	r2, #40
 2064 0104 F0EE492A 		vmov.f32	s5, s18
 2065 0108 B0EE4A2A 		vmov.f32	s4, s20
 2066 010c F0EE681A 		vmov.f32	s3, s17
 2067 0110 B3EE041A 		vmov.f32	s2, #2.0e+1
 2068 0114 F0EE480A 		vmov.f32	s1, s16
 2069 0118 B0EE690A 		vmov.f32	s0, s19
 2070 011c 9148     		ldr	r0, .L77+104
 2071 011e FFF7FEFF 		bl	initPidFilter
 2072              	.LVL201:
 298:Core/drogui/src/controlTasks.c ****     initPidFilter(&pitch2w, 300, -1000, 20, TIME, 50, pi/9, 3000, (D_SG | D_FILTER), 4, k_1_20, v_1
 2073              		.loc 1 298 5 is_stmt 1 view .LVU450
 2074              		.loc 1 298 45 is_stmt 0 view .LVU451
 2075 0122 2368     		ldr	r3, [r4]
 2076 0124 596A     		ldr	r1, [r3, #36]
ARM GAS  C:\Users\GUILLE~1\AppData\Local\Temp\cc6N2eIu.s 			page 49


 2077              		.loc 1 298 5 view .LVU452
 2078 0126 0196     		str	r6, [sp, #4]
 2079 0128 0095     		str	r5, [sp]
 2080 012a 0423     		movs	r3, #4
 2081 012c 2822     		movs	r2, #40
 2082 012e F0EE492A 		vmov.f32	s5, s18
 2083 0132 B0EE4A2A 		vmov.f32	s4, s20
 2084 0136 F0EE681A 		vmov.f32	s3, s17
 2085 013a B3EE041A 		vmov.f32	s2, #2.0e+1
 2086 013e F0EE480A 		vmov.f32	s1, s16
 2087 0142 9FED890A 		vldr.32	s0, .L77+108
 2088 0146 8948     		ldr	r0, .L77+112
 2089 0148 FFF7FEFF 		bl	initPidFilter
 2090              	.LVL202:
 299:Core/drogui/src/controlTasks.c ****     initPidFilter(&yaw2w,     0,   0,  0, TIME, 50, pi/9, 3000, (D_SG | D_FILTER), 4, k_1_20, v_1_2
 2091              		.loc 1 299 5 is_stmt 1 view .LVU453
 2092              		.loc 1 299 43 is_stmt 0 view .LVU454
 2093 014c 2368     		ldr	r3, [r4]
 2094 014e 596A     		ldr	r1, [r3, #36]
 2095              		.loc 1 299 5 view .LVU455
 2096 0150 9FED878A 		vldr.32	s16, .L77+116
 2097 0154 0196     		str	r6, [sp, #4]
 2098 0156 0095     		str	r5, [sp]
 2099 0158 0423     		movs	r3, #4
 2100 015a 2822     		movs	r2, #40
 2101 015c F0EE492A 		vmov.f32	s5, s18
 2102 0160 B0EE4A2A 		vmov.f32	s4, s20
 2103 0164 F0EE681A 		vmov.f32	s3, s17
 2104 0168 B0EE481A 		vmov.f32	s2, s16
 2105 016c F0EE480A 		vmov.f32	s1, s16
 2106 0170 B0EE480A 		vmov.f32	s0, s16
 2107 0174 7F48     		ldr	r0, .L77+120
 2108 0176 FFF7FEFF 		bl	initPidFilter
 2109              	.LVL203:
 300:Core/drogui/src/controlTasks.c ****  
 301:Core/drogui/src/controlTasks.c ****     initPidFilter(&wroll_control,   5, 500, 10, TIME, 50, 80, 3000, ( D_SG | D_FILTER),  6, k_1_10,
 2110              		.loc 1 301 5 is_stmt 1 view .LVU456
 2111              		.loc 1 301 49 is_stmt 0 view .LVU457
 2112 017a 2368     		ldr	r3, [r4]
 2113 017c 596A     		ldr	r1, [r3, #36]
 2114              		.loc 1 301 5 view .LVU458
 2115 017e 9FED7EAA 		vldr.32	s20, .L77+124
 2116 0182 DFF83882 		ldr	r8, .L77+192
 2117 0186 CDF80480 		str	r8, [sp, #4]
 2118 018a 7C4F     		ldr	r7, .L77+128
 2119 018c 0097     		str	r7, [sp]
 2120 018e 0623     		movs	r3, #6
 2121 0190 2822     		movs	r2, #40
 2122 0192 F0EE492A 		vmov.f32	s5, s18
 2123 0196 B0EE4A2A 		vmov.f32	s4, s20
 2124 019a F0EE681A 		vmov.f32	s3, s17
 2125 019e B2EE041A 		vmov.f32	s2, #1.0e+1
 2126 01a2 F0EE690A 		vmov.f32	s1, s19
 2127 01a6 B1EE040A 		vmov.f32	s0, #5.0e+0
 2128 01aa 7548     		ldr	r0, .L77+132
 2129 01ac FFF7FEFF 		bl	initPidFilter
 2130              	.LVL204:
ARM GAS  C:\Users\GUILLE~1\AppData\Local\Temp\cc6N2eIu.s 			page 50


 302:Core/drogui/src/controlTasks.c ****     initPidFilter(&wpitch_control,  8, 500, 16, TIME, 50, 80, 3000, ( D_SG | D_FILTER),  6, k_1_10,
 2131              		.loc 1 302 5 is_stmt 1 view .LVU459
 2132              		.loc 1 302 49 is_stmt 0 view .LVU460
 2133 01b0 2368     		ldr	r3, [r4]
 2134 01b2 596A     		ldr	r1, [r3, #36]
 2135              		.loc 1 302 5 view .LVU461
 2136 01b4 CDF80480 		str	r8, [sp, #4]
 2137 01b8 0097     		str	r7, [sp]
 2138 01ba 0623     		movs	r3, #6
 2139 01bc 2822     		movs	r2, #40
 2140 01be F0EE492A 		vmov.f32	s5, s18
 2141 01c2 B0EE4A2A 		vmov.f32	s4, s20
 2142 01c6 F0EE681A 		vmov.f32	s3, s17
 2143 01ca B3EE001A 		vmov.f32	s2, #1.6e+1
 2144 01ce F0EE690A 		vmov.f32	s1, s19
 2145 01d2 B2EE000A 		vmov.f32	s0, #8.0e+0
 2146 01d6 6B48     		ldr	r0, .L77+136
 2147 01d8 FFF7FEFF 		bl	initPidFilter
 2148              	.LVL205:
 303:Core/drogui/src/controlTasks.c ****     initPidFilter(&wyaw_control,   10, 500, 30, TIME, 50, 80, 3000, ( D_SG | D_FILTER),  6, k_1_10,
 2149              		.loc 1 303 5 is_stmt 1 view .LVU462
 2150              		.loc 1 303 49 is_stmt 0 view .LVU463
 2151 01dc 2368     		ldr	r3, [r4]
 2152 01de 596A     		ldr	r1, [r3, #36]
 2153              		.loc 1 303 5 view .LVU464
 2154 01e0 CDF80480 		str	r8, [sp, #4]
 2155 01e4 0097     		str	r7, [sp]
 2156 01e6 0623     		movs	r3, #6
 2157 01e8 2822     		movs	r2, #40
 2158 01ea F0EE492A 		vmov.f32	s5, s18
 2159 01ee B0EE4A2A 		vmov.f32	s4, s20
 2160 01f2 F0EE681A 		vmov.f32	s3, s17
 2161 01f6 B3EE0E1A 		vmov.f32	s2, #3.0e+1
 2162 01fa F0EE690A 		vmov.f32	s1, s19
 2163 01fe B2EE040A 		vmov.f32	s0, #1.0e+1
 2164 0202 6148     		ldr	r0, .L77+140
 2165 0204 FFF7FEFF 		bl	initPidFilter
 2166              	.LVL206:
 304:Core/drogui/src/controlTasks.c ****     
 305:Core/drogui/src/controlTasks.c ****     initFilter(&filter_wroll, 4, k_1_20, v_1_20);
 2167              		.loc 1 305 5 is_stmt 1 view .LVU465
 2168 0208 3346     		mov	r3, r6
 2169 020a 2A46     		mov	r2, r5
 2170 020c 0421     		movs	r1, #4
 2171 020e 5F48     		ldr	r0, .L77+144
 2172 0210 FFF7FEFF 		bl	initFilter
 2173              	.LVL207:
 306:Core/drogui/src/controlTasks.c ****     initFilter(&filter_wpitch, 4, k_1_20, v_1_20);
 2174              		.loc 1 306 5 view .LVU466
 2175 0214 3346     		mov	r3, r6
 2176 0216 2A46     		mov	r2, r5
 2177 0218 0421     		movs	r1, #4
 2178 021a 5D48     		ldr	r0, .L77+148
 2179 021c FFF7FEFF 		bl	initFilter
 2180              	.LVL208:
 307:Core/drogui/src/controlTasks.c ****     initFilter(&filter_wyaw, 4, k_1_20, v_1_20);
 2181              		.loc 1 307 5 view .LVU467
ARM GAS  C:\Users\GUILLE~1\AppData\Local\Temp\cc6N2eIu.s 			page 51


 2182 0220 3346     		mov	r3, r6
 2183 0222 2A46     		mov	r2, r5
 2184 0224 0421     		movs	r1, #4
 2185 0226 5B48     		ldr	r0, .L77+152
 2186 0228 FFF7FEFF 		bl	initFilter
 2187              	.LVL209:
 308:Core/drogui/src/controlTasks.c **** 
 309:Core/drogui/src/controlTasks.c ****     setTrayectory(&x_sp, 0, 0, 1, TIME);
 2188              		.loc 1 309 5 view .LVU468
 2189              		.loc 1 309 35 is_stmt 0 view .LVU469
 2190 022c 2368     		ldr	r3, [r4]
 2191 022e 596A     		ldr	r1, [r3, #36]
 2192              		.loc 1 309 5 view .LVU470
 2193 0230 B7EE001A 		vmov.f32	s2, #1.0e+0
 2194 0234 F0EE480A 		vmov.f32	s1, s16
 2195 0238 B0EE480A 		vmov.f32	s0, s16
 2196 023c 5648     		ldr	r0, .L77+156
 2197 023e FFF7FEFF 		bl	setTrayectory
 2198              	.LVL210:
 310:Core/drogui/src/controlTasks.c ****     setTrayectory(&y_sp, 0, 0, 1, TIME);
 2199              		.loc 1 310 5 is_stmt 1 view .LVU471
 2200              		.loc 1 310 35 is_stmt 0 view .LVU472
 2201 0242 2368     		ldr	r3, [r4]
 2202 0244 596A     		ldr	r1, [r3, #36]
 2203              		.loc 1 310 5 view .LVU473
 2204 0246 B7EE001A 		vmov.f32	s2, #1.0e+0
 2205 024a F0EE480A 		vmov.f32	s1, s16
 2206 024e B0EE480A 		vmov.f32	s0, s16
 2207 0252 5248     		ldr	r0, .L77+160
 2208 0254 FFF7FEFF 		bl	setTrayectory
 2209              	.LVL211:
 311:Core/drogui/src/controlTasks.c ****     setTrayectory(&z_sp, 0, 0, 1, TIME);
 2210              		.loc 1 311 5 is_stmt 1 view .LVU474
 2211              		.loc 1 311 35 is_stmt 0 view .LVU475
 2212 0258 2368     		ldr	r3, [r4]
 2213 025a 596A     		ldr	r1, [r3, #36]
 2214              		.loc 1 311 5 view .LVU476
 2215 025c B7EE001A 		vmov.f32	s2, #1.0e+0
 2216 0260 F0EE480A 		vmov.f32	s1, s16
 2217 0264 B0EE480A 		vmov.f32	s0, s16
 2218 0268 4D48     		ldr	r0, .L77+164
 2219 026a FFF7FEFF 		bl	setTrayectory
 2220              	.LVL212:
 312:Core/drogui/src/controlTasks.c **** 
 313:Core/drogui/src/controlTasks.c ****     setTrayectory(&roll_sp, 0, 0, 1, TIME);
 2221              		.loc 1 313 5 is_stmt 1 view .LVU477
 2222              		.loc 1 313 38 is_stmt 0 view .LVU478
 2223 026e 2368     		ldr	r3, [r4]
 2224 0270 596A     		ldr	r1, [r3, #36]
 2225              		.loc 1 313 5 view .LVU479
 2226 0272 B7EE001A 		vmov.f32	s2, #1.0e+0
 2227 0276 F0EE480A 		vmov.f32	s1, s16
 2228 027a B0EE480A 		vmov.f32	s0, s16
 2229 027e 4948     		ldr	r0, .L77+168
 2230 0280 FFF7FEFF 		bl	setTrayectory
 2231              	.LVL213:
 314:Core/drogui/src/controlTasks.c ****     setTrayectory(&pitch_sp, 0, 0, 1, TIME);
ARM GAS  C:\Users\GUILLE~1\AppData\Local\Temp\cc6N2eIu.s 			page 52


 2232              		.loc 1 314 5 is_stmt 1 view .LVU480
 2233              		.loc 1 314 39 is_stmt 0 view .LVU481
 2234 0284 2368     		ldr	r3, [r4]
 2235 0286 596A     		ldr	r1, [r3, #36]
 2236              		.loc 1 314 5 view .LVU482
 2237 0288 B7EE001A 		vmov.f32	s2, #1.0e+0
 2238 028c F0EE480A 		vmov.f32	s1, s16
 2239 0290 B0EE480A 		vmov.f32	s0, s16
 2240 0294 4448     		ldr	r0, .L77+172
 2241 0296 FFF7FEFF 		bl	setTrayectory
 2242              	.LVL214:
 315:Core/drogui/src/controlTasks.c ****     
 316:Core/drogui/src/controlTasks.c ****     setTrayectory(&H_sp, 0, 0, 1, TIME);
 2243              		.loc 1 316 5 is_stmt 1 view .LVU483
 2244              		.loc 1 316 35 is_stmt 0 view .LVU484
 2245 029a 2368     		ldr	r3, [r4]
 2246 029c 596A     		ldr	r1, [r3, #36]
 2247              		.loc 1 316 5 view .LVU485
 2248 029e B7EE001A 		vmov.f32	s2, #1.0e+0
 2249 02a2 F0EE480A 		vmov.f32	s1, s16
 2250 02a6 B0EE480A 		vmov.f32	s0, s16
 2251 02aa 4048     		ldr	r0, .L77+176
 2252 02ac FFF7FEFF 		bl	setTrayectory
 2253              	.LVL215:
 317:Core/drogui/src/controlTasks.c **** 
 318:Core/drogui/src/controlTasks.c ****     setReg(PID_INDEX, -1);
 2254              		.loc 1 318 5 is_stmt 1 view .LVU486
 2255 02b0 BFEE000A 		vmov.f32	s0, #-1.0e+0
 2256 02b4 5420     		movs	r0, #84
 2257 02b6 FFF7FEFF 		bl	setReg
 2258              	.LVL216:
 319:Core/drogui/src/controlTasks.c ****     setReg(PID_VAR, -1);
 2259              		.loc 1 319 5 view .LVU487
 2260 02ba BFEE000A 		vmov.f32	s0, #-1.0e+0
 2261 02be 5620     		movs	r0, #86
 2262 02c0 FFF7FEFF 		bl	setReg
 2263              	.LVL217:
 320:Core/drogui/src/controlTasks.c ****     setReg(N_FILTER, 50);
 2264              		.loc 1 320 5 view .LVU488
 2265 02c4 B0EE680A 		vmov.f32	s0, s17
 2266 02c8 5820     		movs	r0, #88
 2267 02ca FFF7FEFF 		bl	setReg
 2268              	.LVL218:
 321:Core/drogui/src/controlTasks.c **** 
 322:Core/drogui/src/controlTasks.c ****     addTask(&wControlTask, 1000, 1);
 2269              		.loc 1 322 5 view .LVU489
 2270 02ce 0122     		movs	r2, #1
 2271 02d0 4FF47A71 		mov	r1, #1000
 2272 02d4 3648     		ldr	r0, .L77+180
 2273 02d6 FFF7FEFF 		bl	addTask
 2274              	.LVL219:
 323:Core/drogui/src/controlTasks.c ****     addTask(&rpyControlTask, 2000, 1);
 2275              		.loc 1 323 5 view .LVU490
 2276 02da 0122     		movs	r2, #1
 2277 02dc 4FF4FA61 		mov	r1, #2000
 2278 02e0 3448     		ldr	r0, .L77+184
 2279 02e2 FFF7FEFF 		bl	addTask
ARM GAS  C:\Users\GUILLE~1\AppData\Local\Temp\cc6N2eIu.s 			page 53


 2280              	.LVL220:
 324:Core/drogui/src/controlTasks.c ****     addTask(&xyzControlTask, 10000, 1);
 2281              		.loc 1 324 5 view .LVU491
 2282 02e6 0122     		movs	r2, #1
 2283 02e8 42F21071 		movw	r1, #10000
 2284 02ec 3248     		ldr	r0, .L77+188
 2285 02ee FFF7FEFF 		bl	addTask
 2286              	.LVL221:
 325:Core/drogui/src/controlTasks.c ****     
 326:Core/drogui/src/controlTasks.c **** }
 2287              		.loc 1 326 1 is_stmt 0 view .LVU492
 2288 02f2 02B0     		add	sp, sp, #8
 2289              	.LCFI22:
 2290              		.cfi_def_cfa_offset 48
 2291              		@ sp needed
 2292 02f4 BDEC068B 		vldm	sp!, {d8-d10}
 2293              	.LCFI23:
 2294              		.cfi_restore 84
 2295              		.cfi_restore 85
 2296              		.cfi_restore 82
 2297              		.cfi_restore 83
 2298              		.cfi_restore 80
 2299              		.cfi_restore 81
 2300              		.cfi_def_cfa_offset 24
 2301 02f8 BDE8F081 		pop	{r4, r5, r6, r7, r8, pc}
 2302              	.L78:
 2303              		.align	2
 2304              	.L77:
 2305 02fc 00000000 		.word	v_3_200
 2306 0300 00000000 		.word	k_3_200
 2307 0304 00000000 		.word	.LANCHOR41
 2308 0308 00000000 		.word	.LANCHOR42
 2309 030c 00000000 		.word	.LANCHOR43
 2310 0310 00000000 		.word	htim3
 2311 0314 00000000 		.word	.LANCHOR40
 2312 0318 00000000 		.word	.LANCHOR37
 2313 031c 00000000 		.word	htim4
 2314 0320 00000000 		.word	.LANCHOR39
 2315 0324 00000000 		.word	.LANCHOR38
 2316 0328 00004842 		.word	1112014848
 2317 032c 00803B44 		.word	1144750080
 2318 0330 00000000 		.word	.LANCHOR22
 2319 0334 00000000 		.word	.LANCHOR44
 2320 0338 0AD7A33D 		.word	1034147594
 2321 033c CDCC4C3E 		.word	1045220557
 2322 0340 00000000 		.word	.LANCHOR20
 2323 0344 00000000 		.word	.LANCHOR21
 2324 0348 00000000 		.word	htim5
 2325 034c 00803B45 		.word	1161527296
 2326 0350 C2B8B23E 		.word	1051900098
 2327 0354 00007AC4 		.word	-998637568
 2328 0358 0000FA43 		.word	1140457472
 2329 035c 00000000 		.word	v_1_20
 2330 0360 00000000 		.word	k_1_20
 2331 0364 00000000 		.word	.LANCHOR7
 2332 0368 00009643 		.word	1133903872
 2333 036c 00000000 		.word	.LANCHOR9
ARM GAS  C:\Users\GUILLE~1\AppData\Local\Temp\cc6N2eIu.s 			page 54


 2334 0370 00000000 		.word	0
 2335 0374 00000000 		.word	.LANCHOR11
 2336 0378 0000A042 		.word	1117782016
 2337 037c 00000000 		.word	k_1_10
 2338 0380 00000000 		.word	.LANCHOR31
 2339 0384 00000000 		.word	.LANCHOR33
 2340 0388 00000000 		.word	.LANCHOR35
 2341 038c 00000000 		.word	.LANCHOR45
 2342 0390 00000000 		.word	.LANCHOR46
 2343 0394 00000000 		.word	.LANCHOR47
 2344 0398 00000000 		.word	.LANCHOR13
 2345 039c 00000000 		.word	.LANCHOR15
 2346 03a0 00000000 		.word	.LANCHOR17
 2347 03a4 00000000 		.word	.LANCHOR4
 2348 03a8 00000000 		.word	.LANCHOR5
 2349 03ac 00000000 		.word	.LANCHOR26
 2350 03b0 00000000 		.word	wControlTask
 2351 03b4 00000000 		.word	rpyControlTask
 2352 03b8 00000000 		.word	xyzControlTask
 2353 03bc 00000000 		.word	v_1_10
 2354              		.cfi_endproc
 2355              	.LFE179:
 2357              		.global	descend
 2358              		.global	Iyy
 2359              		.global	Ixx
 2360              		.global	z_ref
 2361              		.global	y_ref
 2362              		.global	x_ref
 2363              		.global	yaw_ref
 2364              		.global	pitch_ref
 2365              		.global	roll_ref
 2366              		.global	wyaw_ref
 2367              		.global	wpitch_ref
 2368              		.global	wroll_ref
 2369              		.global	M4
 2370              		.global	M3
 2371              		.global	M2
 2372              		.global	M1
 2373              		.global	ANG_MAX
 2374              		.global	Y_C
 2375              		.global	X_C
 2376              		.global	H_ref
 2377              		.global	Y
 2378              		.global	P
 2379              		.global	R
 2380              		.global	H_comp
 2381              		.global	H
 2382              		.global	H_sp
 2383              		.global	yaw_sp
 2384              		.global	pitch_sp
 2385              		.global	roll_sp
 2386              		.global	y_sp
 2387              		.global	x_sp
 2388              		.global	z_sp
 2389              		.global	filter_H
 2390              		.global	filter_Y
 2391              		.global	filter_P
ARM GAS  C:\Users\GUILLE~1\AppData\Local\Temp\cc6N2eIu.s 			page 55


 2392              		.global	filter_R
 2393              		.global	filter_wyaw
 2394              		.global	filter_wpitch
 2395              		.global	filter_wroll
 2396              		.global	y_control
 2397              		.global	x_control
 2398              		.global	z_control
 2399              		.global	wyaw_control
 2400              		.global	wpitch_control
 2401              		.global	wroll_control
 2402              		.global	yaw2w
 2403              		.global	pitch2w
 2404              		.global	roll2w
 2405              		.global	m4
 2406              		.global	m3
 2407              		.global	m2
 2408              		.global	m1
 2409              		.section	.bss.H,"aw",%nobits
 2410              		.align	2
 2411              		.set	.LANCHOR19,. + 0
 2414              	H:
 2415 0000 00000000 		.space	4
 2416              		.section	.bss.H_comp,"aw",%nobits
 2417              		.align	2
 2418              		.set	.LANCHOR24,. + 0
 2421              	H_comp:
 2422 0000 00000000 		.space	4
 2423              		.section	.bss.H_ref,"aw",%nobits
 2424              		.align	2
 2425              		.set	.LANCHOR23,. + 0
 2428              	H_ref:
 2429 0000 00000000 		.space	4
 2430              		.section	.bss.H_sp,"aw",%nobits
 2431              		.align	2
 2432              		.set	.LANCHOR26,. + 0
 2435              	H_sp:
 2436 0000 00000000 		.space	16
 2436      00000000 
 2436      00000000 
 2436      00000000 
 2437              		.section	.bss.Ixx,"aw",%nobits
 2438              		.align	2
 2441              	Ixx:
 2442 0000 00000000 		.space	4
 2443              		.section	.bss.Iyy,"aw",%nobits
 2444              		.align	2
 2447              	Iyy:
 2448 0000 00000000 		.space	4
 2449              		.section	.bss.M1,"aw",%nobits
 2450              		.align	2
 2451              		.set	.LANCHOR27,. + 0
 2454              	M1:
 2455 0000 00000000 		.space	4
 2456              		.section	.bss.M2,"aw",%nobits
 2457              		.align	2
 2458              		.set	.LANCHOR28,. + 0
 2461              	M2:
ARM GAS  C:\Users\GUILLE~1\AppData\Local\Temp\cc6N2eIu.s 			page 56


 2462 0000 00000000 		.space	4
 2463              		.section	.bss.M3,"aw",%nobits
 2464              		.align	2
 2465              		.set	.LANCHOR29,. + 0
 2468              	M3:
 2469 0000 00000000 		.space	4
 2470              		.section	.bss.M4,"aw",%nobits
 2471              		.align	2
 2472              		.set	.LANCHOR30,. + 0
 2475              	M4:
 2476 0000 00000000 		.space	4
 2477              		.section	.bss.P,"aw",%nobits
 2478              		.align	2
 2479              		.set	.LANCHOR34,. + 0
 2482              	P:
 2483 0000 00000000 		.space	4
 2484              		.section	.bss.R,"aw",%nobits
 2485              		.align	2
 2486              		.set	.LANCHOR32,. + 0
 2489              	R:
 2490 0000 00000000 		.space	4
 2491              		.section	.bss.X_C,"aw",%nobits
 2492              		.align	2
 2493              		.set	.LANCHOR3,. + 0
 2496              	X_C:
 2497 0000 00000000 		.space	4
 2498              		.section	.bss.Y,"aw",%nobits
 2499              		.align	2
 2500              		.set	.LANCHOR36,. + 0
 2503              	Y:
 2504 0000 00000000 		.space	4
 2505              		.section	.bss.Y_C,"aw",%nobits
 2506              		.align	2
 2507              		.set	.LANCHOR0,. + 0
 2510              	Y_C:
 2511 0000 00000000 		.space	4
 2512              		.section	.bss.descend,"aw",%nobits
 2513              		.set	.LANCHOR25,. + 0
 2516              	descend:
 2517 0000 00       		.space	1
 2518              		.section	.bss.filter_H,"aw",%nobits
 2519              		.align	2
 2522              	filter_H:
 2523 0000 00000000 		.space	24
 2523      00000000 
 2523      00000000 
 2523      00000000 
 2523      00000000 
 2524              		.section	.bss.filter_P,"aw",%nobits
 2525              		.align	2
 2526              		.set	.LANCHOR42,. + 0
 2529              	filter_P:
 2530 0000 00000000 		.space	24
 2530      00000000 
 2530      00000000 
 2530      00000000 
 2530      00000000 
ARM GAS  C:\Users\GUILLE~1\AppData\Local\Temp\cc6N2eIu.s 			page 57


 2531              		.section	.bss.filter_R,"aw",%nobits
 2532              		.align	2
 2533              		.set	.LANCHOR41,. + 0
 2536              	filter_R:
 2537 0000 00000000 		.space	24
 2537      00000000 
 2537      00000000 
 2537      00000000 
 2537      00000000 
 2538              		.section	.bss.filter_Y,"aw",%nobits
 2539              		.align	2
 2540              		.set	.LANCHOR43,. + 0
 2543              	filter_Y:
 2544 0000 00000000 		.space	24
 2544      00000000 
 2544      00000000 
 2544      00000000 
 2544      00000000 
 2545              		.section	.bss.filter_wpitch,"aw",%nobits
 2546              		.align	2
 2547              		.set	.LANCHOR46,. + 0
 2550              	filter_wpitch:
 2551 0000 00000000 		.space	24
 2551      00000000 
 2551      00000000 
 2551      00000000 
 2551      00000000 
 2552              		.section	.bss.filter_wroll,"aw",%nobits
 2553              		.align	2
 2554              		.set	.LANCHOR45,. + 0
 2557              	filter_wroll:
 2558 0000 00000000 		.space	24
 2558      00000000 
 2558      00000000 
 2558      00000000 
 2558      00000000 
 2559              		.section	.bss.filter_wyaw,"aw",%nobits
 2560              		.align	2
 2561              		.set	.LANCHOR47,. + 0
 2564              	filter_wyaw:
 2565 0000 00000000 		.space	24
 2565      00000000 
 2565      00000000 
 2565      00000000 
 2565      00000000 
 2566              		.section	.bss.m1,"aw",%nobits
 2567              		.align	2
 2568              		.set	.LANCHOR37,. + 0
 2571              	m1:
 2572 0000 00000000 		.space	12
 2572      00000000 
 2572      00000000 
 2573              		.section	.bss.m2,"aw",%nobits
 2574              		.align	2
 2575              		.set	.LANCHOR38,. + 0
 2578              	m2:
 2579 0000 00000000 		.space	12
ARM GAS  C:\Users\GUILLE~1\AppData\Local\Temp\cc6N2eIu.s 			page 58


 2579      00000000 
 2579      00000000 
 2580              		.section	.bss.m3,"aw",%nobits
 2581              		.align	2
 2582              		.set	.LANCHOR39,. + 0
 2585              	m3:
 2586 0000 00000000 		.space	12
 2586      00000000 
 2586      00000000 
 2587              		.section	.bss.m4,"aw",%nobits
 2588              		.align	2
 2589              		.set	.LANCHOR40,. + 0
 2592              	m4:
 2593 0000 00000000 		.space	12
 2593      00000000 
 2593      00000000 
 2594              		.section	.bss.pitch2w,"aw",%nobits
 2595              		.align	2
 2596              		.set	.LANCHOR9,. + 0
 2599              	pitch2w:
 2600 0000 00000000 		.space	176
 2600      00000000 
 2600      00000000 
 2600      00000000 
 2600      00000000 
 2601              		.section	.bss.pitch_ref,"aw",%nobits
 2602              		.align	2
 2603              		.set	.LANCHOR2,. + 0
 2606              	pitch_ref:
 2607 0000 00000000 		.space	4
 2608              		.section	.bss.pitch_sp,"aw",%nobits
 2609              		.align	2
 2610              		.set	.LANCHOR5,. + 0
 2613              	pitch_sp:
 2614 0000 00000000 		.space	16
 2614      00000000 
 2614      00000000 
 2614      00000000 
 2615              		.section	.bss.roll2w,"aw",%nobits
 2616              		.align	2
 2617              		.set	.LANCHOR7,. + 0
 2620              	roll2w:
 2621 0000 00000000 		.space	176
 2621      00000000 
 2621      00000000 
 2621      00000000 
 2621      00000000 
 2622              		.section	.bss.roll_ref,"aw",%nobits
 2623              		.align	2
 2624              		.set	.LANCHOR1,. + 0
 2627              	roll_ref:
 2628 0000 00000000 		.space	4
 2629              		.section	.bss.roll_sp,"aw",%nobits
 2630              		.align	2
 2631              		.set	.LANCHOR4,. + 0
 2634              	roll_sp:
 2635 0000 00000000 		.space	16
ARM GAS  C:\Users\GUILLE~1\AppData\Local\Temp\cc6N2eIu.s 			page 59


 2635      00000000 
 2635      00000000 
 2635      00000000 
 2636              		.section	.bss.wpitch_control,"aw",%nobits
 2637              		.align	2
 2638              		.set	.LANCHOR33,. + 0
 2641              	wpitch_control:
 2642 0000 00000000 		.space	176
 2642      00000000 
 2642      00000000 
 2642      00000000 
 2642      00000000 
 2643              		.section	.bss.wpitch_ref,"aw",%nobits
 2644              		.align	2
 2645              		.set	.LANCHOR10,. + 0
 2648              	wpitch_ref:
 2649 0000 00000000 		.space	4
 2650              		.section	.bss.wroll_control,"aw",%nobits
 2651              		.align	2
 2652              		.set	.LANCHOR31,. + 0
 2655              	wroll_control:
 2656 0000 00000000 		.space	176
 2656      00000000 
 2656      00000000 
 2656      00000000 
 2656      00000000 
 2657              		.section	.bss.wroll_ref,"aw",%nobits
 2658              		.align	2
 2659              		.set	.LANCHOR8,. + 0
 2662              	wroll_ref:
 2663 0000 00000000 		.space	4
 2664              		.section	.bss.wyaw_control,"aw",%nobits
 2665              		.align	2
 2666              		.set	.LANCHOR35,. + 0
 2669              	wyaw_control:
 2670 0000 00000000 		.space	176
 2670      00000000 
 2670      00000000 
 2670      00000000 
 2670      00000000 
 2671              		.section	.bss.wyaw_ref,"aw",%nobits
 2672              		.align	2
 2673              		.set	.LANCHOR12,. + 0
 2676              	wyaw_ref:
 2677 0000 00000000 		.space	4
 2678              		.section	.bss.x_control,"aw",%nobits
 2679              		.align	2
 2680              		.set	.LANCHOR20,. + 0
 2683              	x_control:
 2684 0000 00000000 		.space	176
 2684      00000000 
 2684      00000000 
 2684      00000000 
 2684      00000000 
 2685              		.section	.bss.x_ref,"aw",%nobits
 2686              		.align	2
 2687              		.set	.LANCHOR14,. + 0
ARM GAS  C:\Users\GUILLE~1\AppData\Local\Temp\cc6N2eIu.s 			page 60


 2690              	x_ref:
 2691 0000 00000000 		.space	4
 2692              		.section	.bss.x_sp,"aw",%nobits
 2693              		.align	2
 2694              		.set	.LANCHOR13,. + 0
 2697              	x_sp:
 2698 0000 00000000 		.space	16
 2698      00000000 
 2698      00000000 
 2698      00000000 
 2699              		.section	.bss.y_control,"aw",%nobits
 2700              		.align	2
 2701              		.set	.LANCHOR21,. + 0
 2704              	y_control:
 2705 0000 00000000 		.space	176
 2705      00000000 
 2705      00000000 
 2705      00000000 
 2705      00000000 
 2706              		.section	.bss.y_ref,"aw",%nobits
 2707              		.align	2
 2708              		.set	.LANCHOR16,. + 0
 2711              	y_ref:
 2712 0000 00000000 		.space	4
 2713              		.section	.bss.y_sp,"aw",%nobits
 2714              		.align	2
 2715              		.set	.LANCHOR15,. + 0
 2718              	y_sp:
 2719 0000 00000000 		.space	16
 2719      00000000 
 2719      00000000 
 2719      00000000 
 2720              		.section	.bss.yaw2w,"aw",%nobits
 2721              		.align	2
 2722              		.set	.LANCHOR11,. + 0
 2725              	yaw2w:
 2726 0000 00000000 		.space	176
 2726      00000000 
 2726      00000000 
 2726      00000000 
 2726      00000000 
 2727              		.section	.bss.yaw_ref,"aw",%nobits
 2728              		.align	2
 2729              		.set	.LANCHOR6,. + 0
 2732              	yaw_ref:
 2733 0000 00000000 		.space	4
 2734              		.section	.bss.yaw_sp,"aw",%nobits
 2735              		.align	2
 2738              	yaw_sp:
 2739 0000 00000000 		.space	16
 2739      00000000 
 2739      00000000 
 2739      00000000 
 2740              		.section	.bss.z_control,"aw",%nobits
 2741              		.align	2
 2742              		.set	.LANCHOR22,. + 0
 2745              	z_control:
ARM GAS  C:\Users\GUILLE~1\AppData\Local\Temp\cc6N2eIu.s 			page 61


 2746 0000 00000000 		.space	176
 2746      00000000 
 2746      00000000 
 2746      00000000 
 2746      00000000 
 2747              		.section	.bss.z_ref,"aw",%nobits
 2748              		.align	2
 2749              		.set	.LANCHOR18,. + 0
 2752              	z_ref:
 2753 0000 00000000 		.space	4
 2754              		.section	.bss.z_sp,"aw",%nobits
 2755              		.align	2
 2756              		.set	.LANCHOR17,. + 0
 2759              	z_sp:
 2760 0000 00000000 		.space	16
 2760      00000000 
 2760      00000000 
 2760      00000000 
 2761              		.section	.data.ANG_MAX,"aw"
 2762              		.align	2
 2763              		.set	.LANCHOR44,. + 0
 2766              	ANG_MAX:
 2767 0000 5077563D 		.word	1029076816
 2768              		.text
 2769              	.Letext0:
 2770              		.file 2 "c:\\program files (x86)\\gnu arm embedded toolchain\\10 2020-q4-major\\arm-none-eabi\\inc
 2771              		.file 3 "c:\\program files (x86)\\gnu arm embedded toolchain\\10 2020-q4-major\\arm-none-eabi\\inc
 2772              		.file 4 "Drivers/CMSIS/Device/ST/STM32F7xx/Include/stm32f746xx.h"
 2773              		.file 5 "Drivers/STM32F7xx_HAL_Driver/Inc/stm32f7xx_hal_def.h"
 2774              		.file 6 "Drivers/STM32F7xx_HAL_Driver/Inc/stm32f7xx_hal_dma.h"
 2775              		.file 7 "Drivers/STM32F7xx_HAL_Driver/Inc/stm32f7xx_hal_tim.h"
 2776              		.file 8 "Core/drogui/include/utils.h"
 2777              		.file 9 "Drivers/CMSIS/DSP/Include/arm_math.h"
 2778              		.file 10 "Core/drogui/include/filter.h"
 2779              		.file 11 "Core/drogui/include/control.h"
 2780              		.file 12 "../../drogui_rpi/registerMap/registerMap.h"
 2781              		.file 13 "Core/drogui/include/sensorsTasks.h"
 2782              		.file 14 "Core/drogui/include/controlTasks.h"
 2783              		.file 15 "Core/Inc/tim.h"
 2784              		.file 16 "Core/drogui/include/scurve.h"
 2785              		.file 17 "Core/drogui/include/pwm.h"
 2786              		.file 18 "Core/drogui/include/task.h"
 2787              		.file 19 "c:\\program files (x86)\\gnu arm embedded toolchain\\10 2020-q4-major\\arm-none-eabi\\in
ARM GAS  C:\Users\GUILLE~1\AppData\Local\Temp\cc6N2eIu.s 			page 62

