ARM GAS  C:\Users\GUILLE~1\AppData\Local\Temp\ccpUd5Pj.s 			page 1


   1              		.cpu cortex-m7
   2              		.eabi_attribute 27, 1
   3              		.eabi_attribute 28, 1
   4              		.eabi_attribute 20, 1
   5              		.eabi_attribute 21, 1
   6              		.eabi_attribute 23, 3
   7              		.eabi_attribute 24, 1
   8              		.eabi_attribute 25, 1
   9              		.eabi_attribute 26, 1
  10              		.eabi_attribute 30, 1
  11              		.eabi_attribute 34, 1
  12              		.eabi_attribute 18, 4
  13              		.file	"ICM20948.c"
  14              		.text
  15              	.Ltext0:
  16              		.cfi_sections	.debug_frame
  17              		.section	.text.updateCalibOffset,"ax",%progbits
  18              		.align	1
  19              		.global	updateCalibOffset
  20              		.arch armv7e-m
  21              		.syntax unified
  22              		.thumb
  23              		.thumb_func
  24              		.fpu fpv5-sp-d16
  26              	updateCalibOffset:
  27              	.LVL0:
  28              	.LFB174:
  29              		.file 1 "Core/drogui/src/ICM20948.c"
   1:Core/drogui/src/ICM20948.c **** #include "macros.h"
   2:Core/drogui/src/ICM20948.c **** 
   3:Core/drogui/src/ICM20948.c **** #ifdef ICM20948
   4:Core/drogui/src/ICM20948.c **** 
   5:Core/drogui/src/ICM20948.c **** #include "ICM20948.h"
   6:Core/drogui/src/ICM20948.c **** #include "i2c.h"
   7:Core/drogui/src/ICM20948.c **** #include "matlib.h"
   8:Core/drogui/src/ICM20948.c **** #include "registerMap.h"
   9:Core/drogui/src/ICM20948.c **** #include "sensorsTasks.h"
  10:Core/drogui/src/ICM20948.c **** #include "utils.h"
  11:Core/drogui/src/ICM20948.c **** #include "serial.h"
  12:Core/drogui/src/ICM20948.c **** 
  13:Core/drogui/src/ICM20948.c **** #define G 9.81
  14:Core/drogui/src/ICM20948.c **** 
  15:Core/drogui/src/ICM20948.c **** //char buffcal[500]="";
  16:Core/drogui/src/ICM20948.c **** 
  17:Core/drogui/src/ICM20948.c **** int updateCalibOffset(icm20948* m){
  30              		.loc 1 17 35 view -0
  31              		.cfi_startproc
  32              		@ args = 0, pretend = 0, frame = 0
  33              		@ frame_needed = 0, uses_anonymous_args = 0
  34              		.loc 1 17 35 is_stmt 0 view .LVU1
  35 0000 38B5     		push	{r3, r4, r5, lr}
  36              	.LCFI0:
  37              		.cfi_def_cfa_offset 16
  38              		.cfi_offset 3, -16
  39              		.cfi_offset 4, -12
  40              		.cfi_offset 5, -8
  41              		.cfi_offset 14, -4
ARM GAS  C:\Users\GUILLE~1\AppData\Local\Temp\ccpUd5Pj.s 			page 2


  42 0002 2DED028B 		vpush.64	{d8}
  43              	.LCFI1:
  44              		.cfi_def_cfa_offset 24
  45              		.cfi_offset 80, -24
  46              		.cfi_offset 81, -20
  47 0006 0446     		mov	r4, r0
  18:Core/drogui/src/ICM20948.c ****     int ans = 0;
  48              		.loc 1 18 5 is_stmt 1 view .LVU2
  49              	.LVL1:
  19:Core/drogui/src/ICM20948.c **** 
  20:Core/drogui/src/ICM20948.c ****     if( m->off_gx != getReg(GYR_X_OFF))  ans |= 2, m->off_gx = getReg(GYR_X_OFF);
  50              		.loc 1 20 5 view .LVU3
  51              		.loc 1 20 10 is_stmt 0 view .LVU4
  52 0008 90ED1C8A 		vldr.32	s16, [r0, #112]
  53              		.loc 1 20 22 view .LVU5
  54 000c 1620     		movs	r0, #22
  55              	.LVL2:
  56              		.loc 1 20 22 view .LVU6
  57 000e FFF7FEFF 		bl	getReg
  58              	.LVL3:
  59              		.loc 1 20 7 view .LVU7
  60 0012 B4EE408A 		vcmp.f32	s16, s0
  61 0016 F1EE10FA 		vmrs	APSR_nzcv, FPSCR
  62 001a 7FD1     		bne	.L18
  18:Core/drogui/src/ICM20948.c ****     int ans = 0;
  63              		.loc 1 18 9 view .LVU8
  64 001c 0025     		movs	r5, #0
  65              	.LVL4:
  66              	.L2:
  21:Core/drogui/src/ICM20948.c ****     if( m->off_gy != getReg(GYR_Y_OFF))  ans |= 2, m->off_gy = getReg(GYR_Y_OFF);
  67              		.loc 1 21 5 is_stmt 1 view .LVU9
  68              		.loc 1 21 10 is_stmt 0 view .LVU10
  69 001e 94ED1D8A 		vldr.32	s16, [r4, #116]
  70              		.loc 1 21 22 view .LVU11
  71 0022 1820     		movs	r0, #24
  72 0024 FFF7FEFF 		bl	getReg
  73              	.LVL5:
  74              		.loc 1 21 7 view .LVU12
  75 0028 B4EE408A 		vcmp.f32	s16, s0
  76 002c F1EE10FA 		vmrs	APSR_nzcv, FPSCR
  77 0030 7BD1     		bne	.L19
  78              	.L3:
  22:Core/drogui/src/ICM20948.c ****     if( m->off_gz != getReg(GYR_Z_OFF))  ans |= 2, m->off_gz = getReg(GYR_Z_OFF);
  79              		.loc 1 22 5 is_stmt 1 view .LVU13
  80              		.loc 1 22 10 is_stmt 0 view .LVU14
  81 0032 94ED1E8A 		vldr.32	s16, [r4, #120]
  82              		.loc 1 22 22 view .LVU15
  83 0036 1A20     		movs	r0, #26
  84 0038 FFF7FEFF 		bl	getReg
  85              	.LVL6:
  86              		.loc 1 22 7 view .LVU16
  87 003c B4EE408A 		vcmp.f32	s16, s0
  88 0040 F1EE10FA 		vmrs	APSR_nzcv, FPSCR
  89 0044 79D1     		bne	.L20
  90              	.L4:
  23:Core/drogui/src/ICM20948.c **** 
  24:Core/drogui/src/ICM20948.c ****     if( m->off_ax  != getReg(ACC_X_OFF)) ans |= 1, m->off_ax = getReg(ACC_X_OFF);
ARM GAS  C:\Users\GUILLE~1\AppData\Local\Temp\ccpUd5Pj.s 			page 3


  91              		.loc 1 24 5 is_stmt 1 view .LVU17
  92              		.loc 1 24 10 is_stmt 0 view .LVU18
  93 0046 94ED188A 		vldr.32	s16, [r4, #96]
  94              		.loc 1 24 23 view .LVU19
  95 004a 1C20     		movs	r0, #28
  96 004c FFF7FEFF 		bl	getReg
  97              	.LVL7:
  98              		.loc 1 24 7 view .LVU20
  99 0050 B4EE408A 		vcmp.f32	s16, s0
 100 0054 F1EE10FA 		vmrs	APSR_nzcv, FPSCR
 101 0058 77D1     		bne	.L21
 102              	.L5:
  25:Core/drogui/src/ICM20948.c ****     if( m->off_ay  != getReg(ACC_Y_OFF)) ans |= 1, m->off_ay = getReg(ACC_Y_OFF); 
 103              		.loc 1 25 5 is_stmt 1 view .LVU21
 104              		.loc 1 25 10 is_stmt 0 view .LVU22
 105 005a 94ED198A 		vldr.32	s16, [r4, #100]
 106              		.loc 1 25 23 view .LVU23
 107 005e 1E20     		movs	r0, #30
 108 0060 FFF7FEFF 		bl	getReg
 109              	.LVL8:
 110              		.loc 1 25 7 view .LVU24
 111 0064 B4EE408A 		vcmp.f32	s16, s0
 112 0068 F1EE10FA 		vmrs	APSR_nzcv, FPSCR
 113 006c 75D1     		bne	.L22
 114              	.L6:
  26:Core/drogui/src/ICM20948.c ****     if( m->off_az  != getReg(ACC_Z_OFF)) ans |= 1, m->off_az = getReg(ACC_Z_OFF);
 115              		.loc 1 26 5 is_stmt 1 view .LVU25
 116              		.loc 1 26 10 is_stmt 0 view .LVU26
 117 006e 94ED1A8A 		vldr.32	s16, [r4, #104]
 118              		.loc 1 26 23 view .LVU27
 119 0072 2020     		movs	r0, #32
 120 0074 FFF7FEFF 		bl	getReg
 121              	.LVL9:
 122              		.loc 1 26 7 view .LVU28
 123 0078 B4EE408A 		vcmp.f32	s16, s0
 124 007c F1EE10FA 		vmrs	APSR_nzcv, FPSCR
 125 0080 73D1     		bne	.L23
 126              	.L7:
  27:Core/drogui/src/ICM20948.c ****     if( m->scl_acc != getReg(ACC_SCALE)) ans |= 1, m->scl_acc =  getReg(ACC_SCALE);
 127              		.loc 1 27 5 is_stmt 1 view .LVU29
 128              		.loc 1 27 10 is_stmt 0 view .LVU30
 129 0082 94ED1B8A 		vldr.32	s16, [r4, #108]
 130              		.loc 1 27 23 view .LVU31
 131 0086 2220     		movs	r0, #34
 132 0088 FFF7FEFF 		bl	getReg
 133              	.LVL10:
 134              		.loc 1 27 7 view .LVU32
 135 008c B4EE408A 		vcmp.f32	s16, s0
 136 0090 F1EE10FA 		vmrs	APSR_nzcv, FPSCR
 137 0094 71D1     		bne	.L24
 138              	.L8:
  28:Core/drogui/src/ICM20948.c **** 
  29:Core/drogui/src/ICM20948.c ****     if( m->off_mx != getReg(MAG_X_OFF)) ans |= 4, m->off_mx =   getReg(MAG_X_OFF);
 139              		.loc 1 29 5 is_stmt 1 view .LVU33
 140              		.loc 1 29 10 is_stmt 0 view .LVU34
 141 0096 94ED1F8A 		vldr.32	s16, [r4, #124]
 142              		.loc 1 29 22 view .LVU35
ARM GAS  C:\Users\GUILLE~1\AppData\Local\Temp\ccpUd5Pj.s 			page 4


 143 009a 2420     		movs	r0, #36
 144 009c FFF7FEFF 		bl	getReg
 145              	.LVL11:
 146              		.loc 1 29 7 view .LVU36
 147 00a0 B4EE408A 		vcmp.f32	s16, s0
 148 00a4 F1EE10FA 		vmrs	APSR_nzcv, FPSCR
 149 00a8 6FD1     		bne	.L25
 150              	.L9:
  30:Core/drogui/src/ICM20948.c ****     if( m->off_my != getReg(MAG_Y_OFF)) ans |= 4, m->off_my = getReg(MAG_Y_OFF);     
 151              		.loc 1 30 5 is_stmt 1 view .LVU37
 152              		.loc 1 30 10 is_stmt 0 view .LVU38
 153 00aa 94ED208A 		vldr.32	s16, [r4, #128]
 154              		.loc 1 30 22 view .LVU39
 155 00ae 2620     		movs	r0, #38
 156 00b0 FFF7FEFF 		bl	getReg
 157              	.LVL12:
 158              		.loc 1 30 7 view .LVU40
 159 00b4 B4EE408A 		vcmp.f32	s16, s0
 160 00b8 F1EE10FA 		vmrs	APSR_nzcv, FPSCR
 161 00bc 6DD1     		bne	.L26
 162              	.L10:
  31:Core/drogui/src/ICM20948.c ****     if( m->off_mz != getReg(MAG_Z_OFF)) ans |= 4, m->off_mz = getReg(MAG_Z_OFF);
 163              		.loc 1 31 5 is_stmt 1 view .LVU41
 164              		.loc 1 31 10 is_stmt 0 view .LVU42
 165 00be 94ED218A 		vldr.32	s16, [r4, #132]
 166              		.loc 1 31 22 view .LVU43
 167 00c2 2820     		movs	r0, #40
 168 00c4 FFF7FEFF 		bl	getReg
 169              	.LVL13:
 170              		.loc 1 31 7 view .LVU44
 171 00c8 B4EE408A 		vcmp.f32	s16, s0
 172 00cc F1EE10FA 		vmrs	APSR_nzcv, FPSCR
 173 00d0 6BD1     		bne	.L27
 174              	.L11:
  32:Core/drogui/src/ICM20948.c ****     
  33:Core/drogui/src/ICM20948.c ****     if( m->scl_magx != getReg(MAG_X_SCALE)) ans |= 4, m->scl_magx = getReg(MAG_X_SCALE);
 175              		.loc 1 33 5 is_stmt 1 view .LVU45
 176              		.loc 1 33 10 is_stmt 0 view .LVU46
 177 00d2 94ED228A 		vldr.32	s16, [r4, #136]
 178              		.loc 1 33 24 view .LVU47
 179 00d6 2A20     		movs	r0, #42
 180 00d8 FFF7FEFF 		bl	getReg
 181              	.LVL14:
 182              		.loc 1 33 7 view .LVU48
 183 00dc B4EE408A 		vcmp.f32	s16, s0
 184 00e0 F1EE10FA 		vmrs	APSR_nzcv, FPSCR
 185 00e4 69D1     		bne	.L28
 186              	.L12:
  34:Core/drogui/src/ICM20948.c ****     if( m->scl_magy != getReg(MAG_Y_SCALE)) ans |= 4, m->scl_magy = getReg(MAG_Y_SCALE);     
 187              		.loc 1 34 5 is_stmt 1 view .LVU49
 188              		.loc 1 34 10 is_stmt 0 view .LVU50
 189 00e6 94ED238A 		vldr.32	s16, [r4, #140]
 190              		.loc 1 34 24 view .LVU51
 191 00ea 2C20     		movs	r0, #44
 192 00ec FFF7FEFF 		bl	getReg
 193              	.LVL15:
 194              		.loc 1 34 7 view .LVU52
ARM GAS  C:\Users\GUILLE~1\AppData\Local\Temp\ccpUd5Pj.s 			page 5


 195 00f0 B4EE408A 		vcmp.f32	s16, s0
 196 00f4 F1EE10FA 		vmrs	APSR_nzcv, FPSCR
 197 00f8 67D1     		bne	.L29
 198              	.L13:
  35:Core/drogui/src/ICM20948.c ****     if( m->scl_magz != getReg(MAG_Z_SCALE)) ans |= 4, m->scl_magz = getReg(MAG_Z_SCALE);
 199              		.loc 1 35 5 is_stmt 1 view .LVU53
 200              		.loc 1 35 10 is_stmt 0 view .LVU54
 201 00fa 94ED248A 		vldr.32	s16, [r4, #144]
 202              		.loc 1 35 24 view .LVU55
 203 00fe 2E20     		movs	r0, #46
 204 0100 FFF7FEFF 		bl	getReg
 205              	.LVL16:
 206              		.loc 1 35 7 view .LVU56
 207 0104 B4EE408A 		vcmp.f32	s16, s0
 208 0108 F1EE10FA 		vmrs	APSR_nzcv, FPSCR
 209 010c 65D1     		bne	.L30
 210              	.L14:
  36:Core/drogui/src/ICM20948.c ****     
  37:Core/drogui/src/ICM20948.c ****     if(ans != 0) ans |= 8;
 211              		.loc 1 37 5 is_stmt 1 view .LVU57
 212              		.loc 1 37 7 is_stmt 0 view .LVU58
 213 010e 0DB1     		cbz	r5, .L1
 214              		.loc 1 37 18 is_stmt 1 discriminator 1 view .LVU59
 215              		.loc 1 37 22 is_stmt 0 discriminator 1 view .LVU60
 216 0110 45F00805 		orr	r5, r5, #8
 217              	.LVL17:
  38:Core/drogui/src/ICM20948.c **** 
  39:Core/drogui/src/ICM20948.c ****     return ans;
 218              		.loc 1 39 5 is_stmt 1 discriminator 1 view .LVU61
 219              	.L1:
  40:Core/drogui/src/ICM20948.c **** }
 220              		.loc 1 40 1 is_stmt 0 view .LVU62
 221 0114 2846     		mov	r0, r5
 222 0116 BDEC028B 		vldm	sp!, {d8}
 223              	.LCFI2:
 224              		.cfi_remember_state
 225              		.cfi_restore 80
 226              		.cfi_restore 81
 227              		.cfi_def_cfa_offset 16
 228 011a 38BD     		pop	{r3, r4, r5, pc}
 229              	.LVL18:
 230              	.L18:
 231              	.LCFI3:
 232              		.cfi_restore_state
  20:Core/drogui/src/ICM20948.c ****     if( m->off_gy != getReg(GYR_Y_OFF))  ans |= 2, m->off_gy = getReg(GYR_Y_OFF);
 233              		.loc 1 20 42 is_stmt 1 discriminator 1 view .LVU63
  20:Core/drogui/src/ICM20948.c ****     if( m->off_gy != getReg(GYR_Y_OFF))  ans |= 2, m->off_gy = getReg(GYR_Y_OFF);
 234              		.loc 1 20 64 is_stmt 0 discriminator 1 view .LVU64
 235 011c 1620     		movs	r0, #22
 236 011e FFF7FEFF 		bl	getReg
 237              	.LVL19:
  20:Core/drogui/src/ICM20948.c ****     if( m->off_gy != getReg(GYR_Y_OFF))  ans |= 2, m->off_gy = getReg(GYR_Y_OFF);
 238              		.loc 1 20 62 discriminator 1 view .LVU65
 239 0122 84ED1C0A 		vstr.32	s0, [r4, #112]
  20:Core/drogui/src/ICM20948.c ****     if( m->off_gy != getReg(GYR_Y_OFF))  ans |= 2, m->off_gy = getReg(GYR_Y_OFF);
 240              		.loc 1 20 46 discriminator 1 view .LVU66
 241 0126 0225     		movs	r5, #2
ARM GAS  C:\Users\GUILLE~1\AppData\Local\Temp\ccpUd5Pj.s 			page 6


 242 0128 79E7     		b	.L2
 243              	.LVL20:
 244              	.L19:
  21:Core/drogui/src/ICM20948.c ****     if( m->off_gz != getReg(GYR_Z_OFF))  ans |= 2, m->off_gz = getReg(GYR_Z_OFF);
 245              		.loc 1 21 42 is_stmt 1 discriminator 1 view .LVU67
  21:Core/drogui/src/ICM20948.c ****     if( m->off_gz != getReg(GYR_Z_OFF))  ans |= 2, m->off_gz = getReg(GYR_Z_OFF);
 246              		.loc 1 21 46 is_stmt 0 discriminator 1 view .LVU68
 247 012a 45F00205 		orr	r5, r5, #2
 248              	.LVL21:
  21:Core/drogui/src/ICM20948.c ****     if( m->off_gz != getReg(GYR_Z_OFF))  ans |= 2, m->off_gz = getReg(GYR_Z_OFF);
 249              		.loc 1 21 64 discriminator 1 view .LVU69
 250 012e 1820     		movs	r0, #24
 251 0130 FFF7FEFF 		bl	getReg
 252              	.LVL22:
  21:Core/drogui/src/ICM20948.c ****     if( m->off_gz != getReg(GYR_Z_OFF))  ans |= 2, m->off_gz = getReg(GYR_Z_OFF);
 253              		.loc 1 21 62 discriminator 1 view .LVU70
 254 0134 84ED1D0A 		vstr.32	s0, [r4, #116]
 255 0138 7BE7     		b	.L3
 256              	.L20:
  22:Core/drogui/src/ICM20948.c **** 
 257              		.loc 1 22 42 is_stmt 1 discriminator 1 view .LVU71
  22:Core/drogui/src/ICM20948.c **** 
 258              		.loc 1 22 46 is_stmt 0 discriminator 1 view .LVU72
 259 013a 45F00205 		orr	r5, r5, #2
 260              	.LVL23:
  22:Core/drogui/src/ICM20948.c **** 
 261              		.loc 1 22 64 discriminator 1 view .LVU73
 262 013e 1A20     		movs	r0, #26
 263 0140 FFF7FEFF 		bl	getReg
 264              	.LVL24:
  22:Core/drogui/src/ICM20948.c **** 
 265              		.loc 1 22 62 discriminator 1 view .LVU74
 266 0144 84ED1E0A 		vstr.32	s0, [r4, #120]
 267 0148 7DE7     		b	.L4
 268              	.L21:
  24:Core/drogui/src/ICM20948.c ****     if( m->off_ay  != getReg(ACC_Y_OFF)) ans |= 1, m->off_ay = getReg(ACC_Y_OFF); 
 269              		.loc 1 24 42 is_stmt 1 discriminator 1 view .LVU75
  24:Core/drogui/src/ICM20948.c ****     if( m->off_ay  != getReg(ACC_Y_OFF)) ans |= 1, m->off_ay = getReg(ACC_Y_OFF); 
 270              		.loc 1 24 46 is_stmt 0 discriminator 1 view .LVU76
 271 014a 45F00105 		orr	r5, r5, #1
 272              	.LVL25:
  24:Core/drogui/src/ICM20948.c ****     if( m->off_ay  != getReg(ACC_Y_OFF)) ans |= 1, m->off_ay = getReg(ACC_Y_OFF); 
 273              		.loc 1 24 64 discriminator 1 view .LVU77
 274 014e 1C20     		movs	r0, #28
 275 0150 FFF7FEFF 		bl	getReg
 276              	.LVL26:
  24:Core/drogui/src/ICM20948.c ****     if( m->off_ay  != getReg(ACC_Y_OFF)) ans |= 1, m->off_ay = getReg(ACC_Y_OFF); 
 277              		.loc 1 24 62 discriminator 1 view .LVU78
 278 0154 84ED180A 		vstr.32	s0, [r4, #96]
 279 0158 7FE7     		b	.L5
 280              	.L22:
  25:Core/drogui/src/ICM20948.c ****     if( m->off_az  != getReg(ACC_Z_OFF)) ans |= 1, m->off_az = getReg(ACC_Z_OFF);
 281              		.loc 1 25 42 is_stmt 1 discriminator 1 view .LVU79
  25:Core/drogui/src/ICM20948.c ****     if( m->off_az  != getReg(ACC_Z_OFF)) ans |= 1, m->off_az = getReg(ACC_Z_OFF);
 282              		.loc 1 25 46 is_stmt 0 discriminator 1 view .LVU80
 283 015a 45F00105 		orr	r5, r5, #1
 284              	.LVL27:
ARM GAS  C:\Users\GUILLE~1\AppData\Local\Temp\ccpUd5Pj.s 			page 7


  25:Core/drogui/src/ICM20948.c ****     if( m->off_az  != getReg(ACC_Z_OFF)) ans |= 1, m->off_az = getReg(ACC_Z_OFF);
 285              		.loc 1 25 64 discriminator 1 view .LVU81
 286 015e 1E20     		movs	r0, #30
 287 0160 FFF7FEFF 		bl	getReg
 288              	.LVL28:
  25:Core/drogui/src/ICM20948.c ****     if( m->off_az  != getReg(ACC_Z_OFF)) ans |= 1, m->off_az = getReg(ACC_Z_OFF);
 289              		.loc 1 25 62 discriminator 1 view .LVU82
 290 0164 84ED190A 		vstr.32	s0, [r4, #100]
 291 0168 81E7     		b	.L6
 292              	.L23:
  26:Core/drogui/src/ICM20948.c ****     if( m->scl_acc != getReg(ACC_SCALE)) ans |= 1, m->scl_acc =  getReg(ACC_SCALE);
 293              		.loc 1 26 42 is_stmt 1 discriminator 1 view .LVU83
  26:Core/drogui/src/ICM20948.c ****     if( m->scl_acc != getReg(ACC_SCALE)) ans |= 1, m->scl_acc =  getReg(ACC_SCALE);
 294              		.loc 1 26 46 is_stmt 0 discriminator 1 view .LVU84
 295 016a 45F00105 		orr	r5, r5, #1
 296              	.LVL29:
  26:Core/drogui/src/ICM20948.c ****     if( m->scl_acc != getReg(ACC_SCALE)) ans |= 1, m->scl_acc =  getReg(ACC_SCALE);
 297              		.loc 1 26 64 discriminator 1 view .LVU85
 298 016e 2020     		movs	r0, #32
 299 0170 FFF7FEFF 		bl	getReg
 300              	.LVL30:
  26:Core/drogui/src/ICM20948.c ****     if( m->scl_acc != getReg(ACC_SCALE)) ans |= 1, m->scl_acc =  getReg(ACC_SCALE);
 301              		.loc 1 26 62 discriminator 1 view .LVU86
 302 0174 84ED1A0A 		vstr.32	s0, [r4, #104]
 303 0178 83E7     		b	.L7
 304              	.L24:
  27:Core/drogui/src/ICM20948.c **** 
 305              		.loc 1 27 42 is_stmt 1 discriminator 1 view .LVU87
  27:Core/drogui/src/ICM20948.c **** 
 306              		.loc 1 27 46 is_stmt 0 discriminator 1 view .LVU88
 307 017a 45F00105 		orr	r5, r5, #1
 308              	.LVL31:
  27:Core/drogui/src/ICM20948.c **** 
 309              		.loc 1 27 66 discriminator 1 view .LVU89
 310 017e 2220     		movs	r0, #34
 311 0180 FFF7FEFF 		bl	getReg
 312              	.LVL32:
  27:Core/drogui/src/ICM20948.c **** 
 313              		.loc 1 27 63 discriminator 1 view .LVU90
 314 0184 84ED1B0A 		vstr.32	s0, [r4, #108]
 315 0188 85E7     		b	.L8
 316              	.L25:
  29:Core/drogui/src/ICM20948.c ****     if( m->off_my != getReg(MAG_Y_OFF)) ans |= 4, m->off_my = getReg(MAG_Y_OFF);     
 317              		.loc 1 29 41 is_stmt 1 discriminator 1 view .LVU91
  29:Core/drogui/src/ICM20948.c ****     if( m->off_my != getReg(MAG_Y_OFF)) ans |= 4, m->off_my = getReg(MAG_Y_OFF);     
 318              		.loc 1 29 45 is_stmt 0 discriminator 1 view .LVU92
 319 018a 45F00405 		orr	r5, r5, #4
 320              	.LVL33:
  29:Core/drogui/src/ICM20948.c ****     if( m->off_my != getReg(MAG_Y_OFF)) ans |= 4, m->off_my = getReg(MAG_Y_OFF);     
 321              		.loc 1 29 65 discriminator 1 view .LVU93
 322 018e 2420     		movs	r0, #36
 323 0190 FFF7FEFF 		bl	getReg
 324              	.LVL34:
  29:Core/drogui/src/ICM20948.c ****     if( m->off_my != getReg(MAG_Y_OFF)) ans |= 4, m->off_my = getReg(MAG_Y_OFF);     
 325              		.loc 1 29 61 discriminator 1 view .LVU94
 326 0194 84ED1F0A 		vstr.32	s0, [r4, #124]
 327 0198 87E7     		b	.L9
ARM GAS  C:\Users\GUILLE~1\AppData\Local\Temp\ccpUd5Pj.s 			page 8


 328              	.L26:
  30:Core/drogui/src/ICM20948.c ****     if( m->off_mz != getReg(MAG_Z_OFF)) ans |= 4, m->off_mz = getReg(MAG_Z_OFF);
 329              		.loc 1 30 41 is_stmt 1 discriminator 1 view .LVU95
  30:Core/drogui/src/ICM20948.c ****     if( m->off_mz != getReg(MAG_Z_OFF)) ans |= 4, m->off_mz = getReg(MAG_Z_OFF);
 330              		.loc 1 30 45 is_stmt 0 discriminator 1 view .LVU96
 331 019a 45F00405 		orr	r5, r5, #4
 332              	.LVL35:
  30:Core/drogui/src/ICM20948.c ****     if( m->off_mz != getReg(MAG_Z_OFF)) ans |= 4, m->off_mz = getReg(MAG_Z_OFF);
 333              		.loc 1 30 63 discriminator 1 view .LVU97
 334 019e 2620     		movs	r0, #38
 335 01a0 FFF7FEFF 		bl	getReg
 336              	.LVL36:
  30:Core/drogui/src/ICM20948.c ****     if( m->off_mz != getReg(MAG_Z_OFF)) ans |= 4, m->off_mz = getReg(MAG_Z_OFF);
 337              		.loc 1 30 61 discriminator 1 view .LVU98
 338 01a4 84ED200A 		vstr.32	s0, [r4, #128]
 339 01a8 89E7     		b	.L10
 340              	.L27:
  31:Core/drogui/src/ICM20948.c ****     
 341              		.loc 1 31 41 is_stmt 1 discriminator 1 view .LVU99
  31:Core/drogui/src/ICM20948.c ****     
 342              		.loc 1 31 45 is_stmt 0 discriminator 1 view .LVU100
 343 01aa 45F00405 		orr	r5, r5, #4
 344              	.LVL37:
  31:Core/drogui/src/ICM20948.c ****     
 345              		.loc 1 31 63 discriminator 1 view .LVU101
 346 01ae 2820     		movs	r0, #40
 347 01b0 FFF7FEFF 		bl	getReg
 348              	.LVL38:
  31:Core/drogui/src/ICM20948.c ****     
 349              		.loc 1 31 61 discriminator 1 view .LVU102
 350 01b4 84ED210A 		vstr.32	s0, [r4, #132]
 351 01b8 8BE7     		b	.L11
 352              	.L28:
  33:Core/drogui/src/ICM20948.c ****     if( m->scl_magy != getReg(MAG_Y_SCALE)) ans |= 4, m->scl_magy = getReg(MAG_Y_SCALE);     
 353              		.loc 1 33 45 is_stmt 1 discriminator 1 view .LVU103
  33:Core/drogui/src/ICM20948.c ****     if( m->scl_magy != getReg(MAG_Y_SCALE)) ans |= 4, m->scl_magy = getReg(MAG_Y_SCALE);     
 354              		.loc 1 33 49 is_stmt 0 discriminator 1 view .LVU104
 355 01ba 45F00405 		orr	r5, r5, #4
 356              	.LVL39:
  33:Core/drogui/src/ICM20948.c ****     if( m->scl_magy != getReg(MAG_Y_SCALE)) ans |= 4, m->scl_magy = getReg(MAG_Y_SCALE);     
 357              		.loc 1 33 69 discriminator 1 view .LVU105
 358 01be 2A20     		movs	r0, #42
 359 01c0 FFF7FEFF 		bl	getReg
 360              	.LVL40:
  33:Core/drogui/src/ICM20948.c ****     if( m->scl_magy != getReg(MAG_Y_SCALE)) ans |= 4, m->scl_magy = getReg(MAG_Y_SCALE);     
 361              		.loc 1 33 67 discriminator 1 view .LVU106
 362 01c4 84ED220A 		vstr.32	s0, [r4, #136]
 363 01c8 8DE7     		b	.L12
 364              	.L29:
  34:Core/drogui/src/ICM20948.c ****     if( m->scl_magz != getReg(MAG_Z_SCALE)) ans |= 4, m->scl_magz = getReg(MAG_Z_SCALE);
 365              		.loc 1 34 45 is_stmt 1 discriminator 1 view .LVU107
  34:Core/drogui/src/ICM20948.c ****     if( m->scl_magz != getReg(MAG_Z_SCALE)) ans |= 4, m->scl_magz = getReg(MAG_Z_SCALE);
 366              		.loc 1 34 49 is_stmt 0 discriminator 1 view .LVU108
 367 01ca 45F00405 		orr	r5, r5, #4
 368              	.LVL41:
  34:Core/drogui/src/ICM20948.c ****     if( m->scl_magz != getReg(MAG_Z_SCALE)) ans |= 4, m->scl_magz = getReg(MAG_Z_SCALE);
 369              		.loc 1 34 69 discriminator 1 view .LVU109
ARM GAS  C:\Users\GUILLE~1\AppData\Local\Temp\ccpUd5Pj.s 			page 9


 370 01ce 2C20     		movs	r0, #44
 371 01d0 FFF7FEFF 		bl	getReg
 372              	.LVL42:
  34:Core/drogui/src/ICM20948.c ****     if( m->scl_magz != getReg(MAG_Z_SCALE)) ans |= 4, m->scl_magz = getReg(MAG_Z_SCALE);
 373              		.loc 1 34 67 discriminator 1 view .LVU110
 374 01d4 84ED230A 		vstr.32	s0, [r4, #140]
 375 01d8 8FE7     		b	.L13
 376              	.L30:
  35:Core/drogui/src/ICM20948.c ****     
 377              		.loc 1 35 45 is_stmt 1 discriminator 1 view .LVU111
  35:Core/drogui/src/ICM20948.c ****     
 378              		.loc 1 35 49 is_stmt 0 discriminator 1 view .LVU112
 379 01da 45F00405 		orr	r5, r5, #4
 380              	.LVL43:
  35:Core/drogui/src/ICM20948.c ****     
 381              		.loc 1 35 69 discriminator 1 view .LVU113
 382 01de 2E20     		movs	r0, #46
 383 01e0 FFF7FEFF 		bl	getReg
 384              	.LVL44:
  35:Core/drogui/src/ICM20948.c ****     
 385              		.loc 1 35 67 discriminator 1 view .LVU114
 386 01e4 84ED240A 		vstr.32	s0, [r4, #144]
 387 01e8 91E7     		b	.L14
 388              		.cfi_endproc
 389              	.LFE174:
 391              		.section	.text.initFiltGyro,"ax",%progbits
 392              		.align	1
 393              		.global	initFiltGyro
 394              		.syntax unified
 395              		.thumb
 396              		.thumb_func
 397              		.fpu fpv5-sp-d16
 399              	initFiltGyro:
 400              	.LVL45:
 401              	.LFB176:
  41:Core/drogui/src/ICM20948.c **** 
  42:Core/drogui/src/ICM20948.c **** void initImu(icm20948* m){
  43:Core/drogui/src/ICM20948.c ****     I2CwriteByte(ICM20948_ADDRESS, CHANGE_BANK, 0);
  44:Core/drogui/src/ICM20948.c ****     I2CwriteByte(ICM20948_ADDRESS, PWR_MGT, 9);
  45:Core/drogui/src/ICM20948.c ****     I2CwriteByte(ICM20948_ADDRESS, CHANGE_BANK, 2<<4);
  46:Core/drogui/src/ICM20948.c ****     I2CwriteByte(ICM20948_ADDRESS, ICM_GYRO_SMPLRT_DIV, 0);
  47:Core/drogui/src/ICM20948.c ****     I2CwriteByte(ICM20948_ADDRESS, ICM_GYRO_CONFIG1, ICM_GYRO_FULL_SCALE_2000_DPS);
  48:Core/drogui/src/ICM20948.c ****     I2CwriteByte(ICM20948_ADDRESS, ICM_ACCEL_CONFIG1,ICM_ACC_FULL_SCALE_2_G);
  49:Core/drogui/src/ICM20948.c ****     I2CwriteByte(ICM20948_ADDRESS, ICM_ACCEL_SMPLRT_DIV_MSB, 0);
  50:Core/drogui/src/ICM20948.c ****     I2CwriteByte(ICM20948_ADDRESS, ICM_ACCEL_SMPLRT_DIV_LSB, 0);
  51:Core/drogui/src/ICM20948.c ****     I2CwriteByte(ICM20948_ADDRESS, CHANGE_BANK, 0);
  52:Core/drogui/src/ICM20948.c ****     HAL_Delay(1000);
  53:Core/drogui/src/ICM20948.c **** 
  54:Core/drogui/src/ICM20948.c ****     // Init magnetometer
  55:Core/drogui/src/ICM20948.c ****     I2CwriteByte(ICM20948_ADDRESS, INT_PIN_CFG, 2);
  56:Core/drogui/src/ICM20948.c ****     I2CwriteByte(ICM20948_ADDRESS, USER_CTRL, 0);
  57:Core/drogui/src/ICM20948.c ****     
  58:Core/drogui/src/ICM20948.c ****     m->scl_acc = 1;
  59:Core/drogui/src/ICM20948.c **** 
  60:Core/drogui/src/ICM20948.c ****     initFiltGyro(&(m->fGyroX)), initFiltGyro(&(m->fGyroY)), initFiltGyro(&(m->fGyroZ));
  61:Core/drogui/src/ICM20948.c ****     initFiltAcc(&(m->fAccX)), initFiltAcc(&(m->fAccY)), initFiltAcc(&(m->fAccZ));
  62:Core/drogui/src/ICM20948.c **** }
ARM GAS  C:\Users\GUILLE~1\AppData\Local\Temp\ccpUd5Pj.s 			page 10


  63:Core/drogui/src/ICM20948.c **** 
  64:Core/drogui/src/ICM20948.c **** void initFiltGyro(filtGyro *fg){
 402              		.loc 1 64 32 is_stmt 1 view -0
 403              		.cfi_startproc
 404              		@ args = 0, pretend = 0, frame = 0
 405              		@ frame_needed = 0, uses_anonymous_args = 0
 406              		.loc 1 64 32 is_stmt 0 view .LVU116
 407 0000 10B5     		push	{r4, lr}
 408              	.LCFI4:
 409              		.cfi_def_cfa_offset 8
 410              		.cfi_offset 4, -8
 411              		.cfi_offset 14, -4
 412 0002 2DED028B 		vpush.64	{d8}
 413              	.LCFI5:
 414              		.cfi_def_cfa_offset 16
 415              		.cfi_offset 80, -16
 416              		.cfi_offset 81, -12
 417 0006 0446     		mov	r4, r0
  65:Core/drogui/src/ICM20948.c **** 
  66:Core/drogui/src/ICM20948.c ****     initFilter(&(fg->first), 6 , k_1_10, v_1_10);
 418              		.loc 1 66 5 is_stmt 1 view .LVU117
 419 0008 154B     		ldr	r3, .L33
 420 000a 164A     		ldr	r2, .L33+4
 421 000c 0621     		movs	r1, #6
 422 000e FFF7FEFF 		bl	initFilter
 423              	.LVL46:
  67:Core/drogui/src/ICM20948.c ****     initFilter(&(fg->second), 5 , k_3_10, v_3_10);
 424              		.loc 1 67 5 view .LVU118
 425 0012 154B     		ldr	r3, .L33+8
 426 0014 154A     		ldr	r2, .L33+12
 427 0016 0521     		movs	r1, #5
 428 0018 04F11800 		add	r0, r4, #24
 429 001c FFF7FEFF 		bl	initFilter
 430              	.LVL47:
  68:Core/drogui/src/ICM20948.c ****     initDNotchFilter(&(fg->third), 64, 30, 1000, 3, 5);
 431              		.loc 1 68 5 view .LVU119
 432 0020 9FED138A 		vldr.32	s16, .L33+16
 433 0024 F1EE041A 		vmov.f32	s3, #5.0e+0
 434 0028 B0EE081A 		vmov.f32	s2, #3.0e+0
 435 002c F0EE480A 		vmov.f32	s1, s16
 436 0030 B3EE0E0A 		vmov.f32	s0, #3.0e+1
 437 0034 4021     		movs	r1, #64
 438 0036 04F14800 		add	r0, r4, #72
 439 003a FFF7FEFF 		bl	initDNotchFilter
 440              	.LVL48:
  69:Core/drogui/src/ICM20948.c ****     initDNotchFilter(&(fg->fourth), 64, 30, 1000, 5, 5);
 441              		.loc 1 69 5 view .LVU120
 442 003e F1EE041A 		vmov.f32	s3, #5.0e+0
 443 0042 B0EE611A 		vmov.f32	s2, s3
 444 0046 F0EE480A 		vmov.f32	s1, s16
 445 004a B3EE0E0A 		vmov.f32	s0, #3.0e+1
 446 004e 4021     		movs	r1, #64
 447 0050 04F1B000 		add	r0, r4, #176
 448 0054 FFF7FEFF 		bl	initDNotchFilter
 449              	.LVL49:
  70:Core/drogui/src/ICM20948.c **** }
 450              		.loc 1 70 1 is_stmt 0 view .LVU121
ARM GAS  C:\Users\GUILLE~1\AppData\Local\Temp\ccpUd5Pj.s 			page 11


 451 0058 BDEC028B 		vldm	sp!, {d8}
 452              	.LCFI6:
 453              		.cfi_restore 80
 454              		.cfi_restore 81
 455              		.cfi_def_cfa_offset 8
 456 005c 10BD     		pop	{r4, pc}
 457              	.LVL50:
 458              	.L34:
 459              		.loc 1 70 1 view .LVU122
 460 005e 00BF     		.align	2
 461              	.L33:
 462 0060 00000000 		.word	v_1_10
 463 0064 00000000 		.word	k_1_10
 464 0068 00000000 		.word	v_3_10
 465 006c 00000000 		.word	k_3_10
 466 0070 00007A44 		.word	1148846080
 467              		.cfi_endproc
 468              	.LFE176:
 470              		.section	.text.initFiltAcc,"ax",%progbits
 471              		.align	1
 472              		.global	initFiltAcc
 473              		.syntax unified
 474              		.thumb
 475              		.thumb_func
 476              		.fpu fpv5-sp-d16
 478              	initFiltAcc:
 479              	.LVL51:
 480              	.LFB177:
  71:Core/drogui/src/ICM20948.c **** 
  72:Core/drogui/src/ICM20948.c **** void initFiltAcc(filtAcc *fa){
 481              		.loc 1 72 30 is_stmt 1 view -0
 482              		.cfi_startproc
 483              		@ args = 0, pretend = 0, frame = 0
 484              		@ frame_needed = 0, uses_anonymous_args = 0
 485              		.loc 1 72 30 is_stmt 0 view .LVU124
 486 0000 10B5     		push	{r4, lr}
 487              	.LCFI7:
 488              		.cfi_def_cfa_offset 8
 489              		.cfi_offset 4, -8
 490              		.cfi_offset 14, -4
 491 0002 0446     		mov	r4, r0
  73:Core/drogui/src/ICM20948.c ****     
  74:Core/drogui/src/ICM20948.c ****     initFilter(&(fa->first), 4 , k_1_20, v_1_20);
 492              		.loc 1 74 5 is_stmt 1 view .LVU125
 493 0004 094B     		ldr	r3, .L37
 494 0006 0A4A     		ldr	r2, .L37+4
 495 0008 0421     		movs	r1, #4
 496 000a FFF7FEFF 		bl	initFilter
 497              	.LVL52:
  75:Core/drogui/src/ICM20948.c ****     initDNotchFilter(&(fa->second), 64, 40, 1000, 1, 1);
 498              		.loc 1 75 5 view .LVU126
 499 000e F7EE001A 		vmov.f32	s3, #1.0e+0
 500 0012 B0EE611A 		vmov.f32	s2, s3
 501 0016 DFED070A 		vldr.32	s1, .L37+8
 502 001a 9FED070A 		vldr.32	s0, .L37+12
 503 001e 4021     		movs	r1, #64
 504 0020 04F11800 		add	r0, r4, #24
ARM GAS  C:\Users\GUILLE~1\AppData\Local\Temp\ccpUd5Pj.s 			page 12


 505 0024 FFF7FEFF 		bl	initDNotchFilter
 506              	.LVL53:
  76:Core/drogui/src/ICM20948.c **** }
 507              		.loc 1 76 1 is_stmt 0 view .LVU127
 508 0028 10BD     		pop	{r4, pc}
 509              	.LVL54:
 510              	.L38:
 511              		.loc 1 76 1 view .LVU128
 512 002a 00BF     		.align	2
 513              	.L37:
 514 002c 00000000 		.word	v_1_20
 515 0030 00000000 		.word	k_1_20
 516 0034 00007A44 		.word	1148846080
 517 0038 00002042 		.word	1109393408
 518              		.cfi_endproc
 519              	.LFE177:
 521              		.section	.text.initImu,"ax",%progbits
 522              		.align	1
 523              		.global	initImu
 524              		.syntax unified
 525              		.thumb
 526              		.thumb_func
 527              		.fpu fpv5-sp-d16
 529              	initImu:
 530              	.LVL55:
 531              	.LFB175:
  42:Core/drogui/src/ICM20948.c ****     I2CwriteByte(ICM20948_ADDRESS, CHANGE_BANK, 0);
 532              		.loc 1 42 26 is_stmt 1 view -0
 533              		.cfi_startproc
 534              		@ args = 0, pretend = 0, frame = 0
 535              		@ frame_needed = 0, uses_anonymous_args = 0
  42:Core/drogui/src/ICM20948.c ****     I2CwriteByte(ICM20948_ADDRESS, CHANGE_BANK, 0);
 536              		.loc 1 42 26 is_stmt 0 view .LVU130
 537 0000 10B5     		push	{r4, lr}
 538              	.LCFI8:
 539              		.cfi_def_cfa_offset 8
 540              		.cfi_offset 4, -8
 541              		.cfi_offset 14, -4
 542 0002 0446     		mov	r4, r0
  43:Core/drogui/src/ICM20948.c ****     I2CwriteByte(ICM20948_ADDRESS, PWR_MGT, 9);
 543              		.loc 1 43 5 is_stmt 1 view .LVU131
 544 0004 0022     		movs	r2, #0
 545 0006 7F21     		movs	r1, #127
 546 0008 6920     		movs	r0, #105
 547              	.LVL56:
  43:Core/drogui/src/ICM20948.c ****     I2CwriteByte(ICM20948_ADDRESS, PWR_MGT, 9);
 548              		.loc 1 43 5 is_stmt 0 view .LVU132
 549 000a FFF7FEFF 		bl	I2CwriteByte
 550              	.LVL57:
  44:Core/drogui/src/ICM20948.c ****     I2CwriteByte(ICM20948_ADDRESS, CHANGE_BANK, 2<<4);
 551              		.loc 1 44 5 is_stmt 1 view .LVU133
 552 000e 0922     		movs	r2, #9
 553 0010 0621     		movs	r1, #6
 554 0012 6920     		movs	r0, #105
 555 0014 FFF7FEFF 		bl	I2CwriteByte
 556              	.LVL58:
  45:Core/drogui/src/ICM20948.c ****     I2CwriteByte(ICM20948_ADDRESS, ICM_GYRO_SMPLRT_DIV, 0);
ARM GAS  C:\Users\GUILLE~1\AppData\Local\Temp\ccpUd5Pj.s 			page 13


 557              		.loc 1 45 5 view .LVU134
 558 0018 2022     		movs	r2, #32
 559 001a 7F21     		movs	r1, #127
 560 001c 6920     		movs	r0, #105
 561 001e FFF7FEFF 		bl	I2CwriteByte
 562              	.LVL59:
  46:Core/drogui/src/ICM20948.c ****     I2CwriteByte(ICM20948_ADDRESS, ICM_GYRO_CONFIG1, ICM_GYRO_FULL_SCALE_2000_DPS);
 563              		.loc 1 46 5 view .LVU135
 564 0022 0022     		movs	r2, #0
 565 0024 1146     		mov	r1, r2
 566 0026 6920     		movs	r0, #105
 567 0028 FFF7FEFF 		bl	I2CwriteByte
 568              	.LVL60:
  47:Core/drogui/src/ICM20948.c ****     I2CwriteByte(ICM20948_ADDRESS, ICM_ACCEL_CONFIG1,ICM_ACC_FULL_SCALE_2_G);
 569              		.loc 1 47 5 view .LVU136
 570 002c 0622     		movs	r2, #6
 571 002e 0121     		movs	r1, #1
 572 0030 6920     		movs	r0, #105
 573 0032 FFF7FEFF 		bl	I2CwriteByte
 574              	.LVL61:
  48:Core/drogui/src/ICM20948.c ****     I2CwriteByte(ICM20948_ADDRESS, ICM_ACCEL_SMPLRT_DIV_MSB, 0);
 575              		.loc 1 48 5 view .LVU137
 576 0036 0022     		movs	r2, #0
 577 0038 1421     		movs	r1, #20
 578 003a 6920     		movs	r0, #105
 579 003c FFF7FEFF 		bl	I2CwriteByte
 580              	.LVL62:
  49:Core/drogui/src/ICM20948.c ****     I2CwriteByte(ICM20948_ADDRESS, ICM_ACCEL_SMPLRT_DIV_LSB, 0);
 581              		.loc 1 49 5 view .LVU138
 582 0040 0022     		movs	r2, #0
 583 0042 1021     		movs	r1, #16
 584 0044 6920     		movs	r0, #105
 585 0046 FFF7FEFF 		bl	I2CwriteByte
 586              	.LVL63:
  50:Core/drogui/src/ICM20948.c ****     I2CwriteByte(ICM20948_ADDRESS, CHANGE_BANK, 0);
 587              		.loc 1 50 5 view .LVU139
 588 004a 0022     		movs	r2, #0
 589 004c 1121     		movs	r1, #17
 590 004e 6920     		movs	r0, #105
 591 0050 FFF7FEFF 		bl	I2CwriteByte
 592              	.LVL64:
  51:Core/drogui/src/ICM20948.c ****     HAL_Delay(1000);
 593              		.loc 1 51 5 view .LVU140
 594 0054 0022     		movs	r2, #0
 595 0056 7F21     		movs	r1, #127
 596 0058 6920     		movs	r0, #105
 597 005a FFF7FEFF 		bl	I2CwriteByte
 598              	.LVL65:
  52:Core/drogui/src/ICM20948.c **** 
 599              		.loc 1 52 5 view .LVU141
 600 005e 4FF47A70 		mov	r0, #1000
 601 0062 FFF7FEFF 		bl	HAL_Delay
 602              	.LVL66:
  55:Core/drogui/src/ICM20948.c ****     I2CwriteByte(ICM20948_ADDRESS, USER_CTRL, 0);
 603              		.loc 1 55 5 view .LVU142
 604 0066 0222     		movs	r2, #2
 605 0068 0F21     		movs	r1, #15
ARM GAS  C:\Users\GUILLE~1\AppData\Local\Temp\ccpUd5Pj.s 			page 14


 606 006a 6920     		movs	r0, #105
 607 006c FFF7FEFF 		bl	I2CwriteByte
 608              	.LVL67:
  56:Core/drogui/src/ICM20948.c ****     
 609              		.loc 1 56 5 view .LVU143
 610 0070 0022     		movs	r2, #0
 611 0072 0321     		movs	r1, #3
 612 0074 6920     		movs	r0, #105
 613 0076 FFF7FEFF 		bl	I2CwriteByte
 614              	.LVL68:
  58:Core/drogui/src/ICM20948.c **** 
 615              		.loc 1 58 5 view .LVU144
  58:Core/drogui/src/ICM20948.c **** 
 616              		.loc 1 58 16 is_stmt 0 view .LVU145
 617 007a 4FF07E53 		mov	r3, #1065353216
 618 007e E366     		str	r3, [r4, #108]	@ float
  60:Core/drogui/src/ICM20948.c ****     initFiltAcc(&(m->fAccX)), initFiltAcc(&(m->fAccY)), initFiltAcc(&(m->fAccZ));
 619              		.loc 1 60 5 is_stmt 1 view .LVU146
 620 0080 04F1A400 		add	r0, r4, #164
 621 0084 FFF7FEFF 		bl	initFiltGyro
 622              	.LVL69:
  60:Core/drogui/src/ICM20948.c ****     initFiltAcc(&(m->fAccX)), initFiltAcc(&(m->fAccY)), initFiltAcc(&(m->fAccZ));
 623              		.loc 1 60 33 is_stmt 0 view .LVU147
 624 0088 04F5DE70 		add	r0, r4, #444
 625 008c FFF7FEFF 		bl	initFiltGyro
 626              	.LVL70:
  60:Core/drogui/src/ICM20948.c ****     initFiltAcc(&(m->fAccX)), initFiltAcc(&(m->fAccY)), initFiltAcc(&(m->fAccZ));
 627              		.loc 1 60 61 view .LVU148
 628 0090 04F53570 		add	r0, r4, #724
 629 0094 FFF7FEFF 		bl	initFiltGyro
 630              	.LVL71:
  61:Core/drogui/src/ICM20948.c **** }
 631              		.loc 1 61 5 is_stmt 1 view .LVU149
 632 0098 04F57B70 		add	r0, r4, #1004
 633 009c FFF7FEFF 		bl	initFiltAcc
 634              	.LVL72:
  61:Core/drogui/src/ICM20948.c **** }
 635              		.loc 1 61 31 is_stmt 0 view .LVU150
 636 00a0 04F26C40 		addw	r0, r4, #1132
 637 00a4 FFF7FEFF 		bl	initFiltAcc
 638              	.LVL73:
  61:Core/drogui/src/ICM20948.c **** }
 639              		.loc 1 61 57 view .LVU151
 640 00a8 04F2EC40 		addw	r0, r4, #1260
 641 00ac FFF7FEFF 		bl	initFiltAcc
 642              	.LVL74:
  62:Core/drogui/src/ICM20948.c **** 
 643              		.loc 1 62 1 view .LVU152
 644 00b0 10BD     		pop	{r4, pc}
  62:Core/drogui/src/ICM20948.c **** 
 645              		.loc 1 62 1 view .LVU153
 646              		.cfi_endproc
 647              	.LFE175:
 649              		.global	__aeabi_f2d
 650              		.global	__aeabi_ddiv
 651              		.global	__aeabi_d2f
 652              		.section	.text.computeFiltGyro,"ax",%progbits
ARM GAS  C:\Users\GUILLE~1\AppData\Local\Temp\ccpUd5Pj.s 			page 15


 653              		.align	1
 654              		.global	computeFiltGyro
 655              		.syntax unified
 656              		.thumb
 657              		.thumb_func
 658              		.fpu fpv5-sp-d16
 660              	computeFiltGyro:
 661              	.LVL75:
 662              	.LFB178:
  77:Core/drogui/src/ICM20948.c **** 
  78:Core/drogui/src/ICM20948.c **** 
  79:Core/drogui/src/ICM20948.c **** float computeFiltGyro(filtGyro *fg, float val){
 663              		.loc 1 79 47 is_stmt 1 view -0
 664              		.cfi_startproc
 665              		@ args = 0, pretend = 0, frame = 0
 666              		@ frame_needed = 0, uses_anonymous_args = 0
 667              		.loc 1 79 47 is_stmt 0 view .LVU155
 668 0000 10B5     		push	{r4, lr}
 669              	.LCFI9:
 670              		.cfi_def_cfa_offset 8
 671              		.cfi_offset 4, -8
 672              		.cfi_offset 14, -4
 673 0002 0446     		mov	r4, r0
  80:Core/drogui/src/ICM20948.c ****     val = computeFilter(&(fg->first), val);
 674              		.loc 1 80 5 is_stmt 1 view .LVU156
 675              		.loc 1 80 11 is_stmt 0 view .LVU157
 676 0004 FFF7FEFF 		bl	computeFilter
 677              	.LVL76:
  81:Core/drogui/src/ICM20948.c ****     val = computeFilter(&(fg->second), val);
 678              		.loc 1 81 5 is_stmt 1 view .LVU158
 679              		.loc 1 81 11 is_stmt 0 view .LVU159
 680 0008 04F11800 		add	r0, r4, #24
 681 000c FFF7FEFF 		bl	computeFilter
 682              	.LVL77:
  82:Core/drogui/src/ICM20948.c ****     val = computeDNotch(&(fg->third), val);
 683              		.loc 1 82 5 is_stmt 1 view .LVU160
 684              		.loc 1 82 11 is_stmt 0 view .LVU161
 685 0010 04F14800 		add	r0, r4, #72
 686 0014 FFF7FEFF 		bl	computeDNotch
 687              	.LVL78:
  83:Core/drogui/src/ICM20948.c ****     val = computeDNotch(&(fg->fourth), val);
 688              		.loc 1 83 5 is_stmt 1 view .LVU162
 689              		.loc 1 83 11 is_stmt 0 view .LVU163
 690 0018 04F1B000 		add	r0, r4, #176
 691 001c FFF7FEFF 		bl	computeDNotch
 692              	.LVL79:
 693              		.loc 1 83 11 view .LVU164
 694 0020 10EE100A 		vmov	r0, s0
 695              	.LVL80:
  84:Core/drogui/src/ICM20948.c ****     //val = computeFilter(&(fg->fifth), val);
  85:Core/drogui/src/ICM20948.c ****     return val / 16.4;
 696              		.loc 1 85 5 is_stmt 1 view .LVU165
 697              		.loc 1 85 16 is_stmt 0 view .LVU166
 698 0024 FFF7FEFF 		bl	__aeabi_f2d
 699              	.LVL81:
 700              		.loc 1 85 16 view .LVU167
 701 0028 05A3     		adr	r3, .L43
ARM GAS  C:\Users\GUILLE~1\AppData\Local\Temp\ccpUd5Pj.s 			page 16


 702 002a D3E90023 		ldrd	r2, [r3]
 703 002e FFF7FEFF 		bl	__aeabi_ddiv
 704              	.LVL82:
 705 0032 FFF7FEFF 		bl	__aeabi_d2f
 706              	.LVL83:
  86:Core/drogui/src/ICM20948.c **** }
 707              		.loc 1 86 1 view .LVU168
 708 0036 00EE100A 		vmov	s0, r0
 709 003a 10BD     		pop	{r4, pc}
 710              	.LVL84:
 711              	.L44:
 712              		.loc 1 86 1 view .LVU169
 713 003c AFF30080 		.align	3
 714              	.L43:
 715 0040 66666666 		.word	1717986918
 716 0044 66663040 		.word	1076913766
 717              		.cfi_endproc
 718              	.LFE178:
 720              		.section	.text.computeFiltAcc,"ax",%progbits
 721              		.align	1
 722              		.global	computeFiltAcc
 723              		.syntax unified
 724              		.thumb
 725              		.thumb_func
 726              		.fpu fpv5-sp-d16
 728              	computeFiltAcc:
 729              	.LVL85:
 730              	.LFB179:
  87:Core/drogui/src/ICM20948.c **** 
  88:Core/drogui/src/ICM20948.c **** float computeFiltAcc(filtAcc *fa, float val){
 731              		.loc 1 88 45 is_stmt 1 view -0
 732              		.cfi_startproc
 733              		@ args = 0, pretend = 0, frame = 0
 734              		@ frame_needed = 0, uses_anonymous_args = 0
 735              		.loc 1 88 45 is_stmt 0 view .LVU171
 736 0000 10B5     		push	{r4, lr}
 737              	.LCFI10:
 738              		.cfi_def_cfa_offset 8
 739              		.cfi_offset 4, -8
 740              		.cfi_offset 14, -4
 741 0002 0446     		mov	r4, r0
  89:Core/drogui/src/ICM20948.c ****     val = computeFilter(&(fa->first), val);
 742              		.loc 1 89 5 is_stmt 1 view .LVU172
 743              		.loc 1 89 11 is_stmt 0 view .LVU173
 744 0004 FFF7FEFF 		bl	computeFilter
 745              	.LVL86:
  90:Core/drogui/src/ICM20948.c **** 
  91:Core/drogui/src/ICM20948.c ****     val = computeDNotch(&(fa->second), val);
 746              		.loc 1 91 5 is_stmt 1 view .LVU174
 747              		.loc 1 91 11 is_stmt 0 view .LVU175
 748 0008 04F11800 		add	r0, r4, #24
 749 000c FFF7FEFF 		bl	computeDNotch
 750              	.LVL87:
  92:Core/drogui/src/ICM20948.c ****     return val;
 751              		.loc 1 92 5 is_stmt 1 view .LVU176
  93:Core/drogui/src/ICM20948.c **** }
 752              		.loc 1 93 1 is_stmt 0 view .LVU177
ARM GAS  C:\Users\GUILLE~1\AppData\Local\Temp\ccpUd5Pj.s 			page 17


 753 0010 10BD     		pop	{r4, pc}
 754              		.loc 1 93 1 view .LVU178
 755              		.cfi_endproc
 756              	.LFE179:
 758              		.section	.text.cleanFiltGyro,"ax",%progbits
 759              		.align	1
 760              		.global	cleanFiltGyro
 761              		.syntax unified
 762              		.thumb
 763              		.thumb_func
 764              		.fpu fpv5-sp-d16
 766              	cleanFiltGyro:
 767              	.LVL88:
 768              	.LFB180:
  94:Core/drogui/src/ICM20948.c **** 
  95:Core/drogui/src/ICM20948.c **** 
  96:Core/drogui/src/ICM20948.c **** 
  97:Core/drogui/src/ICM20948.c **** void cleanFiltGyro(filtGyro *fg){
 769              		.loc 1 97 33 is_stmt 1 view -0
 770              		.cfi_startproc
 771              		@ args = 0, pretend = 0, frame = 0
 772              		@ frame_needed = 0, uses_anonymous_args = 0
 773              		.loc 1 97 33 is_stmt 0 view .LVU180
 774 0000 10B5     		push	{r4, lr}
 775              	.LCFI11:
 776              		.cfi_def_cfa_offset 8
 777              		.cfi_offset 4, -8
 778              		.cfi_offset 14, -4
 779 0002 0446     		mov	r4, r0
  98:Core/drogui/src/ICM20948.c ****     cleanFilter(&(fg->first));
 780              		.loc 1 98 5 is_stmt 1 view .LVU181
 781 0004 FFF7FEFF 		bl	cleanFilter
 782              	.LVL89:
  99:Core/drogui/src/ICM20948.c ****     cleanFilter(&(fg->second));
 783              		.loc 1 99 5 view .LVU182
 784 0008 04F11800 		add	r0, r4, #24
 785 000c FFF7FEFF 		bl	cleanFilter
 786              	.LVL90:
 100:Core/drogui/src/ICM20948.c ****     cleanDNotch(&(fg->third));
 787              		.loc 1 100 5 view .LVU183
 788 0010 04F14800 		add	r0, r4, #72
 789 0014 FFF7FEFF 		bl	cleanDNotch
 790              	.LVL91:
 101:Core/drogui/src/ICM20948.c ****     cleanDNotch(&(fg->fourth));
 791              		.loc 1 101 5 view .LVU184
 792 0018 04F1B000 		add	r0, r4, #176
 793 001c FFF7FEFF 		bl	cleanDNotch
 794              	.LVL92:
 102:Core/drogui/src/ICM20948.c ****     cleanFilter(&(fg->fifth));
 795              		.loc 1 102 5 view .LVU185
 796 0020 04F13000 		add	r0, r4, #48
 797 0024 FFF7FEFF 		bl	cleanFilter
 798              	.LVL93:
 103:Core/drogui/src/ICM20948.c **** }
 799              		.loc 1 103 1 is_stmt 0 view .LVU186
 800 0028 10BD     		pop	{r4, pc}
 801              		.loc 1 103 1 view .LVU187
ARM GAS  C:\Users\GUILLE~1\AppData\Local\Temp\ccpUd5Pj.s 			page 18


 802              		.cfi_endproc
 803              	.LFE180:
 805              		.section	.text.cleanFiltAcc,"ax",%progbits
 806              		.align	1
 807              		.global	cleanFiltAcc
 808              		.syntax unified
 809              		.thumb
 810              		.thumb_func
 811              		.fpu fpv5-sp-d16
 813              	cleanFiltAcc:
 814              	.LVL94:
 815              	.LFB181:
 104:Core/drogui/src/ICM20948.c **** 
 105:Core/drogui/src/ICM20948.c **** void cleanFiltAcc(filtAcc *fa){
 816              		.loc 1 105 31 is_stmt 1 view -0
 817              		.cfi_startproc
 818              		@ args = 0, pretend = 0, frame = 0
 819              		@ frame_needed = 0, uses_anonymous_args = 0
 820              		.loc 1 105 31 is_stmt 0 view .LVU189
 821 0000 10B5     		push	{r4, lr}
 822              	.LCFI12:
 823              		.cfi_def_cfa_offset 8
 824              		.cfi_offset 4, -8
 825              		.cfi_offset 14, -4
 826 0002 0446     		mov	r4, r0
 106:Core/drogui/src/ICM20948.c ****     cleanFilter(&(fa->first));
 827              		.loc 1 106 5 is_stmt 1 view .LVU190
 828 0004 FFF7FEFF 		bl	cleanFilter
 829              	.LVL95:
 107:Core/drogui/src/ICM20948.c ****     cleanDNotch(&(fa->second));
 830              		.loc 1 107 5 view .LVU191
 831 0008 04F11800 		add	r0, r4, #24
 832 000c FFF7FEFF 		bl	cleanDNotch
 833              	.LVL96:
 108:Core/drogui/src/ICM20948.c **** }
 834              		.loc 1 108 1 is_stmt 0 view .LVU192
 835 0010 10BD     		pop	{r4, pc}
 836              		.loc 1 108 1 view .LVU193
 837              		.cfi_endproc
 838              	.LFE181:
 840              		.section	.text.readRawAcc,"ax",%progbits
 841              		.align	1
 842              		.global	readRawAcc
 843              		.syntax unified
 844              		.thumb
 845              		.thumb_func
 846              		.fpu fpv5-sp-d16
 848              	readRawAcc:
 849              	.LVL97:
 850              	.LFB182:
 109:Core/drogui/src/ICM20948.c **** 
 110:Core/drogui/src/ICM20948.c **** 
 111:Core/drogui/src/ICM20948.c **** void readRawAcc(icm20948* m){ // m/s^2
 851              		.loc 1 111 29 is_stmt 1 view -0
 852              		.cfi_startproc
 853              		@ args = 0, pretend = 0, frame = 8
 854              		@ frame_needed = 0, uses_anonymous_args = 0
ARM GAS  C:\Users\GUILLE~1\AppData\Local\Temp\ccpUd5Pj.s 			page 19


 855              		.loc 1 111 29 is_stmt 0 view .LVU195
 856 0000 10B5     		push	{r4, lr}
 857              	.LCFI13:
 858              		.cfi_def_cfa_offset 8
 859              		.cfi_offset 4, -8
 860              		.cfi_offset 14, -4
 861 0002 82B0     		sub	sp, sp, #8
 862              	.LCFI14:
 863              		.cfi_def_cfa_offset 16
 864 0004 0446     		mov	r4, r0
 112:Core/drogui/src/ICM20948.c ****     uint8_t Buf[6];
 865              		.loc 1 112 5 is_stmt 1 view .LVU196
 113:Core/drogui/src/ICM20948.c ****     I2Cread(ICM20948_ADDRESS, ICM_ACCEL_XOUT_H, 6, Buf);
 866              		.loc 1 113 5 view .LVU197
 867 0006 6B46     		mov	r3, sp
 868 0008 0622     		movs	r2, #6
 869 000a 2D21     		movs	r1, #45
 870 000c 6920     		movs	r0, #105
 871              	.LVL98:
 872              		.loc 1 113 5 is_stmt 0 view .LVU198
 873 000e FFF7FEFF 		bl	I2Cread
 874              	.LVL99:
 114:Core/drogui/src/ICM20948.c ****     int16_t _ax =   (Buf[0]<<8) | Buf[1];
 875              		.loc 1 114 5 is_stmt 1 view .LVU199
 876              		.loc 1 114 25 is_stmt 0 view .LVU200
 877 0012 9DF80030 		ldrb	r3, [sp]	@ zero_extendqisi2
 878              		.loc 1 114 28 view .LVU201
 879 0016 1B02     		lsls	r3, r3, #8
 880              		.loc 1 114 33 view .LVU202
 881 0018 1BB2     		sxth	r3, r3
 882              		.loc 1 114 38 view .LVU203
 883 001a 9DF80120 		ldrb	r2, [sp, #1]	@ zero_extendqisi2
 884              		.loc 1 114 13 view .LVU204
 885 001e 1343     		orrs	r3, r3, r2
 886 0020 07EE103A 		vmov	s14, r3	@ int
 887              	.LVL100:
 115:Core/drogui/src/ICM20948.c ****     int16_t _ay =   (Buf[2]<<8) | Buf[3];
 888              		.loc 1 115 5 is_stmt 1 view .LVU205
 889              		.loc 1 115 25 is_stmt 0 view .LVU206
 890 0024 9DF80230 		ldrb	r3, [sp, #2]	@ zero_extendqisi2
 891              		.loc 1 115 28 view .LVU207
 892 0028 1B02     		lsls	r3, r3, #8
 893              		.loc 1 115 33 view .LVU208
 894 002a 1BB2     		sxth	r3, r3
 895              		.loc 1 115 38 view .LVU209
 896 002c 9DF80320 		ldrb	r2, [sp, #3]	@ zero_extendqisi2
 897              		.loc 1 115 13 view .LVU210
 898 0030 1343     		orrs	r3, r3, r2
 899 0032 07EE903A 		vmov	s15, r3	@ int
 900              	.LVL101:
 116:Core/drogui/src/ICM20948.c ****     int16_t _az =   (Buf[4]<<8) | Buf[5];
 901              		.loc 1 116 5 is_stmt 1 view .LVU211
 902              		.loc 1 116 25 is_stmt 0 view .LVU212
 903 0036 9DF80430 		ldrb	r3, [sp, #4]	@ zero_extendqisi2
 904              		.loc 1 116 28 view .LVU213
 905 003a 1B02     		lsls	r3, r3, #8
 906              		.loc 1 116 33 view .LVU214
ARM GAS  C:\Users\GUILLE~1\AppData\Local\Temp\ccpUd5Pj.s 			page 20


 907 003c 1BB2     		sxth	r3, r3
 908              		.loc 1 116 38 view .LVU215
 909 003e 9DF80520 		ldrb	r2, [sp, #5]	@ zero_extendqisi2
 910              		.loc 1 116 13 view .LVU216
 911 0042 1343     		orrs	r3, r3, r2
 912              	.LVL102:
 117:Core/drogui/src/ICM20948.c ****     
 118:Core/drogui/src/ICM20948.c ****     m -> raw_ax = _ax;
 913              		.loc 1 118 5 is_stmt 1 view .LVU217
 914              		.loc 1 118 17 is_stmt 0 view .LVU218
 915 0044 B8EEC77A 		vcvt.f32.s32	s14, s14
 916              	.LVL103:
 917              		.loc 1 118 17 view .LVU219
 918 0048 84ED097A 		vstr.32	s14, [r4, #36]
 119:Core/drogui/src/ICM20948.c ****     m -> raw_ay = _ay;
 919              		.loc 1 119 5 is_stmt 1 view .LVU220
 920              		.loc 1 119 17 is_stmt 0 view .LVU221
 921 004c F8EEE77A 		vcvt.f32.s32	s15, s15
 922              	.LVL104:
 923              		.loc 1 119 17 view .LVU222
 924 0050 C4ED0A7A 		vstr.32	s15, [r4, #40]
 120:Core/drogui/src/ICM20948.c ****     m -> raw_az = _az; 
 925              		.loc 1 120 5 is_stmt 1 view .LVU223
 926              		.loc 1 120 17 is_stmt 0 view .LVU224
 927 0054 07EE903A 		vmov	s15, r3	@ int
 928 0058 F8EEE77A 		vcvt.f32.s32	s15, s15
 929 005c C4ED0B7A 		vstr.32	s15, [r4, #44]
 121:Core/drogui/src/ICM20948.c **** }
 930              		.loc 1 121 1 view .LVU225
 931 0060 02B0     		add	sp, sp, #8
 932              	.LCFI15:
 933              		.cfi_def_cfa_offset 8
 934              	.LVL105:
 935              		.loc 1 121 1 view .LVU226
 936              		@ sp needed
 937 0062 10BD     		pop	{r4, pc}
 938              		.loc 1 121 1 view .LVU227
 939              		.cfi_endproc
 940              	.LFE182:
 942              		.section	.text.readRawGyro,"ax",%progbits
 943              		.align	1
 944              		.global	readRawGyro
 945              		.syntax unified
 946              		.thumb
 947              		.thumb_func
 948              		.fpu fpv5-sp-d16
 950              	readRawGyro:
 951              	.LVL106:
 952              	.LFB183:
 122:Core/drogui/src/ICM20948.c **** 
 123:Core/drogui/src/ICM20948.c **** void readRawGyro(icm20948* m){ // degrees/sec
 953              		.loc 1 123 30 is_stmt 1 view -0
 954              		.cfi_startproc
 955              		@ args = 0, pretend = 0, frame = 8
 956              		@ frame_needed = 0, uses_anonymous_args = 0
 957              		.loc 1 123 30 is_stmt 0 view .LVU229
 958 0000 10B5     		push	{r4, lr}
ARM GAS  C:\Users\GUILLE~1\AppData\Local\Temp\ccpUd5Pj.s 			page 21


 959              	.LCFI16:
 960              		.cfi_def_cfa_offset 8
 961              		.cfi_offset 4, -8
 962              		.cfi_offset 14, -4
 963 0002 82B0     		sub	sp, sp, #8
 964              	.LCFI17:
 965              		.cfi_def_cfa_offset 16
 966 0004 0446     		mov	r4, r0
 124:Core/drogui/src/ICM20948.c ****     
 125:Core/drogui/src/ICM20948.c ****     uint8_t Buf[6];
 967              		.loc 1 125 5 is_stmt 1 view .LVU230
 126:Core/drogui/src/ICM20948.c ****     I2Cread(ICM20948_ADDRESS, ICM_GYRO_XOUT_H, 6, Buf);
 968              		.loc 1 126 5 view .LVU231
 969 0006 6B46     		mov	r3, sp
 970 0008 0622     		movs	r2, #6
 971 000a 3321     		movs	r1, #51
 972 000c 6920     		movs	r0, #105
 973              	.LVL107:
 974              		.loc 1 126 5 is_stmt 0 view .LVU232
 975 000e FFF7FEFF 		bl	I2Cread
 976              	.LVL108:
 127:Core/drogui/src/ICM20948.c ****     int16_t _gx =   (Buf[0] << 8) | Buf[1];
 977              		.loc 1 127 5 is_stmt 1 view .LVU233
 978              		.loc 1 127 25 is_stmt 0 view .LVU234
 979 0012 9DF80030 		ldrb	r3, [sp]	@ zero_extendqisi2
 980              		.loc 1 127 29 view .LVU235
 981 0016 1B02     		lsls	r3, r3, #8
 982              		.loc 1 127 35 view .LVU236
 983 0018 1BB2     		sxth	r3, r3
 984              		.loc 1 127 40 view .LVU237
 985 001a 9DF80120 		ldrb	r2, [sp, #1]	@ zero_extendqisi2
 986              		.loc 1 127 13 view .LVU238
 987 001e 1343     		orrs	r3, r3, r2
 988 0020 07EE103A 		vmov	s14, r3	@ int
 989              	.LVL109:
 128:Core/drogui/src/ICM20948.c ****     int16_t _gy =   (Buf[2] << 8) | Buf[3];
 990              		.loc 1 128 5 is_stmt 1 view .LVU239
 991              		.loc 1 128 25 is_stmt 0 view .LVU240
 992 0024 9DF80230 		ldrb	r3, [sp, #2]	@ zero_extendqisi2
 993              		.loc 1 128 29 view .LVU241
 994 0028 1B02     		lsls	r3, r3, #8
 995              		.loc 1 128 35 view .LVU242
 996 002a 1BB2     		sxth	r3, r3
 997              		.loc 1 128 40 view .LVU243
 998 002c 9DF80320 		ldrb	r2, [sp, #3]	@ zero_extendqisi2
 999              		.loc 1 128 13 view .LVU244
 1000 0030 1343     		orrs	r3, r3, r2
 1001 0032 07EE903A 		vmov	s15, r3	@ int
 1002              	.LVL110:
 129:Core/drogui/src/ICM20948.c ****     int16_t _gz =   (Buf[4] << 8) | Buf[5];
 1003              		.loc 1 129 5 is_stmt 1 view .LVU245
 1004              		.loc 1 129 25 is_stmt 0 view .LVU246
 1005 0036 9DF80430 		ldrb	r3, [sp, #4]	@ zero_extendqisi2
 1006              		.loc 1 129 29 view .LVU247
 1007 003a 1B02     		lsls	r3, r3, #8
 1008              		.loc 1 129 35 view .LVU248
 1009 003c 1BB2     		sxth	r3, r3
ARM GAS  C:\Users\GUILLE~1\AppData\Local\Temp\ccpUd5Pj.s 			page 22


 1010              		.loc 1 129 40 view .LVU249
 1011 003e 9DF80520 		ldrb	r2, [sp, #5]	@ zero_extendqisi2
 1012              		.loc 1 129 13 view .LVU250
 1013 0042 1343     		orrs	r3, r3, r2
 1014              	.LVL111:
 130:Core/drogui/src/ICM20948.c ****     m -> raw_gx = _gx;
 1015              		.loc 1 130 5 is_stmt 1 view .LVU251
 1016              		.loc 1 130 17 is_stmt 0 view .LVU252
 1017 0044 B8EEC77A 		vcvt.f32.s32	s14, s14
 1018              	.LVL112:
 1019              		.loc 1 130 17 view .LVU253
 1020 0048 84ED0C7A 		vstr.32	s14, [r4, #48]
 131:Core/drogui/src/ICM20948.c ****     m -> raw_gy = _gy;
 1021              		.loc 1 131 5 is_stmt 1 view .LVU254
 1022              		.loc 1 131 17 is_stmt 0 view .LVU255
 1023 004c F8EEE77A 		vcvt.f32.s32	s15, s15
 1024              	.LVL113:
 1025              		.loc 1 131 17 view .LVU256
 1026 0050 C4ED0D7A 		vstr.32	s15, [r4, #52]
 132:Core/drogui/src/ICM20948.c ****     m -> raw_gz = _gz; 
 1027              		.loc 1 132 5 is_stmt 1 view .LVU257
 1028              		.loc 1 132 17 is_stmt 0 view .LVU258
 1029 0054 07EE903A 		vmov	s15, r3	@ int
 1030 0058 F8EEE77A 		vcvt.f32.s32	s15, s15
 1031 005c C4ED0E7A 		vstr.32	s15, [r4, #56]
 133:Core/drogui/src/ICM20948.c **** }
 1032              		.loc 1 133 1 view .LVU259
 1033 0060 02B0     		add	sp, sp, #8
 1034              	.LCFI18:
 1035              		.cfi_def_cfa_offset 8
 1036              	.LVL114:
 1037              		.loc 1 133 1 view .LVU260
 1038              		@ sp needed
 1039 0062 10BD     		pop	{r4, pc}
 1040              		.loc 1 133 1 view .LVU261
 1041              		.cfi_endproc
 1042              	.LFE183:
 1044              		.section	.text.readRawMag,"ax",%progbits
 1045              		.align	1
 1046              		.global	readRawMag
 1047              		.syntax unified
 1048              		.thumb
 1049              		.thumb_func
 1050              		.fpu fpv5-sp-d16
 1052              	readRawMag:
 1053              	.LVL115:
 1054              	.LFB184:
 134:Core/drogui/src/ICM20948.c **** 
 135:Core/drogui/src/ICM20948.c **** void readRawMag(icm20948* m){ // m/s^2
 1055              		.loc 1 135 29 is_stmt 1 view -0
 1056              		.cfi_startproc
 1057              		@ args = 0, pretend = 0, frame = 8
 1058              		@ frame_needed = 0, uses_anonymous_args = 0
 1059              		.loc 1 135 29 is_stmt 0 view .LVU263
 1060 0000 10B5     		push	{r4, lr}
 1061              	.LCFI19:
 1062              		.cfi_def_cfa_offset 8
ARM GAS  C:\Users\GUILLE~1\AppData\Local\Temp\ccpUd5Pj.s 			page 23


 1063              		.cfi_offset 4, -8
 1064              		.cfi_offset 14, -4
 1065 0002 82B0     		sub	sp, sp, #8
 1066              	.LCFI20:
 1067              		.cfi_def_cfa_offset 16
 1068 0004 0446     		mov	r4, r0
 136:Core/drogui/src/ICM20948.c **** 
 137:Core/drogui/src/ICM20948.c ****     uint8_t Buf[7];
 1069              		.loc 1 137 5 is_stmt 1 view .LVU264
 138:Core/drogui/src/ICM20948.c ****     I2Cread(ICM_MAG_ADDRESS, 0x11, 6, Buf);
 1070              		.loc 1 138 5 view .LVU265
 1071 0006 6B46     		mov	r3, sp
 1072 0008 0622     		movs	r2, #6
 1073 000a 1121     		movs	r1, #17
 1074 000c 0C20     		movs	r0, #12
 1075              	.LVL116:
 1076              		.loc 1 138 5 is_stmt 0 view .LVU266
 1077 000e FFF7FEFF 		bl	I2Cread
 1078              	.LVL117:
 139:Core/drogui/src/ICM20948.c ****     int16_t _mx = (Buf[1]<<8) | Buf[0];
 1079              		.loc 1 139 5 is_stmt 1 view .LVU267
 1080              		.loc 1 139 23 is_stmt 0 view .LVU268
 1081 0012 9DF80130 		ldrb	r3, [sp, #1]	@ zero_extendqisi2
 1082              		.loc 1 139 26 view .LVU269
 1083 0016 1B02     		lsls	r3, r3, #8
 1084              		.loc 1 139 31 view .LVU270
 1085 0018 1BB2     		sxth	r3, r3
 1086              		.loc 1 139 36 view .LVU271
 1087 001a 9DF80020 		ldrb	r2, [sp]	@ zero_extendqisi2
 1088              		.loc 1 139 13 view .LVU272
 1089 001e 1343     		orrs	r3, r3, r2
 1090 0020 07EE103A 		vmov	s14, r3	@ int
 1091              	.LVL118:
 140:Core/drogui/src/ICM20948.c ****     int16_t _my = (Buf[3]<<8) | Buf[2];
 1092              		.loc 1 140 5 is_stmt 1 view .LVU273
 1093              		.loc 1 140 23 is_stmt 0 view .LVU274
 1094 0024 9DF80330 		ldrb	r3, [sp, #3]	@ zero_extendqisi2
 1095              		.loc 1 140 26 view .LVU275
 1096 0028 1B02     		lsls	r3, r3, #8
 1097              		.loc 1 140 31 view .LVU276
 1098 002a 1BB2     		sxth	r3, r3
 1099              		.loc 1 140 36 view .LVU277
 1100 002c 9DF80220 		ldrb	r2, [sp, #2]	@ zero_extendqisi2
 1101              		.loc 1 140 13 view .LVU278
 1102 0030 1343     		orrs	r3, r3, r2
 1103 0032 07EE903A 		vmov	s15, r3	@ int
 1104              	.LVL119:
 141:Core/drogui/src/ICM20948.c ****     int16_t _mz = (Buf[5]<<8) | Buf[4];
 1105              		.loc 1 141 5 is_stmt 1 view .LVU279
 1106              		.loc 1 141 23 is_stmt 0 view .LVU280
 1107 0036 9DF80530 		ldrb	r3, [sp, #5]	@ zero_extendqisi2
 1108              		.loc 1 141 26 view .LVU281
 1109 003a 1B02     		lsls	r3, r3, #8
 1110              		.loc 1 141 31 view .LVU282
 1111 003c 1BB2     		sxth	r3, r3
 1112              		.loc 1 141 36 view .LVU283
 1113 003e 9DF80420 		ldrb	r2, [sp, #4]	@ zero_extendqisi2
ARM GAS  C:\Users\GUILLE~1\AppData\Local\Temp\ccpUd5Pj.s 			page 24


 1114              		.loc 1 141 13 view .LVU284
 1115 0042 1343     		orrs	r3, r3, r2
 1116              	.LVL120:
 142:Core/drogui/src/ICM20948.c ****     m -> raw_mx = _mx;
 1117              		.loc 1 142 5 is_stmt 1 view .LVU285
 1118              		.loc 1 142 17 is_stmt 0 view .LVU286
 1119 0044 B8EEC77A 		vcvt.f32.s32	s14, s14
 1120              	.LVL121:
 1121              		.loc 1 142 17 view .LVU287
 1122 0048 84ED0F7A 		vstr.32	s14, [r4, #60]
 143:Core/drogui/src/ICM20948.c ****     m -> raw_my = _my;
 1123              		.loc 1 143 5 is_stmt 1 view .LVU288
 1124              		.loc 1 143 17 is_stmt 0 view .LVU289
 1125 004c F8EEE77A 		vcvt.f32.s32	s15, s15
 1126              	.LVL122:
 1127              		.loc 1 143 17 view .LVU290
 1128 0050 C4ED107A 		vstr.32	s15, [r4, #64]
 144:Core/drogui/src/ICM20948.c ****     m -> raw_mz = _mz; 
 1129              		.loc 1 144 5 is_stmt 1 view .LVU291
 1130              		.loc 1 144 17 is_stmt 0 view .LVU292
 1131 0054 07EE903A 		vmov	s15, r3	@ int
 1132 0058 F8EEE77A 		vcvt.f32.s32	s15, s15
 1133 005c C4ED117A 		vstr.32	s15, [r4, #68]
 145:Core/drogui/src/ICM20948.c **** }
 1134              		.loc 1 145 1 view .LVU293
 1135 0060 02B0     		add	sp, sp, #8
 1136              	.LCFI21:
 1137              		.cfi_def_cfa_offset 8
 1138              	.LVL123:
 1139              		.loc 1 145 1 view .LVU294
 1140              		@ sp needed
 1141 0062 10BD     		pop	{r4, pc}
 1142              		.loc 1 145 1 view .LVU295
 1143              		.cfi_endproc
 1144              	.LFE184:
 1146              		.section	.text.readFiltAcc,"ax",%progbits
 1147              		.align	1
 1148              		.global	readFiltAcc
 1149              		.syntax unified
 1150              		.thumb
 1151              		.thumb_func
 1152              		.fpu fpv5-sp-d16
 1154              	readFiltAcc:
 1155              	.LVL124:
 1156              	.LFB185:
 146:Core/drogui/src/ICM20948.c **** 
 147:Core/drogui/src/ICM20948.c **** void readFiltAcc(icm20948* m){ // m/s^2
 1157              		.loc 1 147 30 is_stmt 1 view -0
 1158              		.cfi_startproc
 1159              		@ args = 0, pretend = 0, frame = 0
 1160              		@ frame_needed = 0, uses_anonymous_args = 0
 1161              		.loc 1 147 30 is_stmt 0 view .LVU297
 1162 0000 10B5     		push	{r4, lr}
 1163              	.LCFI22:
 1164              		.cfi_def_cfa_offset 8
 1165              		.cfi_offset 4, -8
 1166              		.cfi_offset 14, -4
ARM GAS  C:\Users\GUILLE~1\AppData\Local\Temp\ccpUd5Pj.s 			page 25


 1167 0002 0446     		mov	r4, r0
 148:Core/drogui/src/ICM20948.c ****     
 149:Core/drogui/src/ICM20948.c ****     readRawAcc(m);
 1168              		.loc 1 149 5 is_stmt 1 view .LVU298
 1169 0004 FFF7FEFF 		bl	readRawAcc
 1170              	.LVL125:
 150:Core/drogui/src/ICM20948.c ****     m -> filt_ax = computeFiltAcc(&(m->fAccX), m->raw_ax);
 1171              		.loc 1 150 5 view .LVU299
 1172              		.loc 1 150 20 is_stmt 0 view .LVU300
 1173 0008 94ED090A 		vldr.32	s0, [r4, #36]
 1174 000c 04F57B70 		add	r0, r4, #1004
 1175 0010 FFF7FEFF 		bl	computeFiltAcc
 1176              	.LVL126:
 1177              		.loc 1 150 18 view .LVU301
 1178 0014 84ED120A 		vstr.32	s0, [r4, #72]
 151:Core/drogui/src/ICM20948.c ****     m -> filt_ay = computeFiltAcc(&(m->fAccY), m->raw_ay);
 1179              		.loc 1 151 5 is_stmt 1 view .LVU302
 1180              		.loc 1 151 20 is_stmt 0 view .LVU303
 1181 0018 94ED0A0A 		vldr.32	s0, [r4, #40]
 1182 001c 04F26C40 		addw	r0, r4, #1132
 1183 0020 FFF7FEFF 		bl	computeFiltAcc
 1184              	.LVL127:
 1185              		.loc 1 151 18 view .LVU304
 1186 0024 84ED130A 		vstr.32	s0, [r4, #76]
 152:Core/drogui/src/ICM20948.c ****     m -> filt_az = computeFiltAcc(&(m->fAccZ), m->raw_az); 
 1187              		.loc 1 152 5 is_stmt 1 view .LVU305
 1188              		.loc 1 152 20 is_stmt 0 view .LVU306
 1189 0028 94ED0B0A 		vldr.32	s0, [r4, #44]
 1190 002c 04F2EC40 		addw	r0, r4, #1260
 1191 0030 FFF7FEFF 		bl	computeFiltAcc
 1192              	.LVL128:
 1193              		.loc 1 152 18 view .LVU307
 1194 0034 84ED140A 		vstr.32	s0, [r4, #80]
 153:Core/drogui/src/ICM20948.c **** }
 1195              		.loc 1 153 1 view .LVU308
 1196 0038 10BD     		pop	{r4, pc}
 1197              		.loc 1 153 1 view .LVU309
 1198              		.cfi_endproc
 1199              	.LFE185:
 1201              		.section	.text.readFiltGyro,"ax",%progbits
 1202              		.align	1
 1203              		.global	readFiltGyro
 1204              		.syntax unified
 1205              		.thumb
 1206              		.thumb_func
 1207              		.fpu fpv5-sp-d16
 1209              	readFiltGyro:
 1210              	.LVL129:
 1211              	.LFB186:
 154:Core/drogui/src/ICM20948.c **** 
 155:Core/drogui/src/ICM20948.c **** void readFiltGyro(icm20948* m){ // degrees/sec
 1212              		.loc 1 155 31 is_stmt 1 view -0
 1213              		.cfi_startproc
 1214              		@ args = 0, pretend = 0, frame = 0
 1215              		@ frame_needed = 0, uses_anonymous_args = 0
 1216              		.loc 1 155 31 is_stmt 0 view .LVU311
 1217 0000 10B5     		push	{r4, lr}
ARM GAS  C:\Users\GUILLE~1\AppData\Local\Temp\ccpUd5Pj.s 			page 26


 1218              	.LCFI23:
 1219              		.cfi_def_cfa_offset 8
 1220              		.cfi_offset 4, -8
 1221              		.cfi_offset 14, -4
 1222 0002 0446     		mov	r4, r0
 156:Core/drogui/src/ICM20948.c ****     
 157:Core/drogui/src/ICM20948.c ****     readRawGyro(m);
 1223              		.loc 1 157 5 is_stmt 1 view .LVU312
 1224 0004 FFF7FEFF 		bl	readRawGyro
 1225              	.LVL130:
 158:Core/drogui/src/ICM20948.c ****     m -> filt_gx = computeFiltGyro(&(m->fGyroX), m->raw_gx);
 1226              		.loc 1 158 5 view .LVU313
 1227              		.loc 1 158 20 is_stmt 0 view .LVU314
 1228 0008 94ED0C0A 		vldr.32	s0, [r4, #48]
 1229 000c 04F1A400 		add	r0, r4, #164
 1230 0010 FFF7FEFF 		bl	computeFiltGyro
 1231              	.LVL131:
 1232              		.loc 1 158 18 view .LVU315
 1233 0014 84ED150A 		vstr.32	s0, [r4, #84]
 159:Core/drogui/src/ICM20948.c ****     m -> filt_gy = computeFiltGyro(&(m->fGyroY), m->raw_gy);
 1234              		.loc 1 159 5 is_stmt 1 view .LVU316
 1235              		.loc 1 159 20 is_stmt 0 view .LVU317
 1236 0018 94ED0D0A 		vldr.32	s0, [r4, #52]
 1237 001c 04F5DE70 		add	r0, r4, #444
 1238 0020 FFF7FEFF 		bl	computeFiltGyro
 1239              	.LVL132:
 1240              		.loc 1 159 18 view .LVU318
 1241 0024 84ED160A 		vstr.32	s0, [r4, #88]
 160:Core/drogui/src/ICM20948.c ****     m -> filt_gz = computeFiltGyro(&(m->fGyroZ), m->raw_gz);
 1242              		.loc 1 160 5 is_stmt 1 view .LVU319
 1243              		.loc 1 160 20 is_stmt 0 view .LVU320
 1244 0028 94ED0E0A 		vldr.32	s0, [r4, #56]
 1245 002c 04F53570 		add	r0, r4, #724
 1246 0030 FFF7FEFF 		bl	computeFiltGyro
 1247              	.LVL133:
 1248              		.loc 1 160 18 view .LVU321
 1249 0034 84ED170A 		vstr.32	s0, [r4, #92]
 161:Core/drogui/src/ICM20948.c **** }
 1250              		.loc 1 161 1 view .LVU322
 1251 0038 10BD     		pop	{r4, pc}
 1252              		.loc 1 161 1 view .LVU323
 1253              		.cfi_endproc
 1254              	.LFE186:
 1256              		.section	.text.readAcc,"ax",%progbits
 1257              		.align	1
 1258              		.global	readAcc
 1259              		.syntax unified
 1260              		.thumb
 1261              		.thumb_func
 1262              		.fpu fpv5-sp-d16
 1264              	readAcc:
 1265              	.LVL134:
 1266              	.LFB187:
 162:Core/drogui/src/ICM20948.c **** 
 163:Core/drogui/src/ICM20948.c **** 
 164:Core/drogui/src/ICM20948.c **** void readAcc(icm20948* m){ // m/s^2
 1267              		.loc 1 164 26 is_stmt 1 view -0
ARM GAS  C:\Users\GUILLE~1\AppData\Local\Temp\ccpUd5Pj.s 			page 27


 1268              		.cfi_startproc
 1269              		@ args = 0, pretend = 0, frame = 0
 1270              		@ frame_needed = 0, uses_anonymous_args = 0
 1271              		.loc 1 164 26 is_stmt 0 view .LVU325
 1272 0000 10B5     		push	{r4, lr}
 1273              	.LCFI24:
 1274              		.cfi_def_cfa_offset 8
 1275              		.cfi_offset 4, -8
 1276              		.cfi_offset 14, -4
 1277 0002 0446     		mov	r4, r0
 165:Core/drogui/src/ICM20948.c ****     readFiltAcc(m);
 1278              		.loc 1 165 5 is_stmt 1 view .LVU326
 1279 0004 FFF7FEFF 		bl	readFiltAcc
 1280              	.LVL135:
 166:Core/drogui/src/ICM20948.c ****     m -> ax = (m->filt_ax + m->off_ax)/m->scl_acc;
 1281              		.loc 1 166 5 view .LVU327
 1282              		.loc 1 166 17 is_stmt 0 view .LVU328
 1283 0008 94ED127A 		vldr.32	s14, [r4, #72]
 1284              		.loc 1 166 30 view .LVU329
 1285 000c D4ED187A 		vldr.32	s15, [r4, #96]
 1286              		.loc 1 166 27 view .LVU330
 1287 0010 37EE277A 		vadd.f32	s14, s14, s15
 1288              		.loc 1 166 41 view .LVU331
 1289 0014 D4ED1B7A 		vldr.32	s15, [r4, #108]
 1290              		.loc 1 166 39 view .LVU332
 1291 0018 C7EE276A 		vdiv.f32	s13, s14, s15
 1292              		.loc 1 166 13 view .LVU333
 1293 001c C4ED006A 		vstr.32	s13, [r4]
 167:Core/drogui/src/ICM20948.c ****     m -> ay = (m->filt_ay + m->off_ay)/m->scl_acc;
 1294              		.loc 1 167 5 is_stmt 1 view .LVU334
 1295              		.loc 1 167 17 is_stmt 0 view .LVU335
 1296 0020 94ED137A 		vldr.32	s14, [r4, #76]
 1297              		.loc 1 167 30 view .LVU336
 1298 0024 D4ED196A 		vldr.32	s13, [r4, #100]
 1299              		.loc 1 167 27 view .LVU337
 1300 0028 37EE267A 		vadd.f32	s14, s14, s13
 1301              		.loc 1 167 39 view .LVU338
 1302 002c C7EE276A 		vdiv.f32	s13, s14, s15
 1303              		.loc 1 167 13 view .LVU339
 1304 0030 C4ED016A 		vstr.32	s13, [r4, #4]
 168:Core/drogui/src/ICM20948.c ****     m -> az = (m->filt_az + m->off_az)/m->scl_acc; 
 1305              		.loc 1 168 5 is_stmt 1 view .LVU340
 1306              		.loc 1 168 17 is_stmt 0 view .LVU341
 1307 0034 94ED147A 		vldr.32	s14, [r4, #80]
 1308              		.loc 1 168 30 view .LVU342
 1309 0038 D4ED1A6A 		vldr.32	s13, [r4, #104]
 1310              		.loc 1 168 27 view .LVU343
 1311 003c 37EE267A 		vadd.f32	s14, s14, s13
 1312              		.loc 1 168 39 view .LVU344
 1313 0040 C7EE276A 		vdiv.f32	s13, s14, s15
 1314              		.loc 1 168 13 view .LVU345
 1315 0044 C4ED026A 		vstr.32	s13, [r4, #8]
 169:Core/drogui/src/ICM20948.c **** }
 1316              		.loc 1 169 1 view .LVU346
 1317 0048 10BD     		pop	{r4, pc}
 1318              		.loc 1 169 1 view .LVU347
 1319              		.cfi_endproc
ARM GAS  C:\Users\GUILLE~1\AppData\Local\Temp\ccpUd5Pj.s 			page 28


 1320              	.LFE187:
 1322              		.section	.text.readGyro,"ax",%progbits
 1323              		.align	1
 1324              		.global	readGyro
 1325              		.syntax unified
 1326              		.thumb
 1327              		.thumb_func
 1328              		.fpu fpv5-sp-d16
 1330              	readGyro:
 1331              	.LVL136:
 1332              	.LFB188:
 170:Core/drogui/src/ICM20948.c **** 
 171:Core/drogui/src/ICM20948.c **** 
 172:Core/drogui/src/ICM20948.c **** void readGyro(icm20948* m){ // degrees/sec
 1333              		.loc 1 172 27 is_stmt 1 view -0
 1334              		.cfi_startproc
 1335              		@ args = 0, pretend = 0, frame = 0
 1336              		@ frame_needed = 0, uses_anonymous_args = 0
 1337              		.loc 1 172 27 is_stmt 0 view .LVU349
 1338 0000 10B5     		push	{r4, lr}
 1339              	.LCFI25:
 1340              		.cfi_def_cfa_offset 8
 1341              		.cfi_offset 4, -8
 1342              		.cfi_offset 14, -4
 1343 0002 0446     		mov	r4, r0
 173:Core/drogui/src/ICM20948.c ****     readFiltGyro(m);
 1344              		.loc 1 173 5 is_stmt 1 view .LVU350
 1345 0004 FFF7FEFF 		bl	readFiltGyro
 1346              	.LVL137:
 174:Core/drogui/src/ICM20948.c ****     m -> gx = m->filt_gx + m->off_gx;
 1347              		.loc 1 174 5 view .LVU351
 1348              		.loc 1 174 16 is_stmt 0 view .LVU352
 1349 0008 D4ED157A 		vldr.32	s15, [r4, #84]
 1350              		.loc 1 174 29 view .LVU353
 1351 000c 94ED1C7A 		vldr.32	s14, [r4, #112]
 1352              		.loc 1 174 26 view .LVU354
 1353 0010 77EE877A 		vadd.f32	s15, s15, s14
 1354              		.loc 1 174 13 view .LVU355
 1355 0014 C4ED037A 		vstr.32	s15, [r4, #12]
 175:Core/drogui/src/ICM20948.c ****     m -> gy = m->filt_gy + m->off_gy;
 1356              		.loc 1 175 5 is_stmt 1 view .LVU356
 1357              		.loc 1 175 16 is_stmt 0 view .LVU357
 1358 0018 D4ED167A 		vldr.32	s15, [r4, #88]
 1359              		.loc 1 175 29 view .LVU358
 1360 001c 94ED1D7A 		vldr.32	s14, [r4, #116]
 1361              		.loc 1 175 26 view .LVU359
 1362 0020 77EE877A 		vadd.f32	s15, s15, s14
 1363              		.loc 1 175 13 view .LVU360
 1364 0024 C4ED047A 		vstr.32	s15, [r4, #16]
 176:Core/drogui/src/ICM20948.c ****     m -> gz = m->filt_gz + m->off_gz; 
 1365              		.loc 1 176 5 is_stmt 1 view .LVU361
 1366              		.loc 1 176 16 is_stmt 0 view .LVU362
 1367 0028 D4ED177A 		vldr.32	s15, [r4, #92]
 1368              		.loc 1 176 29 view .LVU363
 1369 002c 94ED1E7A 		vldr.32	s14, [r4, #120]
 1370              		.loc 1 176 26 view .LVU364
 1371 0030 77EE877A 		vadd.f32	s15, s15, s14
ARM GAS  C:\Users\GUILLE~1\AppData\Local\Temp\ccpUd5Pj.s 			page 29


 1372              		.loc 1 176 13 view .LVU365
 1373 0034 C4ED057A 		vstr.32	s15, [r4, #20]
 177:Core/drogui/src/ICM20948.c **** }
 1374              		.loc 1 177 1 view .LVU366
 1375 0038 10BD     		pop	{r4, pc}
 1376              		.loc 1 177 1 view .LVU367
 1377              		.cfi_endproc
 1378              	.LFE188:
 1380              		.section	.text.readMag,"ax",%progbits
 1381              		.align	1
 1382              		.global	readMag
 1383              		.syntax unified
 1384              		.thumb
 1385              		.thumb_func
 1386              		.fpu fpv5-sp-d16
 1388              	readMag:
 1389              	.LVL138:
 1390              	.LFB189:
 178:Core/drogui/src/ICM20948.c **** 
 179:Core/drogui/src/ICM20948.c **** void readMag(icm20948* m){ // m/s^2
 1391              		.loc 1 179 26 is_stmt 1 view -0
 1392              		.cfi_startproc
 1393              		@ args = 0, pretend = 0, frame = 0
 1394              		@ frame_needed = 0, uses_anonymous_args = 0
 1395              		.loc 1 179 26 is_stmt 0 view .LVU369
 1396 0000 10B5     		push	{r4, lr}
 1397              	.LCFI26:
 1398              		.cfi_def_cfa_offset 8
 1399              		.cfi_offset 4, -8
 1400              		.cfi_offset 14, -4
 1401 0002 0446     		mov	r4, r0
 180:Core/drogui/src/ICM20948.c ****     readRawMag(m);
 1402              		.loc 1 180 5 is_stmt 1 view .LVU370
 1403 0004 FFF7FEFF 		bl	readRawMag
 1404              	.LVL139:
 181:Core/drogui/src/ICM20948.c ****     //-226.43	-112.81	131.13	119.36	127.29  129.95
 182:Core/drogui/src/ICM20948.c ****     m -> mx = (m->raw_mx - m->off_mx)/m->scl_magx;
 1405              		.loc 1 182 5 view .LVU371
 1406              		.loc 1 182 17 is_stmt 0 view .LVU372
 1407 0008 D4ED0F7A 		vldr.32	s15, [r4, #60]
 1408              		.loc 1 182 29 view .LVU373
 1409 000c 94ED1F7A 		vldr.32	s14, [r4, #124]
 1410              		.loc 1 182 26 view .LVU374
 1411 0010 77EEC77A 		vsub.f32	s15, s15, s14
 1412              		.loc 1 182 40 view .LVU375
 1413 0014 D4ED226A 		vldr.32	s13, [r4, #136]
 1414              		.loc 1 182 38 view .LVU376
 1415 0018 87EEA67A 		vdiv.f32	s14, s15, s13
 1416              		.loc 1 182 13 view .LVU377
 1417 001c 84ED067A 		vstr.32	s14, [r4, #24]
 183:Core/drogui/src/ICM20948.c ****     m -> my = (m->raw_my - m->off_my)/m->scl_magy;
 1418              		.loc 1 183 5 is_stmt 1 view .LVU378
 1419              		.loc 1 183 17 is_stmt 0 view .LVU379
 1420 0020 D4ED107A 		vldr.32	s15, [r4, #64]
 1421              		.loc 1 183 29 view .LVU380
 1422 0024 94ED207A 		vldr.32	s14, [r4, #128]
 1423              		.loc 1 183 26 view .LVU381
ARM GAS  C:\Users\GUILLE~1\AppData\Local\Temp\ccpUd5Pj.s 			page 30


 1424 0028 77EEC77A 		vsub.f32	s15, s15, s14
 1425              		.loc 1 183 40 view .LVU382
 1426 002c D4ED236A 		vldr.32	s13, [r4, #140]
 1427              		.loc 1 183 38 view .LVU383
 1428 0030 87EEA67A 		vdiv.f32	s14, s15, s13
 1429              		.loc 1 183 13 view .LVU384
 1430 0034 84ED077A 		vstr.32	s14, [r4, #28]
 184:Core/drogui/src/ICM20948.c ****     m -> mz = (m->raw_mz - m->off_mz)/m->scl_magz; 
 1431              		.loc 1 184 5 is_stmt 1 view .LVU385
 1432              		.loc 1 184 17 is_stmt 0 view .LVU386
 1433 0038 D4ED117A 		vldr.32	s15, [r4, #68]
 1434              		.loc 1 184 29 view .LVU387
 1435 003c 94ED217A 		vldr.32	s14, [r4, #132]
 1436              		.loc 1 184 26 view .LVU388
 1437 0040 77EEC77A 		vsub.f32	s15, s15, s14
 1438              		.loc 1 184 40 view .LVU389
 1439 0044 D4ED246A 		vldr.32	s13, [r4, #144]
 1440              		.loc 1 184 38 view .LVU390
 1441 0048 87EEA67A 		vdiv.f32	s14, s15, s13
 1442              		.loc 1 184 13 view .LVU391
 1443 004c 84ED087A 		vstr.32	s14, [r4, #32]
 185:Core/drogui/src/ICM20948.c **** }
 1444              		.loc 1 185 1 view .LVU392
 1445 0050 10BD     		pop	{r4, pc}
 1446              		.loc 1 185 1 view .LVU393
 1447              		.cfi_endproc
 1448              	.LFE189:
 1450              		.global	__aeabi_dadd
 1451              		.global	__aeabi_dcmplt
 1452              		.global	__aeabi_i2d
 1453              		.section	.text.icmQuiet,"ax",%progbits
 1454              		.align	1
 1455              		.global	icmQuiet
 1456              		.syntax unified
 1457              		.thumb
 1458              		.thumb_func
 1459              		.fpu fpv5-sp-d16
 1461              	icmQuiet:
 1462              	.LVL140:
 1463              	.LFB190:
 186:Core/drogui/src/ICM20948.c **** 
 187:Core/drogui/src/ICM20948.c **** // 120 260 380
 188:Core/drogui/src/ICM20948.c **** 
 189:Core/drogui/src/ICM20948.c **** bool icmQuiet(icm20948* m, int n, float treshold, bool cal){
 1464              		.loc 1 189 60 is_stmt 1 view -0
 1465              		.cfi_startproc
 1466              		@ args = 0, pretend = 0, frame = 40
 1467              		@ frame_needed = 0, uses_anonymous_args = 0
 1468              		.loc 1 189 60 is_stmt 0 view .LVU395
 1469 0000 2DE9F047 		push	{r4, r5, r6, r7, r8, r9, r10, lr}
 1470              	.LCFI27:
 1471              		.cfi_def_cfa_offset 32
 1472              		.cfi_offset 4, -32
 1473              		.cfi_offset 5, -28
 1474              		.cfi_offset 6, -24
 1475              		.cfi_offset 7, -20
 1476              		.cfi_offset 8, -16
ARM GAS  C:\Users\GUILLE~1\AppData\Local\Temp\ccpUd5Pj.s 			page 31


 1477              		.cfi_offset 9, -12
 1478              		.cfi_offset 10, -8
 1479              		.cfi_offset 14, -4
 1480 0004 2DED068B 		vpush.64	{d8, d9, d10}
 1481              	.LCFI28:
 1482              		.cfi_def_cfa_offset 56
 1483              		.cfi_offset 80, -56
 1484              		.cfi_offset 81, -52
 1485              		.cfi_offset 82, -48
 1486              		.cfi_offset 83, -44
 1487              		.cfi_offset 84, -40
 1488              		.cfi_offset 85, -36
 1489 0008 8AB0     		sub	sp, sp, #40
 1490              	.LCFI29:
 1491              		.cfi_def_cfa_offset 96
 1492 000a 0446     		mov	r4, r0
 1493 000c 0D46     		mov	r5, r1
 1494 000e 10EE108A 		vmov	r8, s0
 1495 0012 9246     		mov	r10, r2
 190:Core/drogui/src/ICM20948.c ****     
 191:Core/drogui/src/ICM20948.c ****     float max_gyro[3] = {0,0,0};
 1496              		.loc 1 191 5 is_stmt 1 view .LVU396
 1497              		.loc 1 191 11 is_stmt 0 view .LVU397
 1498 0014 0023     		movs	r3, #0
 1499 0016 0793     		str	r3, [sp, #28]	@ float
 1500 0018 0893     		str	r3, [sp, #32]	@ float
 1501 001a 0993     		str	r3, [sp, #36]	@ float
 192:Core/drogui/src/ICM20948.c ****     float min_gyro[3] = {0,0,0};
 1502              		.loc 1 192 5 is_stmt 1 view .LVU398
 1503              		.loc 1 192 11 is_stmt 0 view .LVU399
 1504 001c 0493     		str	r3, [sp, #16]	@ float
 1505 001e 0593     		str	r3, [sp, #20]	@ float
 1506 0020 0693     		str	r3, [sp, #24]	@ float
 193:Core/drogui/src/ICM20948.c ****     float acum_gyro[3] = {0,0,0};
 1507              		.loc 1 193 5 is_stmt 1 view .LVU400
 1508              		.loc 1 193 11 is_stmt 0 view .LVU401
 1509 0022 0193     		str	r3, [sp, #4]	@ float
 1510 0024 0293     		str	r3, [sp, #8]	@ float
 1511 0026 0393     		str	r3, [sp, #12]	@ float
 194:Core/drogui/src/ICM20948.c **** 
 195:Core/drogui/src/ICM20948.c ****     //HAL_UART_Transmit(&huart2, (uint8_t*) "Quiet\n", 8, 100);
 196:Core/drogui/src/ICM20948.c **** 
 197:Core/drogui/src/ICM20948.c ****     for(int i = 0; i < n; i++){
 1512              		.loc 1 197 5 is_stmt 1 view .LVU402
 1513              	.LBB2:
 1514              		.loc 1 197 9 view .LVU403
 1515              	.LVL141:
 1516              		.loc 1 197 13 is_stmt 0 view .LVU404
 1517 0028 0026     		movs	r6, #0
 1518              		.loc 1 197 5 view .LVU405
 1519 002a 24E0     		b	.L68
 1520              	.LVL142:
 1521              	.L88:
 198:Core/drogui/src/ICM20948.c ****         
 199:Core/drogui/src/ICM20948.c ****         readFiltGyro(m);   
 200:Core/drogui/src/ICM20948.c **** 
 201:Core/drogui/src/ICM20948.c ****         if(i == 0){
ARM GAS  C:\Users\GUILLE~1\AppData\Local\Temp\ccpUd5Pj.s 			page 32


 202:Core/drogui/src/ICM20948.c ****             max_gyro[0] = m->filt_gx, max_gyro[1] = m->filt_gy, max_gyro[2] = m->filt_gz;
 1522              		.loc 1 202 13 is_stmt 1 view .LVU406
 1523              		.loc 1 202 28 is_stmt 0 view .LVU407
 1524 002c 616D     		ldr	r1, [r4, #84]	@ float
 1525              		.loc 1 202 25 view .LVU408
 1526 002e 0791     		str	r1, [sp, #28]	@ float
 1527              		.loc 1 202 54 view .LVU409
 1528 0030 A26D     		ldr	r2, [r4, #88]	@ float
 1529              		.loc 1 202 51 view .LVU410
 1530 0032 0892     		str	r2, [sp, #32]	@ float
 1531              		.loc 1 202 80 view .LVU411
 1532 0034 E36D     		ldr	r3, [r4, #92]	@ float
 1533              		.loc 1 202 77 view .LVU412
 1534 0036 0993     		str	r3, [sp, #36]	@ float
 203:Core/drogui/src/ICM20948.c ****             min_gyro[0] = m->filt_gx, min_gyro[1] = m->filt_gy, min_gyro[2] = m->filt_gz;
 1535              		.loc 1 203 13 is_stmt 1 view .LVU413
 1536              		.loc 1 203 25 is_stmt 0 view .LVU414
 1537 0038 0491     		str	r1, [sp, #16]	@ float
 1538              		.loc 1 203 51 view .LVU415
 1539 003a 0592     		str	r2, [sp, #20]	@ float
 1540              		.loc 1 203 77 view .LVU416
 1541 003c 0693     		str	r3, [sp, #24]	@ float
 1542              	.L70:
 204:Core/drogui/src/ICM20948.c ****         }
 205:Core/drogui/src/ICM20948.c ****         else{
 206:Core/drogui/src/ICM20948.c ****                 max_gyro[0] = fmax(max_gyro[0], m->filt_gx);
 207:Core/drogui/src/ICM20948.c ****                 max_gyro[1] = fmax(max_gyro[1], m->filt_gy);
 208:Core/drogui/src/ICM20948.c ****                 max_gyro[2] = fmax(max_gyro[2], m->filt_gz);
 209:Core/drogui/src/ICM20948.c ****                 
 210:Core/drogui/src/ICM20948.c ****                 min_gyro[0] = fmin(min_gyro[0], m->filt_gx);
 211:Core/drogui/src/ICM20948.c ****                 min_gyro[1] = fmin(min_gyro[1], m->filt_gy);
 212:Core/drogui/src/ICM20948.c ****                 min_gyro[2] = fmin(min_gyro[2], m->filt_gz);
 213:Core/drogui/src/ICM20948.c ****         }
 214:Core/drogui/src/ICM20948.c **** 
 215:Core/drogui/src/ICM20948.c ****         acum_gyro[0] += m ->filt_gx;
 1543              		.loc 1 215 9 is_stmt 1 discriminator 2 view .LVU417
 1544              		.loc 1 215 27 is_stmt 0 discriminator 2 view .LVU418
 1545 003e 94ED157A 		vldr.32	s14, [r4, #84]
 1546              		.loc 1 215 22 discriminator 2 view .LVU419
 1547 0042 DDED017A 		vldr.32	s15, [sp, #4]
 1548 0046 77EE877A 		vadd.f32	s15, s15, s14
 1549 004a CDED017A 		vstr.32	s15, [sp, #4]
 216:Core/drogui/src/ICM20948.c ****         acum_gyro[1] += m ->filt_gy;
 1550              		.loc 1 216 9 is_stmt 1 discriminator 2 view .LVU420
 1551              		.loc 1 216 27 is_stmt 0 discriminator 2 view .LVU421
 1552 004e 94ED167A 		vldr.32	s14, [r4, #88]
 1553              		.loc 1 216 22 discriminator 2 view .LVU422
 1554 0052 DDED027A 		vldr.32	s15, [sp, #8]
 1555 0056 77EE877A 		vadd.f32	s15, s15, s14
 1556 005a CDED027A 		vstr.32	s15, [sp, #8]
 217:Core/drogui/src/ICM20948.c ****         acum_gyro[2] += m ->filt_gz;
 1557              		.loc 1 217 9 is_stmt 1 discriminator 2 view .LVU423
 1558              		.loc 1 217 27 is_stmt 0 discriminator 2 view .LVU424
 1559 005e 94ED177A 		vldr.32	s14, [r4, #92]
 1560              		.loc 1 217 22 discriminator 2 view .LVU425
 1561 0062 DDED037A 		vldr.32	s15, [sp, #12]
 1562 0066 77EE877A 		vadd.f32	s15, s15, s14
ARM GAS  C:\Users\GUILLE~1\AppData\Local\Temp\ccpUd5Pj.s 			page 33


 1563 006a CDED037A 		vstr.32	s15, [sp, #12]
 218:Core/drogui/src/ICM20948.c **** 
 219:Core/drogui/src/ICM20948.c **** 
 220:Core/drogui/src/ICM20948.c ****         HAL_Delay(1);
 1564              		.loc 1 220 9 is_stmt 1 discriminator 2 view .LVU426
 1565 006e 0120     		movs	r0, #1
 1566 0070 FFF7FEFF 		bl	HAL_Delay
 1567              	.LVL143:
 197:Core/drogui/src/ICM20948.c ****         
 1568              		.loc 1 197 27 discriminator 2 view .LVU427
 197:Core/drogui/src/ICM20948.c ****         
 1569              		.loc 1 197 28 is_stmt 0 discriminator 2 view .LVU428
 1570 0074 0136     		adds	r6, r6, #1
 1571              	.LVL144:
 1572              	.L68:
 197:Core/drogui/src/ICM20948.c ****         
 1573              		.loc 1 197 20 is_stmt 1 discriminator 1 view .LVU429
 197:Core/drogui/src/ICM20948.c ****         
 1574              		.loc 1 197 5 is_stmt 0 discriminator 1 view .LVU430
 1575 0076 AE42     		cmp	r6, r5
 1576 0078 74DA     		bge	.L87
 199:Core/drogui/src/ICM20948.c **** 
 1577              		.loc 1 199 9 is_stmt 1 view .LVU431
 1578 007a 2046     		mov	r0, r4
 1579 007c FFF7FEFF 		bl	readFiltGyro
 1580              	.LVL145:
 201:Core/drogui/src/ICM20948.c ****             max_gyro[0] = m->filt_gx, max_gyro[1] = m->filt_gy, max_gyro[2] = m->filt_gz;
 1581              		.loc 1 201 9 view .LVU432
 201:Core/drogui/src/ICM20948.c ****             max_gyro[0] = m->filt_gx, max_gyro[1] = m->filt_gy, max_gyro[2] = m->filt_gz;
 1582              		.loc 1 201 11 is_stmt 0 view .LVU433
 1583 0080 002E     		cmp	r6, #0
 1584 0082 D3D0     		beq	.L88
 206:Core/drogui/src/ICM20948.c ****                 max_gyro[1] = fmax(max_gyro[1], m->filt_gy);
 1585              		.loc 1 206 17 is_stmt 1 view .LVU434
 206:Core/drogui/src/ICM20948.c ****                 max_gyro[1] = fmax(max_gyro[1], m->filt_gy);
 1586              		.loc 1 206 31 is_stmt 0 view .LVU435
 1587 0084 606D     		ldr	r0, [r4, #84]	@ float
 1588 0086 FFF7FEFF 		bl	__aeabi_f2d
 1589              	.LVL146:
 1590 008a 41EC1A0B 		vmov	d10, r0, r1
 1591 008e 0798     		ldr	r0, [sp, #28]	@ float
 1592 0090 FFF7FEFF 		bl	__aeabi_f2d
 1593              	.LVL147:
 1594 0094 B0EE4A1A 		vmov.f32	s2, s20
 1595 0098 F0EE6A1A 		vmov.f32	s3, s21
 1596 009c 41EC100B 		vmov	d0, r0, r1
 1597 00a0 FFF7FEFF 		bl	fmax
 1598              	.LVL148:
 1599 00a4 51EC100B 		vmov	r0, r1, d0
 1600 00a8 FFF7FEFF 		bl	__aeabi_d2f
 1601              	.LVL149:
 206:Core/drogui/src/ICM20948.c ****                 max_gyro[1] = fmax(max_gyro[1], m->filt_gy);
 1602              		.loc 1 206 29 view .LVU436
 1603 00ac 0790     		str	r0, [sp, #28]	@ float
 207:Core/drogui/src/ICM20948.c ****                 max_gyro[2] = fmax(max_gyro[2], m->filt_gz);
 1604              		.loc 1 207 17 is_stmt 1 view .LVU437
 207:Core/drogui/src/ICM20948.c ****                 max_gyro[2] = fmax(max_gyro[2], m->filt_gz);
ARM GAS  C:\Users\GUILLE~1\AppData\Local\Temp\ccpUd5Pj.s 			page 34


 1605              		.loc 1 207 31 is_stmt 0 view .LVU438
 1606 00ae A06D     		ldr	r0, [r4, #88]	@ float
 1607 00b0 FFF7FEFF 		bl	__aeabi_f2d
 1608              	.LVL150:
 1609 00b4 41EC190B 		vmov	d9, r0, r1
 1610 00b8 0898     		ldr	r0, [sp, #32]	@ float
 1611 00ba FFF7FEFF 		bl	__aeabi_f2d
 1612              	.LVL151:
 1613 00be B0EE491A 		vmov.f32	s2, s18
 1614 00c2 F0EE691A 		vmov.f32	s3, s19
 1615 00c6 41EC100B 		vmov	d0, r0, r1
 1616 00ca FFF7FEFF 		bl	fmax
 1617              	.LVL152:
 1618 00ce 51EC100B 		vmov	r0, r1, d0
 1619 00d2 FFF7FEFF 		bl	__aeabi_d2f
 1620              	.LVL153:
 207:Core/drogui/src/ICM20948.c ****                 max_gyro[2] = fmax(max_gyro[2], m->filt_gz);
 1621              		.loc 1 207 29 view .LVU439
 1622 00d6 0890     		str	r0, [sp, #32]	@ float
 208:Core/drogui/src/ICM20948.c ****                 
 1623              		.loc 1 208 17 is_stmt 1 view .LVU440
 208:Core/drogui/src/ICM20948.c ****                 
 1624              		.loc 1 208 31 is_stmt 0 view .LVU441
 1625 00d8 E06D     		ldr	r0, [r4, #92]	@ float
 1626 00da FFF7FEFF 		bl	__aeabi_f2d
 1627              	.LVL154:
 1628 00de 41EC180B 		vmov	d8, r0, r1
 1629 00e2 0998     		ldr	r0, [sp, #36]	@ float
 1630 00e4 FFF7FEFF 		bl	__aeabi_f2d
 1631              	.LVL155:
 1632 00e8 B0EE481A 		vmov.f32	s2, s16
 1633 00ec F0EE681A 		vmov.f32	s3, s17
 1634 00f0 41EC100B 		vmov	d0, r0, r1
 1635 00f4 FFF7FEFF 		bl	fmax
 1636              	.LVL156:
 1637 00f8 51EC100B 		vmov	r0, r1, d0
 1638 00fc FFF7FEFF 		bl	__aeabi_d2f
 1639              	.LVL157:
 208:Core/drogui/src/ICM20948.c ****                 
 1640              		.loc 1 208 29 view .LVU442
 1641 0100 0990     		str	r0, [sp, #36]	@ float
 210:Core/drogui/src/ICM20948.c ****                 min_gyro[1] = fmin(min_gyro[1], m->filt_gy);
 1642              		.loc 1 210 17 is_stmt 1 view .LVU443
 210:Core/drogui/src/ICM20948.c ****                 min_gyro[1] = fmin(min_gyro[1], m->filt_gy);
 1643              		.loc 1 210 31 is_stmt 0 view .LVU444
 1644 0102 0498     		ldr	r0, [sp, #16]	@ float
 1645 0104 FFF7FEFF 		bl	__aeabi_f2d
 1646              	.LVL158:
 1647 0108 B0EE4A1A 		vmov.f32	s2, s20
 1648 010c F0EE6A1A 		vmov.f32	s3, s21
 1649 0110 41EC100B 		vmov	d0, r0, r1
 1650 0114 FFF7FEFF 		bl	fmin
 1651              	.LVL159:
 1652 0118 51EC100B 		vmov	r0, r1, d0
 1653 011c FFF7FEFF 		bl	__aeabi_d2f
 1654              	.LVL160:
 210:Core/drogui/src/ICM20948.c ****                 min_gyro[1] = fmin(min_gyro[1], m->filt_gy);
ARM GAS  C:\Users\GUILLE~1\AppData\Local\Temp\ccpUd5Pj.s 			page 35


 1655              		.loc 1 210 29 view .LVU445
 1656 0120 0490     		str	r0, [sp, #16]	@ float
 211:Core/drogui/src/ICM20948.c ****                 min_gyro[2] = fmin(min_gyro[2], m->filt_gz);
 1657              		.loc 1 211 17 is_stmt 1 view .LVU446
 211:Core/drogui/src/ICM20948.c ****                 min_gyro[2] = fmin(min_gyro[2], m->filt_gz);
 1658              		.loc 1 211 31 is_stmt 0 view .LVU447
 1659 0122 0598     		ldr	r0, [sp, #20]	@ float
 1660 0124 FFF7FEFF 		bl	__aeabi_f2d
 1661              	.LVL161:
 1662 0128 B0EE491A 		vmov.f32	s2, s18
 1663 012c F0EE691A 		vmov.f32	s3, s19
 1664 0130 41EC100B 		vmov	d0, r0, r1
 1665 0134 FFF7FEFF 		bl	fmin
 1666              	.LVL162:
 1667 0138 51EC100B 		vmov	r0, r1, d0
 1668 013c FFF7FEFF 		bl	__aeabi_d2f
 1669              	.LVL163:
 211:Core/drogui/src/ICM20948.c ****                 min_gyro[2] = fmin(min_gyro[2], m->filt_gz);
 1670              		.loc 1 211 29 view .LVU448
 1671 0140 0590     		str	r0, [sp, #20]	@ float
 212:Core/drogui/src/ICM20948.c ****         }
 1672              		.loc 1 212 17 is_stmt 1 view .LVU449
 212:Core/drogui/src/ICM20948.c ****         }
 1673              		.loc 1 212 31 is_stmt 0 view .LVU450
 1674 0142 0698     		ldr	r0, [sp, #24]	@ float
 1675 0144 FFF7FEFF 		bl	__aeabi_f2d
 1676              	.LVL164:
 1677 0148 B0EE481A 		vmov.f32	s2, s16
 1678 014c F0EE681A 		vmov.f32	s3, s17
 1679 0150 41EC100B 		vmov	d0, r0, r1
 1680 0154 FFF7FEFF 		bl	fmin
 1681              	.LVL165:
 1682 0158 51EC100B 		vmov	r0, r1, d0
 1683 015c FFF7FEFF 		bl	__aeabi_d2f
 1684              	.LVL166:
 212:Core/drogui/src/ICM20948.c ****         }
 1685              		.loc 1 212 29 view .LVU451
 1686 0160 0690     		str	r0, [sp, #24]	@ float
 1687 0162 6CE7     		b	.L70
 1688              	.L87:
 212:Core/drogui/src/ICM20948.c ****         }
 1689              		.loc 1 212 29 view .LVU452
 1690              	.LBE2:
 221:Core/drogui/src/ICM20948.c ****     }
 222:Core/drogui/src/ICM20948.c ****     
 223:Core/drogui/src/ICM20948.c ****     //serialPrintf("%f\t%f\t%f\n", max_gyro[0]-min_gyro[0], max_gyro[1]-min_gyro[1], max_gyro[2]-mi
 224:Core/drogui/src/ICM20948.c **** 
 225:Core/drogui/src/ICM20948.c ****     if( ( max_gyro[0]-min_gyro[0] < (treshold + 2.0 /*1.8*/) ) &&\
 1691              		.loc 1 225 5 is_stmt 1 view .LVU453
 1692              		.loc 1 225 22 is_stmt 0 view .LVU454
 1693 0164 9DED077A 		vldr.32	s14, [sp, #28]
 1694 0168 DDED047A 		vldr.32	s15, [sp, #16]
 1695 016c 77EE677A 		vsub.f32	s15, s14, s15
 1696 0170 17EE900A 		vmov	r0, s15
 1697 0174 FFF7FEFF 		bl	__aeabi_f2d
 1698              	.LVL167:
 1699 0178 0646     		mov	r6, r0
ARM GAS  C:\Users\GUILLE~1\AppData\Local\Temp\ccpUd5Pj.s 			page 36


 1700              	.LVL168:
 1701              		.loc 1 225 22 view .LVU455
 1702 017a 0F46     		mov	r7, r1
 1703              		.loc 1 225 47 view .LVU456
 1704 017c 4046     		mov	r0, r8	@ float
 1705 017e FFF7FEFF 		bl	__aeabi_f2d
 1706              	.LVL169:
 1707 0182 8046     		mov	r8, r0
 1708              	.LVL170:
 1709              		.loc 1 225 47 view .LVU457
 1710 0184 8946     		mov	r9, r1
 1711 0186 0022     		movs	r2, #0
 1712 0188 4FF08043 		mov	r3, #1073741824
 1713 018c FFF7FEFF 		bl	__aeabi_dadd
 1714              	.LVL171:
 1715 0190 0246     		mov	r2, r0
 1716 0192 0B46     		mov	r3, r1
 1717              		.loc 1 225 7 view .LVU458
 1718 0194 3046     		mov	r0, r6
 1719 0196 3946     		mov	r1, r7
 1720 0198 FFF7FEFF 		bl	__aeabi_dcmplt
 1721              	.LVL172:
 1722 019c 0028     		cmp	r0, #0
 1723 019e 65D0     		beq	.L83
 226:Core/drogui/src/ICM20948.c ****         ( max_gyro[1]-min_gyro[1] < (treshold + 4.0 /*3.8*/) ) && \
 1724              		.loc 1 226 22 discriminator 1 view .LVU459
 1725 01a0 9DED087A 		vldr.32	s14, [sp, #32]
 1726 01a4 DDED057A 		vldr.32	s15, [sp, #20]
 1727 01a8 77EE677A 		vsub.f32	s15, s14, s15
 1728 01ac 17EE900A 		vmov	r0, s15
 1729 01b0 FFF7FEFF 		bl	__aeabi_f2d
 1730              	.LVL173:
 1731 01b4 0646     		mov	r6, r0
 1732 01b6 0F46     		mov	r7, r1
 1733              		.loc 1 226 47 discriminator 1 view .LVU460
 1734 01b8 0022     		movs	r2, #0
 1735 01ba 304B     		ldr	r3, .L90
 1736 01bc 4046     		mov	r0, r8
 1737 01be 4946     		mov	r1, r9
 1738 01c0 FFF7FEFF 		bl	__aeabi_dadd
 1739              	.LVL174:
 1740 01c4 0246     		mov	r2, r0
 1741 01c6 0B46     		mov	r3, r1
 225:Core/drogui/src/ICM20948.c ****         ( max_gyro[1]-min_gyro[1] < (treshold + 4.0 /*3.8*/) ) && \
 1742              		.loc 1 225 64 discriminator 1 view .LVU461
 1743 01c8 3046     		mov	r0, r6
 1744 01ca 3946     		mov	r1, r7
 1745 01cc FFF7FEFF 		bl	__aeabi_dcmplt
 1746              	.LVL175:
 1747 01d0 0028     		cmp	r0, #0
 1748 01d2 51D0     		beq	.L84
 227:Core/drogui/src/ICM20948.c ****         ( max_gyro[2]-min_gyro[2] < (treshold + 5.0) ) ){
 1749              		.loc 1 227 22 view .LVU462
 1750 01d4 9DED097A 		vldr.32	s14, [sp, #36]
 1751 01d8 DDED067A 		vldr.32	s15, [sp, #24]
 1752 01dc 77EE677A 		vsub.f32	s15, s14, s15
 1753 01e0 17EE900A 		vmov	r0, s15
ARM GAS  C:\Users\GUILLE~1\AppData\Local\Temp\ccpUd5Pj.s 			page 37


 1754 01e4 FFF7FEFF 		bl	__aeabi_f2d
 1755              	.LVL176:
 1756 01e8 0646     		mov	r6, r0
 1757 01ea 0F46     		mov	r7, r1
 1758              		.loc 1 227 47 view .LVU463
 1759 01ec 0022     		movs	r2, #0
 1760 01ee 244B     		ldr	r3, .L90+4
 1761 01f0 4046     		mov	r0, r8
 1762 01f2 4946     		mov	r1, r9
 1763 01f4 FFF7FEFF 		bl	__aeabi_dadd
 1764              	.LVL177:
 1765 01f8 0246     		mov	r2, r0
 1766 01fa 0B46     		mov	r3, r1
 226:Core/drogui/src/ICM20948.c ****         ( max_gyro[1]-min_gyro[1] < (treshold + 4.0 /*3.8*/) ) && \
 1767              		.loc 1 226 64 view .LVU464
 1768 01fc 3046     		mov	r0, r6
 1769 01fe 3946     		mov	r1, r7
 1770 0200 FFF7FEFF 		bl	__aeabi_dcmplt
 1771              	.LVL178:
 1772 0204 08B9     		cbnz	r0, .L89
 228:Core/drogui/src/ICM20948.c ****         if(cal){
 229:Core/drogui/src/ICM20948.c ****             m->off_gx = -1.0*acum_gyro[0]/n;
 230:Core/drogui/src/ICM20948.c ****             m->off_gy = -1.0*acum_gyro[1]/n;
 231:Core/drogui/src/ICM20948.c ****             m->off_gz = -1.0*acum_gyro[2]/n;
 232:Core/drogui/src/ICM20948.c ****         }
 233:Core/drogui/src/ICM20948.c ****         return true;
 234:Core/drogui/src/ICM20948.c ****     }
 235:Core/drogui/src/ICM20948.c ****     return false;
 1773              		.loc 1 235 12 view .LVU465
 1774 0206 0020     		movs	r0, #0
 1775 0208 31E0     		b	.L72
 1776              	.L89:
 228:Core/drogui/src/ICM20948.c ****         if(cal){
 1777              		.loc 1 228 9 is_stmt 1 view .LVU466
 228:Core/drogui/src/ICM20948.c ****         if(cal){
 1778              		.loc 1 228 11 is_stmt 0 view .LVU467
 1779 020a BAF1000F 		cmp	r10, #0
 1780 020e 2BD0     		beq	.L76
 229:Core/drogui/src/ICM20948.c ****             m->off_gy = -1.0*acum_gyro[1]/n;
 1781              		.loc 1 229 13 is_stmt 1 view .LVU468
 229:Core/drogui/src/ICM20948.c ****             m->off_gy = -1.0*acum_gyro[1]/n;
 1782              		.loc 1 229 39 is_stmt 0 view .LVU469
 1783 0210 0198     		ldr	r0, [sp, #4]	@ float
 1784 0212 FFF7FEFF 		bl	__aeabi_f2d
 1785              	.LVL179:
 229:Core/drogui/src/ICM20948.c ****             m->off_gy = -1.0*acum_gyro[1]/n;
 1786              		.loc 1 229 29 view .LVU470
 1787 0216 0646     		mov	r6, r0
 1788 0218 01F10047 		add	r7, r1, #-2147483648
 229:Core/drogui/src/ICM20948.c ****             m->off_gy = -1.0*acum_gyro[1]/n;
 1789              		.loc 1 229 42 view .LVU471
 1790 021c 2846     		mov	r0, r5
 1791 021e FFF7FEFF 		bl	__aeabi_i2d
 1792              	.LVL180:
 1793 0222 8046     		mov	r8, r0
 1794 0224 8946     		mov	r9, r1
 1795 0226 0246     		mov	r2, r0
ARM GAS  C:\Users\GUILLE~1\AppData\Local\Temp\ccpUd5Pj.s 			page 38


 1796 0228 0B46     		mov	r3, r1
 1797 022a 3046     		mov	r0, r6
 1798 022c 3946     		mov	r1, r7
 1799 022e FFF7FEFF 		bl	__aeabi_ddiv
 1800              	.LVL181:
 1801 0232 FFF7FEFF 		bl	__aeabi_d2f
 1802              	.LVL182:
 229:Core/drogui/src/ICM20948.c ****             m->off_gy = -1.0*acum_gyro[1]/n;
 1803              		.loc 1 229 23 view .LVU472
 1804 0236 2067     		str	r0, [r4, #112]	@ float
 230:Core/drogui/src/ICM20948.c ****             m->off_gz = -1.0*acum_gyro[2]/n;
 1805              		.loc 1 230 13 is_stmt 1 view .LVU473
 230:Core/drogui/src/ICM20948.c ****             m->off_gz = -1.0*acum_gyro[2]/n;
 1806              		.loc 1 230 39 is_stmt 0 view .LVU474
 1807 0238 0298     		ldr	r0, [sp, #8]	@ float
 1808 023a FFF7FEFF 		bl	__aeabi_f2d
 1809              	.LVL183:
 230:Core/drogui/src/ICM20948.c ****             m->off_gz = -1.0*acum_gyro[2]/n;
 1810              		.loc 1 230 29 view .LVU475
 1811 023e 01F10041 		add	r1, r1, #-2147483648
 230:Core/drogui/src/ICM20948.c ****             m->off_gz = -1.0*acum_gyro[2]/n;
 1812              		.loc 1 230 42 view .LVU476
 1813 0242 4246     		mov	r2, r8
 1814 0244 4B46     		mov	r3, r9
 1815 0246 FFF7FEFF 		bl	__aeabi_ddiv
 1816              	.LVL184:
 1817 024a FFF7FEFF 		bl	__aeabi_d2f
 1818              	.LVL185:
 230:Core/drogui/src/ICM20948.c ****             m->off_gz = -1.0*acum_gyro[2]/n;
 1819              		.loc 1 230 23 view .LVU477
 1820 024e 6067     		str	r0, [r4, #116]	@ float
 231:Core/drogui/src/ICM20948.c ****         }
 1821              		.loc 1 231 13 is_stmt 1 view .LVU478
 231:Core/drogui/src/ICM20948.c ****         }
 1822              		.loc 1 231 39 is_stmt 0 view .LVU479
 1823 0250 0398     		ldr	r0, [sp, #12]	@ float
 1824 0252 FFF7FEFF 		bl	__aeabi_f2d
 1825              	.LVL186:
 231:Core/drogui/src/ICM20948.c ****         }
 1826              		.loc 1 231 29 view .LVU480
 1827 0256 01F10041 		add	r1, r1, #-2147483648
 231:Core/drogui/src/ICM20948.c ****         }
 1828              		.loc 1 231 42 view .LVU481
 1829 025a 4246     		mov	r2, r8
 1830 025c 4B46     		mov	r3, r9
 1831 025e FFF7FEFF 		bl	__aeabi_ddiv
 1832              	.LVL187:
 1833 0262 FFF7FEFF 		bl	__aeabi_d2f
 1834              	.LVL188:
 231:Core/drogui/src/ICM20948.c ****         }
 1835              		.loc 1 231 23 view .LVU482
 1836 0266 A067     		str	r0, [r4, #120]	@ float
 1837              	.L76:
 233:Core/drogui/src/ICM20948.c ****     }
 1838              		.loc 1 233 9 is_stmt 1 view .LVU483
 233:Core/drogui/src/ICM20948.c ****     }
 1839              		.loc 1 233 16 is_stmt 0 view .LVU484
ARM GAS  C:\Users\GUILLE~1\AppData\Local\Temp\ccpUd5Pj.s 			page 39


 1840 0268 0120     		movs	r0, #1
 1841 026a 00E0     		b	.L72
 1842              	.L83:
 1843              		.loc 1 235 12 view .LVU485
 1844 026c 0020     		movs	r0, #0
 1845              	.L72:
 236:Core/drogui/src/ICM20948.c **** }
 1846              		.loc 1 236 1 view .LVU486
 1847 026e 0AB0     		add	sp, sp, #40
 1848              	.LCFI30:
 1849              		.cfi_remember_state
 1850              		.cfi_def_cfa_offset 56
 1851              		@ sp needed
 1852 0270 BDEC068B 		vldm	sp!, {d8-d10}
 1853              	.LCFI31:
 1854              		.cfi_restore 84
 1855              		.cfi_restore 85
 1856              		.cfi_restore 82
 1857              		.cfi_restore 83
 1858              		.cfi_restore 80
 1859              		.cfi_restore 81
 1860              		.cfi_def_cfa_offset 32
 1861 0274 BDE8F087 		pop	{r4, r5, r6, r7, r8, r9, r10, pc}
 1862              	.LVL189:
 1863              	.L84:
 1864              	.LCFI32:
 1865              		.cfi_restore_state
 235:Core/drogui/src/ICM20948.c **** }
 1866              		.loc 1 235 12 view .LVU487
 1867 0278 0020     		movs	r0, #0
 1868 027a F8E7     		b	.L72
 1869              	.L91:
 1870              		.align	2
 1871              	.L90:
 1872 027c 00001040 		.word	1074790400
 1873 0280 00001440 		.word	1075052544
 1874              		.cfi_endproc
 1875              	.LFE190:
 1877              		.section	.text.calibrateGyro,"ax",%progbits
 1878              		.align	1
 1879              		.global	calibrateGyro
 1880              		.syntax unified
 1881              		.thumb
 1882              		.thumb_func
 1883              		.fpu fpv5-sp-d16
 1885              	calibrateGyro:
 1886              	.LVL190:
 1887              	.LFB191:
 237:Core/drogui/src/ICM20948.c **** 
 238:Core/drogui/src/ICM20948.c **** 
 239:Core/drogui/src/ICM20948.c **** void calibrateGyro(icm20948* m){
 1888              		.loc 1 239 32 is_stmt 1 view -0
 1889              		.cfi_startproc
 1890              		@ args = 0, pretend = 0, frame = 0
 1891              		@ frame_needed = 0, uses_anonymous_args = 0
 1892              		.loc 1 239 32 is_stmt 0 view .LVU489
 1893 0000 10B5     		push	{r4, lr}
ARM GAS  C:\Users\GUILLE~1\AppData\Local\Temp\ccpUd5Pj.s 			page 40


 1894              	.LCFI33:
 1895              		.cfi_def_cfa_offset 8
 1896              		.cfi_offset 4, -8
 1897              		.cfi_offset 14, -4
 1898 0002 0446     		mov	r4, r0
 240:Core/drogui/src/ICM20948.c ****     //HAL_UART_Transmit(&huart2, (uint8_t*) "CalibG\n", 8, 100);
 241:Core/drogui/src/ICM20948.c ****     setReg(CAL_GYR,0);
 1899              		.loc 1 241 5 is_stmt 1 view .LVU490
 1900 0004 9FED130A 		vldr.32	s0, .L95
 1901 0008 0420     		movs	r0, #4
 1902              	.LVL191:
 1903              		.loc 1 241 5 is_stmt 0 view .LVU491
 1904 000a FFF7FEFF 		bl	setReg
 1905              	.LVL192:
 242:Core/drogui/src/ICM20948.c ****     while(!icmQuiet(m,1000,0, true));
 1906              		.loc 1 242 5 is_stmt 1 view .LVU492
 1907              	.L93:
 1908              		.loc 1 242 37 discriminator 1 view .LVU493
 1909              		.loc 1 242 10 discriminator 1 view .LVU494
 1910              		.loc 1 242 12 is_stmt 0 discriminator 1 view .LVU495
 1911 000e 0122     		movs	r2, #1
 1912 0010 9FED100A 		vldr.32	s0, .L95
 1913 0014 4FF47A71 		mov	r1, #1000
 1914 0018 2046     		mov	r0, r4
 1915 001a FFF7FEFF 		bl	icmQuiet
 1916              	.LVL193:
 1917              		.loc 1 242 10 discriminator 1 view .LVU496
 1918 001e 0028     		cmp	r0, #0
 1919 0020 F5D0     		beq	.L93
 243:Core/drogui/src/ICM20948.c ****     
 244:Core/drogui/src/ICM20948.c ****     setReg(GYR_X_OFF, m -> off_gx);
 1920              		.loc 1 244 5 is_stmt 1 view .LVU497
 1921 0022 94ED1C0A 		vldr.32	s0, [r4, #112]
 1922 0026 1620     		movs	r0, #22
 1923 0028 FFF7FEFF 		bl	setReg
 1924              	.LVL194:
 245:Core/drogui/src/ICM20948.c ****     setReg(GYR_Y_OFF, m -> off_gy);
 1925              		.loc 1 245 5 view .LVU498
 1926 002c 94ED1D0A 		vldr.32	s0, [r4, #116]
 1927 0030 1820     		movs	r0, #24
 1928 0032 FFF7FEFF 		bl	setReg
 1929              	.LVL195:
 246:Core/drogui/src/ICM20948.c ****     setReg(GYR_Z_OFF, m -> off_gz);
 1930              		.loc 1 246 5 view .LVU499
 1931 0036 94ED1E0A 		vldr.32	s0, [r4, #120]
 1932 003a 1A20     		movs	r0, #26
 1933 003c FFF7FEFF 		bl	setReg
 1934              	.LVL196:
 247:Core/drogui/src/ICM20948.c **** 
 248:Core/drogui/src/ICM20948.c ****     setReg(CAL_GYR, 100);
 1935              		.loc 1 248 5 view .LVU500
 1936 0040 9FED050A 		vldr.32	s0, .L95+4
 1937 0044 0420     		movs	r0, #4
 1938 0046 FFF7FEFF 		bl	setReg
 1939              	.LVL197:
 249:Core/drogui/src/ICM20948.c ****     
 250:Core/drogui/src/ICM20948.c ****     HAL_GPIO_TogglePin(LED1_GPIO_Port, LED1_Pin);
ARM GAS  C:\Users\GUILLE~1\AppData\Local\Temp\ccpUd5Pj.s 			page 41


 1940              		.loc 1 250 5 view .LVU501
 1941 004a 0421     		movs	r1, #4
 1942 004c 0348     		ldr	r0, .L95+8
 1943 004e FFF7FEFF 		bl	HAL_GPIO_TogglePin
 1944              	.LVL198:
 251:Core/drogui/src/ICM20948.c ****     
 252:Core/drogui/src/ICM20948.c **** }
 1945              		.loc 1 252 1 is_stmt 0 view .LVU502
 1946 0052 10BD     		pop	{r4, pc}
 1947              	.LVL199:
 1948              	.L96:
 1949              		.loc 1 252 1 view .LVU503
 1950              		.align	2
 1951              	.L95:
 1952 0054 00000000 		.word	0
 1953 0058 0000C842 		.word	1120403456
 1954 005c 00100240 		.word	1073876992
 1955              		.cfi_endproc
 1956              	.LFE191:
 1958              		.global	__aeabi_dmul
 1959              		.global	__aeabi_dsub
 1960              		.global	__aeabi_dcmpgt
 1961              		.section	.text.calibrateAccel,"ax",%progbits
 1962              		.align	1
 1963              		.global	calibrateAccel
 1964              		.syntax unified
 1965              		.thumb
 1966              		.thumb_func
 1967              		.fpu fpv5-sp-d16
 1969              	calibrateAccel:
 1970              	.LVL200:
 1971              	.LFB192:
 253:Core/drogui/src/ICM20948.c **** 
 254:Core/drogui/src/ICM20948.c **** 
 255:Core/drogui/src/ICM20948.c **** 
 256:Core/drogui/src/ICM20948.c **** 
 257:Core/drogui/src/ICM20948.c **** void calibrateAccel(icm20948* m){
 1972              		.loc 1 257 33 is_stmt 1 view -0
 1973              		.cfi_startproc
 1974              		@ args = 0, pretend = 0, frame = 136
 1975              		@ frame_needed = 0, uses_anonymous_args = 0
 1976              		.loc 1 257 33 is_stmt 0 view .LVU505
 1977 0000 2DE9F04F 		push	{r4, r5, r6, r7, r8, r9, r10, fp, lr}
 1978              	.LCFI34:
 1979              		.cfi_def_cfa_offset 36
 1980              		.cfi_offset 4, -36
 1981              		.cfi_offset 5, -32
 1982              		.cfi_offset 6, -28
 1983              		.cfi_offset 7, -24
 1984              		.cfi_offset 8, -20
 1985              		.cfi_offset 9, -16
 1986              		.cfi_offset 10, -12
 1987              		.cfi_offset 11, -8
 1988              		.cfi_offset 14, -4
 1989 0004 2DED048B 		vpush.64	{d8, d9}
 1990              	.LCFI35:
 1991              		.cfi_def_cfa_offset 52
ARM GAS  C:\Users\GUILLE~1\AppData\Local\Temp\ccpUd5Pj.s 			page 42


 1992              		.cfi_offset 80, -52
 1993              		.cfi_offset 81, -48
 1994              		.cfi_offset 82, -44
 1995              		.cfi_offset 83, -40
 1996 0008 A3B0     		sub	sp, sp, #140
 1997              	.LCFI36:
 1998              		.cfi_def_cfa_offset 192
 1999 000a 0646     		mov	r6, r0
 258:Core/drogui/src/ICM20948.c ****     
 259:Core/drogui/src/ICM20948.c ****     setReg(CAL_ACC,0);
 2000              		.loc 1 259 5 is_stmt 1 view .LVU506
 2001 000c 9FEDD40A 		vldr.32	s0, .L131+24
 2002 0010 0620     		movs	r0, #6
 2003              	.LVL201:
 2004              		.loc 1 259 5 is_stmt 0 view .LVU507
 2005 0012 FFF7FEFF 		bl	setReg
 2006              	.LVL202:
 260:Core/drogui/src/ICM20948.c **** 
 261:Core/drogui/src/ICM20948.c ****     int neq = 4, nval = 2;
 2007              		.loc 1 261 5 is_stmt 1 view .LVU508
 262:Core/drogui/src/ICM20948.c ****     int tot = neq + nval;
 2008              		.loc 1 262 5 view .LVU509
 263:Core/drogui/src/ICM20948.c **** 
 264:Core/drogui/src/ICM20948.c ****     float acc[tot][3], scale, aux;
 2009              		.loc 1 264 5 view .LVU510
 265:Core/drogui/src/ICM20948.c ****     for(int i = 0; i < tot; i++){
 2010              		.loc 1 265 5 view .LVU511
 2011              	.LBB3:
 2012              		.loc 1 265 9 view .LVU512
 2013              		.loc 1 265 13 is_stmt 0 view .LVU513
 2014 0016 0021     		movs	r1, #0
 2015              		.loc 1 265 5 view .LVU514
 2016 0018 0CE0     		b	.L98
 2017              	.LVL203:
 2018              	.L99:
 2019              	.LBB4:
 266:Core/drogui/src/ICM20948.c ****         for(int j = 0; j < 3; j++){
 267:Core/drogui/src/ICM20948.c ****             acc[i][j] = 0;
 2020              		.loc 1 267 13 is_stmt 1 discriminator 3 view .LVU515
 2021              		.loc 1 267 23 is_stmt 0 discriminator 3 view .LVU516
 2022 001a 01EB4103 		add	r3, r1, r1, lsl #1
 2023 001e 1344     		add	r3, r3, r2
 2024 0020 22A8     		add	r0, sp, #136
 2025 0022 00EB8303 		add	r3, r0, r3, lsl #2
 2026 0026 0020     		movs	r0, #0
 2027 0028 43F8780C 		str	r0, [r3, #-120]	@ float
 266:Core/drogui/src/ICM20948.c ****         for(int j = 0; j < 3; j++){
 2028              		.loc 1 266 31 is_stmt 1 discriminator 3 view .LVU517
 266:Core/drogui/src/ICM20948.c ****         for(int j = 0; j < 3; j++){
 2029              		.loc 1 266 32 is_stmt 0 discriminator 3 view .LVU518
 2030 002c 0132     		adds	r2, r2, #1
 2031              	.LVL204:
 2032              	.L100:
 266:Core/drogui/src/ICM20948.c ****         for(int j = 0; j < 3; j++){
 2033              		.loc 1 266 24 is_stmt 1 discriminator 1 view .LVU519
 266:Core/drogui/src/ICM20948.c ****         for(int j = 0; j < 3; j++){
 2034              		.loc 1 266 9 is_stmt 0 discriminator 1 view .LVU520
ARM GAS  C:\Users\GUILLE~1\AppData\Local\Temp\ccpUd5Pj.s 			page 43


 2035 002e 022A     		cmp	r2, #2
 2036 0030 F3DD     		ble	.L99
 2037              	.LBE4:
 265:Core/drogui/src/ICM20948.c ****     for(int i = 0; i < tot; i++){
 2038              		.loc 1 265 29 is_stmt 1 discriminator 2 view .LVU521
 265:Core/drogui/src/ICM20948.c ****     for(int i = 0; i < tot; i++){
 2039              		.loc 1 265 30 is_stmt 0 discriminator 2 view .LVU522
 2040 0032 0131     		adds	r1, r1, #1
 2041              	.LVL205:
 2042              	.L98:
 265:Core/drogui/src/ICM20948.c ****     for(int i = 0; i < tot; i++){
 2043              		.loc 1 265 20 is_stmt 1 discriminator 1 view .LVU523
 265:Core/drogui/src/ICM20948.c ****     for(int i = 0; i < tot; i++){
 2044              		.loc 1 265 5 is_stmt 0 discriminator 1 view .LVU524
 2045 0034 0529     		cmp	r1, #5
 2046 0036 01DC     		bgt	.L126
 2047              	.LBB5:
 266:Core/drogui/src/ICM20948.c ****         for(int j = 0; j < 3; j++){
 2048              		.loc 1 266 17 view .LVU525
 2049 0038 0022     		movs	r2, #0
 2050 003a F8E7     		b	.L100
 2051              	.L126:
 2052              	.LBE5:
 2053              	.LBE3:
 268:Core/drogui/src/ICM20948.c ****         }    
 269:Core/drogui/src/ICM20948.c ****     }
 270:Core/drogui/src/ICM20948.c **** 
 271:Core/drogui/src/ICM20948.c ****     mat A, b, ans;
 2054              		.loc 1 271 5 is_stmt 1 view .LVU526
 272:Core/drogui/src/ICM20948.c ****     matInit(&A,3,3);
 2055              		.loc 1 272 5 view .LVU527
 2056 003c 0322     		movs	r2, #3
 2057 003e 1146     		mov	r1, r2
 2058              	.LVL206:
 2059              		.loc 1 272 5 is_stmt 0 view .LVU528
 2060 0040 1EA8     		add	r0, sp, #120
 2061 0042 FFF7FEFF 		bl	matInit
 2062              	.LVL207:
 273:Core/drogui/src/ICM20948.c ****     matInit(&b,3,1);
 2063              		.loc 1 273 5 is_stmt 1 view .LVU529
 2064 0046 0122     		movs	r2, #1
 2065 0048 0321     		movs	r1, #3
 2066 004a 1AA8     		add	r0, sp, #104
 2067 004c FFF7FEFF 		bl	matInit
 2068              	.LVL208:
 274:Core/drogui/src/ICM20948.c ****     matInit(&ans,3,1);
 2069              		.loc 1 274 5 view .LVU530
 2070 0050 0122     		movs	r2, #1
 2071 0052 0321     		movs	r1, #3
 2072 0054 16A8     		add	r0, sp, #88
 2073 0056 FFF7FEFF 		bl	matInit
 2074              	.LVL209:
 275:Core/drogui/src/ICM20948.c **** 
 276:Core/drogui/src/ICM20948.c ****     int head = 0, cnt = 0;
 2075              		.loc 1 276 5 view .LVU531
 277:Core/drogui/src/ICM20948.c ****     bool done = false, valid;
 2076              		.loc 1 277 5 view .LVU532
ARM GAS  C:\Users\GUILLE~1\AppData\Local\Temp\ccpUd5Pj.s 			page 44


 278:Core/drogui/src/ICM20948.c ****     
 279:Core/drogui/src/ICM20948.c ****     while(!done){
 2077              		.loc 1 279 5 view .LVU533
 277:Core/drogui/src/ICM20948.c ****     bool done = false, valid;
 2078              		.loc 1 277 10 is_stmt 0 view .LVU534
 2079 005a 0023     		movs	r3, #0
 2080 005c 1F46     		mov	r7, r3
 2081 005e 0193     		str	r3, [sp, #4]
 276:Core/drogui/src/ICM20948.c ****     bool done = false, valid;
 2082              		.loc 1 276 19 view .LVU535
 2083 0060 9A46     		mov	r10, r3
 2084              		.loc 1 279 10 view .LVU536
 2085 0062 27E0     		b	.L101
 2086              	.LVL210:
 2087              	.L118:
 2088              	.LBB6:
 2089              	.LBB7:
 280:Core/drogui/src/ICM20948.c ****         while(!icmQuiet(m, 100, 2, false));
 281:Core/drogui/src/ICM20948.c ****         readRawAcc(m);
 282:Core/drogui/src/ICM20948.c ****         valid = true;
 283:Core/drogui/src/ICM20948.c ****         for(int i = 1 ; i <= cnt ; i++){
 284:Core/drogui/src/ICM20948.c ****             int j = (head - i + tot) % tot;
 285:Core/drogui/src/ICM20948.c ****             // Serial.println("icmQuiet ");
 286:Core/drogui/src/ICM20948.c ****             float d = dis3d(m->raw_ax, m->raw_ay, m->raw_az, acc[j][0],acc[j][1],acc[j][2]);
 287:Core/drogui/src/ICM20948.c ****             
 288:Core/drogui/src/ICM20948.c ****             //sprintf(buffcal, "%f\t%f\t%f\t%f\n", d, m->filt_ax, m->filt_ay, m->filt_az);
 289:Core/drogui/src/ICM20948.c ****             //HAL_UART_Transmit(&huart2, (uint8_t*) buffcal, strlen(buffcal), 100);
 290:Core/drogui/src/ICM20948.c **** 
 291:Core/drogui/src/ICM20948.c ****             if(d < 3000){
 292:Core/drogui/src/ICM20948.c ****                 valid = false; break;
 2090              		.loc 1 292 23 view .LVU537
 2091 0064 019D     		ldr	r5, [sp, #4]
 2092              	.LVL211:
 2093              	.L104:
 2094              		.loc 1 292 23 view .LVU538
 2095              	.LBE7:
 2096              	.LBE6:
 293:Core/drogui/src/ICM20948.c ****             } 
 294:Core/drogui/src/ICM20948.c ****         }
 295:Core/drogui/src/ICM20948.c **** 
 296:Core/drogui/src/ICM20948.c ****         if(valid){
 2097              		.loc 1 296 9 is_stmt 1 view .LVU539
 2098              		.loc 1 296 11 is_stmt 0 view .LVU540
 2099 0066 002D     		cmp	r5, #0
 2100 0068 5FD1     		bne	.L127
 2101              	.L106:
 297:Core/drogui/src/ICM20948.c ****             HAL_GPIO_TogglePin(LED1_GPIO_Port, LED1_Pin);
 298:Core/drogui/src/ICM20948.c ****             
 299:Core/drogui/src/ICM20948.c ****             acc[head][0] = m->raw_ax, acc[head][1] = m->raw_ay, acc[head][2] = m->raw_az;
 300:Core/drogui/src/ICM20948.c ****             head++, cnt++, head%= tot; 
 301:Core/drogui/src/ICM20948.c ****         }
 302:Core/drogui/src/ICM20948.c ****         setReg(CAL_ACC, 100*fmin(cnt,6)/7 );
 2102              		.loc 1 302 9 is_stmt 1 view .LVU541
 2103              		.loc 1 302 29 is_stmt 0 view .LVU542
 2104 006a 5046     		mov	r0, r10
 2105 006c FFF7FEFF 		bl	__aeabi_i2d
 2106              	.LVL212:
ARM GAS  C:\Users\GUILLE~1\AppData\Local\Temp\ccpUd5Pj.s 			page 45


 2107 0070 9FEDB51B 		vldr.64	d1, .L131
 2108 0074 41EC100B 		vmov	d0, r0, r1
 2109 0078 FFF7FEFF 		bl	fmin
 2110              	.LVL213:
 2111 007c 51EC100B 		vmov	r0, r1, d0
 2112              		.loc 1 302 28 view .LVU543
 2113 0080 0022     		movs	r2, #0
 2114 0082 B84B     		ldr	r3, .L131+28
 2115 0084 FFF7FEFF 		bl	__aeabi_dmul
 2116              	.LVL214:
 2117              		.loc 1 302 40 view .LVU544
 2118 0088 0022     		movs	r2, #0
 2119 008a B74B     		ldr	r3, .L131+32
 2120 008c FFF7FEFF 		bl	__aeabi_ddiv
 2121              	.LVL215:
 2122              		.loc 1 302 9 view .LVU545
 2123 0090 FFF7FEFF 		bl	__aeabi_d2f
 2124              	.LVL216:
 2125 0094 00EE100A 		vmov	s0, r0
 2126 0098 0620     		movs	r0, #6
 2127 009a FFF7FEFF 		bl	setReg
 2128              	.LVL217:
 303:Core/drogui/src/ICM20948.c **** 
 304:Core/drogui/src/ICM20948.c ****         if(cnt >= tot && valid){
 2129              		.loc 1 304 9 is_stmt 1 view .LVU546
 2130              		.loc 1 304 23 is_stmt 0 view .LVU547
 2131 009e BAF1050F 		cmp	r10, #5
 2132 00a2 D4BF     		ite	le
 2133 00a4 4FF00009 		movle	r9, #0
 2134 00a8 05F00109 		andgt	r9, r5, #1
 2135              		.loc 1 304 11 view .LVU548
 2136 00ac B9F1000F 		cmp	r9, #0
 2137 00b0 40F0A980 		bne	.L128
 2138              	.LVL218:
 2139              	.L101:
 279:Core/drogui/src/ICM20948.c ****         while(!icmQuiet(m, 100, 2, false));
 2140              		.loc 1 279 10 is_stmt 1 view .LVU549
 2141 00b4 019B     		ldr	r3, [sp, #4]
 2142 00b6 002B     		cmp	r3, #0
 2143 00b8 40F06081 		bne	.L129
 2144              	.L102:
 280:Core/drogui/src/ICM20948.c ****         readRawAcc(m);
 2145              		.loc 1 280 43 discriminator 1 view .LVU550
 280:Core/drogui/src/ICM20948.c ****         readRawAcc(m);
 2146              		.loc 1 280 14 discriminator 1 view .LVU551
 280:Core/drogui/src/ICM20948.c ****         readRawAcc(m);
 2147              		.loc 1 280 16 is_stmt 0 discriminator 1 view .LVU552
 2148 00bc 0022     		movs	r2, #0
 2149 00be B0EE000A 		vmov.f32	s0, #2.0e+0
 2150 00c2 6421     		movs	r1, #100
 2151 00c4 3046     		mov	r0, r6
 2152 00c6 FFF7FEFF 		bl	icmQuiet
 2153              	.LVL219:
 280:Core/drogui/src/ICM20948.c ****         readRawAcc(m);
 2154              		.loc 1 280 14 discriminator 1 view .LVU553
 2155 00ca 0546     		mov	r5, r0
 2156 00cc 0028     		cmp	r0, #0
ARM GAS  C:\Users\GUILLE~1\AppData\Local\Temp\ccpUd5Pj.s 			page 46


 2157 00ce F5D0     		beq	.L102
 281:Core/drogui/src/ICM20948.c ****         valid = true;
 2158              		.loc 1 281 9 is_stmt 1 view .LVU554
 2159 00d0 3046     		mov	r0, r6
 2160 00d2 FFF7FEFF 		bl	readRawAcc
 2161              	.LVL220:
 282:Core/drogui/src/ICM20948.c ****         for(int i = 1 ; i <= cnt ; i++){
 2162              		.loc 1 282 9 view .LVU555
 283:Core/drogui/src/ICM20948.c ****             int j = (head - i + tot) % tot;
 2163              		.loc 1 283 9 view .LVU556
 2164              	.LBB9:
 283:Core/drogui/src/ICM20948.c ****             int j = (head - i + tot) % tot;
 2165              		.loc 1 283 13 view .LVU557
 283:Core/drogui/src/ICM20948.c ****             int j = (head - i + tot) % tot;
 2166              		.loc 1 283 17 is_stmt 0 view .LVU558
 2167 00d6 0124     		movs	r4, #1
 2168              	.LVL221:
 2169              	.L103:
 283:Core/drogui/src/ICM20948.c ****             int j = (head - i + tot) % tot;
 2170              		.loc 1 283 25 is_stmt 1 discriminator 1 view .LVU559
 283:Core/drogui/src/ICM20948.c ****             int j = (head - i + tot) % tot;
 2171              		.loc 1 283 9 is_stmt 0 discriminator 1 view .LVU560
 2172 00d8 A245     		cmp	r10, r4
 2173 00da C4DB     		blt	.L104
 2174              	.LBB8:
 284:Core/drogui/src/ICM20948.c ****             // Serial.println("icmQuiet ");
 2175              		.loc 1 284 13 is_stmt 1 view .LVU561
 284:Core/drogui/src/ICM20948.c ****             // Serial.println("icmQuiet ");
 2176              		.loc 1 284 27 is_stmt 0 view .LVU562
 2177 00dc 3A1B     		subs	r2, r7, r4
 284:Core/drogui/src/ICM20948.c ****             // Serial.println("icmQuiet ");
 2178              		.loc 1 284 31 view .LVU563
 2179 00de 0632     		adds	r2, r2, #6
 284:Core/drogui/src/ICM20948.c ****             // Serial.println("icmQuiet ");
 2180              		.loc 1 284 17 view .LVU564
 2181 00e0 A24B     		ldr	r3, .L131+36
 2182 00e2 83FB0213 		smull	r1, r3, r3, r2
 2183 00e6 A3EBE273 		sub	r3, r3, r2, asr #31
 2184 00ea 03EB4303 		add	r3, r3, r3, lsl #1
 2185 00ee A2EB4303 		sub	r3, r2, r3, lsl #1
 2186              	.LVL222:
 286:Core/drogui/src/ICM20948.c ****             
 2187              		.loc 1 286 13 is_stmt 1 view .LVU565
 286:Core/drogui/src/ICM20948.c ****             
 2188              		.loc 1 286 23 is_stmt 0 view .LVU566
 2189 00f2 03EB4302 		add	r2, r3, r3, lsl #1
 2190 00f6 22A9     		add	r1, sp, #136
 2191 00f8 01EB8202 		add	r2, r1, r2, lsl #2
 2192 00fc 52ED1C2A 		vldr.32	s5, [r2, #-112]
 2193 0100 12ED1D2A 		vldr.32	s4, [r2, #-116]
 2194 0104 52ED1E1A 		vldr.32	s3, [r2, #-120]
 2195 0108 96ED0B1A 		vldr.32	s2, [r6, #44]
 2196 010c D6ED0A0A 		vldr.32	s1, [r6, #40]
 2197 0110 96ED090A 		vldr.32	s0, [r6, #36]
 2198 0114 FFF7FEFF 		bl	dis3d
 2199              	.LVL223:
 291:Core/drogui/src/ICM20948.c ****                 valid = false; break;
ARM GAS  C:\Users\GUILLE~1\AppData\Local\Temp\ccpUd5Pj.s 			page 47


 2200              		.loc 1 291 13 is_stmt 1 view .LVU567
 291:Core/drogui/src/ICM20948.c ****                 valid = false; break;
 2201              		.loc 1 291 15 is_stmt 0 view .LVU568
 2202 0118 DFED957A 		vldr.32	s15, .L131+40
 2203 011c B4EEE70A 		vcmpe.f32	s0, s15
 2204 0120 F1EE10FA 		vmrs	APSR_nzcv, FPSCR
 2205 0124 9ED4     		bmi	.L118
 2206              	.LBE8:
 283:Core/drogui/src/ICM20948.c ****             int j = (head - i + tot) % tot;
 2207              		.loc 1 283 36 is_stmt 1 discriminator 2 view .LVU569
 283:Core/drogui/src/ICM20948.c ****             int j = (head - i + tot) % tot;
 2208              		.loc 1 283 37 is_stmt 0 discriminator 2 view .LVU570
 2209 0126 0134     		adds	r4, r4, #1
 2210              	.LVL224:
 283:Core/drogui/src/ICM20948.c ****             int j = (head - i + tot) % tot;
 2211              		.loc 1 283 37 discriminator 2 view .LVU571
 2212 0128 D6E7     		b	.L103
 2213              	.LVL225:
 2214              	.L127:
 283:Core/drogui/src/ICM20948.c ****             int j = (head - i + tot) % tot;
 2215              		.loc 1 283 37 discriminator 2 view .LVU572
 2216              	.LBE9:
 297:Core/drogui/src/ICM20948.c ****             
 2217              		.loc 1 297 13 is_stmt 1 view .LVU573
 2218 012a 0421     		movs	r1, #4
 2219 012c 9148     		ldr	r0, .L131+44
 2220 012e FFF7FEFF 		bl	HAL_GPIO_TogglePin
 2221              	.LVL226:
 299:Core/drogui/src/ICM20948.c ****             head++, cnt++, head%= tot; 
 2222              		.loc 1 299 13 view .LVU574
 299:Core/drogui/src/ICM20948.c ****             head++, cnt++, head%= tot; 
 2223              		.loc 1 299 29 is_stmt 0 view .LVU575
 2224 0132 726A     		ldr	r2, [r6, #36]	@ float
 299:Core/drogui/src/ICM20948.c ****             head++, cnt++, head%= tot; 
 2225              		.loc 1 299 26 view .LVU576
 2226 0134 07EB4703 		add	r3, r7, r7, lsl #1
 2227 0138 22A9     		add	r1, sp, #136
 2228 013a 01EB8303 		add	r3, r1, r3, lsl #2
 2229 013e 43F8782C 		str	r2, [r3, #-120]	@ float
 299:Core/drogui/src/ICM20948.c ****             head++, cnt++, head%= tot; 
 2230              		.loc 1 299 55 view .LVU577
 2231 0142 B26A     		ldr	r2, [r6, #40]	@ float
 299:Core/drogui/src/ICM20948.c ****             head++, cnt++, head%= tot; 
 2232              		.loc 1 299 52 view .LVU578
 2233 0144 43F8742C 		str	r2, [r3, #-116]	@ float
 299:Core/drogui/src/ICM20948.c ****             head++, cnt++, head%= tot; 
 2234              		.loc 1 299 81 view .LVU579
 2235 0148 F26A     		ldr	r2, [r6, #44]	@ float
 299:Core/drogui/src/ICM20948.c ****             head++, cnt++, head%= tot; 
 2236              		.loc 1 299 78 view .LVU580
 2237 014a 43F8702C 		str	r2, [r3, #-112]	@ float
 300:Core/drogui/src/ICM20948.c ****         }
 2238              		.loc 1 300 13 is_stmt 1 view .LVU581
 300:Core/drogui/src/ICM20948.c ****         }
 2239              		.loc 1 300 17 is_stmt 0 view .LVU582
 2240 014e 7B1C     		adds	r3, r7, #1
 2241              	.LVL227:
ARM GAS  C:\Users\GUILLE~1\AppData\Local\Temp\ccpUd5Pj.s 			page 48


 300:Core/drogui/src/ICM20948.c ****         }
 2242              		.loc 1 300 24 view .LVU583
 2243 0150 0AF1010A 		add	r10, r10, #1
 2244              	.LVL228:
 300:Core/drogui/src/ICM20948.c ****         }
 2245              		.loc 1 300 32 view .LVU584
 2246 0154 854F     		ldr	r7, .L131+36
 2247 0156 87FB0327 		smull	r2, r7, r7, r3
 2248 015a A7EBE377 		sub	r7, r7, r3, asr #31
 2249 015e 07EB4707 		add	r7, r7, r7, lsl #1
 2250 0162 A3EB4707 		sub	r7, r3, r7, lsl #1
 2251              	.LVL229:
 300:Core/drogui/src/ICM20948.c ****         }
 2252              		.loc 1 300 32 view .LVU585
 2253 0166 80E7     		b	.L106
 2254              	.LVL230:
 2255              	.L109:
 2256              	.LBB10:
 2257              	.LBB11:
 305:Core/drogui/src/ICM20948.c **** 
 306:Core/drogui/src/ICM20948.c ****             for(int i = 1 ; i <= neq-1; i++){
 307:Core/drogui/src/ICM20948.c ****                 aux = 0;
 308:Core/drogui/src/ICM20948.c ****                 for(int j = 0; j < 3; j++){
 309:Core/drogui/src/ICM20948.c ****                     setMatVal(&A, i-1, j, 2*(acc[(head + i-1)%6][j] - acc[(head + i)%6][j]));
 2258              		.loc 1 309 21 is_stmt 1 discriminator 3 view .LVU586
 2259              		.loc 1 309 56 is_stmt 0 discriminator 3 view .LVU587
 2260 0168 07EB0B02 		add	r2, r7, fp
 2261              		.loc 1 309 59 discriminator 3 view .LVU588
 2262 016c 511E     		subs	r1, r2, #1
 2263              		.loc 1 309 62 discriminator 3 view .LVU589
 2264 016e 7F4B     		ldr	r3, .L131+36
 2265 0170 83FB0104 		smull	r0, r4, r3, r1
 2266 0174 A4EBE174 		sub	r4, r4, r1, asr #31
 2267 0178 04EB4404 		add	r4, r4, r4, lsl #1
 2268 017c A1EB4404 		sub	r4, r1, r4, lsl #1
 2269              		.loc 1 309 65 discriminator 3 view .LVU590
 2270 0180 04EB4404 		add	r4, r4, r4, lsl #1
 2271 0184 2C44     		add	r4, r4, r5
 2272 0186 22A9     		add	r1, sp, #136
 2273 0188 01EB8404 		add	r4, r1, r4, lsl #2
 2274 018c 14ED1E0A 		vldr.32	s0, [r4, #-120]
 2275              		.loc 1 309 85 discriminator 3 view .LVU591
 2276 0190 83FB0213 		smull	r1, r3, r3, r2
 2277 0194 A3EBE273 		sub	r3, r3, r2, asr #31
 2278 0198 03EB4303 		add	r3, r3, r3, lsl #1
 2279 019c A2EB4303 		sub	r3, r2, r3, lsl #1
 2280              		.loc 1 309 88 discriminator 3 view .LVU592
 2281 01a0 03EB4303 		add	r3, r3, r3, lsl #1
 2282 01a4 03EB0508 		add	r8, r3, r5
 2283 01a8 22AB     		add	r3, sp, #136
 2284 01aa 03EB8808 		add	r8, r3, r8, lsl #2
 2285 01ae 58ED1E7A 		vldr.32	s15, [r8, #-120]
 2286              		.loc 1 309 69 discriminator 3 view .LVU593
 2287 01b2 30EE670A 		vsub.f32	s0, s0, s15
 2288              		.loc 1 309 21 discriminator 3 view .LVU594
 2289 01b6 30EE000A 		vadd.f32	s0, s0, s0
 2290 01ba 2A46     		mov	r2, r5
ARM GAS  C:\Users\GUILLE~1\AppData\Local\Temp\ccpUd5Pj.s 			page 49


 2291 01bc 0BF1FF31 		add	r1, fp, #-1
 2292 01c0 1EA8     		add	r0, sp, #120
 2293 01c2 FFF7FEFF 		bl	setMatVal
 2294              	.LVL231:
 310:Core/drogui/src/ICM20948.c ****                     //x2*x2-x1*x1+y2*y2-y1*y1+z2*z2-z1*z1 = 2*c1*(x1-x2)+2*c2*(y1-y2)+2*c3*(z1-z2)
 311:Core/drogui/src/ICM20948.c ****                     aux += acc[(head + i)%6][j]*acc[(head + i)%6][j] - acc[(head + i-1)%6][j]*acc[(
 2295              		.loc 1 311 21 is_stmt 1 discriminator 3 view .LVU595
 2296              		.loc 1 311 45 is_stmt 0 discriminator 3 view .LVU596
 2297 01c6 58ED1E7A 		vldr.32	s15, [r8, #-120]
 2298              		.loc 1 311 48 discriminator 3 view .LVU597
 2299 01ca 67EEA77A 		vmul.f32	s15, s15, s15
 2300              		.loc 1 311 91 discriminator 3 view .LVU598
 2301 01ce 14ED1E7A 		vldr.32	s14, [r4, #-120]
 2302              		.loc 1 311 94 discriminator 3 view .LVU599
 2303 01d2 27EE077A 		vmul.f32	s14, s14, s14
 2304              		.loc 1 311 70 discriminator 3 view .LVU600
 2305 01d6 77EEC77A 		vsub.f32	s15, s15, s14
 2306              		.loc 1 311 25 discriminator 3 view .LVU601
 2307 01da 38EE278A 		vadd.f32	s16, s16, s15
 2308              	.LVL232:
 308:Core/drogui/src/ICM20948.c ****                     setMatVal(&A, i-1, j, 2*(acc[(head + i-1)%6][j] - acc[(head + i)%6][j]));
 2309              		.loc 1 308 39 is_stmt 1 discriminator 3 view .LVU602
 308:Core/drogui/src/ICM20948.c ****                     setMatVal(&A, i-1, j, 2*(acc[(head + i-1)%6][j] - acc[(head + i)%6][j]));
 2310              		.loc 1 308 40 is_stmt 0 discriminator 3 view .LVU603
 2311 01de 0135     		adds	r5, r5, #1
 2312              	.LVL233:
 2313              	.L110:
 308:Core/drogui/src/ICM20948.c ****                     setMatVal(&A, i-1, j, 2*(acc[(head + i-1)%6][j] - acc[(head + i)%6][j]));
 2314              		.loc 1 308 32 is_stmt 1 discriminator 1 view .LVU604
 308:Core/drogui/src/ICM20948.c ****                     setMatVal(&A, i-1, j, 2*(acc[(head + i-1)%6][j] - acc[(head + i)%6][j]));
 2315              		.loc 1 308 17 is_stmt 0 discriminator 1 view .LVU605
 2316 01e0 022D     		cmp	r5, #2
 2317 01e2 C1DD     		ble	.L109
 2318              	.LBE11:
 312:Core/drogui/src/ICM20948.c ****                 }
 313:Core/drogui/src/ICM20948.c ****                 setMatVal(&b, i-1, 0, aux);
 2319              		.loc 1 313 17 is_stmt 1 discriminator 2 view .LVU606
 2320 01e4 B0EE480A 		vmov.f32	s0, s16
 2321 01e8 0022     		movs	r2, #0
 2322 01ea 0BF1FF31 		add	r1, fp, #-1
 2323 01ee 1AA8     		add	r0, sp, #104
 2324 01f0 FFF7FEFF 		bl	setMatVal
 2325              	.LVL234:
 306:Core/drogui/src/ICM20948.c ****                 aux = 0;
 2326              		.loc 1 306 41 discriminator 2 view .LVU607
 306:Core/drogui/src/ICM20948.c ****                 aux = 0;
 2327              		.loc 1 306 42 is_stmt 0 discriminator 2 view .LVU608
 2328 01f4 0BF1010B 		add	fp, fp, #1
 2329              	.LVL235:
 2330              	.L107:
 306:Core/drogui/src/ICM20948.c ****                 aux = 0;
 2331              		.loc 1 306 29 is_stmt 1 discriminator 1 view .LVU609
 306:Core/drogui/src/ICM20948.c ****                 aux = 0;
 2332              		.loc 1 306 13 is_stmt 0 discriminator 1 view .LVU610
 2333 01f8 BBF1030F 		cmp	fp, #3
 2334 01fc 06DC     		bgt	.L130
 2335              	.LBB12:
ARM GAS  C:\Users\GUILLE~1\AppData\Local\Temp\ccpUd5Pj.s 			page 50


 308:Core/drogui/src/ICM20948.c ****                     setMatVal(&A, i-1, j, 2*(acc[(head + i-1)%6][j] - acc[(head + i)%6][j]));
 2336              		.loc 1 308 25 view .LVU611
 2337 01fe 0025     		movs	r5, #0
 2338              	.LBE12:
 307:Core/drogui/src/ICM20948.c ****                 for(int j = 0; j < 3; j++){
 2339              		.loc 1 307 21 view .LVU612
 2340 0200 9FED578A 		vldr.32	s16, .L131+24
 2341 0204 ECE7     		b	.L110
 2342              	.LVL236:
 2343              	.L128:
 306:Core/drogui/src/ICM20948.c ****                 aux = 0;
 2344              		.loc 1 306 21 view .LVU613
 2345 0206 4FF0010B 		mov	fp, #1
 2346 020a F5E7     		b	.L107
 2347              	.LVL237:
 2348              	.L130:
 306:Core/drogui/src/ICM20948.c ****                 aux = 0;
 2349              		.loc 1 306 21 view .LVU614
 2350              	.LBE10:
 314:Core/drogui/src/ICM20948.c ****             }
 315:Core/drogui/src/ICM20948.c **** 
 316:Core/drogui/src/ICM20948.c ****             gaussElimination3x3(&A, &b, &ans);
 2351              		.loc 1 316 13 is_stmt 1 view .LVU615
 2352 020c 16AA     		add	r2, sp, #88
 2353 020e 1AA9     		add	r1, sp, #104
 2354 0210 1EA8     		add	r0, sp, #120
 2355 0212 FFF7FEFF 		bl	gaussElimination3x3
 2356              	.LVL238:
 317:Core/drogui/src/ICM20948.c ****             aux = 0;
 2357              		.loc 1 317 13 view .LVU616
 318:Core/drogui/src/ICM20948.c ****             for(int i = 0; i < 3; i++){
 2358              		.loc 1 318 13 view .LVU617
 2359              	.LBB13:
 2360              		.loc 1 318 17 view .LVU618
 2361              		.loc 1 318 21 is_stmt 0 view .LVU619
 2362 0216 0025     		movs	r5, #0
 2363              	.LBE13:
 317:Core/drogui/src/ICM20948.c ****             aux = 0;
 2364              		.loc 1 317 17 view .LVU620
 2365 0218 9FED519A 		vldr.32	s18, .L131+24
 2366              	.LBB14:
 2367              		.loc 1 318 13 view .LVU621
 2368 021c 1CE0     		b	.L111
 2369              	.LVL239:
 2370              	.L112:
 319:Core/drogui/src/ICM20948.c ****                 aux += (acc[head][i] + getMatVal(&ans, i, 0))*(acc[head][i] + getMatVal(&ans, i, 0)
 2371              		.loc 1 319 17 is_stmt 1 discriminator 3 view .LVU622
 2372              		.loc 1 319 34 is_stmt 0 discriminator 3 view .LVU623
 2373 021e 07EB4704 		add	r4, r7, r7, lsl #1
 2374 0222 2C44     		add	r4, r4, r5
 2375 0224 22AB     		add	r3, sp, #136
 2376 0226 03EB8404 		add	r4, r3, r4, lsl #2
 2377 022a 14ED1E8A 		vldr.32	s16, [r4, #-120]
 2378              		.loc 1 319 40 discriminator 3 view .LVU624
 2379 022e 0022     		movs	r2, #0
 2380 0230 2946     		mov	r1, r5
 2381 0232 16A8     		add	r0, sp, #88
ARM GAS  C:\Users\GUILLE~1\AppData\Local\Temp\ccpUd5Pj.s 			page 51


 2382 0234 FFF7FEFF 		bl	getMatVal
 2383              	.LVL240:
 2384              		.loc 1 319 38 discriminator 3 view .LVU625
 2385 0238 38EE008A 		vadd.f32	s16, s16, s0
 2386              		.loc 1 319 73 discriminator 3 view .LVU626
 2387 023c 54ED1E8A 		vldr.32	s17, [r4, #-120]
 2388              		.loc 1 319 79 discriminator 3 view .LVU627
 2389 0240 0022     		movs	r2, #0
 2390 0242 2946     		mov	r1, r5
 2391 0244 16A8     		add	r0, sp, #88
 2392 0246 FFF7FEFF 		bl	getMatVal
 2393              	.LVL241:
 2394              		.loc 1 319 77 discriminator 3 view .LVU628
 2395 024a 78EE808A 		vadd.f32	s17, s17, s0
 2396              		.loc 1 319 62 discriminator 3 view .LVU629
 2397 024e 28EE288A 		vmul.f32	s16, s16, s17
 2398              		.loc 1 319 21 discriminator 3 view .LVU630
 2399 0252 39EE089A 		vadd.f32	s18, s18, s16
 2400              	.LVL242:
 318:Core/drogui/src/ICM20948.c ****             for(int i = 0; i < 3; i++){
 2401              		.loc 1 318 35 is_stmt 1 discriminator 3 view .LVU631
 318:Core/drogui/src/ICM20948.c ****             for(int i = 0; i < 3; i++){
 2402              		.loc 1 318 36 is_stmt 0 discriminator 3 view .LVU632
 2403 0256 0135     		adds	r5, r5, #1
 2404              	.LVL243:
 2405              	.L111:
 318:Core/drogui/src/ICM20948.c ****             for(int i = 0; i < 3; i++){
 2406              		.loc 1 318 28 is_stmt 1 discriminator 1 view .LVU633
 318:Core/drogui/src/ICM20948.c ****             for(int i = 0; i < 3; i++){
 2407              		.loc 1 318 13 is_stmt 0 discriminator 1 view .LVU634
 2408 0258 022D     		cmp	r5, #2
 2409 025a E0DD     		ble	.L112
 2410              	.LBE14:
 320:Core/drogui/src/ICM20948.c ****             }
 321:Core/drogui/src/ICM20948.c ****             scale = sqrt(aux/G/G);
 2411              		.loc 1 321 13 is_stmt 1 view .LVU635
 2412              		.loc 1 321 29 is_stmt 0 view .LVU636
 2413 025c 19EE100A 		vmov	r0, s18
 2414 0260 FFF7FEFF 		bl	__aeabi_f2d
 2415              	.LVL244:
 2416 0264 3AA3     		adr	r3, .L131+8
 2417 0266 D3E90023 		ldrd	r2, [r3]
 2418 026a FFF7FEFF 		bl	__aeabi_ddiv
 2419              	.LVL245:
 2420              		.loc 1 321 21 view .LVU637
 2421 026e 38A3     		adr	r3, .L131+8
 2422 0270 D3E90023 		ldrd	r2, [r3]
 2423 0274 FFF7FEFF 		bl	__aeabi_ddiv
 2424              	.LVL246:
 2425 0278 41EC100B 		vmov	d0, r0, r1
 2426 027c FFF7FEFF 		bl	sqrt
 2427              	.LVL247:
 2428 0280 51EC100B 		vmov	r0, r1, d0
 2429              		.loc 1 321 19 view .LVU638
 2430 0284 FFF7FEFF 		bl	__aeabi_d2f
 2431              	.LVL248:
 2432 0288 09EE900A 		vmov	s19, r0
ARM GAS  C:\Users\GUILLE~1\AppData\Local\Temp\ccpUd5Pj.s 			page 52


 2433              	.LVL249:
 322:Core/drogui/src/ICM20948.c **** 
 323:Core/drogui/src/ICM20948.c ****             valid = true;
 2434              		.loc 1 323 13 is_stmt 1 view .LVU639
 324:Core/drogui/src/ICM20948.c ****             for(int i = neq ; i <= tot-1; i++){
 2435              		.loc 1 324 13 view .LVU640
 2436              	.LBB15:
 2437              		.loc 1 324 17 view .LVU641
 2438              		.loc 1 324 21 is_stmt 0 view .LVU642
 2439 028c 0425     		movs	r5, #4
 2440              	.LVL250:
 2441              		.loc 1 324 13 view .LVU643
 2442 028e 4BE0     		b	.L113
 2443              	.LVL251:
 2444              	.L114:
 2445              	.LBB16:
 325:Core/drogui/src/ICM20948.c ****                 aux = 0;
 326:Core/drogui/src/ICM20948.c ****                 for(int j= 0; j < 3; j++){
 327:Core/drogui/src/ICM20948.c ****                     aux += (acc[(head+i)%tot][j] + getMatVal(&ans, j, 0))*(acc[(head+i)%tot][j] + g
 2446              		.loc 1 327 21 is_stmt 1 discriminator 3 view .LVU644
 2447              		.loc 1 327 38 is_stmt 0 discriminator 3 view .LVU645
 2448 0290 7A19     		adds	r2, r7, r5
 2449              		.loc 1 327 41 discriminator 3 view .LVU646
 2450 0292 364B     		ldr	r3, .L131+36
 2451 0294 83FB0213 		smull	r1, r3, r3, r2
 2452 0298 A3EBE273 		sub	r3, r3, r2, asr #31
 2453 029c 03EB4303 		add	r3, r3, r3, lsl #1
 2454 02a0 A2EB4303 		sub	r3, r2, r3, lsl #1
 2455              		.loc 1 327 46 discriminator 3 view .LVU647
 2456 02a4 03EB4303 		add	r3, r3, r3, lsl #1
 2457 02a8 03EB0804 		add	r4, r3, r8
 2458 02ac 22AB     		add	r3, sp, #136
 2459 02ae 03EB8404 		add	r4, r3, r4, lsl #2
 2460 02b2 14ED1E8A 		vldr.32	s16, [r4, #-120]
 2461              		.loc 1 327 52 discriminator 3 view .LVU648
 2462 02b6 0022     		movs	r2, #0
 2463 02b8 4146     		mov	r1, r8
 2464 02ba 16A8     		add	r0, sp, #88
 2465 02bc FFF7FEFF 		bl	getMatVal
 2466              	.LVL252:
 2467              		.loc 1 327 50 discriminator 3 view .LVU649
 2468 02c0 38EE008A 		vadd.f32	s16, s16, s0
 2469              		.loc 1 327 93 discriminator 3 view .LVU650
 2470 02c4 54ED1E8A 		vldr.32	s17, [r4, #-120]
 2471              		.loc 1 327 99 discriminator 3 view .LVU651
 2472 02c8 0022     		movs	r2, #0
 2473 02ca 4146     		mov	r1, r8
 2474 02cc 16A8     		add	r0, sp, #88
 2475 02ce FFF7FEFF 		bl	getMatVal
 2476              	.LVL253:
 2477              		.loc 1 327 97 discriminator 3 view .LVU652
 2478 02d2 78EE808A 		vadd.f32	s17, s17, s0
 2479              		.loc 1 327 74 discriminator 3 view .LVU653
 2480 02d6 28EE288A 		vmul.f32	s16, s16, s17
 2481              		.loc 1 327 25 discriminator 3 view .LVU654
 2482 02da 39EE089A 		vadd.f32	s18, s18, s16
 2483              	.LVL254:
ARM GAS  C:\Users\GUILLE~1\AppData\Local\Temp\ccpUd5Pj.s 			page 53


 326:Core/drogui/src/ICM20948.c ****                     aux += (acc[(head+i)%tot][j] + getMatVal(&ans, j, 0))*(acc[(head+i)%tot][j] + g
 2484              		.loc 1 326 38 is_stmt 1 discriminator 3 view .LVU655
 326:Core/drogui/src/ICM20948.c ****                     aux += (acc[(head+i)%tot][j] + getMatVal(&ans, j, 0))*(acc[(head+i)%tot][j] + g
 2485              		.loc 1 326 39 is_stmt 0 discriminator 3 view .LVU656
 2486 02de 08F10108 		add	r8, r8, #1
 2487              	.LVL255:
 2488              	.L116:
 326:Core/drogui/src/ICM20948.c ****                     aux += (acc[(head+i)%tot][j] + getMatVal(&ans, j, 0))*(acc[(head+i)%tot][j] + g
 2489              		.loc 1 326 31 is_stmt 1 discriminator 1 view .LVU657
 326:Core/drogui/src/ICM20948.c ****                     aux += (acc[(head+i)%tot][j] + getMatVal(&ans, j, 0))*(acc[(head+i)%tot][j] + g
 2490              		.loc 1 326 17 is_stmt 0 discriminator 1 view .LVU658
 2491 02e2 B8F1020F 		cmp	r8, #2
 2492 02e6 D3DD     		ble	.L114
 2493              	.LBE16:
 328:Core/drogui/src/ICM20948.c ****                 }
 329:Core/drogui/src/ICM20948.c ****                 if(fabs(sqrt(aux/scale/scale) - G) > 0.3){
 2494              		.loc 1 329 17 is_stmt 1 view .LVU659
 2495              		.loc 1 329 33 is_stmt 0 view .LVU660
 2496 02e8 C9EE297A 		vdiv.f32	s15, s18, s19
 2497              		.loc 1 329 25 view .LVU661
 2498 02ec C7EEA97A 		vdiv.f32	s15, s15, s19
 2499 02f0 17EE900A 		vmov	r0, s15
 2500 02f4 FFF7FEFF 		bl	__aeabi_f2d
 2501              	.LVL256:
 2502 02f8 41EC100B 		vmov	d0, r0, r1
 2503 02fc FFF7FEFF 		bl	sqrt
 2504              	.LVL257:
 2505 0300 51EC100B 		vmov	r0, r1, d0
 2506              		.loc 1 329 47 view .LVU662
 2507 0304 12A3     		adr	r3, .L131+8
 2508 0306 D3E90023 		ldrd	r2, [r3]
 2509 030a FFF7FEFF 		bl	__aeabi_dsub
 2510              	.LVL258:
 2511              		.loc 1 329 20 view .LVU663
 2512 030e 0290     		str	r0, [sp, #8]
 2513 0310 21F00043 		bic	r3, r1, #-2147483648
 2514 0314 0393     		str	r3, [sp, #12]
 2515              		.loc 1 329 19 view .LVU664
 2516 0316 10A3     		adr	r3, .L131+16
 2517 0318 D3E90023 		ldrd	r2, [r3]
 2518 031c DDE90201 		ldrd	r0, [sp, #8]
 2519 0320 FFF7FEFF 		bl	__aeabi_dcmpgt
 2520              	.LVL259:
 2521 0324 38B9     		cbnz	r0, .L121
 324:Core/drogui/src/ICM20948.c ****                 aux = 0;
 2522              		.loc 1 324 43 is_stmt 1 discriminator 2 view .LVU665
 324:Core/drogui/src/ICM20948.c ****                 aux = 0;
 2523              		.loc 1 324 44 is_stmt 0 discriminator 2 view .LVU666
 2524 0326 0135     		adds	r5, r5, #1
 2525              	.LVL260:
 2526              	.L113:
 324:Core/drogui/src/ICM20948.c ****                 aux = 0;
 2527              		.loc 1 324 31 is_stmt 1 discriminator 1 view .LVU667
 324:Core/drogui/src/ICM20948.c ****                 aux = 0;
 2528              		.loc 1 324 13 is_stmt 0 discriminator 1 view .LVU668
 2529 0328 052D     		cmp	r5, #5
 2530 032a 06DC     		bgt	.L115
ARM GAS  C:\Users\GUILLE~1\AppData\Local\Temp\ccpUd5Pj.s 			page 54


 2531              	.LBB17:
 326:Core/drogui/src/ICM20948.c ****                     aux += (acc[(head+i)%tot][j] + getMatVal(&ans, j, 0))*(acc[(head+i)%tot][j] + g
 2532              		.loc 1 326 25 view .LVU669
 2533 032c 4FF00008 		mov	r8, #0
 2534              	.LBE17:
 325:Core/drogui/src/ICM20948.c ****                 for(int j= 0; j < 3; j++){
 2535              		.loc 1 325 21 view .LVU670
 2536 0330 9FED0B9A 		vldr.32	s18, .L131+24
 2537              	.LVL261:
 325:Core/drogui/src/ICM20948.c ****                 for(int j= 0; j < 3; j++){
 2538              		.loc 1 325 21 view .LVU671
 2539 0334 D5E7     		b	.L116
 2540              	.LVL262:
 2541              	.L121:
 330:Core/drogui/src/ICM20948.c ****                     //Serial.println(sqrt(aux/scale/scale));
 331:Core/drogui/src/ICM20948.c ****                     valid = false;
 2542              		.loc 1 331 27 view .LVU672
 2543 0336 DDF80490 		ldr	r9, [sp, #4]
 2544              	.LVL263:
 2545              	.L115:
 2546              		.loc 1 331 27 view .LVU673
 2547              	.LBE15:
 332:Core/drogui/src/ICM20948.c ****                     break;
 333:Core/drogui/src/ICM20948.c ****                 }
 334:Core/drogui/src/ICM20948.c ****             }
 335:Core/drogui/src/ICM20948.c ****             if(valid) done = true;
 2548              		.loc 1 335 13 is_stmt 1 view .LVU674
 2549              		.loc 1 335 15 is_stmt 0 view .LVU675
 2550 033a B9F1000F 		cmp	r9, #0
 2551 033e 3FF4B9AE 		beq	.L101
 2552              		.loc 1 335 28 view .LVU676
 2553 0342 CDF80490 		str	r9, [sp, #4]
 2554              	.LVL264:
 2555              		.loc 1 335 28 view .LVU677
 2556 0346 B5E6     		b	.L101
 2557              	.L132:
 2558              		.align	3
 2559              	.L131:
 2560 0348 00000000 		.word	0
 2561 034c 00001840 		.word	1075314688
 2562 0350 1F85EB51 		.word	1374389535
 2563 0354 B89E2340 		.word	1076076216
 2564 0358 33333333 		.word	858993459
 2565 035c 3333D33F 		.word	1070805811
 2566 0360 00000000 		.word	0
 2567 0364 00005940 		.word	1079574528
 2568 0368 00001C40 		.word	1075576832
 2569 036c ABAAAA2A 		.word	715827883
 2570 0370 00803B45 		.word	1161527296
 2571 0374 00100240 		.word	1073876992
 2572 0378 0000C842 		.word	1120403456
 2573              	.LVL265:
 2574              	.L129:
 336:Core/drogui/src/ICM20948.c **** 
 337:Core/drogui/src/ICM20948.c ****         }
 338:Core/drogui/src/ICM20948.c ****     }
 339:Core/drogui/src/ICM20948.c **** 
ARM GAS  C:\Users\GUILLE~1\AppData\Local\Temp\ccpUd5Pj.s 			page 55


 340:Core/drogui/src/ICM20948.c ****     m -> off_ax = getMatVal(&ans, 0, 0);
 2575              		.loc 1 340 5 is_stmt 1 view .LVU678
 2576              		.loc 1 340 19 is_stmt 0 view .LVU679
 2577 037c 0022     		movs	r2, #0
 2578 037e 1146     		mov	r1, r2
 2579 0380 16A8     		add	r0, sp, #88
 2580 0382 FFF7FEFF 		bl	getMatVal
 2581              	.LVL266:
 2582              		.loc 1 340 17 view .LVU680
 2583 0386 86ED180A 		vstr.32	s0, [r6, #96]
 341:Core/drogui/src/ICM20948.c ****     m -> off_ay = getMatVal(&ans, 1, 0);
 2584              		.loc 1 341 5 is_stmt 1 view .LVU681
 2585              		.loc 1 341 19 is_stmt 0 view .LVU682
 2586 038a 0022     		movs	r2, #0
 2587 038c 0121     		movs	r1, #1
 2588 038e 16A8     		add	r0, sp, #88
 2589 0390 FFF7FEFF 		bl	getMatVal
 2590              	.LVL267:
 2591              		.loc 1 341 17 view .LVU683
 2592 0394 86ED190A 		vstr.32	s0, [r6, #100]
 342:Core/drogui/src/ICM20948.c ****     m -> off_az = getMatVal(&ans, 2, 0);
 2593              		.loc 1 342 5 is_stmt 1 view .LVU684
 2594              		.loc 1 342 19 is_stmt 0 view .LVU685
 2595 0398 0022     		movs	r2, #0
 2596 039a 0221     		movs	r1, #2
 2597 039c 16A8     		add	r0, sp, #88
 2598 039e FFF7FEFF 		bl	getMatVal
 2599              	.LVL268:
 2600              		.loc 1 342 17 view .LVU686
 2601 03a2 86ED1A0A 		vstr.32	s0, [r6, #104]
 343:Core/drogui/src/ICM20948.c ****     m -> scl_acc = scale;
 2602              		.loc 1 343 5 is_stmt 1 view .LVU687
 2603              		.loc 1 343 18 is_stmt 0 view .LVU688
 2604 03a6 C6ED1B9A 		vstr.32	s19, [r6, #108]
 344:Core/drogui/src/ICM20948.c **** 
 345:Core/drogui/src/ICM20948.c ****     setReg(CAL_ACC, 100);
 2605              		.loc 1 345 5 is_stmt 1 view .LVU689
 2606 03aa 1FED0D0A 		vldr.32	s0, .L131+48
 2607 03ae 0620     		movs	r0, #6
 2608 03b0 FFF7FEFF 		bl	setReg
 2609              	.LVL269:
 346:Core/drogui/src/ICM20948.c ****     setReg(ACC_X_OFF, m->off_ax );    
 2610              		.loc 1 346 5 view .LVU690
 2611 03b4 96ED180A 		vldr.32	s0, [r6, #96]
 2612 03b8 1C20     		movs	r0, #28
 2613 03ba FFF7FEFF 		bl	setReg
 2614              	.LVL270:
 347:Core/drogui/src/ICM20948.c ****     setReg(ACC_Y_OFF, m->off_ay );
 2615              		.loc 1 347 5 view .LVU691
 2616 03be 96ED190A 		vldr.32	s0, [r6, #100]
 2617 03c2 1E20     		movs	r0, #30
 2618 03c4 FFF7FEFF 		bl	setReg
 2619              	.LVL271:
 348:Core/drogui/src/ICM20948.c ****     setReg(ACC_Z_OFF, m->off_az );
 2620              		.loc 1 348 5 view .LVU692
 2621 03c8 96ED1A0A 		vldr.32	s0, [r6, #104]
 2622 03cc 2020     		movs	r0, #32
ARM GAS  C:\Users\GUILLE~1\AppData\Local\Temp\ccpUd5Pj.s 			page 56


 2623 03ce FFF7FEFF 		bl	setReg
 2624              	.LVL272:
 349:Core/drogui/src/ICM20948.c ****     setReg(ACC_SCALE, m->scl_acc);  
 2625              		.loc 1 349 5 view .LVU693
 2626 03d2 96ED1B0A 		vldr.32	s0, [r6, #108]
 2627 03d6 2220     		movs	r0, #34
 2628 03d8 FFF7FEFF 		bl	setReg
 2629              	.LVL273:
 350:Core/drogui/src/ICM20948.c **** /*
 351:Core/drogui/src/ICM20948.c ****     char buff[50];
 352:Core/drogui/src/ICM20948.c **** 
 353:Core/drogui/src/ICM20948.c ****     sprintf(buff, "%f %f %f %f\n", m->off_ax, m->off_ay, m->off_az, m->scl_acc);
 354:Core/drogui/src/ICM20948.c ****     HAL_UART_Transmit(&huart1, (uint8_t *)buff, strlen(buff), 100);*/
 355:Core/drogui/src/ICM20948.c **** 
 356:Core/drogui/src/ICM20948.c ****     matDestruct(&A);
 2630              		.loc 1 356 5 view .LVU694
 2631 03dc 1EA8     		add	r0, sp, #120
 2632 03de FFF7FEFF 		bl	matDestruct
 2633              	.LVL274:
 357:Core/drogui/src/ICM20948.c ****     matDestruct(&b);
 2634              		.loc 1 357 5 view .LVU695
 2635 03e2 1AA8     		add	r0, sp, #104
 2636 03e4 FFF7FEFF 		bl	matDestruct
 2637              	.LVL275:
 358:Core/drogui/src/ICM20948.c ****     matDestruct(&ans);
 2638              		.loc 1 358 5 view .LVU696
 2639 03e8 16A8     		add	r0, sp, #88
 2640 03ea FFF7FEFF 		bl	matDestruct
 2641              	.LVL276:
 359:Core/drogui/src/ICM20948.c **** }
 2642              		.loc 1 359 1 is_stmt 0 view .LVU697
 2643 03ee 23B0     		add	sp, sp, #140
 2644              	.LCFI37:
 2645              		.cfi_def_cfa_offset 52
 2646              		@ sp needed
 2647 03f0 BDEC048B 		vldm	sp!, {d8-d9}
 2648              	.LCFI38:
 2649              		.cfi_restore 82
 2650              		.cfi_restore 83
 2651              		.cfi_restore 80
 2652              		.cfi_restore 81
 2653              		.cfi_def_cfa_offset 36
 2654 03f4 BDE8F08F 		pop	{r4, r5, r6, r7, r8, r9, r10, fp, pc}
 2655              		.loc 1 359 1 view .LVU698
 2656              		.cfi_endproc
 2657              	.LFE192:
 2659              		.section	.text.calibrateMag,"ax",%progbits
 2660              		.align	1
 2661              		.global	calibrateMag
 2662              		.syntax unified
 2663              		.thumb
 2664              		.thumb_func
 2665              		.fpu fpv5-sp-d16
 2667              	calibrateMag:
 2668              	.LVL277:
 2669              	.LFB193:
 360:Core/drogui/src/ICM20948.c **** 
ARM GAS  C:\Users\GUILLE~1\AppData\Local\Temp\ccpUd5Pj.s 			page 57


 361:Core/drogui/src/ICM20948.c **** 
 362:Core/drogui/src/ICM20948.c **** void calibrateMag(icm20948* m){
 2670              		.loc 1 362 31 is_stmt 1 view -0
 2671              		.cfi_startproc
 2672              		@ args = 0, pretend = 0, frame = 112
 2673              		@ frame_needed = 1, uses_anonymous_args = 0
 2674              		.loc 1 362 31 is_stmt 0 view .LVU700
 2675 0000 2DE9F047 		push	{r4, r5, r6, r7, r8, r9, r10, lr}
 2676              	.LCFI39:
 2677              		.cfi_def_cfa_offset 32
 2678              		.cfi_offset 4, -32
 2679              		.cfi_offset 5, -28
 2680              		.cfi_offset 6, -24
 2681              		.cfi_offset 7, -20
 2682              		.cfi_offset 8, -16
 2683              		.cfi_offset 9, -12
 2684              		.cfi_offset 10, -8
 2685              		.cfi_offset 14, -4
 2686 0004 2DED048B 		vpush.64	{d8, d9}
 2687              	.LCFI40:
 2688              		.cfi_def_cfa_offset 48
 2689              		.cfi_offset 80, -48
 2690              		.cfi_offset 81, -44
 2691              		.cfi_offset 82, -40
 2692              		.cfi_offset 83, -36
 2693 0008 9CB0     		sub	sp, sp, #112
 2694              	.LCFI41:
 2695              		.cfi_def_cfa_offset 160
 2696 000a 00AF     		add	r7, sp, #0
 2697              	.LCFI42:
 2698              		.cfi_def_cfa_register 7
 2699 000c 0646     		mov	r6, r0
 363:Core/drogui/src/ICM20948.c ****     
 364:Core/drogui/src/ICM20948.c ****     //char aux_buff[50]="";
 365:Core/drogui/src/ICM20948.c **** 
 366:Core/drogui/src/ICM20948.c ****     setReg(CAL_MAG,0);
 2700              		.loc 1 366 5 is_stmt 1 view .LVU701
 2701 000e 9FED640A 		vldr.32	s0, .L155+8
 2702 0012 0820     		movs	r0, #8
 2703              	.LVL278:
 2704              		.loc 1 366 5 is_stmt 0 view .LVU702
 2705 0014 FFF7FEFF 		bl	setReg
 2706              	.LVL279:
 367:Core/drogui/src/ICM20948.c **** 
 368:Core/drogui/src/ICM20948.c ****     int head = 0, cnt = 0;
 2707              		.loc 1 368 5 is_stmt 1 view .LVU703
 369:Core/drogui/src/ICM20948.c ****     bool done = false, valid;
 2708              		.loc 1 369 5 view .LVU704
 370:Core/drogui/src/ICM20948.c ****     const int n = 100;
 2709              		.loc 1 370 5 view .LVU705
 371:Core/drogui/src/ICM20948.c ****     float magX, magY, magZ, scaleGlobal = 0.01;
 2710              		.loc 1 371 5 view .LVU706
 372:Core/drogui/src/ICM20948.c ****     float mag[n][3];
 2711              		.loc 1 372 5 view .LVU707
 2712              		.loc 1 372 11 is_stmt 0 view .LVU708
 2713 0018 ADF5966D 		sub	sp, sp, #1200
 2714 001c 6D46     		mov	r5, sp
ARM GAS  C:\Users\GUILLE~1\AppData\Local\Temp\ccpUd5Pj.s 			page 58


 2715              	.LVL280:
 373:Core/drogui/src/ICM20948.c ****     for(int i = 0; i < n; i++){
 2716              		.loc 1 373 5 is_stmt 1 view .LVU709
 2717              	.LBB18:
 2718              		.loc 1 373 9 view .LVU710
 2719              		.loc 1 373 13 is_stmt 0 view .LVU711
 2720 001e 0021     		movs	r1, #0
 2721              		.loc 1 373 5 view .LVU712
 2722 0020 0AE0     		b	.L134
 2723              	.LVL281:
 2724              	.L135:
 2725              	.LBB19:
 374:Core/drogui/src/ICM20948.c ****         for(int j = 0; j < 3; j++){
 375:Core/drogui/src/ICM20948.c ****             mag[i][j] = 0;
 2726              		.loc 1 375 13 is_stmt 1 discriminator 3 view .LVU713
 2727              		.loc 1 375 23 is_stmt 0 discriminator 3 view .LVU714
 2728 0022 01EB4103 		add	r3, r1, r1, lsl #1
 2729 0026 1344     		add	r3, r3, r2
 2730 0028 05EB8303 		add	r3, r5, r3, lsl #2
 2731 002c 0020     		movs	r0, #0
 2732 002e 1860     		str	r0, [r3]	@ float
 374:Core/drogui/src/ICM20948.c ****         for(int j = 0; j < 3; j++){
 2733              		.loc 1 374 31 is_stmt 1 discriminator 3 view .LVU715
 374:Core/drogui/src/ICM20948.c ****         for(int j = 0; j < 3; j++){
 2734              		.loc 1 374 32 is_stmt 0 discriminator 3 view .LVU716
 2735 0030 0132     		adds	r2, r2, #1
 2736              	.LVL282:
 2737              	.L136:
 374:Core/drogui/src/ICM20948.c ****         for(int j = 0; j < 3; j++){
 2738              		.loc 1 374 24 is_stmt 1 discriminator 1 view .LVU717
 374:Core/drogui/src/ICM20948.c ****         for(int j = 0; j < 3; j++){
 2739              		.loc 1 374 9 is_stmt 0 discriminator 1 view .LVU718
 2740 0032 022A     		cmp	r2, #2
 2741 0034 F5DD     		ble	.L135
 2742              	.LBE19:
 373:Core/drogui/src/ICM20948.c ****     for(int i = 0; i < n; i++){
 2743              		.loc 1 373 27 is_stmt 1 discriminator 2 view .LVU719
 373:Core/drogui/src/ICM20948.c ****     for(int i = 0; i < n; i++){
 2744              		.loc 1 373 28 is_stmt 0 discriminator 2 view .LVU720
 2745 0036 0131     		adds	r1, r1, #1
 2746              	.LVL283:
 2747              	.L134:
 373:Core/drogui/src/ICM20948.c ****     for(int i = 0; i < n; i++){
 2748              		.loc 1 373 20 is_stmt 1 discriminator 1 view .LVU721
 373:Core/drogui/src/ICM20948.c ****     for(int i = 0; i < n; i++){
 2749              		.loc 1 373 5 is_stmt 0 discriminator 1 view .LVU722
 2750 0038 6329     		cmp	r1, #99
 2751 003a 01DC     		bgt	.L150
 2752              	.LBB20:
 374:Core/drogui/src/ICM20948.c ****         for(int j = 0; j < 3; j++){
 2753              		.loc 1 374 17 view .LVU723
 2754 003c 0022     		movs	r2, #0
 2755 003e F8E7     		b	.L136
 2756              	.L150:
 2757              	.LBE20:
 2758              	.LBE18:
 369:Core/drogui/src/ICM20948.c ****     const int n = 100;
ARM GAS  C:\Users\GUILLE~1\AppData\Local\Temp\ccpUd5Pj.s 			page 59


 2759              		.loc 1 369 10 view .LVU724
 2760 0040 4FF0000A 		mov	r10, #0
 368:Core/drogui/src/ICM20948.c ****     bool done = false, valid;
 2761              		.loc 1 368 19 view .LVU725
 2762 0044 D046     		mov	r8, r10
 368:Core/drogui/src/ICM20948.c ****     bool done = false, valid;
 2763              		.loc 1 368 9 view .LVU726
 2764 0046 D146     		mov	r9, r10
 2765 0048 17E0     		b	.L137
 2766              	.LVL284:
 2767              	.L154:
 376:Core/drogui/src/ICM20948.c ****         }    
 377:Core/drogui/src/ICM20948.c ****     }
 378:Core/drogui/src/ICM20948.c **** 
 379:Core/drogui/src/ICM20948.c ****     while (!done){
 380:Core/drogui/src/ICM20948.c ****         HAL_Delay(100);
 381:Core/drogui/src/ICM20948.c ****         readRawMag(m);
 382:Core/drogui/src/ICM20948.c ****         magX = m->raw_mx*scaleGlobal;
 383:Core/drogui/src/ICM20948.c ****         magY = m->raw_my*scaleGlobal;
 384:Core/drogui/src/ICM20948.c ****         magZ = m->raw_mz*scaleGlobal;
 385:Core/drogui/src/ICM20948.c ****         
 386:Core/drogui/src/ICM20948.c ****         //sprintf(aux_buff, "%f %f %f\n", m->raw_mx, m->raw_my, m->raw_mz);
 387:Core/drogui/src/ICM20948.c ****         //HAL_UART_Transmit(&huart2, (uint8_t*) aux_buff, strlen(aux_buff), 100);
 388:Core/drogui/src/ICM20948.c ****         valid = true;
 2768              		.loc 1 388 15 view .LVU727
 2769 004a 0123     		movs	r3, #1
 2770              	.L139:
 2771              	.LVL285:
 389:Core/drogui/src/ICM20948.c ****         for(int i = 1 ; i <= cnt ; i++){
 390:Core/drogui/src/ICM20948.c ****             int j = (head - i + n) % n;
 391:Core/drogui/src/ICM20948.c ****             float d = dis3d(magX, magY, magZ, mag[j][0], mag[j][1], mag[j][2]);
 392:Core/drogui/src/ICM20948.c **** 
 393:Core/drogui/src/ICM20948.c ****             //sprintf(aux_buff, "%f \n", d);
 394:Core/drogui/src/ICM20948.c ****             //HAL_UART_Transmit(&huart2, (uint8_t*) aux_buff, strlen(aux_buff), 100);
 395:Core/drogui/src/ICM20948.c **** 
 396:Core/drogui/src/ICM20948.c ****             if(d < 20*scaleGlobal){
 397:Core/drogui/src/ICM20948.c ****                 valid = false; break;
 398:Core/drogui/src/ICM20948.c ****             } 
 399:Core/drogui/src/ICM20948.c ****         }
 400:Core/drogui/src/ICM20948.c ****         if(valid){
 2772              		.loc 1 400 9 is_stmt 1 view .LVU728
 2773              		.loc 1 400 11 is_stmt 0 view .LVU729
 2774 004c 002B     		cmp	r3, #0
 2775 004e 57D1     		bne	.L151
 2776              	.LVL286:
 2777              	.L141:
 401:Core/drogui/src/ICM20948.c ****             HAL_GPIO_TogglePin(LED1_GPIO_Port, LED1_Pin);
 402:Core/drogui/src/ICM20948.c ****             
 403:Core/drogui/src/ICM20948.c ****             mag[head][0] = magX, mag[head][1] = magY, mag[head][2] = magZ;
 404:Core/drogui/src/ICM20948.c ****             head++, cnt++, head%= n; 
 405:Core/drogui/src/ICM20948.c ****         }
 406:Core/drogui/src/ICM20948.c ****         setReg(CAL_MAG, fmin(cnt, 99.0));
 2778              		.loc 1 406 9 is_stmt 1 view .LVU730
 2779              		.loc 1 406 25 is_stmt 0 view .LVU731
 2780 0050 4046     		mov	r0, r8
 2781 0052 FFF7FEFF 		bl	__aeabi_i2d
 2782              	.LVL287:
ARM GAS  C:\Users\GUILLE~1\AppData\Local\Temp\ccpUd5Pj.s 			page 60


 2783 0056 9FED501B 		vldr.64	d1, .L155
 2784 005a 41EC100B 		vmov	d0, r0, r1
 2785 005e FFF7FEFF 		bl	fmin
 2786              	.LVL288:
 2787 0062 51EC100B 		vmov	r0, r1, d0
 2788              		.loc 1 406 9 view .LVU732
 2789 0066 FFF7FEFF 		bl	__aeabi_d2f
 2790              	.LVL289:
 2791 006a 00EE100A 		vmov	s0, r0
 2792 006e 0820     		movs	r0, #8
 2793 0070 FFF7FEFF 		bl	setReg
 2794              	.LVL290:
 407:Core/drogui/src/ICM20948.c ****         
 408:Core/drogui/src/ICM20948.c ****         //sprintf(aux_buff, "%d\n", cnt);
 409:Core/drogui/src/ICM20948.c ****         //HAL_UART_Transmit(&huart2, (uint8_t*) aux_buff, strlen(aux_buff), 100);
 410:Core/drogui/src/ICM20948.c **** 
 411:Core/drogui/src/ICM20948.c ****         if(cnt == n){done = true;}
 2795              		.loc 1 411 9 is_stmt 1 view .LVU733
 2796              		.loc 1 411 11 is_stmt 0 view .LVU734
 2797 0074 B8F1640F 		cmp	r8, #100
 2798 0078 5FD0     		beq	.L152
 2799              	.LVL291:
 2800              	.L137:
 379:Core/drogui/src/ICM20948.c ****         HAL_Delay(100);
 2801              		.loc 1 379 11 is_stmt 1 view .LVU735
 2802 007a BAF1000F 		cmp	r10, #0
 2803 007e 5FD1     		bne	.L153
 380:Core/drogui/src/ICM20948.c ****         readRawMag(m);
 2804              		.loc 1 380 9 view .LVU736
 2805 0080 6420     		movs	r0, #100
 2806 0082 FFF7FEFF 		bl	HAL_Delay
 2807              	.LVL292:
 381:Core/drogui/src/ICM20948.c ****         magX = m->raw_mx*scaleGlobal;
 2808              		.loc 1 381 9 view .LVU737
 2809 0086 3046     		mov	r0, r6
 2810 0088 FFF7FEFF 		bl	readRawMag
 2811              	.LVL293:
 382:Core/drogui/src/ICM20948.c ****         magY = m->raw_my*scaleGlobal;
 2812              		.loc 1 382 9 view .LVU738
 382:Core/drogui/src/ICM20948.c ****         magY = m->raw_my*scaleGlobal;
 2813              		.loc 1 382 17 is_stmt 0 view .LVU739
 2814 008c 96ED0F9A 		vldr.32	s18, [r6, #60]
 382:Core/drogui/src/ICM20948.c ****         magY = m->raw_my*scaleGlobal;
 2815              		.loc 1 382 14 view .LVU740
 2816 0090 DFED477A 		vldr.32	s15, .L155+24
 2817 0094 29EE279A 		vmul.f32	s18, s18, s15
 2818              	.LVL294:
 383:Core/drogui/src/ICM20948.c ****         magZ = m->raw_mz*scaleGlobal;
 2819              		.loc 1 383 9 is_stmt 1 view .LVU741
 383:Core/drogui/src/ICM20948.c ****         magZ = m->raw_mz*scaleGlobal;
 2820              		.loc 1 383 17 is_stmt 0 view .LVU742
 2821 0098 D6ED108A 		vldr.32	s17, [r6, #64]
 383:Core/drogui/src/ICM20948.c ****         magZ = m->raw_mz*scaleGlobal;
 2822              		.loc 1 383 14 view .LVU743
 2823 009c 68EEA78A 		vmul.f32	s17, s17, s15
 2824              	.LVL295:
 384:Core/drogui/src/ICM20948.c ****         
ARM GAS  C:\Users\GUILLE~1\AppData\Local\Temp\ccpUd5Pj.s 			page 61


 2825              		.loc 1 384 9 is_stmt 1 view .LVU744
 384:Core/drogui/src/ICM20948.c ****         
 2826              		.loc 1 384 17 is_stmt 0 view .LVU745
 2827 00a0 96ED118A 		vldr.32	s16, [r6, #68]
 384:Core/drogui/src/ICM20948.c ****         
 2828              		.loc 1 384 14 view .LVU746
 2829 00a4 28EE278A 		vmul.f32	s16, s16, s15
 2830              	.LVL296:
 388:Core/drogui/src/ICM20948.c ****         for(int i = 1 ; i <= cnt ; i++){
 2831              		.loc 1 388 9 is_stmt 1 view .LVU747
 389:Core/drogui/src/ICM20948.c ****             int j = (head - i + n) % n;
 2832              		.loc 1 389 9 view .LVU748
 2833              	.LBB21:
 389:Core/drogui/src/ICM20948.c ****             int j = (head - i + n) % n;
 2834              		.loc 1 389 13 view .LVU749
 389:Core/drogui/src/ICM20948.c ****             int j = (head - i + n) % n;
 2835              		.loc 1 389 17 is_stmt 0 view .LVU750
 2836 00a8 0124     		movs	r4, #1
 2837              	.LVL297:
 2838              	.L138:
 389:Core/drogui/src/ICM20948.c ****             int j = (head - i + n) % n;
 2839              		.loc 1 389 25 is_stmt 1 discriminator 1 view .LVU751
 389:Core/drogui/src/ICM20948.c ****             int j = (head - i + n) % n;
 2840              		.loc 1 389 9 is_stmt 0 discriminator 1 view .LVU752
 2841 00aa A045     		cmp	r8, r4
 2842 00ac CDDB     		blt	.L154
 2843              	.LBB22:
 390:Core/drogui/src/ICM20948.c ****             float d = dis3d(magX, magY, magZ, mag[j][0], mag[j][1], mag[j][2]);
 2844              		.loc 1 390 13 is_stmt 1 view .LVU753
 390:Core/drogui/src/ICM20948.c ****             float d = dis3d(magX, magY, magZ, mag[j][0], mag[j][1], mag[j][2]);
 2845              		.loc 1 390 27 is_stmt 0 view .LVU754
 2846 00ae A9EB0402 		sub	r2, r9, r4
 390:Core/drogui/src/ICM20948.c ****             float d = dis3d(magX, magY, magZ, mag[j][0], mag[j][1], mag[j][2]);
 2847              		.loc 1 390 31 view .LVU755
 2848 00b2 6432     		adds	r2, r2, #100
 390:Core/drogui/src/ICM20948.c ****             float d = dis3d(magX, magY, magZ, mag[j][0], mag[j][1], mag[j][2]);
 2849              		.loc 1 390 17 view .LVU756
 2850 00b4 3B49     		ldr	r1, .L155+12
 2851 00b6 81FB0231 		smull	r3, r1, r1, r2
 2852 00ba D317     		asrs	r3, r2, #31
 2853 00bc C3EB6113 		rsb	r3, r3, r1, asr #5
 2854 00c0 6421     		movs	r1, #100
 2855 00c2 01FB1323 		mls	r3, r1, r3, r2
 2856              	.LVL298:
 391:Core/drogui/src/ICM20948.c **** 
 2857              		.loc 1 391 13 is_stmt 1 view .LVU757
 391:Core/drogui/src/ICM20948.c **** 
 2858              		.loc 1 391 23 is_stmt 0 view .LVU758
 2859 00c6 03EB4302 		add	r2, r3, r3, lsl #1
 2860 00ca 05EB8202 		add	r2, r5, r2, lsl #2
 2861 00ce D2ED022A 		vldr.32	s5, [r2, #8]
 2862 00d2 92ED012A 		vldr.32	s4, [r2, #4]
 2863 00d6 D2ED001A 		vldr.32	s3, [r2]
 2864 00da B0EE481A 		vmov.f32	s2, s16
 2865 00de F0EE680A 		vmov.f32	s1, s17
 2866 00e2 B0EE490A 		vmov.f32	s0, s18
 2867 00e6 FFF7FEFF 		bl	dis3d
ARM GAS  C:\Users\GUILLE~1\AppData\Local\Temp\ccpUd5Pj.s 			page 62


 2868              	.LVL299:
 396:Core/drogui/src/ICM20948.c ****                 valid = false; break;
 2869              		.loc 1 396 13 is_stmt 1 view .LVU759
 396:Core/drogui/src/ICM20948.c ****                 valid = false; break;
 2870              		.loc 1 396 15 is_stmt 0 view .LVU760
 2871 00ea DFED2F7A 		vldr.32	s15, .L155+16
 2872 00ee B4EEE70A 		vcmpe.f32	s0, s15
 2873 00f2 F1EE10FA 		vmrs	APSR_nzcv, FPSCR
 2874 00f6 01D4     		bmi	.L147
 2875              	.LBE22:
 389:Core/drogui/src/ICM20948.c ****             int j = (head - i + n) % n;
 2876              		.loc 1 389 36 is_stmt 1 discriminator 2 view .LVU761
 389:Core/drogui/src/ICM20948.c ****             int j = (head - i + n) % n;
 2877              		.loc 1 389 37 is_stmt 0 discriminator 2 view .LVU762
 2878 00f8 0134     		adds	r4, r4, #1
 2879              	.LVL300:
 389:Core/drogui/src/ICM20948.c ****             int j = (head - i + n) % n;
 2880              		.loc 1 389 37 discriminator 2 view .LVU763
 2881 00fa D6E7     		b	.L138
 2882              	.LVL301:
 2883              	.L147:
 2884              	.LBB23:
 397:Core/drogui/src/ICM20948.c ****             } 
 2885              		.loc 1 397 23 view .LVU764
 2886 00fc 5346     		mov	r3, r10
 2887 00fe A5E7     		b	.L139
 2888              	.LVL302:
 2889              	.L151:
 397:Core/drogui/src/ICM20948.c ****             } 
 2890              		.loc 1 397 23 view .LVU765
 2891              	.LBE23:
 2892              	.LBE21:
 401:Core/drogui/src/ICM20948.c ****             
 2893              		.loc 1 401 13 is_stmt 1 view .LVU766
 2894 0100 0421     		movs	r1, #4
 2895 0102 2A48     		ldr	r0, .L155+20
 2896 0104 FFF7FEFF 		bl	HAL_GPIO_TogglePin
 2897              	.LVL303:
 403:Core/drogui/src/ICM20948.c ****             head++, cnt++, head%= n; 
 2898              		.loc 1 403 13 view .LVU767
 403:Core/drogui/src/ICM20948.c ****             head++, cnt++, head%= n; 
 2899              		.loc 1 403 26 is_stmt 0 view .LVU768
 2900 0108 09EB4903 		add	r3, r9, r9, lsl #1
 2901 010c 05EB8303 		add	r3, r5, r3, lsl #2
 2902 0110 83ED009A 		vstr.32	s18, [r3]
 403:Core/drogui/src/ICM20948.c ****             head++, cnt++, head%= n; 
 2903              		.loc 1 403 47 view .LVU769
 2904 0114 C3ED018A 		vstr.32	s17, [r3, #4]
 403:Core/drogui/src/ICM20948.c ****             head++, cnt++, head%= n; 
 2905              		.loc 1 403 68 view .LVU770
 2906 0118 83ED028A 		vstr.32	s16, [r3, #8]
 404:Core/drogui/src/ICM20948.c ****         }
 2907              		.loc 1 404 13 is_stmt 1 view .LVU771
 404:Core/drogui/src/ICM20948.c ****         }
 2908              		.loc 1 404 17 is_stmt 0 view .LVU772
 2909 011c 09F10103 		add	r3, r9, #1
 2910              	.LVL304:
ARM GAS  C:\Users\GUILLE~1\AppData\Local\Temp\ccpUd5Pj.s 			page 63


 404:Core/drogui/src/ICM20948.c ****         }
 2911              		.loc 1 404 24 view .LVU773
 2912 0120 08F10108 		add	r8, r8, #1
 2913              	.LVL305:
 404:Core/drogui/src/ICM20948.c ****         }
 2914              		.loc 1 404 32 view .LVU774
 2915 0124 1F4A     		ldr	r2, .L155+12
 2916 0126 82FB0312 		smull	r1, r2, r2, r3
 2917 012a 4FEAE379 		asr	r9, r3, #31
 2918 012e C9EB6219 		rsb	r9, r9, r2, asr #5
 2919 0132 6422     		movs	r2, #100
 2920 0134 02FB1939 		mls	r9, r2, r9, r3
 2921              	.LVL306:
 404:Core/drogui/src/ICM20948.c ****         }
 2922              		.loc 1 404 32 view .LVU775
 2923 0138 8AE7     		b	.L141
 2924              	.L152:
 2925              		.loc 1 411 27 view .LVU776
 2926 013a 4FF0010A 		mov	r10, #1
 2927              	.LVL307:
 2928              		.loc 1 411 27 view .LVU777
 2929 013e 9CE7     		b	.L137
 2930              	.LVL308:
 2931              	.L153:
 412:Core/drogui/src/ICM20948.c ****     }
 413:Core/drogui/src/ICM20948.c **** 
 414:Core/drogui/src/ICM20948.c ****     mat H, Ht, w, prod, prod2, X, inverse;
 2932              		.loc 1 414 5 is_stmt 1 view .LVU778
 415:Core/drogui/src/ICM20948.c ****     matInit(&H, n, 6);
 2933              		.loc 1 415 5 view .LVU779
 2934 0140 0622     		movs	r2, #6
 2935 0142 6421     		movs	r1, #100
 2936 0144 07F16000 		add	r0, r7, #96
 2937 0148 FFF7FEFF 		bl	matInit
 2938              	.LVL309:
 416:Core/drogui/src/ICM20948.c ****     matInit(&Ht, 6, n);
 2939              		.loc 1 416 5 view .LVU780
 2940 014c 6422     		movs	r2, #100
 2941 014e 0621     		movs	r1, #6
 2942 0150 07F15000 		add	r0, r7, #80
 2943 0154 FFF7FEFF 		bl	matInit
 2944              	.LVL310:
 417:Core/drogui/src/ICM20948.c ****     matInit(&prod, 6, 6);
 2945              		.loc 1 417 5 view .LVU781
 2946 0158 0622     		movs	r2, #6
 2947 015a 1146     		mov	r1, r2
 2948 015c 07F13000 		add	r0, r7, #48
 2949 0160 FFF7FEFF 		bl	matInit
 2950              	.LVL311:
 418:Core/drogui/src/ICM20948.c ****     matInit(&prod2, 6, n);
 2951              		.loc 1 418 5 view .LVU782
 2952 0164 6422     		movs	r2, #100
 2953 0166 0621     		movs	r1, #6
 2954 0168 07F12000 		add	r0, r7, #32
 2955 016c FFF7FEFF 		bl	matInit
 2956              	.LVL312:
 419:Core/drogui/src/ICM20948.c ****     matInit(&inverse, 6, 6);
ARM GAS  C:\Users\GUILLE~1\AppData\Local\Temp\ccpUd5Pj.s 			page 64


 2957              		.loc 1 419 5 view .LVU783
 2958 0170 0622     		movs	r2, #6
 2959 0172 1146     		mov	r1, r2
 2960 0174 3846     		mov	r0, r7
 2961 0176 FFF7FEFF 		bl	matInit
 2962              	.LVL313:
 420:Core/drogui/src/ICM20948.c ****     matInit(&w, n, 1);
 2963              		.loc 1 420 5 view .LVU784
 2964 017a 0122     		movs	r2, #1
 2965 017c 6421     		movs	r1, #100
 2966 017e 07F14000 		add	r0, r7, #64
 2967 0182 FFF7FEFF 		bl	matInit
 2968              	.LVL314:
 421:Core/drogui/src/ICM20948.c ****     matInit(&X, 6, 1);
 2969              		.loc 1 421 5 view .LVU785
 2970 0186 0122     		movs	r2, #1
 2971 0188 0621     		movs	r1, #6
 2972 018a 07F11000 		add	r0, r7, #16
 2973 018e FFF7FEFF 		bl	matInit
 2974              	.LVL315:
 422:Core/drogui/src/ICM20948.c **** 
 423:Core/drogui/src/ICM20948.c **** 
 424:Core/drogui/src/ICM20948.c ****     for(int i = 0; i < n; i++){
 2975              		.loc 1 424 5 view .LVU786
 2976              	.LBB24:
 2977              		.loc 1 424 9 view .LVU787
 2978              		.loc 1 424 13 is_stmt 0 view .LVU788
 2979 0192 0024     		movs	r4, #0
 2980              		.loc 1 424 5 view .LVU789
 2981 0194 51E0     		b	.L144
 2982              	.L156:
 2983 0196 00BF     		.align	3
 2984              	.L155:
 2985 0198 00000000 		.word	0
 2986 019c 00C05840 		.word	1079558144
 2987 01a0 00000000 		.word	0
 2988 01a4 1F85EB51 		.word	1374389535
 2989 01a8 CCCC4C3E 		.word	1045220556
 2990 01ac 00100240 		.word	1073876992
 2991 01b0 0AD7233C 		.word	1008981770
 2992              	.LVL316:
 2993              	.L145:
 425:Core/drogui/src/ICM20948.c ****         setMatVal(&H, i, 0, mag[i][0]);
 2994              		.loc 1 425 9 is_stmt 1 discriminator 3 view .LVU790
 2995 01b4 04EB4408 		add	r8, r4, r4, lsl #1
 2996 01b8 05EB8808 		add	r8, r5, r8, lsl #2
 2997 01bc 98ED000A 		vldr.32	s0, [r8]
 2998 01c0 0022     		movs	r2, #0
 2999 01c2 2146     		mov	r1, r4
 3000 01c4 07F16000 		add	r0, r7, #96
 3001 01c8 FFF7FEFF 		bl	setMatVal
 3002              	.LVL317:
 426:Core/drogui/src/ICM20948.c ****         setMatVal(&H, i, 1, mag[i][1]);
 3003              		.loc 1 426 9 discriminator 3 view .LVU791
 3004 01cc 98ED010A 		vldr.32	s0, [r8, #4]
 3005 01d0 0122     		movs	r2, #1
 3006 01d2 2146     		mov	r1, r4
ARM GAS  C:\Users\GUILLE~1\AppData\Local\Temp\ccpUd5Pj.s 			page 65


 3007 01d4 07F16000 		add	r0, r7, #96
 3008 01d8 FFF7FEFF 		bl	setMatVal
 3009              	.LVL318:
 427:Core/drogui/src/ICM20948.c ****         setMatVal(&H, i, 2, mag[i][2]);
 3010              		.loc 1 427 9 discriminator 3 view .LVU792
 3011 01dc 98ED020A 		vldr.32	s0, [r8, #8]
 3012 01e0 0222     		movs	r2, #2
 3013 01e2 2146     		mov	r1, r4
 3014 01e4 07F16000 		add	r0, r7, #96
 3015 01e8 FFF7FEFF 		bl	setMatVal
 3016              	.LVL319:
 428:Core/drogui/src/ICM20948.c ****         setMatVal(&H, i, 3, -mag[i][1]*mag[i][1]);
 3017              		.loc 1 428 9 discriminator 3 view .LVU793
 3018              		.loc 1 428 36 is_stmt 0 discriminator 3 view .LVU794
 3019 01ec 98ED010A 		vldr.32	s0, [r8, #4]
 3020              		.loc 1 428 9 discriminator 3 view .LVU795
 3021 01f0 20EE400A 		vnmul.f32	s0, s0, s0
 3022 01f4 0322     		movs	r2, #3
 3023 01f6 2146     		mov	r1, r4
 3024 01f8 07F16000 		add	r0, r7, #96
 3025 01fc FFF7FEFF 		bl	setMatVal
 3026              	.LVL320:
 429:Core/drogui/src/ICM20948.c ****         setMatVal(&H, i, 4, -mag[i][2]*mag[i][2]);
 3027              		.loc 1 429 9 is_stmt 1 discriminator 3 view .LVU796
 3028              		.loc 1 429 36 is_stmt 0 discriminator 3 view .LVU797
 3029 0200 98ED020A 		vldr.32	s0, [r8, #8]
 3030              		.loc 1 429 9 discriminator 3 view .LVU798
 3031 0204 20EE400A 		vnmul.f32	s0, s0, s0
 3032 0208 0422     		movs	r2, #4
 3033 020a 2146     		mov	r1, r4
 3034 020c 07F16000 		add	r0, r7, #96
 3035 0210 FFF7FEFF 		bl	setMatVal
 3036              	.LVL321:
 430:Core/drogui/src/ICM20948.c ****         setMatVal(&H, i, 5, 1);
 3037              		.loc 1 430 9 is_stmt 1 discriminator 3 view .LVU799
 3038 0214 B7EE000A 		vmov.f32	s0, #1.0e+0
 3039 0218 0522     		movs	r2, #5
 3040 021a 2146     		mov	r1, r4
 3041 021c 07F16000 		add	r0, r7, #96
 3042 0220 FFF7FEFF 		bl	setMatVal
 3043              	.LVL322:
 431:Core/drogui/src/ICM20948.c **** 
 432:Core/drogui/src/ICM20948.c ****         setMatVal(&w, i, 0, mag[i][0]*mag[i][0]);
 3044              		.loc 1 432 9 discriminator 3 view .LVU800
 3045              		.loc 1 432 35 is_stmt 0 discriminator 3 view .LVU801
 3046 0224 98ED000A 		vldr.32	s0, [r8]
 3047              		.loc 1 432 9 discriminator 3 view .LVU802
 3048 0228 20EE000A 		vmul.f32	s0, s0, s0
 3049 022c 0022     		movs	r2, #0
 3050 022e 2146     		mov	r1, r4
 3051 0230 07F14000 		add	r0, r7, #64
 3052 0234 FFF7FEFF 		bl	setMatVal
 3053              	.LVL323:
 424:Core/drogui/src/ICM20948.c ****         setMatVal(&H, i, 0, mag[i][0]);
 3054              		.loc 1 424 27 is_stmt 1 discriminator 3 view .LVU803
 424:Core/drogui/src/ICM20948.c ****         setMatVal(&H, i, 0, mag[i][0]);
 3055              		.loc 1 424 28 is_stmt 0 discriminator 3 view .LVU804
ARM GAS  C:\Users\GUILLE~1\AppData\Local\Temp\ccpUd5Pj.s 			page 66


 3056 0238 0134     		adds	r4, r4, #1
 3057              	.LVL324:
 3058              	.L144:
 424:Core/drogui/src/ICM20948.c ****         setMatVal(&H, i, 0, mag[i][0]);
 3059              		.loc 1 424 20 is_stmt 1 discriminator 1 view .LVU805
 424:Core/drogui/src/ICM20948.c ****         setMatVal(&H, i, 0, mag[i][0]);
 3060              		.loc 1 424 5 is_stmt 0 discriminator 1 view .LVU806
 3061 023a 632C     		cmp	r4, #99
 3062 023c BADD     		ble	.L145
 3063              	.LBE24:
 433:Core/drogui/src/ICM20948.c ****     }
 434:Core/drogui/src/ICM20948.c ****     matTrans(&Ht, &H);
 3064              		.loc 1 434 5 is_stmt 1 view .LVU807
 3065 023e 07F16001 		add	r1, r7, #96
 3066 0242 07F15000 		add	r0, r7, #80
 3067 0246 FFF7FEFF 		bl	matTrans
 3068              	.LVL325:
 435:Core/drogui/src/ICM20948.c ****     matMult(&prod, &Ht, &H);
 3069              		.loc 1 435 5 view .LVU808
 3070 024a 07F16002 		add	r2, r7, #96
 3071 024e 07F15001 		add	r1, r7, #80
 3072 0252 07F13000 		add	r0, r7, #48
 3073 0256 FFF7FEFF 		bl	matMult
 3074              	.LVL326:
 436:Core/drogui/src/ICM20948.c ****     
 437:Core/drogui/src/ICM20948.c ****     matInverse(&inverse, &prod);
 3075              		.loc 1 437 5 view .LVU809
 3076 025a 07F13001 		add	r1, r7, #48
 3077 025e 3846     		mov	r0, r7
 3078 0260 FFF7FEFF 		bl	matInverse
 3079              	.LVL327:
 438:Core/drogui/src/ICM20948.c ****     matMult(&prod2, &inverse, &Ht);
 3080              		.loc 1 438 5 view .LVU810
 3081 0264 07F15002 		add	r2, r7, #80
 3082 0268 3946     		mov	r1, r7
 3083 026a 07F12000 		add	r0, r7, #32
 3084 026e FFF7FEFF 		bl	matMult
 3085              	.LVL328:
 439:Core/drogui/src/ICM20948.c ****     matMult(&X, &prod2, &w);
 3086              		.loc 1 439 5 view .LVU811
 3087 0272 07F14002 		add	r2, r7, #64
 3088 0276 07F12001 		add	r1, r7, #32
 3089 027a 07F11000 		add	r0, r7, #16
 3090 027e FFF7FEFF 		bl	matMult
 3091              	.LVL329:
 440:Core/drogui/src/ICM20948.c ****     
 441:Core/drogui/src/ICM20948.c ****     m -> off_mx = getMatVal(&X, 0, 0)/(2);
 3092              		.loc 1 441 5 view .LVU812
 3093              		.loc 1 441 19 is_stmt 0 view .LVU813
 3094 0282 0022     		movs	r2, #0
 3095 0284 1146     		mov	r1, r2
 3096 0286 07F11000 		add	r0, r7, #16
 3097 028a FFF7FEFF 		bl	getMatVal
 3098              	.LVL330:
 3099              		.loc 1 441 38 view .LVU814
 3100 028e F6EE007A 		vmov.f32	s15, #5.0e-1
 3101 0292 60EE277A 		vmul.f32	s15, s0, s15
ARM GAS  C:\Users\GUILLE~1\AppData\Local\Temp\ccpUd5Pj.s 			page 67


 3102              		.loc 1 441 17 view .LVU815
 3103 0296 C6ED1F7A 		vstr.32	s15, [r6, #124]
 442:Core/drogui/src/ICM20948.c ****     m -> off_my = getMatVal(&X, 1, 0)/(2*getMatVal(&X, 3, 0));
 3104              		.loc 1 442 5 is_stmt 1 view .LVU816
 3105              		.loc 1 442 19 is_stmt 0 view .LVU817
 3106 029a 0022     		movs	r2, #0
 3107 029c 0121     		movs	r1, #1
 3108 029e 07F11000 		add	r0, r7, #16
 3109 02a2 FFF7FEFF 		bl	getMatVal
 3110              	.LVL331:
 3111 02a6 B0EE408A 		vmov.f32	s16, s0
 3112              		.loc 1 442 42 view .LVU818
 3113 02aa 0022     		movs	r2, #0
 3114 02ac 0321     		movs	r1, #3
 3115 02ae 07F11000 		add	r0, r7, #16
 3116 02b2 FFF7FEFF 		bl	getMatVal
 3117              	.LVL332:
 3118              		.loc 1 442 41 view .LVU819
 3119 02b6 30EE000A 		vadd.f32	s0, s0, s0
 3120              		.loc 1 442 38 view .LVU820
 3121 02ba C8EE007A 		vdiv.f32	s15, s16, s0
 3122              		.loc 1 442 17 view .LVU821
 3123 02be C6ED207A 		vstr.32	s15, [r6, #128]
 443:Core/drogui/src/ICM20948.c ****     m -> off_mz = getMatVal(&X, 2, 0)/(2*getMatVal(&X, 4, 0));
 3124              		.loc 1 443 5 is_stmt 1 view .LVU822
 3125              		.loc 1 443 19 is_stmt 0 view .LVU823
 3126 02c2 0022     		movs	r2, #0
 3127 02c4 0221     		movs	r1, #2
 3128 02c6 07F11000 		add	r0, r7, #16
 3129 02ca FFF7FEFF 		bl	getMatVal
 3130              	.LVL333:
 3131 02ce B0EE408A 		vmov.f32	s16, s0
 3132              		.loc 1 443 42 view .LVU824
 3133 02d2 0022     		movs	r2, #0
 3134 02d4 0421     		movs	r1, #4
 3135 02d6 07F11000 		add	r0, r7, #16
 3136 02da FFF7FEFF 		bl	getMatVal
 3137              	.LVL334:
 3138              		.loc 1 443 41 view .LVU825
 3139 02de 30EE000A 		vadd.f32	s0, s0, s0
 3140              		.loc 1 443 38 view .LVU826
 3141 02e2 C8EE007A 		vdiv.f32	s15, s16, s0
 3142              		.loc 1 443 17 view .LVU827
 3143 02e6 C6ED217A 		vstr.32	s15, [r6, #132]
 444:Core/drogui/src/ICM20948.c ****     
 445:Core/drogui/src/ICM20948.c ****     float temp = getMatVal(&X, 5, 0) + (m -> off_mx) * (m -> off_mx) + (m -> off_my) * (m -> off_my
 3144              		.loc 1 445 5 is_stmt 1 view .LVU828
 3145              		.loc 1 445 18 is_stmt 0 view .LVU829
 3146 02ea 0022     		movs	r2, #0
 3147 02ec 0521     		movs	r1, #5
 3148 02ee 07F11000 		add	r0, r7, #16
 3149 02f2 FFF7FEFF 		bl	getMatVal
 3150              	.LVL335:
 3151              		.loc 1 445 43 view .LVU830
 3152 02f6 96ED1F6A 		vldr.32	s12, [r6, #124]
 3153              		.loc 1 445 54 view .LVU831
 3154 02fa 26EE068A 		vmul.f32	s16, s12, s12
ARM GAS  C:\Users\GUILLE~1\AppData\Local\Temp\ccpUd5Pj.s 			page 68


 3155              		.loc 1 445 38 view .LVU832
 3156 02fe 30EE088A 		vadd.f32	s16, s0, s16
 3157              		.loc 1 445 75 view .LVU833
 3158 0302 D6ED206A 		vldr.32	s13, [r6, #128]
 3159              		.loc 1 445 86 view .LVU834
 3160 0306 66EEA67A 		vmul.f32	s15, s13, s13
 3161              		.loc 1 445 70 view .LVU835
 3162 030a 38EE278A 		vadd.f32	s16, s16, s15
 3163              		.loc 1 445 107 view .LVU836
 3164 030e 96ED217A 		vldr.32	s14, [r6, #132]
 3165              		.loc 1 445 118 view .LVU837
 3166 0312 67EE077A 		vmul.f32	s15, s14, s14
 3167              		.loc 1 445 11 view .LVU838
 3168 0316 38EE278A 		vadd.f32	s16, s16, s15
 3169              	.LVL336:
 446:Core/drogui/src/ICM20948.c ****     
 447:Core/drogui/src/ICM20948.c ****     m -> off_mx /= scaleGlobal;
 3170              		.loc 1 447 5 is_stmt 1 view .LVU839
 3171              		.loc 1 447 17 is_stmt 0 view .LVU840
 3172 031a 5FED5B7A 		vldr.32	s15, .L155+24
 3173 031e C6EE275A 		vdiv.f32	s11, s12, s15
 3174 0322 C6ED1F5A 		vstr.32	s11, [r6, #124]
 448:Core/drogui/src/ICM20948.c ****     m -> off_my /= scaleGlobal;
 3175              		.loc 1 448 5 is_stmt 1 view .LVU841
 3176              		.loc 1 448 17 is_stmt 0 view .LVU842
 3177 0326 86EEA76A 		vdiv.f32	s12, s13, s15
 3178 032a 86ED206A 		vstr.32	s12, [r6, #128]
 449:Core/drogui/src/ICM20948.c ****     m -> off_mz /= scaleGlobal;
 3179              		.loc 1 449 5 is_stmt 1 view .LVU843
 3180              		.loc 1 449 17 is_stmt 0 view .LVU844
 3181 032e C7EE276A 		vdiv.f32	s13, s14, s15
 3182 0332 C6ED216A 		vstr.32	s13, [r6, #132]
 450:Core/drogui/src/ICM20948.c ****     
 451:Core/drogui/src/ICM20948.c ****     m -> scl_magx = sqrt(temp)/ (scaleGlobal);
 3183              		.loc 1 451 5 is_stmt 1 view .LVU845
 3184              		.loc 1 451 21 is_stmt 0 view .LVU846
 3185 0336 18EE100A 		vmov	r0, s16
 3186 033a FFF7FEFF 		bl	__aeabi_f2d
 3187              	.LVL337:
 3188 033e 41EC100B 		vmov	d0, r0, r1
 3189 0342 FFF7FEFF 		bl	sqrt
 3190              	.LVL338:
 3191 0346 51EC100B 		vmov	r0, r1, d0
 3192              		.loc 1 451 31 view .LVU847
 3193 034a 42A3     		adr	r3, .L157+4
 3194 034c D3E90023 		ldrd	r2, [r3]
 3195 0350 FFF7FEFF 		bl	__aeabi_ddiv
 3196              	.LVL339:
 3197 0354 FFF7FEFF 		bl	__aeabi_d2f
 3198              	.LVL340:
 3199              		.loc 1 451 19 view .LVU848
 3200 0358 C6F88800 		str	r0, [r6, #136]	@ float
 452:Core/drogui/src/ICM20948.c ****     m -> scl_magy = sqrt(temp / getMatVal(&X, 3, 0)) / (scaleGlobal);
 3201              		.loc 1 452 5 is_stmt 1 view .LVU849
 3202              		.loc 1 452 33 is_stmt 0 view .LVU850
 3203 035c 0022     		movs	r2, #0
 3204 035e 0321     		movs	r1, #3
ARM GAS  C:\Users\GUILLE~1\AppData\Local\Temp\ccpUd5Pj.s 			page 69


 3205 0360 07F11000 		add	r0, r7, #16
 3206 0364 FFF7FEFF 		bl	getMatVal
 3207              	.LVL341:
 3208              		.loc 1 452 21 view .LVU851
 3209 0368 C8EE007A 		vdiv.f32	s15, s16, s0
 3210 036c 17EE900A 		vmov	r0, s15
 3211 0370 FFF7FEFF 		bl	__aeabi_f2d
 3212              	.LVL342:
 3213 0374 41EC100B 		vmov	d0, r0, r1
 3214 0378 FFF7FEFF 		bl	sqrt
 3215              	.LVL343:
 3216 037c 51EC100B 		vmov	r0, r1, d0
 3217              		.loc 1 452 54 view .LVU852
 3218 0380 34A3     		adr	r3, .L157+4
 3219 0382 D3E90023 		ldrd	r2, [r3]
 3220 0386 FFF7FEFF 		bl	__aeabi_ddiv
 3221              	.LVL344:
 3222 038a FFF7FEFF 		bl	__aeabi_d2f
 3223              	.LVL345:
 3224              		.loc 1 452 19 view .LVU853
 3225 038e C6F88C00 		str	r0, [r6, #140]	@ float
 453:Core/drogui/src/ICM20948.c ****     m -> scl_magz = sqrt(temp / getMatVal(&X, 4, 0)) / (scaleGlobal);
 3226              		.loc 1 453 5 is_stmt 1 view .LVU854
 3227              		.loc 1 453 33 is_stmt 0 view .LVU855
 3228 0392 0022     		movs	r2, #0
 3229 0394 0421     		movs	r1, #4
 3230 0396 07F11000 		add	r0, r7, #16
 3231 039a FFF7FEFF 		bl	getMatVal
 3232              	.LVL346:
 3233              		.loc 1 453 21 view .LVU856
 3234 039e C8EE007A 		vdiv.f32	s15, s16, s0
 3235 03a2 17EE900A 		vmov	r0, s15
 3236 03a6 FFF7FEFF 		bl	__aeabi_f2d
 3237              	.LVL347:
 3238 03aa 41EC100B 		vmov	d0, r0, r1
 3239 03ae FFF7FEFF 		bl	sqrt
 3240              	.LVL348:
 3241 03b2 51EC100B 		vmov	r0, r1, d0
 3242              		.loc 1 453 54 view .LVU857
 3243 03b6 27A3     		adr	r3, .L157+4
 3244 03b8 D3E90023 		ldrd	r2, [r3]
 3245 03bc FFF7FEFF 		bl	__aeabi_ddiv
 3246              	.LVL349:
 3247 03c0 FFF7FEFF 		bl	__aeabi_d2f
 3248              	.LVL350:
 3249              		.loc 1 453 19 view .LVU858
 3250 03c4 C6F89000 		str	r0, [r6, #144]	@ float
 454:Core/drogui/src/ICM20948.c **** 
 455:Core/drogui/src/ICM20948.c ****     setReg( MAG_X_OFF ,m -> off_mx);
 3251              		.loc 1 455 5 is_stmt 1 view .LVU859
 3252 03c8 96ED1F0A 		vldr.32	s0, [r6, #124]
 3253 03cc 2420     		movs	r0, #36
 3254 03ce FFF7FEFF 		bl	setReg
 3255              	.LVL351:
 456:Core/drogui/src/ICM20948.c ****     setReg( MAG_Y_OFF ,m -> off_my);
 3256              		.loc 1 456 5 view .LVU860
 3257 03d2 96ED200A 		vldr.32	s0, [r6, #128]
ARM GAS  C:\Users\GUILLE~1\AppData\Local\Temp\ccpUd5Pj.s 			page 70


 3258 03d6 2620     		movs	r0, #38
 3259 03d8 FFF7FEFF 		bl	setReg
 3260              	.LVL352:
 457:Core/drogui/src/ICM20948.c ****     setReg( MAG_Z_OFF ,m -> off_mz);
 3261              		.loc 1 457 5 view .LVU861
 3262 03dc 96ED210A 		vldr.32	s0, [r6, #132]
 3263 03e0 2820     		movs	r0, #40
 3264 03e2 FFF7FEFF 		bl	setReg
 3265              	.LVL353:
 458:Core/drogui/src/ICM20948.c ****     setReg( MAG_X_SCALE ,m -> scl_magx);
 3266              		.loc 1 458 5 view .LVU862
 3267 03e6 96ED220A 		vldr.32	s0, [r6, #136]
 3268 03ea 2A20     		movs	r0, #42
 3269 03ec FFF7FEFF 		bl	setReg
 3270              	.LVL354:
 459:Core/drogui/src/ICM20948.c ****     setReg( MAG_Y_SCALE ,m -> scl_magy);
 3271              		.loc 1 459 5 view .LVU863
 3272 03f0 96ED230A 		vldr.32	s0, [r6, #140]
 3273 03f4 2C20     		movs	r0, #44
 3274 03f6 FFF7FEFF 		bl	setReg
 3275              	.LVL355:
 460:Core/drogui/src/ICM20948.c ****     setReg( MAG_Z_SCALE ,m -> scl_magy);
 3276              		.loc 1 460 5 view .LVU864
 3277 03fa 96ED230A 		vldr.32	s0, [r6, #140]
 3278 03fe 2E20     		movs	r0, #46
 3279 0400 FFF7FEFF 		bl	setReg
 3280              	.LVL356:
 461:Core/drogui/src/ICM20948.c ****     setReg( CAL_MAG, 100);
 3281              		.loc 1 461 5 view .LVU865
 3282 0404 9FED120A 		vldr.32	s0, .L157
 3283 0408 0820     		movs	r0, #8
 3284 040a FFF7FEFF 		bl	setReg
 3285              	.LVL357:
 462:Core/drogui/src/ICM20948.c ****     
 463:Core/drogui/src/ICM20948.c ****     matDestruct(&H);
 3286              		.loc 1 463 5 view .LVU866
 3287 040e 07F16000 		add	r0, r7, #96
 3288 0412 FFF7FEFF 		bl	matDestruct
 3289              	.LVL358:
 464:Core/drogui/src/ICM20948.c ****     matDestruct(&Ht);
 3290              		.loc 1 464 5 view .LVU867
 3291 0416 07F15000 		add	r0, r7, #80
 3292 041a FFF7FEFF 		bl	matDestruct
 3293              	.LVL359:
 465:Core/drogui/src/ICM20948.c ****     matDestruct(&prod);    
 3294              		.loc 1 465 5 view .LVU868
 3295 041e 07F13000 		add	r0, r7, #48
 3296 0422 FFF7FEFF 		bl	matDestruct
 3297              	.LVL360:
 466:Core/drogui/src/ICM20948.c ****     matDestruct(&prod2); 
 3298              		.loc 1 466 5 view .LVU869
 3299 0426 07F12000 		add	r0, r7, #32
 3300 042a FFF7FEFF 		bl	matDestruct
 3301              	.LVL361:
 467:Core/drogui/src/ICM20948.c ****     matDestruct(&inverse); 
 3302              		.loc 1 467 5 view .LVU870
 3303 042e 3846     		mov	r0, r7
ARM GAS  C:\Users\GUILLE~1\AppData\Local\Temp\ccpUd5Pj.s 			page 71


 3304 0430 FFF7FEFF 		bl	matDestruct
 3305              	.LVL362:
 468:Core/drogui/src/ICM20948.c ****     matDestruct(&w); 
 3306              		.loc 1 468 5 view .LVU871
 3307 0434 07F14000 		add	r0, r7, #64
 3308 0438 FFF7FEFF 		bl	matDestruct
 3309              	.LVL363:
 469:Core/drogui/src/ICM20948.c ****     matDestruct(&X); 
 3310              		.loc 1 469 5 view .LVU872
 3311 043c 07F11000 		add	r0, r7, #16
 3312 0440 FFF7FEFF 		bl	matDestruct
 3313              	.LVL364:
 470:Core/drogui/src/ICM20948.c **** 
 471:Core/drogui/src/ICM20948.c **** }
 3314              		.loc 1 471 1 is_stmt 0 view .LVU873
 3315 0444 7037     		adds	r7, r7, #112
 3316              	.LCFI43:
 3317              		.cfi_def_cfa_offset 48
 3318 0446 BD46     		mov	sp, r7
 3319              	.LCFI44:
 3320              		.cfi_def_cfa_register 13
 3321              		@ sp needed
 3322 0448 BDEC048B 		vldm	sp!, {d8-d9}
 3323              	.LCFI45:
 3324              		.cfi_restore 82
 3325              		.cfi_restore 83
 3326              		.cfi_restore 80
 3327              		.cfi_restore 81
 3328              		.cfi_def_cfa_offset 32
 3329              	.LVL365:
 3330              		.loc 1 471 1 view .LVU874
 3331 044c BDE8F087 		pop	{r4, r5, r6, r7, r8, r9, r10, pc}
 3332              	.LVL366:
 3333              	.L158:
 3334              		.loc 1 471 1 view .LVU875
 3335              		.align	3
 3336              	.L157:
 3337 0450 0000C842 		.word	1120403456
 3338 0454 00000040 		.word	1073741824
 3339 0458 E17A843F 		.word	1065646817
 3340              		.cfi_endproc
 3341              	.LFE193:
 3343              		.text
 3344              	.Letext0:
 3345              		.file 2 "c:\\program files (x86)\\gnu arm embedded toolchain\\10 2020-q4-major\\arm-none-eabi\\inc
 3346              		.file 3 "c:\\program files (x86)\\gnu arm embedded toolchain\\10 2020-q4-major\\arm-none-eabi\\inc
 3347              		.file 4 "Drivers/CMSIS/Device/ST/STM32F7xx/Include/stm32f746xx.h"
 3348              		.file 5 "Drivers/CMSIS/DSP/Include/arm_math.h"
 3349              		.file 6 "Core/drogui/include/filter.h"
 3350              		.file 7 "Core/drogui/include/ICM20948.h"
 3351              		.file 8 "Core/drogui/include/matlib.h"
 3352              		.file 9 "Core/drogui/include/utils.h"
 3353              		.file 10 "c:\\program files (x86)\\gnu arm embedded toolchain\\10 2020-q4-major\\arm-none-eabi\\in
 3354              		.file 11 "Drivers/STM32F7xx_HAL_Driver/Inc/stm32f7xx_hal.h"
 3355              		.file 12 "Drivers/STM32F7xx_HAL_Driver/Inc/stm32f7xx_hal_gpio.h"
ARM GAS  C:\Users\GUILLE~1\AppData\Local\Temp\ccpUd5Pj.s 			page 72

