ARM GAS  C:\Users\GUILLE~1\AppData\Local\Temp\ccBpDujs.s 			page 1


   1              		.cpu cortex-m7
   2              		.eabi_attribute 27, 1
   3              		.eabi_attribute 28, 1
   4              		.eabi_attribute 20, 1
   5              		.eabi_attribute 21, 1
   6              		.eabi_attribute 23, 3
   7              		.eabi_attribute 24, 1
   8              		.eabi_attribute 25, 1
   9              		.eabi_attribute 26, 1
  10              		.eabi_attribute 30, 1
  11              		.eabi_attribute 34, 1
  12              		.eabi_attribute 18, 4
  13              		.file	"kalman.c"
  14              		.text
  15              	.Ltext0:
  16              		.cfi_sections	.debug_frame
  17              		.section	.text.setKalmanTsImu,"ax",%progbits
  18              		.align	1
  19              		.global	setKalmanTsImu
  20              		.arch armv7e-m
  21              		.syntax unified
  22              		.thumb
  23              		.thumb_func
  24              		.fpu fpv5-sp-d16
  26              	setKalmanTsImu:
  27              	.LVL0:
  28              	.LFB141:
  29              		.file 1 "Core/drogui/src/kalman.c"
   1:Core/drogui/src/kalman.c **** #include "kalman.h"
   2:Core/drogui/src/kalman.c **** 
   3:Core/drogui/src/kalman.c **** extern char buffer[150];
   4:Core/drogui/src/kalman.c **** 
   5:Core/drogui/src/kalman.c **** #define GRAVITY 1
   6:Core/drogui/src/kalman.c **** float Ts, N;
   7:Core/drogui/src/kalman.c **** mat p, v, Rq,Rc, u, s;
   8:Core/drogui/src/kalman.c **** mat Fm, Gm, Hm, bias_p, bias_v, bias_u,Pm, Q12, ye, KalmanGain, p_gps, delta;
   9:Core/drogui/src/kalman.c **** 
  10:Core/drogui/src/kalman.c **** void setKalmanTsImu(float ts){
  30              		.loc 1 10 30 view -0
  31              		.cfi_startproc
  32              		@ args = 0, pretend = 0, frame = 0
  33              		@ frame_needed = 0, uses_anonymous_args = 0
  34              		@ link register save eliminated.
  11:Core/drogui/src/kalman.c ****     Ts = ts;
  35              		.loc 1 11 5 view .LVU1
  36              		.loc 1 11 8 is_stmt 0 view .LVU2
  37 0000 014B     		ldr	r3, .L2
  38 0002 83ED000A 		vstr.32	s0, [r3]
  12:Core/drogui/src/kalman.c **** }
  39              		.loc 1 12 1 view .LVU3
  40 0006 7047     		bx	lr
  41              	.L3:
  42              		.align	2
  43              	.L2:
  44 0008 00000000 		.word	.LANCHOR0
  45              		.cfi_endproc
  46              	.LFE141:
ARM GAS  C:\Users\GUILLE~1\AppData\Local\Temp\ccBpDujs.s 			page 2


  48              		.section	.text.setKalmanTsGps,"ax",%progbits
  49              		.align	1
  50              		.global	setKalmanTsGps
  51              		.syntax unified
  52              		.thumb
  53              		.thumb_func
  54              		.fpu fpv5-sp-d16
  56              	setKalmanTsGps:
  57              	.LVL1:
  58              	.LFB142:
  13:Core/drogui/src/kalman.c **** 
  14:Core/drogui/src/kalman.c **** void setKalmanTsGps(float ts){
  59              		.loc 1 14 30 is_stmt 1 view -0
  60              		.cfi_startproc
  61              		@ args = 0, pretend = 0, frame = 0
  62              		@ frame_needed = 0, uses_anonymous_args = 0
  63              		@ link register save eliminated.
  15:Core/drogui/src/kalman.c ****     N = Ts/ts;
  64              		.loc 1 15 5 view .LVU5
  65              		.loc 1 15 11 is_stmt 0 view .LVU6
  66 0000 044B     		ldr	r3, .L5
  67 0002 93ED007A 		vldr.32	s14, [r3]
  68 0006 C7EE007A 		vdiv.f32	s15, s14, s0
  69              		.loc 1 15 7 view .LVU7
  70 000a 034B     		ldr	r3, .L5+4
  71 000c C3ED007A 		vstr.32	s15, [r3]
  16:Core/drogui/src/kalman.c **** }
  72              		.loc 1 16 1 view .LVU8
  73 0010 7047     		bx	lr
  74              	.L6:
  75 0012 00BF     		.align	2
  76              	.L5:
  77 0014 00000000 		.word	.LANCHOR0
  78 0018 00000000 		.word	.LANCHOR1
  79              		.cfi_endproc
  80              	.LFE142:
  82              		.section	.text.initMatGlobal,"ax",%progbits
  83              		.align	1
  84              		.global	initMatGlobal
  85              		.syntax unified
  86              		.thumb
  87              		.thumb_func
  88              		.fpu fpv5-sp-d16
  90              	initMatGlobal:
  91              	.LFB143:
  17:Core/drogui/src/kalman.c **** 
  18:Core/drogui/src/kalman.c **** void initMatGlobal(){
  92              		.loc 1 18 21 is_stmt 1 view -0
  93              		.cfi_startproc
  94              		@ args = 0, pretend = 0, frame = 0
  95              		@ frame_needed = 0, uses_anonymous_args = 0
  96 0000 10B5     		push	{r4, lr}
  97              	.LCFI0:
  98              		.cfi_def_cfa_offset 8
  99              		.cfi_offset 4, -8
 100              		.cfi_offset 14, -4
  19:Core/drogui/src/kalman.c ****     matInit(&Rq, 3, 3);
ARM GAS  C:\Users\GUILLE~1\AppData\Local\Temp\ccBpDujs.s 			page 3


 101              		.loc 1 19 5 view .LVU10
 102 0002 0322     		movs	r2, #3
 103 0004 1146     		mov	r1, r2
 104 0006 5748     		ldr	r0, .L23
 105 0008 FFF7FEFF 		bl	matInit
 106              	.LVL2:
  20:Core/drogui/src/kalman.c ****     matInit(&u, 3, 1);
 107              		.loc 1 20 5 view .LVU11
 108 000c 0122     		movs	r2, #1
 109 000e 0321     		movs	r1, #3
 110 0010 5548     		ldr	r0, .L23+4
 111 0012 FFF7FEFF 		bl	matInit
 112              	.LVL3:
  21:Core/drogui/src/kalman.c ****     matInit(&s, 3, 1);
 113              		.loc 1 21 5 view .LVU12
 114 0016 0122     		movs	r2, #1
 115 0018 0321     		movs	r1, #3
 116 001a 5448     		ldr	r0, .L23+8
 117 001c FFF7FEFF 		bl	matInit
 118              	.LVL4:
  22:Core/drogui/src/kalman.c ****     matInit(&p, 3, 1);
 119              		.loc 1 22 5 view .LVU13
 120 0020 0122     		movs	r2, #1
 121 0022 0321     		movs	r1, #3
 122 0024 5248     		ldr	r0, .L23+12
 123 0026 FFF7FEFF 		bl	matInit
 124              	.LVL5:
  23:Core/drogui/src/kalman.c ****     matInit(&v, 3, 1);
 125              		.loc 1 23 5 view .LVU14
 126 002a 0122     		movs	r2, #1
 127 002c 0321     		movs	r1, #3
 128 002e 5148     		ldr	r0, .L23+16
 129 0030 FFF7FEFF 		bl	matInit
 130              	.LVL6:
  24:Core/drogui/src/kalman.c ****     matInit(&bias_p, 3, 1);
 131              		.loc 1 24 5 view .LVU15
 132 0034 0122     		movs	r2, #1
 133 0036 0321     		movs	r1, #3
 134 0038 4F48     		ldr	r0, .L23+20
 135 003a FFF7FEFF 		bl	matInit
 136              	.LVL7:
  25:Core/drogui/src/kalman.c ****     matInit(&bias_u, 3, 1);
 137              		.loc 1 25 5 view .LVU16
 138 003e 0122     		movs	r2, #1
 139 0040 0321     		movs	r1, #3
 140 0042 4E48     		ldr	r0, .L23+24
 141 0044 FFF7FEFF 		bl	matInit
 142              	.LVL8:
  26:Core/drogui/src/kalman.c ****     matInit(&bias_v, 3, 1);
 143              		.loc 1 26 5 view .LVU17
 144 0048 0122     		movs	r2, #1
 145 004a 0321     		movs	r1, #3
 146 004c 4C48     		ldr	r0, .L23+28
 147 004e FFF7FEFF 		bl	matInit
 148              	.LVL9:
  27:Core/drogui/src/kalman.c ****     matInit(&ye, 3, 1);
 149              		.loc 1 27 5 view .LVU18
ARM GAS  C:\Users\GUILLE~1\AppData\Local\Temp\ccBpDujs.s 			page 4


 150 0052 0122     		movs	r2, #1
 151 0054 0321     		movs	r1, #3
 152 0056 4B48     		ldr	r0, .L23+32
 153 0058 FFF7FEFF 		bl	matInit
 154              	.LVL10:
  28:Core/drogui/src/kalman.c ****     matInit(&p_gps,3, 1);
 155              		.loc 1 28 5 view .LVU19
 156 005c 0122     		movs	r2, #1
 157 005e 0321     		movs	r1, #3
 158 0060 4948     		ldr	r0, .L23+36
 159 0062 FFF7FEFF 		bl	matInit
 160              	.LVL11:
  29:Core/drogui/src/kalman.c ****     matInit(&KalmanGain, 9, 3);    
 161              		.loc 1 29 5 view .LVU20
 162 0066 0322     		movs	r2, #3
 163 0068 0921     		movs	r1, #9
 164 006a 4848     		ldr	r0, .L23+40
 165 006c FFF7FEFF 		bl	matInit
 166              	.LVL12:
  30:Core/drogui/src/kalman.c ****     matInit(&delta, 9, 1);
 167              		.loc 1 30 5 view .LVU21
 168 0070 0122     		movs	r2, #1
 169 0072 0921     		movs	r1, #9
 170 0074 4648     		ldr	r0, .L23+44
 171 0076 FFF7FEFF 		bl	matInit
 172              	.LVL13:
  31:Core/drogui/src/kalman.c **** 
  32:Core/drogui/src/kalman.c ****     matInit(&Rc, 3, 3);
 173              		.loc 1 32 5 view .LVU22
 174 007a 0322     		movs	r2, #3
 175 007c 1146     		mov	r1, r2
 176 007e 4548     		ldr	r0, .L23+48
 177 0080 FFF7FEFF 		bl	matInit
 178              	.LVL14:
  33:Core/drogui/src/kalman.c ****     for(int i = 0; i < 3;  i++) setMatVal(&Rc,i,i,0.1);
 179              		.loc 1 33 5 view .LVU23
 180              	.LBB2:
 181              		.loc 1 33 9 view .LVU24
 182              		.loc 1 33 13 is_stmt 0 view .LVU25
 183 0084 0024     		movs	r4, #0
 184              		.loc 1 33 5 view .LVU26
 185 0086 07E0     		b	.L8
 186              	.LVL15:
 187              	.L9:
 188              		.loc 1 33 33 is_stmt 1 discriminator 3 view .LVU27
 189 0088 9FED430A 		vldr.32	s0, .L23+52
 190 008c 2246     		mov	r2, r4
 191 008e 2146     		mov	r1, r4
 192 0090 4048     		ldr	r0, .L23+48
 193 0092 FFF7FEFF 		bl	setMatVal
 194              	.LVL16:
 195              		.loc 1 33 28 discriminator 3 view .LVU28
 196              		.loc 1 33 29 is_stmt 0 discriminator 3 view .LVU29
 197 0096 0134     		adds	r4, r4, #1
 198              	.LVL17:
 199              	.L8:
 200              		.loc 1 33 20 is_stmt 1 discriminator 1 view .LVU30
ARM GAS  C:\Users\GUILLE~1\AppData\Local\Temp\ccBpDujs.s 			page 5


 201              		.loc 1 33 5 is_stmt 0 discriminator 1 view .LVU31
 202 0098 022C     		cmp	r4, #2
 203 009a F5DD     		ble	.L9
 204              	.LBE2:
  34:Core/drogui/src/kalman.c **** 
  35:Core/drogui/src/kalman.c ****     matInit(&Q12, 6, 6); 
 205              		.loc 1 35 5 is_stmt 1 view .LVU32
 206 009c 0622     		movs	r2, #6
 207 009e 1146     		mov	r1, r2
 208 00a0 3E48     		ldr	r0, .L23+56
 209 00a2 FFF7FEFF 		bl	matInit
 210              	.LVL18:
  36:Core/drogui/src/kalman.c ****     for(int i = 0; i < 6;  i++) setMatVal(&Q12,i,i,0.1);
 211              		.loc 1 36 5 view .LVU33
 212              	.LBB3:
 213              		.loc 1 36 9 view .LVU34
 214              		.loc 1 36 13 is_stmt 0 view .LVU35
 215 00a6 0024     		movs	r4, #0
 216              	.LVL19:
 217              		.loc 1 36 5 view .LVU36
 218 00a8 07E0     		b	.L10
 219              	.LVL20:
 220              	.L11:
 221              		.loc 1 36 33 is_stmt 1 discriminator 3 view .LVU37
 222 00aa 9FED3B0A 		vldr.32	s0, .L23+52
 223 00ae 2246     		mov	r2, r4
 224 00b0 2146     		mov	r1, r4
 225 00b2 3A48     		ldr	r0, .L23+56
 226 00b4 FFF7FEFF 		bl	setMatVal
 227              	.LVL21:
 228              		.loc 1 36 28 discriminator 3 view .LVU38
 229              		.loc 1 36 29 is_stmt 0 discriminator 3 view .LVU39
 230 00b8 0134     		adds	r4, r4, #1
 231              	.LVL22:
 232              	.L10:
 233              		.loc 1 36 20 is_stmt 1 discriminator 1 view .LVU40
 234              		.loc 1 36 5 is_stmt 0 discriminator 1 view .LVU41
 235 00ba 052C     		cmp	r4, #5
 236 00bc F5DD     		ble	.L11
 237              	.LBE3:
  37:Core/drogui/src/kalman.c **** 
  38:Core/drogui/src/kalman.c ****     matInit(&Pm, 9, 9); 
 238              		.loc 1 38 5 is_stmt 1 view .LVU42
 239 00be 0922     		movs	r2, #9
 240 00c0 1146     		mov	r1, r2
 241 00c2 3748     		ldr	r0, .L23+60
 242 00c4 FFF7FEFF 		bl	matInit
 243              	.LVL23:
  39:Core/drogui/src/kalman.c ****     for(int i = 0; i < 9;  i++) setMatVal(&Pm,i,i,1);
 244              		.loc 1 39 5 view .LVU43
 245              	.LBB4:
 246              		.loc 1 39 9 view .LVU44
 247              		.loc 1 39 13 is_stmt 0 view .LVU45
 248 00c8 0024     		movs	r4, #0
 249              	.LVL24:
 250              		.loc 1 39 5 view .LVU46
 251 00ca 07E0     		b	.L12
ARM GAS  C:\Users\GUILLE~1\AppData\Local\Temp\ccBpDujs.s 			page 6


 252              	.LVL25:
 253              	.L13:
 254              		.loc 1 39 33 is_stmt 1 discriminator 3 view .LVU47
 255 00cc B7EE000A 		vmov.f32	s0, #1.0e+0
 256 00d0 2246     		mov	r2, r4
 257 00d2 2146     		mov	r1, r4
 258 00d4 3248     		ldr	r0, .L23+60
 259 00d6 FFF7FEFF 		bl	setMatVal
 260              	.LVL26:
 261              		.loc 1 39 28 discriminator 3 view .LVU48
 262              		.loc 1 39 29 is_stmt 0 discriminator 3 view .LVU49
 263 00da 0134     		adds	r4, r4, #1
 264              	.LVL27:
 265              	.L12:
 266              		.loc 1 39 20 is_stmt 1 discriminator 1 view .LVU50
 267              		.loc 1 39 5 is_stmt 0 discriminator 1 view .LVU51
 268 00dc 082C     		cmp	r4, #8
 269 00de F5DD     		ble	.L13
 270              	.LBE4:
  40:Core/drogui/src/kalman.c **** 
  41:Core/drogui/src/kalman.c ****     matInit(&Fm, 9, 9);
 271              		.loc 1 41 5 is_stmt 1 view .LVU52
 272 00e0 0922     		movs	r2, #9
 273 00e2 1146     		mov	r1, r2
 274 00e4 2F48     		ldr	r0, .L23+64
 275 00e6 FFF7FEFF 		bl	matInit
 276              	.LVL28:
  42:Core/drogui/src/kalman.c ****     for(int i = 0; i < 9 ; i++) setMatVal(&Fm, i, i, 1);
 277              		.loc 1 42 5 view .LVU53
 278              	.LBB5:
 279              		.loc 1 42 9 view .LVU54
 280              		.loc 1 42 13 is_stmt 0 view .LVU55
 281 00ea 0024     		movs	r4, #0
 282              	.LVL29:
 283              		.loc 1 42 5 view .LVU56
 284 00ec 07E0     		b	.L14
 285              	.LVL30:
 286              	.L15:
 287              		.loc 1 42 33 is_stmt 1 discriminator 3 view .LVU57
 288 00ee B7EE000A 		vmov.f32	s0, #1.0e+0
 289 00f2 2246     		mov	r2, r4
 290 00f4 2146     		mov	r1, r4
 291 00f6 2B48     		ldr	r0, .L23+64
 292 00f8 FFF7FEFF 		bl	setMatVal
 293              	.LVL31:
 294              		.loc 1 42 28 discriminator 3 view .LVU58
 295              		.loc 1 42 29 is_stmt 0 discriminator 3 view .LVU59
 296 00fc 0134     		adds	r4, r4, #1
 297              	.LVL32:
 298              	.L14:
 299              		.loc 1 42 20 is_stmt 1 discriminator 1 view .LVU60
 300              		.loc 1 42 5 is_stmt 0 discriminator 1 view .LVU61
 301 00fe 082C     		cmp	r4, #8
 302 0100 F5DD     		ble	.L15
 303              	.LBE5:
 304              	.LBB6:
  43:Core/drogui/src/kalman.c ****     for(int i = 0; i < 3; i++) setMatVal(&Fm, i, i+3, Ts);
ARM GAS  C:\Users\GUILLE~1\AppData\Local\Temp\ccBpDujs.s 			page 7


 305              		.loc 1 43 13 view .LVU62
 306 0102 0024     		movs	r4, #0
 307              	.LVL33:
 308              		.loc 1 43 13 view .LVU63
 309 0104 08E0     		b	.L16
 310              	.LVL34:
 311              	.L17:
 312              		.loc 1 43 32 is_stmt 1 discriminator 3 view .LVU64
 313 0106 284B     		ldr	r3, .L23+68
 314 0108 93ED000A 		vldr.32	s0, [r3]
 315 010c E21C     		adds	r2, r4, #3
 316 010e 2146     		mov	r1, r4
 317 0110 2448     		ldr	r0, .L23+64
 318 0112 FFF7FEFF 		bl	setMatVal
 319              	.LVL35:
 320              		.loc 1 43 27 discriminator 3 view .LVU65
 321              		.loc 1 43 28 is_stmt 0 discriminator 3 view .LVU66
 322 0116 0134     		adds	r4, r4, #1
 323              	.LVL36:
 324              	.L16:
 325              		.loc 1 43 20 is_stmt 1 discriminator 1 view .LVU67
 326              		.loc 1 43 5 is_stmt 0 discriminator 1 view .LVU68
 327 0118 022C     		cmp	r4, #2
 328 011a F4DD     		ble	.L17
 329              	.LBE6:
  44:Core/drogui/src/kalman.c **** 
  45:Core/drogui/src/kalman.c ****     matInit(&Hm, 3, 9); 
 330              		.loc 1 45 5 is_stmt 1 view .LVU69
 331 011c 0922     		movs	r2, #9
 332 011e 0321     		movs	r1, #3
 333 0120 2248     		ldr	r0, .L23+72
 334 0122 FFF7FEFF 		bl	matInit
 335              	.LVL37:
  46:Core/drogui/src/kalman.c ****     for(int i = 0; i <3; i++) setMatVal(&Hm, i, i,1);
 336              		.loc 1 46 5 view .LVU70
 337              	.LBB7:
 338              		.loc 1 46 9 view .LVU71
 339              		.loc 1 46 13 is_stmt 0 view .LVU72
 340 0126 0024     		movs	r4, #0
 341              	.LVL38:
 342              		.loc 1 46 5 view .LVU73
 343 0128 07E0     		b	.L18
 344              	.LVL39:
 345              	.L19:
 346              		.loc 1 46 31 is_stmt 1 discriminator 3 view .LVU74
 347 012a B7EE000A 		vmov.f32	s0, #1.0e+0
 348 012e 2246     		mov	r2, r4
 349 0130 2146     		mov	r1, r4
 350 0132 1E48     		ldr	r0, .L23+72
 351 0134 FFF7FEFF 		bl	setMatVal
 352              	.LVL40:
 353              		.loc 1 46 26 discriminator 3 view .LVU75
 354              		.loc 1 46 27 is_stmt 0 discriminator 3 view .LVU76
 355 0138 0134     		adds	r4, r4, #1
 356              	.LVL41:
 357              	.L18:
 358              		.loc 1 46 20 is_stmt 1 discriminator 1 view .LVU77
ARM GAS  C:\Users\GUILLE~1\AppData\Local\Temp\ccBpDujs.s 			page 8


 359              		.loc 1 46 5 is_stmt 0 discriminator 1 view .LVU78
 360 013a 022C     		cmp	r4, #2
 361 013c F5DD     		ble	.L19
 362              	.LBE7:
  47:Core/drogui/src/kalman.c **** 
  48:Core/drogui/src/kalman.c ****     matInit(&Gm,9,6);
 363              		.loc 1 48 5 is_stmt 1 view .LVU79
 364 013e 0622     		movs	r2, #6
 365 0140 0921     		movs	r1, #9
 366 0142 1B48     		ldr	r0, .L23+76
 367 0144 FFF7FEFF 		bl	matInit
 368              	.LVL42:
  49:Core/drogui/src/kalman.c ****     for( int i = 6;  i < 9; i++ ) setMatVal(&Gm, i, i-3,1);
 369              		.loc 1 49 5 view .LVU80
 370              	.LBB8:
 371              		.loc 1 49 10 view .LVU81
 372              		.loc 1 49 14 is_stmt 0 view .LVU82
 373 0148 0624     		movs	r4, #6
 374              	.LVL43:
 375              		.loc 1 49 5 view .LVU83
 376 014a 07E0     		b	.L20
 377              	.LVL44:
 378              	.L21:
 379              		.loc 1 49 35 is_stmt 1 discriminator 3 view .LVU84
 380 014c B7EE000A 		vmov.f32	s0, #1.0e+0
 381 0150 E21E     		subs	r2, r4, #3
 382 0152 2146     		mov	r1, r4
 383 0154 1648     		ldr	r0, .L23+76
 384 0156 FFF7FEFF 		bl	setMatVal
 385              	.LVL45:
 386              		.loc 1 49 29 discriminator 3 view .LVU85
 387              		.loc 1 49 30 is_stmt 0 discriminator 3 view .LVU86
 388 015a 0134     		adds	r4, r4, #1
 389              	.LVL46:
 390              	.L20:
 391              		.loc 1 49 22 is_stmt 1 discriminator 1 view .LVU87
 392              		.loc 1 49 5 is_stmt 0 discriminator 1 view .LVU88
 393 015c 082C     		cmp	r4, #8
 394 015e F5DD     		ble	.L21
 395              	.LBE8:
  50:Core/drogui/src/kalman.c ****     
  51:Core/drogui/src/kalman.c **** }
 396              		.loc 1 51 1 view .LVU89
 397 0160 10BD     		pop	{r4, pc}
 398              	.LVL47:
 399              	.L24:
 400              		.loc 1 51 1 view .LVU90
 401 0162 00BF     		.align	2
 402              	.L23:
 403 0164 00000000 		.word	.LANCHOR2
 404 0168 00000000 		.word	.LANCHOR3
 405 016c 00000000 		.word	.LANCHOR4
 406 0170 00000000 		.word	.LANCHOR5
 407 0174 00000000 		.word	.LANCHOR6
 408 0178 00000000 		.word	.LANCHOR7
 409 017c 00000000 		.word	.LANCHOR8
 410 0180 00000000 		.word	.LANCHOR9
ARM GAS  C:\Users\GUILLE~1\AppData\Local\Temp\ccBpDujs.s 			page 9


 411 0184 00000000 		.word	.LANCHOR10
 412 0188 00000000 		.word	.LANCHOR11
 413 018c 00000000 		.word	.LANCHOR12
 414 0190 00000000 		.word	.LANCHOR13
 415 0194 00000000 		.word	.LANCHOR14
 416 0198 CDCCCC3D 		.word	1036831949
 417 019c 00000000 		.word	.LANCHOR15
 418 01a0 00000000 		.word	.LANCHOR16
 419 01a4 00000000 		.word	.LANCHOR17
 420 01a8 00000000 		.word	.LANCHOR0
 421 01ac 00000000 		.word	.LANCHOR18
 422 01b0 00000000 		.word	.LANCHOR19
 423              		.cfi_endproc
 424              	.LFE143:
 426              		.global	__aeabi_f2d
 427              		.global	__aeabi_dsub
 428              		.global	__aeabi_d2f
 429              		.section	.text.kynematics,"ax",%progbits
 430              		.align	1
 431              		.global	kynematics
 432              		.syntax unified
 433              		.thumb
 434              		.thumb_func
 435              		.fpu fpv5-sp-d16
 437              	kynematics:
 438              	.LFB144:
  52:Core/drogui/src/kalman.c **** 
  53:Core/drogui/src/kalman.c **** void kynematics(){
 439              		.loc 1 53 18 is_stmt 1 view -0
 440              		.cfi_startproc
 441              		@ args = 0, pretend = 0, frame = 32
 442              		@ frame_needed = 0, uses_anonymous_args = 0
 443 0000 70B5     		push	{r4, r5, r6, lr}
 444              	.LCFI1:
 445              		.cfi_def_cfa_offset 16
 446              		.cfi_offset 4, -16
 447              		.cfi_offset 5, -12
 448              		.cfi_offset 6, -8
 449              		.cfi_offset 14, -4
 450 0002 88B0     		sub	sp, sp, #32
 451              	.LCFI2:
 452              		.cfi_def_cfa_offset 48
  54:Core/drogui/src/kalman.c ****     mat aux1, aux2;
 453              		.loc 1 54 5 view .LVU92
  55:Core/drogui/src/kalman.c **** 
  56:Core/drogui/src/kalman.c ****     matInit(&aux1, p.row, p.col);
 454              		.loc 1 56 5 view .LVU93
 455 0004 2C4C     		ldr	r4, .L27+8
 456 0006 6268     		ldr	r2, [r4, #4]
 457 0008 2168     		ldr	r1, [r4]
 458 000a 04A8     		add	r0, sp, #16
 459 000c FFF7FEFF 		bl	matInit
 460              	.LVL48:
  57:Core/drogui/src/kalman.c ****     matScale(&aux1, &v, Ts);
 461              		.loc 1 57 5 view .LVU94
 462 0010 2A4D     		ldr	r5, .L27+12
 463 0012 2B4E     		ldr	r6, .L27+16
ARM GAS  C:\Users\GUILLE~1\AppData\Local\Temp\ccBpDujs.s 			page 10


 464 0014 95ED000A 		vldr.32	s0, [r5]
 465 0018 3146     		mov	r1, r6
 466 001a 04A8     		add	r0, sp, #16
 467 001c FFF7FEFF 		bl	matScale
 468              	.LVL49:
  58:Core/drogui/src/kalman.c **** 
  59:Core/drogui/src/kalman.c ****     matInit(&aux2, p.row, p.col);
 469              		.loc 1 59 5 view .LVU95
 470 0020 6268     		ldr	r2, [r4, #4]
 471 0022 2168     		ldr	r1, [r4]
 472 0024 6846     		mov	r0, sp
 473 0026 FFF7FEFF 		bl	matInit
 474              	.LVL50:
  60:Core/drogui/src/kalman.c ****     matMult(&aux2, &Rq, &u);
 475              		.loc 1 60 5 view .LVU96
 476 002a 264A     		ldr	r2, .L27+20
 477 002c 2649     		ldr	r1, .L27+24
 478 002e 6846     		mov	r0, sp
 479 0030 FFF7FEFF 		bl	matMult
 480              	.LVL51:
  61:Core/drogui/src/kalman.c **** 
  62:Core/drogui/src/kalman.c ****     setMatVal(&aux2, 2, 0, getMatVal(&aux2, 2, 0) - 9.81);
 481              		.loc 1 62 5 view .LVU97
 482              		.loc 1 62 28 is_stmt 0 view .LVU98
 483 0034 0022     		movs	r2, #0
 484 0036 0221     		movs	r1, #2
 485 0038 6846     		mov	r0, sp
 486 003a FFF7FEFF 		bl	getMatVal
 487              	.LVL52:
 488 003e 10EE100A 		vmov	r0, s0
 489 0042 FFF7FEFF 		bl	__aeabi_f2d
 490              	.LVL53:
 491              		.loc 1 62 51 view .LVU99
 492 0046 1AA3     		adr	r3, .L27
 493 0048 D3E90023 		ldrd	r2, [r3]
 494 004c FFF7FEFF 		bl	__aeabi_dsub
 495              	.LVL54:
 496              		.loc 1 62 5 view .LVU100
 497 0050 FFF7FEFF 		bl	__aeabi_d2f
 498              	.LVL55:
 499 0054 00EE100A 		vmov	s0, r0
 500 0058 0022     		movs	r2, #0
 501 005a 0221     		movs	r1, #2
 502 005c 6846     		mov	r0, sp
 503 005e FFF7FEFF 		bl	setMatVal
 504              	.LVL56:
  63:Core/drogui/src/kalman.c **** 
  64:Core/drogui/src/kalman.c ****     matScale(&aux2, &aux2, Ts);    
 505              		.loc 1 64 5 is_stmt 1 view .LVU101
 506 0062 95ED000A 		vldr.32	s0, [r5]
 507 0066 6946     		mov	r1, sp
 508 0068 6846     		mov	r0, sp
 509 006a FFF7FEFF 		bl	matScale
 510              	.LVL57:
  65:Core/drogui/src/kalman.c **** 
  66:Core/drogui/src/kalman.c ****     matAdd(&v, &v, &aux2);
 511              		.loc 1 66 5 view .LVU102
ARM GAS  C:\Users\GUILLE~1\AppData\Local\Temp\ccBpDujs.s 			page 11


 512 006e 6A46     		mov	r2, sp
 513 0070 3146     		mov	r1, r6
 514 0072 3046     		mov	r0, r6
 515 0074 FFF7FEFF 		bl	matAdd
 516              	.LVL58:
  67:Core/drogui/src/kalman.c ****    
  68:Core/drogui/src/kalman.c ****     matScale(&aux2, &aux2, Ts/2);
 517              		.loc 1 68 5 view .LVU103
 518 0078 95ED000A 		vldr.32	s0, [r5]
 519 007c F6EE007A 		vmov.f32	s15, #5.0e-1
 520 0080 20EE270A 		vmul.f32	s0, s0, s15
 521 0084 6946     		mov	r1, sp
 522 0086 6846     		mov	r0, sp
 523 0088 FFF7FEFF 		bl	matScale
 524              	.LVL59:
  69:Core/drogui/src/kalman.c **** 
  70:Core/drogui/src/kalman.c ****     matAdd(&p, &p, &aux1);
 525              		.loc 1 70 5 view .LVU104
 526 008c 04AA     		add	r2, sp, #16
 527 008e 2146     		mov	r1, r4
 528 0090 2046     		mov	r0, r4
 529 0092 FFF7FEFF 		bl	matAdd
 530              	.LVL60:
  71:Core/drogui/src/kalman.c ****     matAdd(&p, &p, &aux2);
 531              		.loc 1 71 5 view .LVU105
 532 0096 6A46     		mov	r2, sp
 533 0098 2146     		mov	r1, r4
 534 009a 2046     		mov	r0, r4
 535 009c FFF7FEFF 		bl	matAdd
 536              	.LVL61:
  72:Core/drogui/src/kalman.c ****     
  73:Core/drogui/src/kalman.c **** 
  74:Core/drogui/src/kalman.c ****     matDestruct(&aux1);
 537              		.loc 1 74 5 view .LVU106
 538 00a0 04A8     		add	r0, sp, #16
 539 00a2 FFF7FEFF 		bl	matDestruct
 540              	.LVL62:
  75:Core/drogui/src/kalman.c ****     matDestruct(&aux2);
 541              		.loc 1 75 5 view .LVU107
 542 00a6 6846     		mov	r0, sp
 543 00a8 FFF7FEFF 		bl	matDestruct
 544              	.LVL63:
  76:Core/drogui/src/kalman.c **** }
 545              		.loc 1 76 1 is_stmt 0 view .LVU108
 546 00ac 08B0     		add	sp, sp, #32
 547              	.LCFI3:
 548              		.cfi_def_cfa_offset 16
 549              		@ sp needed
 550 00ae 70BD     		pop	{r4, r5, r6, pc}
 551              	.L28:
 552              		.align	3
 553              	.L27:
 554 00b0 1F85EB51 		.word	1374389535
 555 00b4 B89E2340 		.word	1076076216
 556 00b8 00000000 		.word	.LANCHOR5
 557 00bc 00000000 		.word	.LANCHOR0
 558 00c0 00000000 		.word	.LANCHOR6
ARM GAS  C:\Users\GUILLE~1\AppData\Local\Temp\ccBpDujs.s 			page 12


 559 00c4 00000000 		.word	.LANCHOR3
 560 00c8 00000000 		.word	.LANCHOR2
 561              		.cfi_endproc
 562              	.LFE144:
 564              		.section	.text.getMatFm,"ax",%progbits
 565              		.align	1
 566              		.global	getMatFm
 567              		.syntax unified
 568              		.thumb
 569              		.thumb_func
 570              		.fpu fpv5-sp-d16
 572              	getMatFm:
 573              	.LFB145:
  77:Core/drogui/src/kalman.c **** 
  78:Core/drogui/src/kalman.c **** 
  79:Core/drogui/src/kalman.c **** void getMatFm(){
 574              		.loc 1 79 16 is_stmt 1 view -0
 575              		.cfi_startproc
 576              		@ args = 0, pretend = 0, frame = 0
 577              		@ frame_needed = 0, uses_anonymous_args = 0
 578 0000 38B5     		push	{r3, r4, r5, lr}
 579              	.LCFI4:
 580              		.cfi_def_cfa_offset 16
 581              		.cfi_offset 3, -16
 582              		.cfi_offset 4, -12
 583              		.cfi_offset 5, -8
 584              		.cfi_offset 14, -4
  80:Core/drogui/src/kalman.c ****     for(int i = 0; i < 3; i++)
 585              		.loc 1 80 5 view .LVU110
 586              	.LBB9:
 587              		.loc 1 80 9 view .LVU111
 588              	.LVL64:
 589              		.loc 1 80 13 is_stmt 0 view .LVU112
 590 0002 0025     		movs	r5, #0
 591              		.loc 1 80 5 view .LVU113
 592 0004 12E0     		b	.L30
 593              	.LVL65:
 594              	.L31:
 595              	.LBB10:
  81:Core/drogui/src/kalman.c ****         for(int j = 0; j < 3; j++)
  82:Core/drogui/src/kalman.c ****             setMatVal(&Fm, i + 3 ,j + 6, Ts*getMatVal(&Rq, i, j));
 596              		.loc 1 82 13 is_stmt 1 discriminator 3 view .LVU114
 597              		.loc 1 82 45 is_stmt 0 discriminator 3 view .LVU115
 598 0006 2246     		mov	r2, r4
 599 0008 2946     		mov	r1, r5
 600 000a 0B48     		ldr	r0, .L36
 601 000c FFF7FEFF 		bl	getMatVal
 602              	.LVL66:
 603              		.loc 1 82 13 discriminator 3 view .LVU116
 604 0010 0A4B     		ldr	r3, .L36+4
 605 0012 D3ED007A 		vldr.32	s15, [r3]
 606 0016 20EE270A 		vmul.f32	s0, s0, s15
 607 001a A21D     		adds	r2, r4, #6
 608 001c E91C     		adds	r1, r5, #3
 609 001e 0848     		ldr	r0, .L36+8
 610 0020 FFF7FEFF 		bl	setMatVal
 611              	.LVL67:
ARM GAS  C:\Users\GUILLE~1\AppData\Local\Temp\ccBpDujs.s 			page 13


  81:Core/drogui/src/kalman.c ****         for(int j = 0; j < 3; j++)
 612              		.loc 1 81 31 is_stmt 1 discriminator 3 view .LVU117
  81:Core/drogui/src/kalman.c ****         for(int j = 0; j < 3; j++)
 613              		.loc 1 81 32 is_stmt 0 discriminator 3 view .LVU118
 614 0024 0134     		adds	r4, r4, #1
 615              	.LVL68:
 616              	.L32:
  81:Core/drogui/src/kalman.c ****         for(int j = 0; j < 3; j++)
 617              		.loc 1 81 24 is_stmt 1 discriminator 1 view .LVU119
  81:Core/drogui/src/kalman.c ****         for(int j = 0; j < 3; j++)
 618              		.loc 1 81 9 is_stmt 0 discriminator 1 view .LVU120
 619 0026 022C     		cmp	r4, #2
 620 0028 EDDD     		ble	.L31
 621              	.LBE10:
  80:Core/drogui/src/kalman.c ****     for(int i = 0; i < 3; i++)
 622              		.loc 1 80 27 is_stmt 1 discriminator 2 view .LVU121
  80:Core/drogui/src/kalman.c ****     for(int i = 0; i < 3; i++)
 623              		.loc 1 80 28 is_stmt 0 discriminator 2 view .LVU122
 624 002a 0135     		adds	r5, r5, #1
 625              	.LVL69:
 626              	.L30:
  80:Core/drogui/src/kalman.c ****     for(int i = 0; i < 3; i++)
 627              		.loc 1 80 20 is_stmt 1 discriminator 1 view .LVU123
  80:Core/drogui/src/kalman.c ****     for(int i = 0; i < 3; i++)
 628              		.loc 1 80 5 is_stmt 0 discriminator 1 view .LVU124
 629 002c 022D     		cmp	r5, #2
 630 002e 01DC     		bgt	.L35
 631              	.LBB11:
  81:Core/drogui/src/kalman.c ****         for(int j = 0; j < 3; j++)
 632              		.loc 1 81 17 view .LVU125
 633 0030 0024     		movs	r4, #0
 634 0032 F8E7     		b	.L32
 635              	.L35:
 636              	.LBE11:
 637              	.LBE9:
  83:Core/drogui/src/kalman.c **** }
 638              		.loc 1 83 1 view .LVU126
 639 0034 38BD     		pop	{r3, r4, r5, pc}
 640              	.LVL70:
 641              	.L37:
 642              		.loc 1 83 1 view .LVU127
 643 0036 00BF     		.align	2
 644              	.L36:
 645 0038 00000000 		.word	.LANCHOR2
 646 003c 00000000 		.word	.LANCHOR0
 647 0040 00000000 		.word	.LANCHOR17
 648              		.cfi_endproc
 649              	.LFE145:
 651              		.section	.text.getMatGm,"ax",%progbits
 652              		.align	1
 653              		.global	getMatGm
 654              		.syntax unified
 655              		.thumb
 656              		.thumb_func
 657              		.fpu fpv5-sp-d16
 659              	getMatGm:
 660              	.LFB146:
ARM GAS  C:\Users\GUILLE~1\AppData\Local\Temp\ccBpDujs.s 			page 14


  84:Core/drogui/src/kalman.c **** 
  85:Core/drogui/src/kalman.c **** void getMatGm(){
 661              		.loc 1 85 16 is_stmt 1 view -0
 662              		.cfi_startproc
 663              		@ args = 0, pretend = 0, frame = 0
 664              		@ frame_needed = 0, uses_anonymous_args = 0
 665 0000 38B5     		push	{r3, r4, r5, lr}
 666              	.LCFI5:
 667              		.cfi_def_cfa_offset 16
 668              		.cfi_offset 3, -16
 669              		.cfi_offset 4, -12
 670              		.cfi_offset 5, -8
 671              		.cfi_offset 14, -4
  86:Core/drogui/src/kalman.c ****     for( int i = 0;  i < 3; i++ ){
 672              		.loc 1 86 5 view .LVU129
 673              	.LBB12:
 674              		.loc 1 86 10 view .LVU130
 675              	.LVL71:
 676              		.loc 1 86 14 is_stmt 0 view .LVU131
 677 0002 0025     		movs	r5, #0
 678              		.loc 1 86 5 view .LVU132
 679 0004 12E0     		b	.L39
 680              	.LVL72:
 681              	.L40:
 682              	.LBB13:
  87:Core/drogui/src/kalman.c ****         for( int j = 0; j < 3; j++) 
  88:Core/drogui/src/kalman.c ****             setMatVal(&Gm, i+3, j, Ts*getMatVal(&Rq, i,j));
 683              		.loc 1 88 13 is_stmt 1 discriminator 3 view .LVU133
 684              		.loc 1 88 39 is_stmt 0 discriminator 3 view .LVU134
 685 0006 2246     		mov	r2, r4
 686 0008 2946     		mov	r1, r5
 687 000a 0B48     		ldr	r0, .L45
 688 000c FFF7FEFF 		bl	getMatVal
 689              	.LVL73:
 690              		.loc 1 88 13 discriminator 3 view .LVU135
 691 0010 0A4B     		ldr	r3, .L45+4
 692 0012 D3ED007A 		vldr.32	s15, [r3]
 693 0016 20EE270A 		vmul.f32	s0, s0, s15
 694 001a 2246     		mov	r2, r4
 695 001c E91C     		adds	r1, r5, #3
 696 001e 0848     		ldr	r0, .L45+8
 697 0020 FFF7FEFF 		bl	setMatVal
 698              	.LVL74:
  87:Core/drogui/src/kalman.c ****         for( int j = 0; j < 3; j++) 
 699              		.loc 1 87 32 is_stmt 1 discriminator 3 view .LVU136
  87:Core/drogui/src/kalman.c ****         for( int j = 0; j < 3; j++) 
 700              		.loc 1 87 33 is_stmt 0 discriminator 3 view .LVU137
 701 0024 0134     		adds	r4, r4, #1
 702              	.LVL75:
 703              	.L41:
  87:Core/drogui/src/kalman.c ****         for( int j = 0; j < 3; j++) 
 704              		.loc 1 87 25 is_stmt 1 discriminator 1 view .LVU138
  87:Core/drogui/src/kalman.c ****         for( int j = 0; j < 3; j++) 
 705              		.loc 1 87 9 is_stmt 0 discriminator 1 view .LVU139
 706 0026 022C     		cmp	r4, #2
 707 0028 EDDD     		ble	.L40
 708              	.LBE13:
ARM GAS  C:\Users\GUILLE~1\AppData\Local\Temp\ccBpDujs.s 			page 15


  86:Core/drogui/src/kalman.c ****     for( int i = 0;  i < 3; i++ ){
 709              		.loc 1 86 29 is_stmt 1 discriminator 2 view .LVU140
  86:Core/drogui/src/kalman.c ****     for( int i = 0;  i < 3; i++ ){
 710              		.loc 1 86 30 is_stmt 0 discriminator 2 view .LVU141
 711 002a 0135     		adds	r5, r5, #1
 712              	.LVL76:
 713              	.L39:
  86:Core/drogui/src/kalman.c ****     for( int i = 0;  i < 3; i++ ){
 714              		.loc 1 86 22 is_stmt 1 discriminator 1 view .LVU142
  86:Core/drogui/src/kalman.c ****     for( int i = 0;  i < 3; i++ ){
 715              		.loc 1 86 5 is_stmt 0 discriminator 1 view .LVU143
 716 002c 022D     		cmp	r5, #2
 717 002e 01DC     		bgt	.L44
 718              	.LBB14:
  87:Core/drogui/src/kalman.c ****         for( int j = 0; j < 3; j++) 
 719              		.loc 1 87 18 view .LVU144
 720 0030 0024     		movs	r4, #0
 721 0032 F8E7     		b	.L41
 722              	.L44:
 723              	.LBE14:
 724              	.LBE12:
  89:Core/drogui/src/kalman.c ****     } 
  90:Core/drogui/src/kalman.c **** }
 725              		.loc 1 90 1 view .LVU145
 726 0034 38BD     		pop	{r3, r4, r5, pc}
 727              	.LVL77:
 728              	.L46:
 729              		.loc 1 90 1 view .LVU146
 730 0036 00BF     		.align	2
 731              	.L45:
 732 0038 00000000 		.word	.LANCHOR2
 733 003c 00000000 		.word	.LANCHOR0
 734 0040 00000000 		.word	.LANCHOR19
 735              		.cfi_endproc
 736              	.LFE146:
 738              		.section	.text.UpdatePm,"ax",%progbits
 739              		.align	1
 740              		.global	UpdatePm
 741              		.syntax unified
 742              		.thumb
 743              		.thumb_func
 744              		.fpu fpv5-sp-d16
 746              	UpdatePm:
 747              	.LFB147:
  91:Core/drogui/src/kalman.c **** 
  92:Core/drogui/src/kalman.c **** void UpdatePm(){
 748              		.loc 1 92 16 is_stmt 1 view -0
 749              		.cfi_startproc
 750              		@ args = 0, pretend = 0, frame = 80
 751              		@ frame_needed = 0, uses_anonymous_args = 0
 752 0000 70B5     		push	{r4, r5, r6, lr}
 753              	.LCFI6:
 754              		.cfi_def_cfa_offset 16
 755              		.cfi_offset 4, -16
 756              		.cfi_offset 5, -12
 757              		.cfi_offset 6, -8
 758              		.cfi_offset 14, -4
ARM GAS  C:\Users\GUILLE~1\AppData\Local\Temp\ccBpDujs.s 			page 16


 759 0002 94B0     		sub	sp, sp, #80
 760              	.LCFI7:
 761              		.cfi_def_cfa_offset 96
  93:Core/drogui/src/kalman.c ****     
  94:Core/drogui/src/kalman.c ****     mat aux1,aux2,aux3,aux4,aux5;
 762              		.loc 1 94 5 view .LVU148
  95:Core/drogui/src/kalman.c ****     matInit(&aux1, 9, 9);
 763              		.loc 1 95 5 view .LVU149
 764 0004 0922     		movs	r2, #9
 765 0006 1146     		mov	r1, r2
 766 0008 10A8     		add	r0, sp, #64
 767 000a FFF7FEFF 		bl	matInit
 768              	.LVL78:
  96:Core/drogui/src/kalman.c ****     matInit(&aux2, 6, 9);
 769              		.loc 1 96 5 view .LVU150
 770 000e 0922     		movs	r2, #9
 771 0010 0621     		movs	r1, #6
 772 0012 0CA8     		add	r0, sp, #48
 773 0014 FFF7FEFF 		bl	matInit
 774              	.LVL79:
  97:Core/drogui/src/kalman.c ****     matInit(&aux3, 9, 9);
 775              		.loc 1 97 5 view .LVU151
 776 0018 0922     		movs	r2, #9
 777 001a 1146     		mov	r1, r2
 778 001c 08A8     		add	r0, sp, #32
 779 001e FFF7FEFF 		bl	matInit
 780              	.LVL80:
  98:Core/drogui/src/kalman.c ****     matInit(&aux4, 9, 9);
 781              		.loc 1 98 5 view .LVU152
 782 0022 0922     		movs	r2, #9
 783 0024 1146     		mov	r1, r2
 784 0026 04A8     		add	r0, sp, #16
 785 0028 FFF7FEFF 		bl	matInit
 786              	.LVL81:
  99:Core/drogui/src/kalman.c ****     matInit(&aux5, 9, 6);
 787              		.loc 1 99 5 view .LVU153
 788 002c 0622     		movs	r2, #6
 789 002e 0921     		movs	r1, #9
 790 0030 6846     		mov	r0, sp
 791 0032 FFF7FEFF 		bl	matInit
 792              	.LVL82:
 100:Core/drogui/src/kalman.c ****     
 101:Core/drogui/src/kalman.c ****     getMatFm();
 793              		.loc 1 101 5 view .LVU154
 794 0036 FFF7FEFF 		bl	getMatFm
 795              	.LVL83:
 102:Core/drogui/src/kalman.c ****     getMatGm();
 796              		.loc 1 102 5 view .LVU155
 797 003a FFF7FEFF 		bl	getMatGm
 798              	.LVL84:
 103:Core/drogui/src/kalman.c **** 
 104:Core/drogui/src/kalman.c ****     matTrans(&aux1,&Fm);
 799              		.loc 1 104 5 view .LVU156
 800 003e 1A4E     		ldr	r6, .L49
 801 0040 3146     		mov	r1, r6
 802 0042 10A8     		add	r0, sp, #64
 803 0044 FFF7FEFF 		bl	matTrans
ARM GAS  C:\Users\GUILLE~1\AppData\Local\Temp\ccBpDujs.s 			page 17


 804              	.LVL85:
 105:Core/drogui/src/kalman.c ****     matTrans(&aux2,&Gm);
 805              		.loc 1 105 5 view .LVU157
 806 0048 184D     		ldr	r5, .L49+4
 807 004a 2946     		mov	r1, r5
 808 004c 0CA8     		add	r0, sp, #48
 809 004e FFF7FEFF 		bl	matTrans
 810              	.LVL86:
 106:Core/drogui/src/kalman.c ****     
 107:Core/drogui/src/kalman.c ****     matMult(&aux4,&Fm,&Pm);
 811              		.loc 1 107 5 view .LVU158
 812 0052 174C     		ldr	r4, .L49+8
 813 0054 2246     		mov	r2, r4
 814 0056 3146     		mov	r1, r6
 815 0058 04A8     		add	r0, sp, #16
 816 005a FFF7FEFF 		bl	matMult
 817              	.LVL87:
 108:Core/drogui/src/kalman.c ****     matMult(&Pm,&aux4,&aux1);
 818              		.loc 1 108 5 view .LVU159
 819 005e 10AA     		add	r2, sp, #64
 820 0060 04A9     		add	r1, sp, #16
 821 0062 2046     		mov	r0, r4
 822 0064 FFF7FEFF 		bl	matMult
 823              	.LVL88:
 109:Core/drogui/src/kalman.c **** 
 110:Core/drogui/src/kalman.c ****     matMult(&aux5,&Gm,&Q12);
 824              		.loc 1 110 5 view .LVU160
 825 0068 124A     		ldr	r2, .L49+12
 826 006a 2946     		mov	r1, r5
 827 006c 6846     		mov	r0, sp
 828 006e FFF7FEFF 		bl	matMult
 829              	.LVL89:
 111:Core/drogui/src/kalman.c ****     matMult(&aux3,&aux5,&aux2);
 830              		.loc 1 111 5 view .LVU161
 831 0072 0CAA     		add	r2, sp, #48
 832 0074 6946     		mov	r1, sp
 833 0076 08A8     		add	r0, sp, #32
 834 0078 FFF7FEFF 		bl	matMult
 835              	.LVL90:
 112:Core/drogui/src/kalman.c ****     matAdd(&Pm, &Pm, &aux3);
 836              		.loc 1 112 5 view .LVU162
 837 007c 08AA     		add	r2, sp, #32
 838 007e 2146     		mov	r1, r4
 839 0080 2046     		mov	r0, r4
 840 0082 FFF7FEFF 		bl	matAdd
 841              	.LVL91:
 113:Core/drogui/src/kalman.c **** 
 114:Core/drogui/src/kalman.c ****     matDestruct(&aux1);
 842              		.loc 1 114 5 view .LVU163
 843 0086 10A8     		add	r0, sp, #64
 844 0088 FFF7FEFF 		bl	matDestruct
 845              	.LVL92:
 115:Core/drogui/src/kalman.c ****     matDestruct(&aux2);
 846              		.loc 1 115 5 view .LVU164
 847 008c 0CA8     		add	r0, sp, #48
 848 008e FFF7FEFF 		bl	matDestruct
 849              	.LVL93:
ARM GAS  C:\Users\GUILLE~1\AppData\Local\Temp\ccBpDujs.s 			page 18


 116:Core/drogui/src/kalman.c ****     matDestruct(&aux3);
 850              		.loc 1 116 5 view .LVU165
 851 0092 08A8     		add	r0, sp, #32
 852 0094 FFF7FEFF 		bl	matDestruct
 853              	.LVL94:
 117:Core/drogui/src/kalman.c ****     matDestruct(&aux4);
 854              		.loc 1 117 5 view .LVU166
 855 0098 04A8     		add	r0, sp, #16
 856 009a FFF7FEFF 		bl	matDestruct
 857              	.LVL95:
 118:Core/drogui/src/kalman.c ****     matDestruct(&aux5);
 858              		.loc 1 118 5 view .LVU167
 859 009e 6846     		mov	r0, sp
 860 00a0 FFF7FEFF 		bl	matDestruct
 861              	.LVL96:
 119:Core/drogui/src/kalman.c **** }
 862              		.loc 1 119 1 is_stmt 0 view .LVU168
 863 00a4 14B0     		add	sp, sp, #80
 864              	.LCFI8:
 865              		.cfi_def_cfa_offset 16
 866              		@ sp needed
 867 00a6 70BD     		pop	{r4, r5, r6, pc}
 868              	.L50:
 869              		.align	2
 870              	.L49:
 871 00a8 00000000 		.word	.LANCHOR17
 872 00ac 00000000 		.word	.LANCHOR19
 873 00b0 00000000 		.word	.LANCHOR16
 874 00b4 00000000 		.word	.LANCHOR15
 875              		.cfi_endproc
 876              	.LFE147:
 878              		.section	.text.getKalmanGain,"ax",%progbits
 879              		.align	1
 880              		.global	getKalmanGain
 881              		.syntax unified
 882              		.thumb
 883              		.thumb_func
 884              		.fpu fpv5-sp-d16
 886              	getKalmanGain:
 887              	.LFB148:
 120:Core/drogui/src/kalman.c **** void getKalmanGain(){
 888              		.loc 1 120 21 is_stmt 1 view -0
 889              		.cfi_startproc
 890              		@ args = 0, pretend = 0, frame = 64
 891              		@ frame_needed = 0, uses_anonymous_args = 0
 892 0000 10B5     		push	{r4, lr}
 893              	.LCFI9:
 894              		.cfi_def_cfa_offset 8
 895              		.cfi_offset 4, -8
 896              		.cfi_offset 14, -4
 897 0002 90B0     		sub	sp, sp, #64
 898              	.LCFI10:
 899              		.cfi_def_cfa_offset 72
 121:Core/drogui/src/kalman.c ****     
 122:Core/drogui/src/kalman.c ****     mat aux1, aux2, aux3,aux4;
 900              		.loc 1 122 5 view .LVU170
 123:Core/drogui/src/kalman.c **** 
ARM GAS  C:\Users\GUILLE~1\AppData\Local\Temp\ccBpDujs.s 			page 19


 124:Core/drogui/src/kalman.c **** 
 125:Core/drogui/src/kalman.c ****     matInit(&aux1, 3, 3);
 901              		.loc 1 125 5 view .LVU171
 902 0004 0322     		movs	r2, #3
 903 0006 1146     		mov	r1, r2
 904 0008 0CA8     		add	r0, sp, #48
 905 000a FFF7FEFF 		bl	matInit
 906              	.LVL97:
 126:Core/drogui/src/kalman.c ****     matInit(&aux2, 9, 3);   
 907              		.loc 1 126 5 view .LVU172
 908 000e 0322     		movs	r2, #3
 909 0010 0921     		movs	r1, #9
 910 0012 08A8     		add	r0, sp, #32
 911 0014 FFF7FEFF 		bl	matInit
 912              	.LVL98:
 127:Core/drogui/src/kalman.c ****     matInit(&aux3, 9, 3);
 913              		.loc 1 127 5 view .LVU173
 914 0018 0322     		movs	r2, #3
 915 001a 0921     		movs	r1, #9
 916 001c 04A8     		add	r0, sp, #16
 917 001e FFF7FEFF 		bl	matInit
 918              	.LVL99:
 128:Core/drogui/src/kalman.c ****     matInit(&aux4, 3, 3);
 919              		.loc 1 128 5 view .LVU174
 920 0022 0322     		movs	r2, #3
 921 0024 1146     		mov	r1, r2
 922 0026 6846     		mov	r0, sp
 923 0028 FFF7FEFF 		bl	matInit
 924              	.LVL100:
 129:Core/drogui/src/kalman.c **** 
 130:Core/drogui/src/kalman.c ****     matTrans(&aux3, &Hm);
 925              		.loc 1 130 5 view .LVU175
 926 002c 154C     		ldr	r4, .L53
 927 002e 2146     		mov	r1, r4
 928 0030 04A8     		add	r0, sp, #16
 929 0032 FFF7FEFF 		bl	matTrans
 930              	.LVL101:
 131:Core/drogui/src/kalman.c ****     matMult(&aux2, &Pm, &aux3);
 931              		.loc 1 131 5 view .LVU176
 932 0036 04AA     		add	r2, sp, #16
 933 0038 1349     		ldr	r1, .L53+4
 934 003a 08A8     		add	r0, sp, #32
 935 003c FFF7FEFF 		bl	matMult
 936              	.LVL102:
 132:Core/drogui/src/kalman.c **** 
 133:Core/drogui/src/kalman.c ****     matMult(&aux1, &Hm, &aux2);
 937              		.loc 1 133 5 view .LVU177
 938 0040 08AA     		add	r2, sp, #32
 939 0042 2146     		mov	r1, r4
 940 0044 0CA8     		add	r0, sp, #48
 941 0046 FFF7FEFF 		bl	matMult
 942              	.LVL103:
 134:Core/drogui/src/kalman.c ****     matAdd(&aux1, &aux1, &Rc);
 943              		.loc 1 134 5 view .LVU178
 944 004a 104A     		ldr	r2, .L53+8
 945 004c 0CA9     		add	r1, sp, #48
 946 004e 0846     		mov	r0, r1
ARM GAS  C:\Users\GUILLE~1\AppData\Local\Temp\ccBpDujs.s 			page 20


 947 0050 FFF7FEFF 		bl	matAdd
 948              	.LVL104:
 135:Core/drogui/src/kalman.c ****     matInv3(&aux4, &aux1);
 949              		.loc 1 135 5 view .LVU179
 950 0054 0CA9     		add	r1, sp, #48
 951 0056 6846     		mov	r0, sp
 952 0058 FFF7FEFF 		bl	matInv3
 953              	.LVL105:
 136:Core/drogui/src/kalman.c **** 
 137:Core/drogui/src/kalman.c ****     matMult(&KalmanGain, &aux2, &aux4);
 954              		.loc 1 137 5 view .LVU180
 955 005c 6A46     		mov	r2, sp
 956 005e 08A9     		add	r1, sp, #32
 957 0060 0B48     		ldr	r0, .L53+12
 958 0062 FFF7FEFF 		bl	matMult
 959              	.LVL106:
 138:Core/drogui/src/kalman.c **** 
 139:Core/drogui/src/kalman.c ****     matDestruct(&aux1);
 960              		.loc 1 139 5 view .LVU181
 961 0066 0CA8     		add	r0, sp, #48
 962 0068 FFF7FEFF 		bl	matDestruct
 963              	.LVL107:
 140:Core/drogui/src/kalman.c ****     matDestruct(&aux2);
 964              		.loc 1 140 5 view .LVU182
 965 006c 08A8     		add	r0, sp, #32
 966 006e FFF7FEFF 		bl	matDestruct
 967              	.LVL108:
 141:Core/drogui/src/kalman.c ****     matDestruct(&aux3);
 968              		.loc 1 141 5 view .LVU183
 969 0072 04A8     		add	r0, sp, #16
 970 0074 FFF7FEFF 		bl	matDestruct
 971              	.LVL109:
 142:Core/drogui/src/kalman.c ****     matDestruct(&aux4);
 972              		.loc 1 142 5 view .LVU184
 973 0078 6846     		mov	r0, sp
 974 007a FFF7FEFF 		bl	matDestruct
 975              	.LVL110:
 143:Core/drogui/src/kalman.c **** }
 976              		.loc 1 143 1 is_stmt 0 view .LVU185
 977 007e 10B0     		add	sp, sp, #64
 978              	.LCFI11:
 979              		.cfi_def_cfa_offset 8
 980              		@ sp needed
 981 0080 10BD     		pop	{r4, pc}
 982              	.L54:
 983 0082 00BF     		.align	2
 984              	.L53:
 985 0084 00000000 		.word	.LANCHOR18
 986 0088 00000000 		.word	.LANCHOR16
 987 008c 00000000 		.word	.LANCHOR14
 988 0090 00000000 		.word	.LANCHOR12
 989              		.cfi_endproc
 990              	.LFE148:
 992              		.section	.text.UpdatePmCovGPS,"ax",%progbits
 993              		.align	1
 994              		.global	UpdatePmCovGPS
 995              		.syntax unified
ARM GAS  C:\Users\GUILLE~1\AppData\Local\Temp\ccBpDujs.s 			page 21


 996              		.thumb
 997              		.thumb_func
 998              		.fpu fpv5-sp-d16
 1000              	UpdatePmCovGPS:
 1001              	.LFB149:
 144:Core/drogui/src/kalman.c **** 
 145:Core/drogui/src/kalman.c **** void UpdatePmCovGPS(){
 1002              		.loc 1 145 22 is_stmt 1 view -0
 1003              		.cfi_startproc
 1004              		@ args = 0, pretend = 0, frame = 32
 1005              		@ frame_needed = 0, uses_anonymous_args = 0
 1006 0000 10B5     		push	{r4, lr}
 1007              	.LCFI12:
 1008              		.cfi_def_cfa_offset 8
 1009              		.cfi_offset 4, -8
 1010              		.cfi_offset 14, -4
 1011 0002 88B0     		sub	sp, sp, #32
 1012              	.LCFI13:
 1013              		.cfi_def_cfa_offset 40
 146:Core/drogui/src/kalman.c ****     mat aux1,aux2;
 1014              		.loc 1 146 5 view .LVU187
 147:Core/drogui/src/kalman.c ****     matInit(&aux1, 9, 9);
 1015              		.loc 1 147 5 view .LVU188
 1016 0004 0922     		movs	r2, #9
 1017 0006 1146     		mov	r1, r2
 1018 0008 04A8     		add	r0, sp, #16
 1019 000a FFF7FEFF 		bl	matInit
 1020              	.LVL111:
 148:Core/drogui/src/kalman.c ****     matInit(&aux2, 9, 9);
 1021              		.loc 1 148 5 view .LVU189
 1022 000e 0922     		movs	r2, #9
 1023 0010 1146     		mov	r1, r2
 1024 0012 6846     		mov	r0, sp
 1025 0014 FFF7FEFF 		bl	matInit
 1026              	.LVL112:
 149:Core/drogui/src/kalman.c ****     matMult(&aux1, &KalmanGain, &Hm);
 1027              		.loc 1 149 5 view .LVU190
 1028 0018 174A     		ldr	r2, .L59
 1029 001a 1849     		ldr	r1, .L59+4
 1030 001c 04A8     		add	r0, sp, #16
 1031 001e FFF7FEFF 		bl	matMult
 1032              	.LVL113:
 150:Core/drogui/src/kalman.c ****     matScale(&aux1, &aux1, -1);
 1033              		.loc 1 150 5 view .LVU191
 1034 0022 BFEE000A 		vmov.f32	s0, #-1.0e+0
 1035 0026 04A9     		add	r1, sp, #16
 1036 0028 0846     		mov	r0, r1
 1037 002a FFF7FEFF 		bl	matScale
 1038              	.LVL114:
 151:Core/drogui/src/kalman.c ****     for(int i = 0; i < 9; i++) 
 1039              		.loc 1 151 5 view .LVU192
 1040              	.LBB15:
 1041              		.loc 1 151 9 view .LVU193
 1042              		.loc 1 151 13 is_stmt 0 view .LVU194
 1043 002e 0024     		movs	r4, #0
 1044              		.loc 1 151 5 view .LVU195
 1045 0030 0EE0     		b	.L56
ARM GAS  C:\Users\GUILLE~1\AppData\Local\Temp\ccBpDujs.s 			page 22


 1046              	.LVL115:
 1047              	.L57:
 152:Core/drogui/src/kalman.c ****         setMatVal(&aux1, i , i, 1 + getMatVal(&aux1, i , i));
 1048              		.loc 1 152 9 is_stmt 1 discriminator 3 view .LVU196
 1049              		.loc 1 152 37 is_stmt 0 discriminator 3 view .LVU197
 1050 0032 2246     		mov	r2, r4
 1051 0034 2146     		mov	r1, r4
 1052 0036 04A8     		add	r0, sp, #16
 1053 0038 FFF7FEFF 		bl	getMatVal
 1054              	.LVL116:
 1055              		.loc 1 152 9 discriminator 3 view .LVU198
 1056 003c F7EE007A 		vmov.f32	s15, #1.0e+0
 1057 0040 30EE270A 		vadd.f32	s0, s0, s15
 1058 0044 2246     		mov	r2, r4
 1059 0046 2146     		mov	r1, r4
 1060 0048 04A8     		add	r0, sp, #16
 1061 004a FFF7FEFF 		bl	setMatVal
 1062              	.LVL117:
 151:Core/drogui/src/kalman.c ****     for(int i = 0; i < 9; i++) 
 1063              		.loc 1 151 27 is_stmt 1 discriminator 3 view .LVU199
 151:Core/drogui/src/kalman.c ****     for(int i = 0; i < 9; i++) 
 1064              		.loc 1 151 28 is_stmt 0 discriminator 3 view .LVU200
 1065 004e 0134     		adds	r4, r4, #1
 1066              	.LVL118:
 1067              	.L56:
 151:Core/drogui/src/kalman.c ****     for(int i = 0; i < 9; i++) 
 1068              		.loc 1 151 20 is_stmt 1 discriminator 1 view .LVU201
 151:Core/drogui/src/kalman.c ****     for(int i = 0; i < 9; i++) 
 1069              		.loc 1 151 5 is_stmt 0 discriminator 1 view .LVU202
 1070 0050 082C     		cmp	r4, #8
 1071 0052 EEDD     		ble	.L57
 1072              	.LBE15:
 153:Core/drogui/src/kalman.c ****     
 154:Core/drogui/src/kalman.c ****     
 155:Core/drogui/src/kalman.c ****     matMult(&aux2, &aux1, &Pm);
 1073              		.loc 1 155 5 is_stmt 1 view .LVU203
 1074 0054 0A4C     		ldr	r4, .L59+8
 1075              	.LVL119:
 1076              		.loc 1 155 5 is_stmt 0 view .LVU204
 1077 0056 2246     		mov	r2, r4
 1078 0058 04A9     		add	r1, sp, #16
 1079 005a 6846     		mov	r0, sp
 1080 005c FFF7FEFF 		bl	matMult
 1081              	.LVL120:
 156:Core/drogui/src/kalman.c ****     matCopy(&Pm, &aux2);
 1082              		.loc 1 156 5 is_stmt 1 view .LVU205
 1083 0060 6946     		mov	r1, sp
 1084 0062 2046     		mov	r0, r4
 1085 0064 FFF7FEFF 		bl	matCopy
 1086              	.LVL121:
 157:Core/drogui/src/kalman.c ****     
 158:Core/drogui/src/kalman.c ****     matDestruct(&aux1);
 1087              		.loc 1 158 5 view .LVU206
 1088 0068 04A8     		add	r0, sp, #16
 1089 006a FFF7FEFF 		bl	matDestruct
 1090              	.LVL122:
 159:Core/drogui/src/kalman.c ****     matDestruct(&aux2);
ARM GAS  C:\Users\GUILLE~1\AppData\Local\Temp\ccBpDujs.s 			page 23


 1091              		.loc 1 159 5 view .LVU207
 1092 006e 6846     		mov	r0, sp
 1093 0070 FFF7FEFF 		bl	matDestruct
 1094              	.LVL123:
 160:Core/drogui/src/kalman.c **** }
 1095              		.loc 1 160 1 is_stmt 0 view .LVU208
 1096 0074 08B0     		add	sp, sp, #32
 1097              	.LCFI14:
 1098              		.cfi_def_cfa_offset 8
 1099              		@ sp needed
 1100 0076 10BD     		pop	{r4, pc}
 1101              	.L60:
 1102              		.align	2
 1103              	.L59:
 1104 0078 00000000 		.word	.LANCHOR18
 1105 007c 00000000 		.word	.LANCHOR12
 1106 0080 00000000 		.word	.LANCHOR16
 1107              		.cfi_endproc
 1108              	.LFE149:
 1110              		.section	.text.getBias,"ax",%progbits
 1111              		.align	1
 1112              		.global	getBias
 1113              		.syntax unified
 1114              		.thumb
 1115              		.thumb_func
 1116              		.fpu fpv5-sp-d16
 1118              	getBias:
 1119              	.LFB150:
 161:Core/drogui/src/kalman.c **** 
 162:Core/drogui/src/kalman.c **** void getBias(){
 1120              		.loc 1 162 15 is_stmt 1 view -0
 1121              		.cfi_startproc
 1122              		@ args = 0, pretend = 0, frame = 0
 1123              		@ frame_needed = 0, uses_anonymous_args = 0
 1124 0000 38B5     		push	{r3, r4, r5, lr}
 1125              	.LCFI15:
 1126              		.cfi_def_cfa_offset 16
 1127              		.cfi_offset 3, -16
 1128              		.cfi_offset 4, -12
 1129              		.cfi_offset 5, -8
 1130              		.cfi_offset 14, -4
 1131 0002 2DED028B 		vpush.64	{d8}
 1132              	.LCFI16:
 1133              		.cfi_def_cfa_offset 24
 1134              		.cfi_offset 80, -24
 1135              		.cfi_offset 81, -20
 163:Core/drogui/src/kalman.c **** 
 164:Core/drogui/src/kalman.c **** 
 165:Core/drogui/src/kalman.c ****     matSubs(&ye, &p_gps,  &p);
 1136              		.loc 1 165 5 view .LVU210
 1137 0006 434D     		ldr	r5, .L63
 1138 0008 434A     		ldr	r2, .L63+4
 1139 000a 4449     		ldr	r1, .L63+8
 1140 000c 2846     		mov	r0, r5
 1141 000e FFF7FEFF 		bl	matSubs
 1142              	.LVL124:
 166:Core/drogui/src/kalman.c ****     matMult(&delta, &KalmanGain, &ye);
ARM GAS  C:\Users\GUILLE~1\AppData\Local\Temp\ccBpDujs.s 			page 24


 1143              		.loc 1 166 5 view .LVU211
 1144 0012 434C     		ldr	r4, .L63+12
 1145 0014 2A46     		mov	r2, r5
 1146 0016 4349     		ldr	r1, .L63+16
 1147 0018 2046     		mov	r0, r4
 1148 001a FFF7FEFF 		bl	matMult
 1149              	.LVL125:
 167:Core/drogui/src/kalman.c **** 
 168:Core/drogui/src/kalman.c ****     setMatVal(&delta, 6, 0, getMatVal(&delta, 6, 0) + getMatVal(&bias_u, 0, 0));
 1150              		.loc 1 168 5 view .LVU212
 1151              		.loc 1 168 29 is_stmt 0 view .LVU213
 1152 001e 0022     		movs	r2, #0
 1153 0020 0621     		movs	r1, #6
 1154 0022 2046     		mov	r0, r4
 1155 0024 FFF7FEFF 		bl	getMatVal
 1156              	.LVL126:
 1157 0028 B0EE408A 		vmov.f32	s16, s0
 1158              		.loc 1 168 55 view .LVU214
 1159 002c 3E4D     		ldr	r5, .L63+20
 1160 002e 0022     		movs	r2, #0
 1161 0030 1146     		mov	r1, r2
 1162 0032 2846     		mov	r0, r5
 1163 0034 FFF7FEFF 		bl	getMatVal
 1164              	.LVL127:
 1165              		.loc 1 168 5 view .LVU215
 1166 0038 38EE000A 		vadd.f32	s0, s16, s0
 1167 003c 0022     		movs	r2, #0
 1168 003e 0621     		movs	r1, #6
 1169 0040 2046     		mov	r0, r4
 1170 0042 FFF7FEFF 		bl	setMatVal
 1171              	.LVL128:
 169:Core/drogui/src/kalman.c ****     setMatVal(&delta, 7, 0, getMatVal(&delta, 7, 0) + getMatVal(&bias_u, 1, 0));
 1172              		.loc 1 169 5 is_stmt 1 view .LVU216
 1173              		.loc 1 169 29 is_stmt 0 view .LVU217
 1174 0046 0022     		movs	r2, #0
 1175 0048 0721     		movs	r1, #7
 1176 004a 2046     		mov	r0, r4
 1177 004c FFF7FEFF 		bl	getMatVal
 1178              	.LVL129:
 1179 0050 B0EE408A 		vmov.f32	s16, s0
 1180              		.loc 1 169 55 view .LVU218
 1181 0054 0022     		movs	r2, #0
 1182 0056 0121     		movs	r1, #1
 1183 0058 2846     		mov	r0, r5
 1184 005a FFF7FEFF 		bl	getMatVal
 1185              	.LVL130:
 1186              		.loc 1 169 5 view .LVU219
 1187 005e 38EE000A 		vadd.f32	s0, s16, s0
 1188 0062 0022     		movs	r2, #0
 1189 0064 0721     		movs	r1, #7
 1190 0066 2046     		mov	r0, r4
 1191 0068 FFF7FEFF 		bl	setMatVal
 1192              	.LVL131:
 170:Core/drogui/src/kalman.c ****     setMatVal(&delta, 8, 0, getMatVal(&delta, 8, 0) + getMatVal(&bias_u, 2, 0));
 1193              		.loc 1 170 5 is_stmt 1 view .LVU220
 1194              		.loc 1 170 29 is_stmt 0 view .LVU221
 1195 006c 0022     		movs	r2, #0
ARM GAS  C:\Users\GUILLE~1\AppData\Local\Temp\ccBpDujs.s 			page 25


 1196 006e 0821     		movs	r1, #8
 1197 0070 2046     		mov	r0, r4
 1198 0072 FFF7FEFF 		bl	getMatVal
 1199              	.LVL132:
 1200 0076 B0EE408A 		vmov.f32	s16, s0
 1201              		.loc 1 170 55 view .LVU222
 1202 007a 0022     		movs	r2, #0
 1203 007c 0221     		movs	r1, #2
 1204 007e 2846     		mov	r0, r5
 1205 0080 FFF7FEFF 		bl	getMatVal
 1206              	.LVL133:
 1207              		.loc 1 170 5 view .LVU223
 1208 0084 38EE000A 		vadd.f32	s0, s16, s0
 1209 0088 0022     		movs	r2, #0
 1210 008a 0821     		movs	r1, #8
 1211 008c 2046     		mov	r0, r4
 1212 008e FFF7FEFF 		bl	setMatVal
 1213              	.LVL134:
 171:Core/drogui/src/kalman.c **** 
 172:Core/drogui/src/kalman.c ****     setMatVal(&bias_p, 0, 0, getMatVal(&delta, 0, 0));
 1214              		.loc 1 172 5 is_stmt 1 view .LVU224
 1215 0092 0022     		movs	r2, #0
 1216 0094 1146     		mov	r1, r2
 1217 0096 2046     		mov	r0, r4
 1218 0098 FFF7FEFF 		bl	getMatVal
 1219              	.LVL135:
 1220 009c 234D     		ldr	r5, .L63+24
 1221 009e 0022     		movs	r2, #0
 1222 00a0 1146     		mov	r1, r2
 1223 00a2 2846     		mov	r0, r5
 1224 00a4 FFF7FEFF 		bl	setMatVal
 1225              	.LVL136:
 173:Core/drogui/src/kalman.c ****     setMatVal(&bias_p, 1, 0, getMatVal(&delta, 1, 0));
 1226              		.loc 1 173 5 view .LVU225
 1227 00a8 0022     		movs	r2, #0
 1228 00aa 0121     		movs	r1, #1
 1229 00ac 2046     		mov	r0, r4
 1230 00ae FFF7FEFF 		bl	getMatVal
 1231              	.LVL137:
 1232 00b2 0022     		movs	r2, #0
 1233 00b4 0121     		movs	r1, #1
 1234 00b6 2846     		mov	r0, r5
 1235 00b8 FFF7FEFF 		bl	setMatVal
 1236              	.LVL138:
 174:Core/drogui/src/kalman.c ****     setMatVal(&bias_p, 2, 0, getMatVal(&delta, 2, 0));
 1237              		.loc 1 174 5 view .LVU226
 1238 00bc 0022     		movs	r2, #0
 1239 00be 0221     		movs	r1, #2
 1240 00c0 2046     		mov	r0, r4
 1241 00c2 FFF7FEFF 		bl	getMatVal
 1242              	.LVL139:
 1243 00c6 0022     		movs	r2, #0
 1244 00c8 0221     		movs	r1, #2
 1245 00ca 2846     		mov	r0, r5
 1246 00cc FFF7FEFF 		bl	setMatVal
 1247              	.LVL140:
 175:Core/drogui/src/kalman.c **** 
ARM GAS  C:\Users\GUILLE~1\AppData\Local\Temp\ccBpDujs.s 			page 26


 176:Core/drogui/src/kalman.c ****     setMatVal(&bias_v, 0, 0, getMatVal(&delta, 3, 0));
 1248              		.loc 1 176 5 view .LVU227
 1249 00d0 0022     		movs	r2, #0
 1250 00d2 0321     		movs	r1, #3
 1251 00d4 2046     		mov	r0, r4
 1252 00d6 FFF7FEFF 		bl	getMatVal
 1253              	.LVL141:
 1254 00da 154D     		ldr	r5, .L63+28
 1255 00dc 0022     		movs	r2, #0
 1256 00de 1146     		mov	r1, r2
 1257 00e0 2846     		mov	r0, r5
 1258 00e2 FFF7FEFF 		bl	setMatVal
 1259              	.LVL142:
 177:Core/drogui/src/kalman.c ****     setMatVal(&bias_v, 1, 0, getMatVal(&delta, 4, 0));
 1260              		.loc 1 177 5 view .LVU228
 1261 00e6 0022     		movs	r2, #0
 1262 00e8 0421     		movs	r1, #4
 1263 00ea 2046     		mov	r0, r4
 1264 00ec FFF7FEFF 		bl	getMatVal
 1265              	.LVL143:
 1266 00f0 0022     		movs	r2, #0
 1267 00f2 0121     		movs	r1, #1
 1268 00f4 2846     		mov	r0, r5
 1269 00f6 FFF7FEFF 		bl	setMatVal
 1270              	.LVL144:
 178:Core/drogui/src/kalman.c ****     setMatVal(&bias_v, 2, 0, getMatVal(&delta, 5, 0));
 1271              		.loc 1 178 5 view .LVU229
 1272 00fa 0022     		movs	r2, #0
 1273 00fc 0521     		movs	r1, #5
 1274 00fe 2046     		mov	r0, r4
 1275 0100 FFF7FEFF 		bl	getMatVal
 1276              	.LVL145:
 1277 0104 0022     		movs	r2, #0
 1278 0106 0221     		movs	r1, #2
 1279 0108 2846     		mov	r0, r5
 1280 010a FFF7FEFF 		bl	setMatVal
 1281              	.LVL146:
 179:Core/drogui/src/kalman.c **** }
 1282              		.loc 1 179 1 is_stmt 0 view .LVU230
 1283 010e BDEC028B 		vldm	sp!, {d8}
 1284              	.LCFI17:
 1285              		.cfi_restore 80
 1286              		.cfi_restore 81
 1287              		.cfi_def_cfa_offset 16
 1288 0112 38BD     		pop	{r3, r4, r5, pc}
 1289              	.L64:
 1290              		.align	2
 1291              	.L63:
 1292 0114 00000000 		.word	.LANCHOR10
 1293 0118 00000000 		.word	.LANCHOR5
 1294 011c 00000000 		.word	.LANCHOR11
 1295 0120 00000000 		.word	.LANCHOR13
 1296 0124 00000000 		.word	.LANCHOR12
 1297 0128 00000000 		.word	.LANCHOR8
 1298 012c 00000000 		.word	.LANCHOR7
 1299 0130 00000000 		.word	.LANCHOR9
 1300              		.cfi_endproc
ARM GAS  C:\Users\GUILLE~1\AppData\Local\Temp\ccBpDujs.s 			page 27


 1301              	.LFE150:
 1303              		.section	.text.kalmanUpdateIMU,"ax",%progbits
 1304              		.align	1
 1305              		.global	kalmanUpdateIMU
 1306              		.syntax unified
 1307              		.thumb
 1308              		.thumb_func
 1309              		.fpu fpv5-sp-d16
 1311              	kalmanUpdateIMU:
 1312              	.LVL147:
 1313              	.LFB151:
 180:Core/drogui/src/kalman.c **** 
 181:Core/drogui/src/kalman.c **** void kalmanUpdateIMU(float ax, float ay, float az,float roll, float pitch, float yaw){
 1314              		.loc 1 181 86 is_stmt 1 view -0
 1315              		.cfi_startproc
 1316              		@ args = 0, pretend = 0, frame = 0
 1317              		@ frame_needed = 0, uses_anonymous_args = 0
 1318              		.loc 1 181 86 is_stmt 0 view .LVU232
 1319 0000 10B5     		push	{r4, lr}
 1320              	.LCFI18:
 1321              		.cfi_def_cfa_offset 8
 1322              		.cfi_offset 4, -8
 1323              		.cfi_offset 14, -4
 1324 0002 2DED048B 		vpush.64	{d8, d9}
 1325              	.LCFI19:
 1326              		.cfi_def_cfa_offset 24
 1327              		.cfi_offset 80, -24
 1328              		.cfi_offset 81, -20
 1329              		.cfi_offset 82, -16
 1330              		.cfi_offset 83, -12
 1331 0006 B0EE409A 		vmov.f32	s18, s0
 1332 000a F0EE608A 		vmov.f32	s17, s1
 1333 000e B0EE418A 		vmov.f32	s16, s2
 182:Core/drogui/src/kalman.c ****     
 183:Core/drogui/src/kalman.c ****     //quaternionToR(&Rq, qw, qx, qy, qz);
 184:Core/drogui/src/kalman.c ****     rpyToR(&Rq, roll, pitch, yaw);
 1334              		.loc 1 184 5 is_stmt 1 view .LVU233
 1335 0012 B0EE621A 		vmov.f32	s2, s5
 1336              	.LVL148:
 1337              		.loc 1 184 5 is_stmt 0 view .LVU234
 1338 0016 F0EE420A 		vmov.f32	s1, s4
 1339              	.LVL149:
 1340              		.loc 1 184 5 view .LVU235
 1341 001a B0EE610A 		vmov.f32	s0, s3
 1342              	.LVL150:
 1343              		.loc 1 184 5 view .LVU236
 1344 001e 1248     		ldr	r0, .L67
 1345 0020 FFF7FEFF 		bl	rpyToR
 1346              	.LVL151:
 185:Core/drogui/src/kalman.c ****     setMatVal(&u, 0, 0, ax*GRAVITY);
 1347              		.loc 1 185 5 is_stmt 1 view .LVU237
 1348 0024 114C     		ldr	r4, .L67+4
 1349 0026 B0EE490A 		vmov.f32	s0, s18
 1350 002a 0022     		movs	r2, #0
 1351 002c 1146     		mov	r1, r2
 1352 002e 2046     		mov	r0, r4
 1353 0030 FFF7FEFF 		bl	setMatVal
ARM GAS  C:\Users\GUILLE~1\AppData\Local\Temp\ccBpDujs.s 			page 28


 1354              	.LVL152:
 186:Core/drogui/src/kalman.c ****     setMatVal(&u, 1, 0, ay*GRAVITY);
 1355              		.loc 1 186 5 view .LVU238
 1356 0034 B0EE680A 		vmov.f32	s0, s17
 1357 0038 0022     		movs	r2, #0
 1358 003a 0121     		movs	r1, #1
 1359 003c 2046     		mov	r0, r4
 1360 003e FFF7FEFF 		bl	setMatVal
 1361              	.LVL153:
 187:Core/drogui/src/kalman.c ****     setMatVal(&u, 2, 0, az*GRAVITY);
 1362              		.loc 1 187 5 view .LVU239
 1363 0042 B0EE480A 		vmov.f32	s0, s16
 1364 0046 0022     		movs	r2, #0
 1365 0048 0221     		movs	r1, #2
 1366 004a 2046     		mov	r0, r4
 1367 004c FFF7FEFF 		bl	setMatVal
 1368              	.LVL154:
 188:Core/drogui/src/kalman.c ****     //matAdd(&u, &s, &bias_u);
 189:Core/drogui/src/kalman.c ****     kynematics();
 1369              		.loc 1 189 5 view .LVU240
 1370 0050 FFF7FEFF 		bl	kynematics
 1371              	.LVL155:
 190:Core/drogui/src/kalman.c ****     UpdatePm();
 1372              		.loc 1 190 5 view .LVU241
 1373 0054 FFF7FEFF 		bl	UpdatePm
 1374              	.LVL156:
 191:Core/drogui/src/kalman.c **** 
 192:Core/drogui/src/kalman.c ****     matAdd(&p, &p, &bias_p);
 1375              		.loc 1 192 5 view .LVU242
 1376 0058 0548     		ldr	r0, .L67+8
 1377 005a 064A     		ldr	r2, .L67+12
 1378 005c 0146     		mov	r1, r0
 1379 005e FFF7FEFF 		bl	matAdd
 1380              	.LVL157:
 193:Core/drogui/src/kalman.c **** }
 1381              		.loc 1 193 1 is_stmt 0 view .LVU243
 1382 0062 BDEC048B 		vldm	sp!, {d8-d9}
 1383              	.LCFI20:
 1384              		.cfi_restore 82
 1385              		.cfi_restore 83
 1386              		.cfi_restore 80
 1387              		.cfi_restore 81
 1388              		.cfi_def_cfa_offset 8
 1389              	.LVL158:
 1390              		.loc 1 193 1 view .LVU244
 1391 0066 10BD     		pop	{r4, pc}
 1392              	.L68:
 1393              		.align	2
 1394              	.L67:
 1395 0068 00000000 		.word	.LANCHOR2
 1396 006c 00000000 		.word	.LANCHOR3
 1397 0070 00000000 		.word	.LANCHOR5
 1398 0074 00000000 		.word	.LANCHOR7
 1399              		.cfi_endproc
 1400              	.LFE151:
 1402              		.section	.text.kalmanUpdateGPS,"ax",%progbits
 1403              		.align	1
ARM GAS  C:\Users\GUILLE~1\AppData\Local\Temp\ccBpDujs.s 			page 29


 1404              		.global	kalmanUpdateGPS
 1405              		.syntax unified
 1406              		.thumb
 1407              		.thumb_func
 1408              		.fpu fpv5-sp-d16
 1410              	kalmanUpdateGPS:
 1411              	.LVL159:
 1412              	.LFB152:
 194:Core/drogui/src/kalman.c **** 
 195:Core/drogui/src/kalman.c **** void kalmanUpdateGPS(float x_gps, float y_gps, float z_gps){
 1413              		.loc 1 195 60 is_stmt 1 view -0
 1414              		.cfi_startproc
 1415              		@ args = 0, pretend = 0, frame = 0
 1416              		@ frame_needed = 0, uses_anonymous_args = 0
 1417              		.loc 1 195 60 is_stmt 0 view .LVU246
 1418 0000 10B5     		push	{r4, lr}
 1419              	.LCFI21:
 1420              		.cfi_def_cfa_offset 8
 1421              		.cfi_offset 4, -8
 1422              		.cfi_offset 14, -4
 1423 0002 2DED028B 		vpush.64	{d8}
 1424              	.LCFI22:
 1425              		.cfi_def_cfa_offset 16
 1426              		.cfi_offset 80, -16
 1427              		.cfi_offset 81, -12
 1428 0006 F0EE608A 		vmov.f32	s17, s1
 1429 000a B0EE418A 		vmov.f32	s16, s2
 196:Core/drogui/src/kalman.c **** 
 197:Core/drogui/src/kalman.c ****     setMatVal(&p_gps, 0, 0, x_gps);
 1430              		.loc 1 197 5 is_stmt 1 view .LVU247
 1431 000e 184C     		ldr	r4, .L71
 1432 0010 0022     		movs	r2, #0
 1433 0012 1146     		mov	r1, r2
 1434 0014 2046     		mov	r0, r4
 1435 0016 FFF7FEFF 		bl	setMatVal
 1436              	.LVL160:
 198:Core/drogui/src/kalman.c ****     setMatVal(&p_gps, 1, 0, y_gps);
 1437              		.loc 1 198 5 view .LVU248
 1438 001a B0EE680A 		vmov.f32	s0, s17
 1439 001e 0022     		movs	r2, #0
 1440 0020 0121     		movs	r1, #1
 1441 0022 2046     		mov	r0, r4
 1442 0024 FFF7FEFF 		bl	setMatVal
 1443              	.LVL161:
 199:Core/drogui/src/kalman.c ****     setMatVal(&p_gps, 2, 0, z_gps);
 1444              		.loc 1 199 5 view .LVU249
 1445 0028 B0EE480A 		vmov.f32	s0, s16
 1446 002c 0022     		movs	r2, #0
 1447 002e 0221     		movs	r1, #2
 1448 0030 2046     		mov	r0, r4
 1449 0032 FFF7FEFF 		bl	setMatVal
 1450              	.LVL162:
 200:Core/drogui/src/kalman.c ****     
 201:Core/drogui/src/kalman.c ****     getKalmanGain();
 1451              		.loc 1 201 5 view .LVU250
 1452 0036 FFF7FEFF 		bl	getKalmanGain
 1453              	.LVL163:
ARM GAS  C:\Users\GUILLE~1\AppData\Local\Temp\ccBpDujs.s 			page 30


 202:Core/drogui/src/kalman.c **** 
 203:Core/drogui/src/kalman.c ****     getBias();
 1454              		.loc 1 203 5 view .LVU251
 1455 003a FFF7FEFF 		bl	getBias
 1456              	.LVL164:
 204:Core/drogui/src/kalman.c ****     
 205:Core/drogui/src/kalman.c ****     UpdatePmCovGPS();
 1457              		.loc 1 205 5 view .LVU252
 1458 003e FFF7FEFF 		bl	UpdatePmCovGPS
 1459              	.LVL165:
 206:Core/drogui/src/kalman.c ****     
 207:Core/drogui/src/kalman.c ****     matScale(&bias_v, &bias_v, 1/1.3);
 1460              		.loc 1 207 5 view .LVU253
 1461 0042 0C4C     		ldr	r4, .L71+4
 1462 0044 9FED0C0A 		vldr.32	s0, .L71+8
 1463 0048 2146     		mov	r1, r4
 1464 004a 2046     		mov	r0, r4
 1465 004c FFF7FEFF 		bl	matScale
 1466              	.LVL166:
 208:Core/drogui/src/kalman.c ****     matAdd(&v, &v, &bias_v);
 1467              		.loc 1 208 5 view .LVU254
 1468 0050 0A48     		ldr	r0, .L71+12
 1469 0052 2246     		mov	r2, r4
 1470 0054 0146     		mov	r1, r0
 1471 0056 FFF7FEFF 		bl	matAdd
 1472              	.LVL167:
 209:Core/drogui/src/kalman.c ****     matScale(&bias_p, &bias_p, N);
 1473              		.loc 1 209 5 view .LVU255
 1474 005a 0948     		ldr	r0, .L71+16
 1475 005c 094B     		ldr	r3, .L71+20
 1476 005e 93ED000A 		vldr.32	s0, [r3]
 1477 0062 0146     		mov	r1, r0
 1478 0064 FFF7FEFF 		bl	matScale
 1479              	.LVL168:
 210:Core/drogui/src/kalman.c **** }
 1480              		.loc 1 210 1 is_stmt 0 view .LVU256
 1481 0068 BDEC028B 		vldm	sp!, {d8}
 1482              	.LCFI23:
 1483              		.cfi_restore 80
 1484              		.cfi_restore 81
 1485              		.cfi_def_cfa_offset 8
 1486              	.LVL169:
 1487              		.loc 1 210 1 view .LVU257
 1488 006c 10BD     		pop	{r4, pc}
 1489              	.L72:
 1490 006e 00BF     		.align	2
 1491              	.L71:
 1492 0070 00000000 		.word	.LANCHOR11
 1493 0074 00000000 		.word	.LANCHOR9
 1494 0078 4FEC443F 		.word	1061481551
 1495 007c 00000000 		.word	.LANCHOR6
 1496 0080 00000000 		.word	.LANCHOR7
 1497 0084 00000000 		.word	.LANCHOR1
 1498              		.cfi_endproc
 1499              	.LFE152:
 1501              		.section	.text.getPosition,"ax",%progbits
 1502              		.align	1
ARM GAS  C:\Users\GUILLE~1\AppData\Local\Temp\ccBpDujs.s 			page 31


 1503              		.global	getPosition
 1504              		.syntax unified
 1505              		.thumb
 1506              		.thumb_func
 1507              		.fpu fpv5-sp-d16
 1509              	getPosition:
 1510              	.LVL170:
 1511              	.LFB153:
 211:Core/drogui/src/kalman.c **** 
 212:Core/drogui/src/kalman.c **** 
 213:Core/drogui/src/kalman.c **** 
 214:Core/drogui/src/kalman.c **** void getPosition(float *x, float *y, float *z){
 1512              		.loc 1 214 47 is_stmt 1 view -0
 1513              		.cfi_startproc
 1514              		@ args = 0, pretend = 0, frame = 0
 1515              		@ frame_needed = 0, uses_anonymous_args = 0
 1516              		.loc 1 214 47 is_stmt 0 view .LVU259
 1517 0000 F8B5     		push	{r3, r4, r5, r6, r7, lr}
 1518              	.LCFI24:
 1519              		.cfi_def_cfa_offset 24
 1520              		.cfi_offset 3, -24
 1521              		.cfi_offset 4, -20
 1522              		.cfi_offset 5, -16
 1523              		.cfi_offset 6, -12
 1524              		.cfi_offset 7, -8
 1525              		.cfi_offset 14, -4
 1526 0002 0746     		mov	r7, r0
 1527 0004 0E46     		mov	r6, r1
 1528 0006 1446     		mov	r4, r2
 215:Core/drogui/src/kalman.c ****     *x = getMatVal(&p, 0, 0);
 1529              		.loc 1 215 5 is_stmt 1 view .LVU260
 1530              		.loc 1 215 10 is_stmt 0 view .LVU261
 1531 0008 0B4D     		ldr	r5, .L75
 1532 000a 0022     		movs	r2, #0
 1533              	.LVL171:
 1534              		.loc 1 215 10 view .LVU262
 1535 000c 1146     		mov	r1, r2
 1536              	.LVL172:
 1537              		.loc 1 215 10 view .LVU263
 1538 000e 2846     		mov	r0, r5
 1539              	.LVL173:
 1540              		.loc 1 215 10 view .LVU264
 1541 0010 FFF7FEFF 		bl	getMatVal
 1542              	.LVL174:
 1543              		.loc 1 215 8 view .LVU265
 1544 0014 87ED000A 		vstr.32	s0, [r7]
 216:Core/drogui/src/kalman.c ****     *y = getMatVal(&p, 1, 0);
 1545              		.loc 1 216 5 is_stmt 1 view .LVU266
 1546              		.loc 1 216 10 is_stmt 0 view .LVU267
 1547 0018 0022     		movs	r2, #0
 1548 001a 0121     		movs	r1, #1
 1549 001c 2846     		mov	r0, r5
 1550 001e FFF7FEFF 		bl	getMatVal
 1551              	.LVL175:
 1552              		.loc 1 216 8 view .LVU268
 1553 0022 86ED000A 		vstr.32	s0, [r6]
 217:Core/drogui/src/kalman.c ****     *z = getMatVal(&p, 2, 0);
ARM GAS  C:\Users\GUILLE~1\AppData\Local\Temp\ccBpDujs.s 			page 32


 1554              		.loc 1 217 5 is_stmt 1 view .LVU269
 1555              		.loc 1 217 10 is_stmt 0 view .LVU270
 1556 0026 0022     		movs	r2, #0
 1557 0028 0221     		movs	r1, #2
 1558 002a 2846     		mov	r0, r5
 1559 002c FFF7FEFF 		bl	getMatVal
 1560              	.LVL176:
 1561              		.loc 1 217 8 view .LVU271
 1562 0030 84ED000A 		vstr.32	s0, [r4]
 218:Core/drogui/src/kalman.c **** }
 1563              		.loc 1 218 1 view .LVU272
 1564 0034 F8BD     		pop	{r3, r4, r5, r6, r7, pc}
 1565              	.LVL177:
 1566              	.L76:
 1567              		.loc 1 218 1 view .LVU273
 1568 0036 00BF     		.align	2
 1569              	.L75:
 1570 0038 00000000 		.word	.LANCHOR5
 1571              		.cfi_endproc
 1572              	.LFE153:
 1574              		.section	.text.clearKalman,"ax",%progbits
 1575              		.align	1
 1576              		.global	clearKalman
 1577              		.syntax unified
 1578              		.thumb
 1579              		.thumb_func
 1580              		.fpu fpv5-sp-d16
 1582              	clearKalman:
 1583              	.LFB154:
 219:Core/drogui/src/kalman.c **** 
 220:Core/drogui/src/kalman.c **** void clearKalman(){
 1584              		.loc 1 220 19 is_stmt 1 view -0
 1585              		.cfi_startproc
 1586              		@ args = 0, pretend = 0, frame = 0
 1587              		@ frame_needed = 0, uses_anonymous_args = 0
 1588 0000 38B5     		push	{r3, r4, r5, lr}
 1589              	.LCFI25:
 1590              		.cfi_def_cfa_offset 16
 1591              		.cfi_offset 3, -16
 1592              		.cfi_offset 4, -12
 1593              		.cfi_offset 5, -8
 1594              		.cfi_offset 14, -4
 1595 0002 2DED028B 		vpush.64	{d8}
 1596              	.LCFI26:
 1597              		.cfi_def_cfa_offset 24
 1598              		.cfi_offset 80, -24
 1599              		.cfi_offset 81, -20
 221:Core/drogui/src/kalman.c ****         
 222:Core/drogui/src/kalman.c ****     for(int i = 0 ; i < 3 ; i++){
 1600              		.loc 1 222 5 view .LVU275
 1601              	.LBB16:
 1602              		.loc 1 222 9 view .LVU276
 1603              	.LVL178:
 1604              		.loc 1 222 13 is_stmt 0 view .LVU277
 1605 0006 0024     		movs	r4, #0
 1606              		.loc 1 222 5 view .LVU278
 1607 0008 17E0     		b	.L78
ARM GAS  C:\Users\GUILLE~1\AppData\Local\Temp\ccBpDujs.s 			page 33


 1608              	.LVL179:
 1609              	.L79:
 223:Core/drogui/src/kalman.c ****         setMatVal(&p, i, 0, 0);
 1610              		.loc 1 223 9 is_stmt 1 discriminator 3 view .LVU279
 1611 000a 9FED248A 		vldr.32	s16, .L89
 1612 000e B0EE480A 		vmov.f32	s0, s16
 1613 0012 0022     		movs	r2, #0
 1614 0014 2146     		mov	r1, r4
 1615 0016 2248     		ldr	r0, .L89+4
 1616 0018 FFF7FEFF 		bl	setMatVal
 1617              	.LVL180:
 224:Core/drogui/src/kalman.c ****         setMatVal(&v, i, 0, 0);
 1618              		.loc 1 224 9 discriminator 3 view .LVU280
 1619 001c B0EE480A 		vmov.f32	s0, s16
 1620 0020 0022     		movs	r2, #0
 1621 0022 2146     		mov	r1, r4
 1622 0024 1F48     		ldr	r0, .L89+8
 1623 0026 FFF7FEFF 		bl	setMatVal
 1624              	.LVL181:
 225:Core/drogui/src/kalman.c ****         setMatVal(&bias_p, i, 0, 0);
 1625              		.loc 1 225 9 discriminator 3 view .LVU281
 1626 002a B0EE480A 		vmov.f32	s0, s16
 1627 002e 0022     		movs	r2, #0
 1628 0030 2146     		mov	r1, r4
 1629 0032 1D48     		ldr	r0, .L89+12
 1630 0034 FFF7FEFF 		bl	setMatVal
 1631              	.LVL182:
 222:Core/drogui/src/kalman.c ****         setMatVal(&p, i, 0, 0);
 1632              		.loc 1 222 29 discriminator 3 view .LVU282
 222:Core/drogui/src/kalman.c ****         setMatVal(&p, i, 0, 0);
 1633              		.loc 1 222 30 is_stmt 0 discriminator 3 view .LVU283
 1634 0038 0134     		adds	r4, r4, #1
 1635              	.LVL183:
 1636              	.L78:
 222:Core/drogui/src/kalman.c ****         setMatVal(&p, i, 0, 0);
 1637              		.loc 1 222 21 is_stmt 1 discriminator 1 view .LVU284
 222:Core/drogui/src/kalman.c ****         setMatVal(&p, i, 0, 0);
 1638              		.loc 1 222 5 is_stmt 0 discriminator 1 view .LVU285
 1639 003a 022C     		cmp	r4, #2
 1640 003c E5DD     		ble	.L79
 1641              	.LBE16:
 1642              	.LBB17:
 226:Core/drogui/src/kalman.c ****     }
 227:Core/drogui/src/kalman.c ****     for(int i = 0; i < 9;  i++){
 1643              		.loc 1 227 13 view .LVU286
 1644 003e 0025     		movs	r5, #0
 1645 0040 24E0     		b	.L80
 1646              	.LVL184:
 1647              	.L81:
 1648              	.LBB18:
 228:Core/drogui/src/kalman.c ****         for(int j = 0; j < 9; j++) setMatVal(&Pm, i, j, 0);
 1649              		.loc 1 228 36 is_stmt 1 discriminator 3 view .LVU287
 1650 0042 9FED160A 		vldr.32	s0, .L89
 1651 0046 2246     		mov	r2, r4
 1652 0048 2946     		mov	r1, r5
 1653 004a 1848     		ldr	r0, .L89+16
 1654 004c FFF7FEFF 		bl	setMatVal
ARM GAS  C:\Users\GUILLE~1\AppData\Local\Temp\ccBpDujs.s 			page 34


 1655              	.LVL185:
 1656              		.loc 1 228 31 discriminator 3 view .LVU288
 1657              		.loc 1 228 32 is_stmt 0 discriminator 3 view .LVU289
 1658 0050 0134     		adds	r4, r4, #1
 1659              	.LVL186:
 1660              	.L84:
 1661              		.loc 1 228 24 is_stmt 1 discriminator 1 view .LVU290
 1662              		.loc 1 228 9 is_stmt 0 discriminator 1 view .LVU291
 1663 0052 082C     		cmp	r4, #8
 1664 0054 F5DD     		ble	.L81
 1665              	.LBE18:
 1666              	.LBB19:
 229:Core/drogui/src/kalman.c ****         for(int j = 0; j < 3; j++) setMatVal(&KalmanGain, i, j, 0);
 1667              		.loc 1 229 17 view .LVU292
 1668 0056 0024     		movs	r4, #0
 1669              	.LVL187:
 1670              	.L82:
 1671              		.loc 1 229 24 is_stmt 1 discriminator 1 view .LVU293
 1672              		.loc 1 229 9 is_stmt 0 discriminator 1 view .LVU294
 1673 0058 022C     		cmp	r4, #2
 1674 005a 08DC     		bgt	.L87
 1675              		.loc 1 229 36 is_stmt 1 discriminator 3 view .LVU295
 1676 005c 9FED0F0A 		vldr.32	s0, .L89
 1677 0060 2246     		mov	r2, r4
 1678 0062 2946     		mov	r1, r5
 1679 0064 1248     		ldr	r0, .L89+20
 1680 0066 FFF7FEFF 		bl	setMatVal
 1681              	.LVL188:
 1682              		.loc 1 229 31 discriminator 3 view .LVU296
 1683              		.loc 1 229 32 is_stmt 0 discriminator 3 view .LVU297
 1684 006a 0134     		adds	r4, r4, #1
 1685              	.LVL189:
 1686              		.loc 1 229 32 discriminator 3 view .LVU298
 1687 006c F4E7     		b	.L82
 1688              	.L87:
 1689              		.loc 1 229 32 discriminator 3 view .LVU299
 1690              	.LBE19:
 230:Core/drogui/src/kalman.c ****         
 231:Core/drogui/src/kalman.c ****         setMatVal(&delta, i, 0, 0);
 1691              		.loc 1 231 9 is_stmt 1 discriminator 2 view .LVU300
 1692 006e 9FED0B0A 		vldr.32	s0, .L89
 1693 0072 0022     		movs	r2, #0
 1694 0074 2946     		mov	r1, r5
 1695 0076 0F48     		ldr	r0, .L89+24
 1696 0078 FFF7FEFF 		bl	setMatVal
 1697              	.LVL190:
 232:Core/drogui/src/kalman.c ****         setMatVal(&Pm,i,i,0.1);
 1698              		.loc 1 232 9 discriminator 2 view .LVU301
 1699 007c 9FED0E0A 		vldr.32	s0, .L89+28
 1700 0080 2A46     		mov	r2, r5
 1701 0082 2946     		mov	r1, r5
 1702 0084 0948     		ldr	r0, .L89+16
 1703 0086 FFF7FEFF 		bl	setMatVal
 1704              	.LVL191:
 227:Core/drogui/src/kalman.c ****         for(int j = 0; j < 9; j++) setMatVal(&Pm, i, j, 0);
 1705              		.loc 1 227 28 discriminator 2 view .LVU302
 227:Core/drogui/src/kalman.c ****         for(int j = 0; j < 9; j++) setMatVal(&Pm, i, j, 0);
ARM GAS  C:\Users\GUILLE~1\AppData\Local\Temp\ccBpDujs.s 			page 35


 1706              		.loc 1 227 29 is_stmt 0 discriminator 2 view .LVU303
 1707 008a 0135     		adds	r5, r5, #1
 1708              	.LVL192:
 1709              	.L80:
 227:Core/drogui/src/kalman.c ****         for(int j = 0; j < 9; j++) setMatVal(&Pm, i, j, 0);
 1710              		.loc 1 227 20 is_stmt 1 discriminator 1 view .LVU304
 227:Core/drogui/src/kalman.c ****         for(int j = 0; j < 9; j++) setMatVal(&Pm, i, j, 0);
 1711              		.loc 1 227 5 is_stmt 0 discriminator 1 view .LVU305
 1712 008c 082D     		cmp	r5, #8
 1713 008e 01DC     		bgt	.L88
 1714              	.LBB20:
 228:Core/drogui/src/kalman.c ****         for(int j = 0; j < 3; j++) setMatVal(&KalmanGain, i, j, 0);
 1715              		.loc 1 228 17 view .LVU306
 1716 0090 0024     		movs	r4, #0
 1717 0092 DEE7     		b	.L84
 1718              	.L88:
 1719              	.LBE20:
 1720              	.LBE17:
 233:Core/drogui/src/kalman.c ****     }
 234:Core/drogui/src/kalman.c **** 
 235:Core/drogui/src/kalman.c **** }...
 1721              		.loc 1 235 1 view .LVU307
 1722 0094 BDEC028B 		vldm	sp!, {d8}
 1723              	.LCFI27:
 1724              		.cfi_restore 80
 1725              		.cfi_restore 81
 1726              		.cfi_def_cfa_offset 16
 1727 0098 38BD     		pop	{r3, r4, r5, pc}
 1728              	.LVL193:
 1729              	.L90:
 1730              		.loc 1 235 1 view .LVU308
 1731 009a 00BF     		.align	2
 1732              	.L89:
 1733 009c 00000000 		.word	0
 1734 00a0 00000000 		.word	.LANCHOR5
 1735 00a4 00000000 		.word	.LANCHOR6
 1736 00a8 00000000 		.word	.LANCHOR7
 1737 00ac 00000000 		.word	.LANCHOR16
 1738 00b0 00000000 		.word	.LANCHOR12
 1739 00b4 00000000 		.word	.LANCHOR13
 1740 00b8 CDCCCC3D 		.word	1036831949
 1741              		.cfi_endproc
 1742              	.LFE154:
 1744              		.global	delta
 1745              		.global	p_gps
 1746              		.global	KalmanGain
 1747              		.global	ye
 1748              		.global	Q12
 1749              		.global	Pm
 1750              		.global	bias_u
 1751              		.global	bias_v
 1752              		.global	bias_p
 1753              		.global	Hm
 1754              		.global	Gm
 1755              		.global	Fm
 1756              		.global	s
 1757              		.global	u
ARM GAS  C:\Users\GUILLE~1\AppData\Local\Temp\ccBpDujs.s 			page 36


 1758              		.global	Rc
 1759              		.global	Rq
 1760              		.global	v
 1761              		.global	p
 1762              		.global	N
 1763              		.global	Ts
 1764              		.section	.bss.Fm,"aw",%nobits
 1765              		.align	2
 1766              		.set	.LANCHOR17,. + 0
 1769              	Fm:
 1770 0000 00000000 		.space	16
 1770      00000000 
 1770      00000000 
 1770      00000000 
 1771              		.section	.bss.Gm,"aw",%nobits
 1772              		.align	2
 1773              		.set	.LANCHOR19,. + 0
 1776              	Gm:
 1777 0000 00000000 		.space	16
 1777      00000000 
 1777      00000000 
 1777      00000000 
 1778              		.section	.bss.Hm,"aw",%nobits
 1779              		.align	2
 1780              		.set	.LANCHOR18,. + 0
 1783              	Hm:
 1784 0000 00000000 		.space	16
 1784      00000000 
 1784      00000000 
 1784      00000000 
 1785              		.section	.bss.KalmanGain,"aw",%nobits
 1786              		.align	2
 1787              		.set	.LANCHOR12,. + 0
 1790              	KalmanGain:
 1791 0000 00000000 		.space	16
 1791      00000000 
 1791      00000000 
 1791      00000000 
 1792              		.section	.bss.N,"aw",%nobits
 1793              		.align	2
 1794              		.set	.LANCHOR1,. + 0
 1797              	N:
 1798 0000 00000000 		.space	4
 1799              		.section	.bss.Pm,"aw",%nobits
 1800              		.align	2
 1801              		.set	.LANCHOR16,. + 0
 1804              	Pm:
 1805 0000 00000000 		.space	16
 1805      00000000 
 1805      00000000 
 1805      00000000 
 1806              		.section	.bss.Q12,"aw",%nobits
 1807              		.align	2
 1808              		.set	.LANCHOR15,. + 0
 1811              	Q12:
 1812 0000 00000000 		.space	16
 1812      00000000 
ARM GAS  C:\Users\GUILLE~1\AppData\Local\Temp\ccBpDujs.s 			page 37


 1812      00000000 
 1812      00000000 
 1813              		.section	.bss.Rc,"aw",%nobits
 1814              		.align	2
 1815              		.set	.LANCHOR14,. + 0
 1818              	Rc:
 1819 0000 00000000 		.space	16
 1819      00000000 
 1819      00000000 
 1819      00000000 
 1820              		.section	.bss.Rq,"aw",%nobits
 1821              		.align	2
 1822              		.set	.LANCHOR2,. + 0
 1825              	Rq:
 1826 0000 00000000 		.space	16
 1826      00000000 
 1826      00000000 
 1826      00000000 
 1827              		.section	.bss.Ts,"aw",%nobits
 1828              		.align	2
 1829              		.set	.LANCHOR0,. + 0
 1832              	Ts:
 1833 0000 00000000 		.space	4
 1834              		.section	.bss.bias_p,"aw",%nobits
 1835              		.align	2
 1836              		.set	.LANCHOR7,. + 0
 1839              	bias_p:
 1840 0000 00000000 		.space	16
 1840      00000000 
 1840      00000000 
 1840      00000000 
 1841              		.section	.bss.bias_u,"aw",%nobits
 1842              		.align	2
 1843              		.set	.LANCHOR8,. + 0
 1846              	bias_u:
 1847 0000 00000000 		.space	16
 1847      00000000 
 1847      00000000 
 1847      00000000 
 1848              		.section	.bss.bias_v,"aw",%nobits
 1849              		.align	2
 1850              		.set	.LANCHOR9,. + 0
 1853              	bias_v:
 1854 0000 00000000 		.space	16
 1854      00000000 
 1854      00000000 
 1854      00000000 
 1855              		.section	.bss.delta,"aw",%nobits
 1856              		.align	2
 1857              		.set	.LANCHOR13,. + 0
 1860              	delta:
 1861 0000 00000000 		.space	16
 1861      00000000 
 1861      00000000 
 1861      00000000 
 1862              		.section	.bss.p,"aw",%nobits
 1863              		.align	2
ARM GAS  C:\Users\GUILLE~1\AppData\Local\Temp\ccBpDujs.s 			page 38


 1864              		.set	.LANCHOR5,. + 0
 1867              	p:
 1868 0000 00000000 		.space	16
 1868      00000000 
 1868      00000000 
 1868      00000000 
 1869              		.section	.bss.p_gps,"aw",%nobits
 1870              		.align	2
 1871              		.set	.LANCHOR11,. + 0
 1874              	p_gps:
 1875 0000 00000000 		.space	16
 1875      00000000 
 1875      00000000 
 1875      00000000 
 1876              		.section	.bss.s,"aw",%nobits
 1877              		.align	2
 1878              		.set	.LANCHOR4,. + 0
 1881              	s:
 1882 0000 00000000 		.space	16
 1882      00000000 
 1882      00000000 
 1882      00000000 
 1883              		.section	.bss.u,"aw",%nobits
 1884              		.align	2
 1885              		.set	.LANCHOR3,. + 0
 1888              	u:
 1889 0000 00000000 		.space	16
 1889      00000000 
 1889      00000000 
 1889      00000000 
 1890              		.section	.bss.v,"aw",%nobits
 1891              		.align	2
 1892              		.set	.LANCHOR6,. + 0
 1895              	v:
 1896 0000 00000000 		.space	16
 1896      00000000 
 1896      00000000 
 1896      00000000 
 1897              		.section	.bss.ye,"aw",%nobits
 1898              		.align	2
 1899              		.set	.LANCHOR10,. + 0
 1902              	ye:
 1903 0000 00000000 		.space	16
 1903      00000000 
 1903      00000000 
 1903      00000000 
 1904              		.text
 1905              	.Letext0:
 1906              		.file 2 "Core/drogui/include/matlib.h"
ARM GAS  C:\Users\GUILLE~1\AppData\Local\Temp\ccBpDujs.s 			page 39

