ARM GAS  C:\Users\GUILLE~1\AppData\Local\Temp\cckPH0Lx.s 			page 1


   1              		.cpu cortex-m7
   2              		.eabi_attribute 27, 1
   3              		.eabi_attribute 28, 1
   4              		.eabi_attribute 20, 1
   5              		.eabi_attribute 21, 1
   6              		.eabi_attribute 23, 3
   7              		.eabi_attribute 24, 1
   8              		.eabi_attribute 25, 1
   9              		.eabi_attribute 26, 1
  10              		.eabi_attribute 30, 1
  11              		.eabi_attribute 34, 1
  12              		.eabi_attribute 18, 4
  13              		.file	"sensorsTasks.c"
  14              		.text
  15              	.Ltext0:
  16              		.cfi_sections	.debug_frame
  17              		.section	.text.accelTask,"ax",%progbits
  18              		.align	1
  19              		.global	accelTask
  20              		.arch armv7e-m
  21              		.syntax unified
  22              		.thumb
  23              		.thumb_func
  24              		.fpu fpv5-sp-d16
  26              	accelTask:
  27              	.LFB174:
  28              		.file 1 "Core/drogui/src/sensorsTasks.c"
   1:Core/drogui/src/sensorsTasks.c **** #include "sensorsTasks.h"
   2:Core/drogui/src/sensorsTasks.c **** #include "mahony.h"
   3:Core/drogui/src/sensorsTasks.c **** #include "task.h"
   4:Core/drogui/src/sensorsTasks.c **** #include "utils.h"
   5:Core/drogui/src/sensorsTasks.c **** #include "M8Q.h"
   6:Core/drogui/src/sensorsTasks.c **** #include "kalman.h"
   7:Core/drogui/src/sensorsTasks.c **** #include "serial.h"
   8:Core/drogui/src/sensorsTasks.c **** #include "opticalFlow.h"
   9:Core/drogui/src/sensorsTasks.c **** #include "ICM20948.h"
  10:Core/drogui/src/sensorsTasks.c **** #include "MPU9250.h"
  11:Core/drogui/src/sensorsTasks.c **** 
  12:Core/drogui/src/sensorsTasks.c **** #ifdef ICM20948
  13:Core/drogui/src/sensorsTasks.c ****     icm20948 myIMU;
  14:Core/drogui/src/sensorsTasks.c **** #elif defined(MPU9250)
  15:Core/drogui/src/sensorsTasks.c ****     mpu9250 myIMU;
  16:Core/drogui/src/sensorsTasks.c **** #endif
  17:Core/drogui/src/sensorsTasks.c **** 
  18:Core/drogui/src/sensorsTasks.c **** 
  19:Core/drogui/src/sensorsTasks.c **** mahony myRPY;
  20:Core/drogui/src/sensorsTasks.c **** 
  21:Core/drogui/src/sensorsTasks.c **** m8q myGPS;
  22:Core/drogui/src/sensorsTasks.c **** optFlow myOF;
  23:Core/drogui/src/sensorsTasks.c **** 
  24:Core/drogui/src/sensorsTasks.c **** filter filter_roll, filter_pitch, filter_yaw;
  25:Core/drogui/src/sensorsTasks.c **** 
  26:Core/drogui/src/sensorsTasks.c **** float   roll,       pitch,      yaw,
  27:Core/drogui/src/sensorsTasks.c ****         raw_roll,   raw_pitch,  raw_yaw,
  28:Core/drogui/src/sensorsTasks.c ****         ax,         ay,         az, 
  29:Core/drogui/src/sensorsTasks.c ****         gx,         gy,         gz, 
  30:Core/drogui/src/sensorsTasks.c ****         mx,         my,         mz, 
ARM GAS  C:\Users\GUILLE~1\AppData\Local\Temp\cckPH0Lx.s 			page 2


  31:Core/drogui/src/sensorsTasks.c ****         x,          y,          z, 
  32:Core/drogui/src/sensorsTasks.c ****         xp,         yp,         z_of; 
  33:Core/drogui/src/sensorsTasks.c **** 
  34:Core/drogui/src/sensorsTasks.c **** bool mag_available = false;
  35:Core/drogui/src/sensorsTasks.c **** 
  36:Core/drogui/src/sensorsTasks.c **** float z_ant = 0;
  37:Core/drogui/src/sensorsTasks.c **** float Kdfilt = 0.01;
  38:Core/drogui/src/sensorsTasks.c **** 
  39:Core/drogui/src/sensorsTasks.c **** bmp388 myBMP;
  40:Core/drogui/src/sensorsTasks.c **** float altitude,offset_alt;
  41:Core/drogui/src/sensorsTasks.c **** 
  42:Core/drogui/src/sensorsTasks.c **** emaFilter ema_bmp;
  43:Core/drogui/src/sensorsTasks.c **** mvAvgFilter mvAvg_bmp;
  44:Core/drogui/src/sensorsTasks.c **** filter filter_z;
  45:Core/drogui/src/sensorsTasks.c **** int cfilt_z = 0;
  46:Core/drogui/src/sensorsTasks.c **** 
  47:Core/drogui/src/sensorsTasks.c **** void accelTask(){   
  29              		.loc 1 47 17 view -0
  30              		.cfi_startproc
  31              		@ args = 0, pretend = 0, frame = 0
  32              		@ frame_needed = 0, uses_anonymous_args = 0
  33 0000 10B5     		push	{r4, lr}
  34              	.LCFI0:
  35              		.cfi_def_cfa_offset 8
  36              		.cfi_offset 4, -8
  37              		.cfi_offset 14, -4
  48:Core/drogui/src/sensorsTasks.c ****     
  49:Core/drogui/src/sensorsTasks.c ****     readAcc(&myIMU);
  38              		.loc 1 49 5 view .LVU1
  39 0002 1B4C     		ldr	r4, .L5
  40 0004 2046     		mov	r0, r4
  41 0006 FFF7FEFF 		bl	readAcc
  42              	.LVL0:
  50:Core/drogui/src/sensorsTasks.c ****     ax = myIMU.ax, ay = myIMU.ay, az = myIMU.az; 
  43              		.loc 1 50 5 view .LVU2
  44              		.loc 1 50 15 is_stmt 0 view .LVU3
  45 000a 2268     		ldr	r2, [r4]	@ float
  46              		.loc 1 50 8 view .LVU4
  47 000c 194B     		ldr	r3, .L5+4
  48 000e 1A60     		str	r2, [r3]	@ float
  49              		.loc 1 50 30 view .LVU5
  50 0010 6268     		ldr	r2, [r4, #4]	@ float
  51              		.loc 1 50 23 view .LVU6
  52 0012 194B     		ldr	r3, .L5+8
  53 0014 1A60     		str	r2, [r3]	@ float
  54              		.loc 1 50 45 view .LVU7
  55 0016 A268     		ldr	r2, [r4, #8]	@ float
  56              		.loc 1 50 38 view .LVU8
  57 0018 184B     		ldr	r3, .L5+12
  58 001a 1A60     		str	r2, [r3]	@ float
  51:Core/drogui/src/sensorsTasks.c **** 
  52:Core/drogui/src/sensorsTasks.c ****     if( calib_status & 1 ){
  59              		.loc 1 52 5 is_stmt 1 view .LVU9
  60              		.loc 1 52 22 is_stmt 0 view .LVU10
  61 001c 184B     		ldr	r3, .L5+16
  62 001e 1B68     		ldr	r3, [r3]
  63              		.loc 1 52 7 view .LVU11
ARM GAS  C:\Users\GUILLE~1\AppData\Local\Temp\cckPH0Lx.s 			page 3


  64 0020 13F0010F 		tst	r3, #1
  65 0024 12D1     		bne	.L4
  66              	.L2:
  53:Core/drogui/src/sensorsTasks.c ****         cleanFiltAcc(&myIMU.fAccX); 
  54:Core/drogui/src/sensorsTasks.c ****         cleanFiltAcc(&myIMU.fAccY); 
  55:Core/drogui/src/sensorsTasks.c ****         cleanFiltAcc(&myIMU.fAccZ);
  56:Core/drogui/src/sensorsTasks.c ****         calib_status ^= 1;
  57:Core/drogui/src/sensorsTasks.c ****     }
  58:Core/drogui/src/sensorsTasks.c ****     
  59:Core/drogui/src/sensorsTasks.c ****     setReg(ACC_X,(float)(ax));
  67              		.loc 1 59 5 is_stmt 1 view .LVU12
  68 0026 134B     		ldr	r3, .L5+4
  69 0028 93ED000A 		vldr.32	s0, [r3]
  70 002c DA20     		movs	r0, #218
  71 002e FFF7FEFF 		bl	setReg
  72              	.LVL1:
  60:Core/drogui/src/sensorsTasks.c ****     setReg(ACC_Y,(float)(ay));
  73              		.loc 1 60 5 view .LVU13
  74 0032 114B     		ldr	r3, .L5+8
  75 0034 93ED000A 		vldr.32	s0, [r3]
  76 0038 DC20     		movs	r0, #220
  77 003a FFF7FEFF 		bl	setReg
  78              	.LVL2:
  61:Core/drogui/src/sensorsTasks.c ****     setReg(ACC_Z,(float)(az));
  79              		.loc 1 61 5 view .LVU14
  80 003e 0F4B     		ldr	r3, .L5+12
  81 0040 93ED000A 		vldr.32	s0, [r3]
  82 0044 DE20     		movs	r0, #222
  83 0046 FFF7FEFF 		bl	setReg
  84              	.LVL3:
  62:Core/drogui/src/sensorsTasks.c **** }
  85              		.loc 1 62 1 is_stmt 0 view .LVU15
  86 004a 10BD     		pop	{r4, pc}
  87              	.L4:
  53:Core/drogui/src/sensorsTasks.c ****         cleanFiltAcc(&myIMU.fAccY); 
  88              		.loc 1 53 9 is_stmt 1 view .LVU16
  89 004c 04F57B70 		add	r0, r4, #1004
  90 0050 FFF7FEFF 		bl	cleanFiltAcc
  91              	.LVL4:
  54:Core/drogui/src/sensorsTasks.c ****         cleanFiltAcc(&myIMU.fAccZ);
  92              		.loc 1 54 9 view .LVU17
  93 0054 04F26C40 		addw	r0, r4, #1132
  94 0058 FFF7FEFF 		bl	cleanFiltAcc
  95              	.LVL5:
  55:Core/drogui/src/sensorsTasks.c ****         calib_status ^= 1;
  96              		.loc 1 55 9 view .LVU18
  97 005c 04F2EC40 		addw	r0, r4, #1260
  98 0060 FFF7FEFF 		bl	cleanFiltAcc
  99              	.LVL6:
  56:Core/drogui/src/sensorsTasks.c ****     }
 100              		.loc 1 56 9 view .LVU19
  56:Core/drogui/src/sensorsTasks.c ****     }
 101              		.loc 1 56 22 is_stmt 0 view .LVU20
 102 0064 064A     		ldr	r2, .L5+16
 103 0066 1368     		ldr	r3, [r2]
 104 0068 83F00103 		eor	r3, r3, #1
 105 006c 1360     		str	r3, [r2]
ARM GAS  C:\Users\GUILLE~1\AppData\Local\Temp\cckPH0Lx.s 			page 4


 106 006e DAE7     		b	.L2
 107              	.L6:
 108              		.align	2
 109              	.L5:
 110 0070 00000000 		.word	.LANCHOR0
 111 0074 00000000 		.word	.LANCHOR1
 112 0078 00000000 		.word	.LANCHOR2
 113 007c 00000000 		.word	.LANCHOR3
 114 0080 00000000 		.word	calib_status
 115              		.cfi_endproc
 116              	.LFE174:
 118              		.section	.text.gyroTask,"ax",%progbits
 119              		.align	1
 120              		.global	gyroTask
 121              		.syntax unified
 122              		.thumb
 123              		.thumb_func
 124              		.fpu fpv5-sp-d16
 126              	gyroTask:
 127              	.LFB175:
  63:Core/drogui/src/sensorsTasks.c **** 
  64:Core/drogui/src/sensorsTasks.c **** void gyroTask(){
 128              		.loc 1 64 16 is_stmt 1 view -0
 129              		.cfi_startproc
 130              		@ args = 0, pretend = 0, frame = 0
 131              		@ frame_needed = 0, uses_anonymous_args = 0
 132 0000 10B5     		push	{r4, lr}
 133              	.LCFI1:
 134              		.cfi_def_cfa_offset 8
 135              		.cfi_offset 4, -8
 136              		.cfi_offset 14, -4
  65:Core/drogui/src/sensorsTasks.c ****     
  66:Core/drogui/src/sensorsTasks.c ****     readGyro(&myIMU);
 137              		.loc 1 66 5 view .LVU22
 138 0002 1B4C     		ldr	r4, .L11
 139 0004 2046     		mov	r0, r4
 140 0006 FFF7FEFF 		bl	readGyro
 141              	.LVL7:
  67:Core/drogui/src/sensorsTasks.c ****     gx = myIMU.gx, gy = myIMU.gy, gz = myIMU.gz; 
 142              		.loc 1 67 5 view .LVU23
 143              		.loc 1 67 15 is_stmt 0 view .LVU24
 144 000a E268     		ldr	r2, [r4, #12]	@ float
 145              		.loc 1 67 8 view .LVU25
 146 000c 194B     		ldr	r3, .L11+4
 147 000e 1A60     		str	r2, [r3]	@ float
 148              		.loc 1 67 30 view .LVU26
 149 0010 2269     		ldr	r2, [r4, #16]	@ float
 150              		.loc 1 67 23 view .LVU27
 151 0012 194B     		ldr	r3, .L11+8
 152 0014 1A60     		str	r2, [r3]	@ float
 153              		.loc 1 67 45 view .LVU28
 154 0016 6269     		ldr	r2, [r4, #20]	@ float
 155              		.loc 1 67 38 view .LVU29
 156 0018 184B     		ldr	r3, .L11+12
 157 001a 1A60     		str	r2, [r3]	@ float
  68:Core/drogui/src/sensorsTasks.c **** 
  69:Core/drogui/src/sensorsTasks.c ****     
ARM GAS  C:\Users\GUILLE~1\AppData\Local\Temp\cckPH0Lx.s 			page 5


  70:Core/drogui/src/sensorsTasks.c **** 
  71:Core/drogui/src/sensorsTasks.c ****     if( calib_status & 2 ){
 158              		.loc 1 71 5 is_stmt 1 view .LVU30
 159              		.loc 1 71 22 is_stmt 0 view .LVU31
 160 001c 184B     		ldr	r3, .L11+16
 161 001e 1B68     		ldr	r3, [r3]
 162              		.loc 1 71 7 view .LVU32
 163 0020 13F0020F 		tst	r3, #2
 164 0024 12D1     		bne	.L10
 165              	.L8:
  72:Core/drogui/src/sensorsTasks.c ****         
  73:Core/drogui/src/sensorsTasks.c ****         cleanFiltGyro(&myIMU.fGyroX); 
  74:Core/drogui/src/sensorsTasks.c ****         cleanFiltGyro(&myIMU.fGyroY); 
  75:Core/drogui/src/sensorsTasks.c ****         cleanFiltGyro(&myIMU.fGyroZ);
  76:Core/drogui/src/sensorsTasks.c ****         calib_status ^= 2;
  77:Core/drogui/src/sensorsTasks.c ****     }
  78:Core/drogui/src/sensorsTasks.c ****     
  79:Core/drogui/src/sensorsTasks.c ****     setReg(GYRO_X,(float)(gx));
 166              		.loc 1 79 5 is_stmt 1 view .LVU33
 167 0026 134B     		ldr	r3, .L11+4
 168 0028 93ED000A 		vldr.32	s0, [r3]
 169 002c E020     		movs	r0, #224
 170 002e FFF7FEFF 		bl	setReg
 171              	.LVL8:
  80:Core/drogui/src/sensorsTasks.c ****     setReg(GYRO_Y,(float)(gy));
 172              		.loc 1 80 5 view .LVU34
 173 0032 114B     		ldr	r3, .L11+8
 174 0034 93ED000A 		vldr.32	s0, [r3]
 175 0038 E220     		movs	r0, #226
 176 003a FFF7FEFF 		bl	setReg
 177              	.LVL9:
  81:Core/drogui/src/sensorsTasks.c ****     setReg(GYRO_Z,(float)(gz));
 178              		.loc 1 81 5 view .LVU35
 179 003e 0F4B     		ldr	r3, .L11+12
 180 0040 93ED000A 		vldr.32	s0, [r3]
 181 0044 E420     		movs	r0, #228
 182 0046 FFF7FEFF 		bl	setReg
 183              	.LVL10:
  82:Core/drogui/src/sensorsTasks.c **** 
  83:Core/drogui/src/sensorsTasks.c **** }
 184              		.loc 1 83 1 is_stmt 0 view .LVU36
 185 004a 10BD     		pop	{r4, pc}
 186              	.L10:
  73:Core/drogui/src/sensorsTasks.c ****         cleanFiltGyro(&myIMU.fGyroY); 
 187              		.loc 1 73 9 is_stmt 1 view .LVU37
 188 004c 04F1A400 		add	r0, r4, #164
 189 0050 FFF7FEFF 		bl	cleanFiltGyro
 190              	.LVL11:
  74:Core/drogui/src/sensorsTasks.c ****         cleanFiltGyro(&myIMU.fGyroZ);
 191              		.loc 1 74 9 view .LVU38
 192 0054 04F5DE70 		add	r0, r4, #444
 193 0058 FFF7FEFF 		bl	cleanFiltGyro
 194              	.LVL12:
  75:Core/drogui/src/sensorsTasks.c ****         calib_status ^= 2;
 195              		.loc 1 75 9 view .LVU39
 196 005c 04F53570 		add	r0, r4, #724
 197 0060 FFF7FEFF 		bl	cleanFiltGyro
ARM GAS  C:\Users\GUILLE~1\AppData\Local\Temp\cckPH0Lx.s 			page 6


 198              	.LVL13:
  76:Core/drogui/src/sensorsTasks.c ****     }
 199              		.loc 1 76 9 view .LVU40
  76:Core/drogui/src/sensorsTasks.c ****     }
 200              		.loc 1 76 22 is_stmt 0 view .LVU41
 201 0064 064A     		ldr	r2, .L11+16
 202 0066 1368     		ldr	r3, [r2]
 203 0068 83F00203 		eor	r3, r3, #2
 204 006c 1360     		str	r3, [r2]
 205 006e DAE7     		b	.L8
 206              	.L12:
 207              		.align	2
 208              	.L11:
 209 0070 00000000 		.word	.LANCHOR0
 210 0074 00000000 		.word	.LANCHOR4
 211 0078 00000000 		.word	.LANCHOR5
 212 007c 00000000 		.word	.LANCHOR6
 213 0080 00000000 		.word	calib_status
 214              		.cfi_endproc
 215              	.LFE175:
 217              		.section	.text.magTask,"ax",%progbits
 218              		.align	1
 219              		.global	magTask
 220              		.syntax unified
 221              		.thumb
 222              		.thumb_func
 223              		.fpu fpv5-sp-d16
 225              	magTask:
 226              	.LFB176:
  84:Core/drogui/src/sensorsTasks.c **** 
  85:Core/drogui/src/sensorsTasks.c **** void magTask(){
 227              		.loc 1 85 15 is_stmt 1 view -0
 228              		.cfi_startproc
 229              		@ args = 0, pretend = 0, frame = 0
 230              		@ frame_needed = 0, uses_anonymous_args = 0
 231 0000 38B5     		push	{r3, r4, r5, lr}
 232              	.LCFI2:
 233              		.cfi_def_cfa_offset 16
 234              		.cfi_offset 3, -16
 235              		.cfi_offset 4, -12
 236              		.cfi_offset 5, -8
 237              		.cfi_offset 14, -4
  86:Core/drogui/src/sensorsTasks.c ****     readMag(&myIMU);
 238              		.loc 1 86 5 view .LVU43
 239 0002 104C     		ldr	r4, .L15
 240 0004 2046     		mov	r0, r4
 241 0006 FFF7FEFF 		bl	readMag
 242              	.LVL14:
  87:Core/drogui/src/sensorsTasks.c ****     mx = myIMU.mx;
 243              		.loc 1 87 5 view .LVU44
 244              		.loc 1 87 15 is_stmt 0 view .LVU45
 245 000a 94ED060A 		vldr.32	s0, [r4, #24]
 246              		.loc 1 87 8 view .LVU46
 247 000e 0E4B     		ldr	r3, .L15+4
 248 0010 83ED000A 		vstr.32	s0, [r3]
  88:Core/drogui/src/sensorsTasks.c ****     my = myIMU.my;
 249              		.loc 1 88 5 is_stmt 1 view .LVU47
ARM GAS  C:\Users\GUILLE~1\AppData\Local\Temp\cckPH0Lx.s 			page 7


 250              		.loc 1 88 15 is_stmt 0 view .LVU48
 251 0014 E369     		ldr	r3, [r4, #28]	@ float
 252              		.loc 1 88 8 view .LVU49
 253 0016 0D4D     		ldr	r5, .L15+8
 254 0018 2B60     		str	r3, [r5]	@ float
  89:Core/drogui/src/sensorsTasks.c ****     mz = myIMU.mz;
 255              		.loc 1 89 5 is_stmt 1 view .LVU50
 256              		.loc 1 89 15 is_stmt 0 view .LVU51
 257 001a 236A     		ldr	r3, [r4, #32]	@ float
 258              		.loc 1 89 8 view .LVU52
 259 001c 0C4C     		ldr	r4, .L15+12
 260 001e 2360     		str	r3, [r4]	@ float
  90:Core/drogui/src/sensorsTasks.c ****     setReg(MAG_X, mx);
 261              		.loc 1 90 5 is_stmt 1 view .LVU53
 262 0020 EA20     		movs	r0, #234
 263 0022 FFF7FEFF 		bl	setReg
 264              	.LVL15:
  91:Core/drogui/src/sensorsTasks.c ****     setReg(MAG_Y, my);
 265              		.loc 1 91 5 view .LVU54
 266 0026 95ED000A 		vldr.32	s0, [r5]
 267 002a EC20     		movs	r0, #236
 268 002c FFF7FEFF 		bl	setReg
 269              	.LVL16:
  92:Core/drogui/src/sensorsTasks.c ****     setReg(MAG_Z, mz);
 270              		.loc 1 92 5 view .LVU55
 271 0030 94ED000A 		vldr.32	s0, [r4]
 272 0034 EE20     		movs	r0, #238
 273 0036 FFF7FEFF 		bl	setReg
 274              	.LVL17:
  93:Core/drogui/src/sensorsTasks.c ****     mag_available = true;
 275              		.loc 1 93 5 view .LVU56
 276              		.loc 1 93 19 is_stmt 0 view .LVU57
 277 003a 064B     		ldr	r3, .L15+16
 278 003c 0122     		movs	r2, #1
 279 003e 1A70     		strb	r2, [r3]
  94:Core/drogui/src/sensorsTasks.c **** }
 280              		.loc 1 94 1 view .LVU58
 281 0040 38BD     		pop	{r3, r4, r5, pc}
 282              	.L16:
 283 0042 00BF     		.align	2
 284              	.L15:
 285 0044 00000000 		.word	.LANCHOR0
 286 0048 00000000 		.word	.LANCHOR7
 287 004c 00000000 		.word	.LANCHOR8
 288 0050 00000000 		.word	.LANCHOR9
 289 0054 00000000 		.word	.LANCHOR10
 290              		.cfi_endproc
 291              	.LFE176:
 293              		.global	__aeabi_i2d
 294              		.global	__aeabi_dmul
 295              		.global	__aeabi_d2f
 296              		.section	.text.gpsTask,"ax",%progbits
 297              		.align	1
 298              		.global	gpsTask
 299              		.syntax unified
 300              		.thumb
 301              		.thumb_func
ARM GAS  C:\Users\GUILLE~1\AppData\Local\Temp\cckPH0Lx.s 			page 8


 302              		.fpu fpv5-sp-d16
 304              	gpsTask:
 305              	.LFB178:
  95:Core/drogui/src/sensorsTasks.c **** 
  96:Core/drogui/src/sensorsTasks.c **** void altitudeTask(){
  97:Core/drogui/src/sensorsTasks.c ****     
  98:Core/drogui/src/sensorsTasks.c ****     bmp388ReadAltitude(&myBMP);
  99:Core/drogui/src/sensorsTasks.c ****     //z = computeMvAvgFilter( &mvAvg_bmp, myBMP.altitude );
 100:Core/drogui/src/sensorsTasks.c ****     z = computeEmaFilter( &ema_bmp, myBMP.altitude);
 101:Core/drogui/src/sensorsTasks.c ****     z = computeFilter( &filter_z, z );
 102:Core/drogui/src/sensorsTasks.c ****     
 103:Core/drogui/src/sensorsTasks.c ****     setReg(Z_VAL, z);
 104:Core/drogui/src/sensorsTasks.c ****     
 105:Core/drogui/src/sensorsTasks.c **** }
 106:Core/drogui/src/sensorsTasks.c **** 
 107:Core/drogui/src/sensorsTasks.c **** 
 108:Core/drogui/src/sensorsTasks.c **** void gpsTask(){
 306              		.loc 1 108 15 is_stmt 1 view -0
 307              		.cfi_startproc
 308              		@ args = 0, pretend = 0, frame = 0
 309              		@ frame_needed = 0, uses_anonymous_args = 0
 310 0000 70B5     		push	{r4, r5, r6, lr}
 311              	.LCFI3:
 312              		.cfi_def_cfa_offset 16
 313              		.cfi_offset 4, -16
 314              		.cfi_offset 5, -12
 315              		.cfi_offset 6, -8
 316              		.cfi_offset 14, -4
 109:Core/drogui/src/sensorsTasks.c **** 
 110:Core/drogui/src/sensorsTasks.c ****     int ret = readLatLon(&myGPS); 
 317              		.loc 1 110 5 view .LVU60
 318              		.loc 1 110 15 is_stmt 0 view .LVU61
 319 0002 2F48     		ldr	r0, .L25+8
 320 0004 FFF7FEFF 		bl	readLatLon
 321              	.LVL18:
 322 0008 0446     		mov	r4, r0
 323              	.LVL19:
 111:Core/drogui/src/sensorsTasks.c ****     setReg(GPS_STATE, ret);
 324              		.loc 1 111 5 is_stmt 1 view .LVU62
 325 000a 07EE900A 		vmov	s15, r0	@ int
 326 000e B8EEE70A 		vcvt.f32.s32	s0, s15
 327 0012 D420     		movs	r0, #212
 328              	.LVL20:
 329              		.loc 1 111 5 is_stmt 0 view .LVU63
 330 0014 FFF7FEFF 		bl	setReg
 331              	.LVL21:
 112:Core/drogui/src/sensorsTasks.c ****     
 113:Core/drogui/src/sensorsTasks.c ****     if(ret == GPS_OK){
 332              		.loc 1 113 5 is_stmt 1 view .LVU64
 333              		.loc 1 113 7 is_stmt 0 view .LVU65
 334 0018 032C     		cmp	r4, #3
 335 001a 00D0     		beq	.L23
 336              	.LVL22:
 337              	.L17:
 114:Core/drogui/src/sensorsTasks.c ****         if(getReg(START_GPS) <= 0)
 115:Core/drogui/src/sensorsTasks.c ****             myGPS.off_x = myGPS.latitude, myGPS.off_y = myGPS.longitud;
 116:Core/drogui/src/sensorsTasks.c ****         
ARM GAS  C:\Users\GUILLE~1\AppData\Local\Temp\cckPH0Lx.s 			page 9


 117:Core/drogui/src/sensorsTasks.c ****         int x_lat = myGPS.latitude - myGPS.off_x;
 118:Core/drogui/src/sensorsTasks.c ****         int y_lon = myGPS.longitud - myGPS.off_y;
 119:Core/drogui/src/sensorsTasks.c ****         
 120:Core/drogui/src/sensorsTasks.c **** 
 121:Core/drogui/src/sensorsTasks.c ****         setReg(GPS_AVAILABLE, 1);
 122:Core/drogui/src/sensorsTasks.c ****         setReg(GPS_X, 0.01*x_lat),
 123:Core/drogui/src/sensorsTasks.c ****         setReg(GPS_Y, 0.01*y_lon),
 124:Core/drogui/src/sensorsTasks.c ****         setReg(GPS_CNT, myGPS.cnt++);     
 125:Core/drogui/src/sensorsTasks.c ****     }
 126:Core/drogui/src/sensorsTasks.c **** }
 338              		.loc 1 126 1 view .LVU66
 339 001c 70BD     		pop	{r4, r5, r6, pc}
 340              	.LVL23:
 341              	.L23:
 342              	.LBB2:
 114:Core/drogui/src/sensorsTasks.c ****         if(getReg(START_GPS) <= 0)
 343              		.loc 1 114 9 is_stmt 1 view .LVU67
 114:Core/drogui/src/sensorsTasks.c ****         if(getReg(START_GPS) <= 0)
 344              		.loc 1 114 12 is_stmt 0 view .LVU68
 345 001e D820     		movs	r0, #216
 346 0020 FFF7FEFF 		bl	getReg
 347              	.LVL24:
 114:Core/drogui/src/sensorsTasks.c ****         if(getReg(START_GPS) <= 0)
 348              		.loc 1 114 11 view .LVU69
 349 0024 B5EEC00A 		vcmpe.f32	s0, #0
 350 0028 F1EE10FA 		vmrs	APSR_nzcv, FPSCR
 351 002c 3AD9     		bls	.L24
 352              	.L19:
 117:Core/drogui/src/sensorsTasks.c ****         int y_lon = myGPS.longitud - myGPS.off_y;
 353              		.loc 1 117 9 is_stmt 1 view .LVU70
 117:Core/drogui/src/sensorsTasks.c ****         int y_lon = myGPS.longitud - myGPS.off_y;
 354              		.loc 1 117 26 is_stmt 0 view .LVU71
 355 002e 244C     		ldr	r4, .L25+8
 356              	.LVL25:
 117:Core/drogui/src/sensorsTasks.c ****         int y_lon = myGPS.longitud - myGPS.off_y;
 357              		.loc 1 117 26 view .LVU72
 358 0030 D4F8A861 		ldr	r6, [r4, #424]
 117:Core/drogui/src/sensorsTasks.c ****         int y_lon = myGPS.longitud - myGPS.off_y;
 359              		.loc 1 117 43 view .LVU73
 360 0034 D4F8B031 		ldr	r3, [r4, #432]
 117:Core/drogui/src/sensorsTasks.c ****         int y_lon = myGPS.longitud - myGPS.off_y;
 361              		.loc 1 117 13 view .LVU74
 362 0038 F61A     		subs	r6, r6, r3
 363              	.LVL26:
 118:Core/drogui/src/sensorsTasks.c ****         
 364              		.loc 1 118 9 is_stmt 1 view .LVU75
 118:Core/drogui/src/sensorsTasks.c ****         
 365              		.loc 1 118 26 is_stmt 0 view .LVU76
 366 003a D4F8AC51 		ldr	r5, [r4, #428]
 118:Core/drogui/src/sensorsTasks.c ****         
 367              		.loc 1 118 43 view .LVU77
 368 003e D4F8B431 		ldr	r3, [r4, #436]
 118:Core/drogui/src/sensorsTasks.c ****         
 369              		.loc 1 118 13 view .LVU78
 370 0042 ED1A     		subs	r5, r5, r3
 371              	.LVL27:
 121:Core/drogui/src/sensorsTasks.c ****         setReg(GPS_X, 0.01*x_lat),
ARM GAS  C:\Users\GUILLE~1\AppData\Local\Temp\cckPH0Lx.s 			page 10


 372              		.loc 1 121 9 is_stmt 1 view .LVU79
 373 0044 B7EE000A 		vmov.f32	s0, #1.0e+0
 374 0048 D620     		movs	r0, #214
 375 004a FFF7FEFF 		bl	setReg
 376              	.LVL28:
 122:Core/drogui/src/sensorsTasks.c ****         setReg(GPS_Y, 0.01*y_lon),
 377              		.loc 1 122 9 view .LVU80
 122:Core/drogui/src/sensorsTasks.c ****         setReg(GPS_Y, 0.01*y_lon),
 378              		.loc 1 122 27 is_stmt 0 view .LVU81
 379 004e 3046     		mov	r0, r6
 380 0050 FFF7FEFF 		bl	__aeabi_i2d
 381              	.LVL29:
 382 0054 18A3     		adr	r3, .L25
 383 0056 D3E90023 		ldrd	r2, [r3]
 384 005a FFF7FEFF 		bl	__aeabi_dmul
 385              	.LVL30:
 122:Core/drogui/src/sensorsTasks.c ****         setReg(GPS_Y, 0.01*y_lon),
 386              		.loc 1 122 9 view .LVU82
 387 005e FFF7FEFF 		bl	__aeabi_d2f
 388              	.LVL31:
 389 0062 00EE100A 		vmov	s0, r0
 390 0066 CE20     		movs	r0, #206
 391 0068 FFF7FEFF 		bl	setReg
 392              	.LVL32:
 123:Core/drogui/src/sensorsTasks.c ****         setReg(GPS_CNT, myGPS.cnt++);     
 393              		.loc 1 123 27 view .LVU83
 394 006c 2846     		mov	r0, r5
 395 006e FFF7FEFF 		bl	__aeabi_i2d
 396              	.LVL33:
 397 0072 11A3     		adr	r3, .L25
 398 0074 D3E90023 		ldrd	r2, [r3]
 399 0078 FFF7FEFF 		bl	__aeabi_dmul
 400              	.LVL34:
 123:Core/drogui/src/sensorsTasks.c ****         setReg(GPS_CNT, myGPS.cnt++);     
 401              		.loc 1 123 9 view .LVU84
 402 007c FFF7FEFF 		bl	__aeabi_d2f
 403              	.LVL35:
 404 0080 00EE100A 		vmov	s0, r0
 405 0084 D020     		movs	r0, #208
 406 0086 FFF7FEFF 		bl	setReg
 407              	.LVL36:
 124:Core/drogui/src/sensorsTasks.c ****     }
 408              		.loc 1 124 30 view .LVU85
 409 008a D4F8B831 		ldr	r3, [r4, #440]
 124:Core/drogui/src/sensorsTasks.c ****     }
 410              		.loc 1 124 34 view .LVU86
 411 008e 5A1C     		adds	r2, r3, #1
 412 0090 C4F8B821 		str	r2, [r4, #440]
 124:Core/drogui/src/sensorsTasks.c ****     }
 413              		.loc 1 124 9 view .LVU87
 414 0094 07EE903A 		vmov	s15, r3	@ int
 415 0098 B8EEE70A 		vcvt.f32.s32	s0, s15
 416 009c D220     		movs	r0, #210
 417 009e FFF7FEFF 		bl	setReg
 418              	.LVL37:
 419              	.LBE2:
 420              		.loc 1 126 1 view .LVU88
ARM GAS  C:\Users\GUILLE~1\AppData\Local\Temp\cckPH0Lx.s 			page 11


 421 00a2 BBE7     		b	.L17
 422              	.LVL38:
 423              	.L24:
 424              	.LBB3:
 115:Core/drogui/src/sensorsTasks.c ****         
 425              		.loc 1 115 13 is_stmt 1 view .LVU89
 115:Core/drogui/src/sensorsTasks.c ****         
 426              		.loc 1 115 32 is_stmt 0 view .LVU90
 427 00a4 064B     		ldr	r3, .L25+8
 428 00a6 D3F8A821 		ldr	r2, [r3, #424]
 115:Core/drogui/src/sensorsTasks.c ****         
 429              		.loc 1 115 25 view .LVU91
 430 00aa C3F8B021 		str	r2, [r3, #432]
 115:Core/drogui/src/sensorsTasks.c ****         
 431              		.loc 1 115 62 view .LVU92
 432 00ae D3F8AC21 		ldr	r2, [r3, #428]
 115:Core/drogui/src/sensorsTasks.c ****         
 433              		.loc 1 115 55 view .LVU93
 434 00b2 C3F8B421 		str	r2, [r3, #436]
 435 00b6 BAE7     		b	.L19
 436              	.L26:
 437              		.align	3
 438              	.L25:
 439 00b8 7B14AE47 		.word	1202590843
 440 00bc E17A843F 		.word	1065646817
 441 00c0 00000000 		.word	.LANCHOR11
 442              	.LBE3:
 443              		.cfi_endproc
 444              	.LFE178:
 446              		.global	__aeabi_f2d
 447              		.global	__aeabi_dcmpge
 448              		.section	.text.optTask,"ax",%progbits
 449              		.align	1
 450              		.global	optTask
 451              		.syntax unified
 452              		.thumb
 453              		.thumb_func
 454              		.fpu fpv5-sp-d16
 456              	optTask:
 457              	.LFB179:
 127:Core/drogui/src/sensorsTasks.c **** 
 128:Core/drogui/src/sensorsTasks.c **** 
 129:Core/drogui/src/sensorsTasks.c **** void optTask(){
 458              		.loc 1 129 15 is_stmt 1 view -0
 459              		.cfi_startproc
 460              		@ args = 0, pretend = 0, frame = 0
 461              		@ frame_needed = 0, uses_anonymous_args = 0
 462 0000 10B5     		push	{r4, lr}
 463              	.LCFI4:
 464              		.cfi_def_cfa_offset 8
 465              		.cfi_offset 4, -8
 466              		.cfi_offset 14, -4
 130:Core/drogui/src/sensorsTasks.c **** 
 131:Core/drogui/src/sensorsTasks.c ****     int ret = readFlowRange(&myOF);
 467              		.loc 1 131 5 view .LVU95
 468              		.loc 1 131 15 is_stmt 0 view .LVU96
 469 0002 3548     		ldr	r0, .L37+16
ARM GAS  C:\Users\GUILLE~1\AppData\Local\Temp\cckPH0Lx.s 			page 12


 470 0004 FFF7FEFF 		bl	readFlowRange
 471              	.LVL39:
 472 0008 0446     		mov	r4, r0
 473              	.LVL40:
 132:Core/drogui/src/sensorsTasks.c ****     setReg(OPT_STATE, ret);
 474              		.loc 1 132 5 is_stmt 1 view .LVU97
 475 000a 07EE900A 		vmov	s15, r0	@ int
 476 000e B8EEE70A 		vcvt.f32.s32	s0, s15
 477 0012 F620     		movs	r0, #246
 478              	.LVL41:
 479              		.loc 1 132 5 is_stmt 0 view .LVU98
 480 0014 FFF7FEFF 		bl	setReg
 481              	.LVL42:
 133:Core/drogui/src/sensorsTasks.c ****            
 134:Core/drogui/src/sensorsTasks.c ****     if(ret == OPT_VEL || ret == OPT_RNG){
 482              		.loc 1 134 5 is_stmt 1 view .LVU99
 483              		.loc 1 134 23 is_stmt 0 view .LVU100
 484 0018 033C     		subs	r4, r4, #3
 485              	.LVL43:
 486              		.loc 1 134 7 view .LVU101
 487 001a 012C     		cmp	r4, #1
 488 001c 00D9     		bls	.L36
 489              	.LVL44:
 490              	.L27:
 135:Core/drogui/src/sensorsTasks.c ****         if( z >= 0.05)
 136:Core/drogui/src/sensorsTasks.c ****             xp  = -myOF.vel_x*0.001, yp = myOF.vel_y*0.001;
 137:Core/drogui/src/sensorsTasks.c ****         else 
 138:Core/drogui/src/sensorsTasks.c ****             xp = yp = 0;
 139:Core/drogui/src/sensorsTasks.c ****         if(myOF.dis != -1) z_of= myOF.dis*0.001;
 140:Core/drogui/src/sensorsTasks.c ****         setReg(XP_VAL, xp), setReg(YP_VAL, yp), setReg(Z_RNG, z_of);
 141:Core/drogui/src/sensorsTasks.c **** 
 142:Core/drogui/src/sensorsTasks.c ****     }
 143:Core/drogui/src/sensorsTasks.c **** 
 144:Core/drogui/src/sensorsTasks.c **** }
 491              		.loc 1 144 1 view .LVU102
 492 001e 10BD     		pop	{r4, pc}
 493              	.LVL45:
 494              	.L36:
 135:Core/drogui/src/sensorsTasks.c ****         if( z >= 0.05)
 495              		.loc 1 135 9 is_stmt 1 view .LVU103
 135:Core/drogui/src/sensorsTasks.c ****         if( z >= 0.05)
 496              		.loc 1 135 15 is_stmt 0 view .LVU104
 497 0020 2E4B     		ldr	r3, .L37+20
 498 0022 1868     		ldr	r0, [r3]	@ float
 499 0024 FFF7FEFF 		bl	__aeabi_f2d
 500              	.LVL46:
 135:Core/drogui/src/sensorsTasks.c ****         if( z >= 0.05)
 501              		.loc 1 135 11 view .LVU105
 502 0028 27A3     		adr	r3, .L37
 503 002a D3E90023 		ldrd	r2, [r3]
 504 002e FFF7FEFF 		bl	__aeabi_dcmpge
 505              	.LVL47:
 506 0032 0028     		cmp	r0, #0
 507 0034 3FD0     		beq	.L34
 136:Core/drogui/src/sensorsTasks.c ****         else 
 508              		.loc 1 136 13 is_stmt 1 view .LVU106
 136:Core/drogui/src/sensorsTasks.c ****         else 
ARM GAS  C:\Users\GUILLE~1\AppData\Local\Temp\cckPH0Lx.s 			page 13


 509              		.loc 1 136 24 is_stmt 0 view .LVU107
 510 0036 284C     		ldr	r4, .L37+16
 511              	.LVL48:
 136:Core/drogui/src/sensorsTasks.c ****         else 
 512              		.loc 1 136 24 view .LVU108
 513 0038 D4F8D800 		ldr	r0, [r4, #216]
 136:Core/drogui/src/sensorsTasks.c ****         else 
 514              		.loc 1 136 30 view .LVU109
 515 003c 4042     		rsbs	r0, r0, #0
 516 003e FFF7FEFF 		bl	__aeabi_i2d
 517              	.LVL49:
 518 0042 23A3     		adr	r3, .L37+8
 519 0044 D3E90023 		ldrd	r2, [r3]
 520 0048 FFF7FEFF 		bl	__aeabi_dmul
 521              	.LVL50:
 522 004c FFF7FEFF 		bl	__aeabi_d2f
 523              	.LVL51:
 136:Core/drogui/src/sensorsTasks.c ****         else 
 524              		.loc 1 136 17 view .LVU110
 525 0050 234B     		ldr	r3, .L37+24
 526 0052 1860     		str	r0, [r3]	@ float
 136:Core/drogui/src/sensorsTasks.c ****         else 
 527              		.loc 1 136 53 view .LVU111
 528 0054 D4F8DC00 		ldr	r0, [r4, #220]
 529 0058 FFF7FEFF 		bl	__aeabi_i2d
 530              	.LVL52:
 531 005c 1CA3     		adr	r3, .L37+8
 532 005e D3E90023 		ldrd	r2, [r3]
 533 0062 FFF7FEFF 		bl	__aeabi_dmul
 534              	.LVL53:
 535 0066 FFF7FEFF 		bl	__aeabi_d2f
 536              	.LVL54:
 136:Core/drogui/src/sensorsTasks.c ****         else 
 537              		.loc 1 136 41 view .LVU112
 538 006a 1E4B     		ldr	r3, .L37+28
 539 006c 1860     		str	r0, [r3]	@ float
 540              	.L31:
 139:Core/drogui/src/sensorsTasks.c ****         setReg(XP_VAL, xp), setReg(YP_VAL, yp), setReg(Z_RNG, z_of);
 541              		.loc 1 139 9 is_stmt 1 view .LVU113
 139:Core/drogui/src/sensorsTasks.c ****         setReg(XP_VAL, xp), setReg(YP_VAL, yp), setReg(Z_RNG, z_of);
 542              		.loc 1 139 16 is_stmt 0 view .LVU114
 543 006e 1A4B     		ldr	r3, .L37+16
 544 0070 D3F8E800 		ldr	r0, [r3, #232]
 139:Core/drogui/src/sensorsTasks.c ****         setReg(XP_VAL, xp), setReg(YP_VAL, yp), setReg(Z_RNG, z_of);
 545              		.loc 1 139 11 view .LVU115
 546 0074 B0F1FF3F 		cmp	r0, #-1
 547 0078 0AD0     		beq	.L32
 139:Core/drogui/src/sensorsTasks.c ****         setReg(XP_VAL, xp), setReg(YP_VAL, yp), setReg(Z_RNG, z_of);
 548              		.loc 1 139 28 is_stmt 1 discriminator 1 view .LVU116
 139:Core/drogui/src/sensorsTasks.c ****         setReg(XP_VAL, xp), setReg(YP_VAL, yp), setReg(Z_RNG, z_of);
 549              		.loc 1 139 42 is_stmt 0 discriminator 1 view .LVU117
 550 007a FFF7FEFF 		bl	__aeabi_i2d
 551              	.LVL55:
 552 007e 14A3     		adr	r3, .L37+8
 553 0080 D3E90023 		ldrd	r2, [r3]
 554 0084 FFF7FEFF 		bl	__aeabi_dmul
 555              	.LVL56:
ARM GAS  C:\Users\GUILLE~1\AppData\Local\Temp\cckPH0Lx.s 			page 14


 556 0088 FFF7FEFF 		bl	__aeabi_d2f
 557              	.LVL57:
 139:Core/drogui/src/sensorsTasks.c ****         setReg(XP_VAL, xp), setReg(YP_VAL, yp), setReg(Z_RNG, z_of);
 558              		.loc 1 139 32 discriminator 1 view .LVU118
 559 008c 164B     		ldr	r3, .L37+32
 560 008e 1860     		str	r0, [r3]	@ float
 561              	.L32:
 140:Core/drogui/src/sensorsTasks.c **** 
 562              		.loc 1 140 9 is_stmt 1 view .LVU119
 563 0090 134B     		ldr	r3, .L37+24
 564 0092 93ED000A 		vldr.32	s0, [r3]
 565 0096 F020     		movs	r0, #240
 566 0098 FFF7FEFF 		bl	setReg
 567              	.LVL58:
 140:Core/drogui/src/sensorsTasks.c **** 
 568              		.loc 1 140 29 is_stmt 0 view .LVU120
 569 009c 114B     		ldr	r3, .L37+28
 570 009e 93ED000A 		vldr.32	s0, [r3]
 571 00a2 F220     		movs	r0, #242
 572 00a4 FFF7FEFF 		bl	setReg
 573              	.LVL59:
 140:Core/drogui/src/sensorsTasks.c **** 
 574              		.loc 1 140 49 view .LVU121
 575 00a8 0F4B     		ldr	r3, .L37+32
 576 00aa 93ED000A 		vldr.32	s0, [r3]
 577 00ae F420     		movs	r0, #244
 578 00b0 FFF7FEFF 		bl	setReg
 579              	.LVL60:
 580              		.loc 1 144 1 view .LVU122
 581 00b4 B3E7     		b	.L27
 582              	.LVL61:
 583              	.L34:
 138:Core/drogui/src/sensorsTasks.c ****         if(myOF.dis != -1) z_of= myOF.dis*0.001;
 584              		.loc 1 138 13 is_stmt 1 view .LVU123
 138:Core/drogui/src/sensorsTasks.c ****         if(myOF.dis != -1) z_of= myOF.dis*0.001;
 585              		.loc 1 138 21 is_stmt 0 view .LVU124
 586 00b6 0023     		movs	r3, #0
 587 00b8 0A4A     		ldr	r2, .L37+28
 588 00ba 1360     		str	r3, [r2]	@ float
 138:Core/drogui/src/sensorsTasks.c ****         if(myOF.dis != -1) z_of= myOF.dis*0.001;
 589              		.loc 1 138 16 view .LVU125
 590 00bc 084A     		ldr	r2, .L37+24
 591 00be 1360     		str	r3, [r2]	@ float
 592 00c0 D5E7     		b	.L31
 593              	.L38:
 594 00c2 00BFAFF3 		.align	3
 594      0080
 595              	.L37:
 596 00c8 9A999999 		.word	-1717986918
 597 00cc 9999A93F 		.word	1068079513
 598 00d0 FCA9F1D2 		.word	-755914244
 599 00d4 4D62503F 		.word	1062232653
 600 00d8 00000000 		.word	.LANCHOR12
 601 00dc 00000000 		.word	.LANCHOR13
 602 00e0 00000000 		.word	.LANCHOR14
 603 00e4 00000000 		.word	.LANCHOR15
 604 00e8 00000000 		.word	.LANCHOR16
ARM GAS  C:\Users\GUILLE~1\AppData\Local\Temp\cckPH0Lx.s 			page 15


 605              		.cfi_endproc
 606              	.LFE179:
 608              		.section	.text.rpyTask,"ax",%progbits
 609              		.align	1
 610              		.global	rpyTask
 611              		.syntax unified
 612              		.thumb
 613              		.thumb_func
 614              		.fpu fpv5-sp-d16
 616              	rpyTask:
 617              	.LFB180:
 145:Core/drogui/src/sensorsTasks.c **** 
 146:Core/drogui/src/sensorsTasks.c **** 
 147:Core/drogui/src/sensorsTasks.c **** void rpyTask(){
 618              		.loc 1 147 15 is_stmt 1 view -0
 619              		.cfi_startproc
 620              		@ args = 0, pretend = 0, frame = 16
 621              		@ frame_needed = 0, uses_anonymous_args = 0
 622 0000 70B5     		push	{r4, r5, r6, lr}
 623              	.LCFI5:
 624              		.cfi_def_cfa_offset 16
 625              		.cfi_offset 4, -16
 626              		.cfi_offset 5, -12
 627              		.cfi_offset 6, -8
 628              		.cfi_offset 14, -4
 629 0002 2DED028B 		vpush.64	{d8}
 630              	.LCFI6:
 631              		.cfi_def_cfa_offset 24
 632              		.cfi_offset 80, -24
 633              		.cfi_offset 81, -20
 634 0006 84B0     		sub	sp, sp, #16
 635              	.LCFI7:
 636              		.cfi_def_cfa_offset 40
 148:Core/drogui/src/sensorsTasks.c ****     
 149:Core/drogui/src/sensorsTasks.c ****     float rpy[3];
 637              		.loc 1 149 5 view .LVU127
 150:Core/drogui/src/sensorsTasks.c ****    
 151:Core/drogui/src/sensorsTasks.c ****     mahonyUpdate(&myRPY, gx*PI/180.0, gy*PI/180.0, gz*PI/180.0, ax, ay, az, 0, 0, 0);
 638              		.loc 1 151 5 view .LVU128
 639              		.loc 1 151 28 is_stmt 0 view .LVU129
 640 0008 504B     		ldr	r3, .L43
 641 000a 93ED000A 		vldr.32	s0, [r3]
 642 000e DFED507A 		vldr.32	s15, .L43+4
 643 0012 20EE270A 		vmul.f32	s0, s0, s15
 644              		.loc 1 151 41 view .LVU130
 645 0016 4F4B     		ldr	r3, .L43+8
 646 0018 D3ED000A 		vldr.32	s1, [r3]
 647 001c 60EEA70A 		vmul.f32	s1, s1, s15
 648              		.loc 1 151 54 view .LVU131
 649 0020 4D4B     		ldr	r3, .L43+12
 650 0022 93ED001A 		vldr.32	s2, [r3]
 651 0026 21EE271A 		vmul.f32	s2, s2, s15
 652              		.loc 1 151 5 view .LVU132
 653 002a 9FED4C3A 		vldr.32	s6, .L43+16
 654 002e DFED4C7A 		vldr.32	s15, .L43+20
 655 0032 4C4C     		ldr	r4, .L43+24
 656 0034 B0EE434A 		vmov.f32	s8, s6
ARM GAS  C:\Users\GUILLE~1\AppData\Local\Temp\cckPH0Lx.s 			page 16


 657 0038 F0EE433A 		vmov.f32	s7, s6
 658 003c 4A4B     		ldr	r3, .L43+28
 659 003e D3ED002A 		vldr.32	s5, [r3]
 660 0042 4A4B     		ldr	r3, .L43+32
 661 0044 93ED002A 		vldr.32	s4, [r3]
 662 0048 494B     		ldr	r3, .L43+36
 663 004a D3ED001A 		vldr.32	s3, [r3]
 664 004e 81EE271A 		vdiv.f32	s2, s2, s15
 665 0052 C0EEA70A 		vdiv.f32	s1, s1, s15
 666 0056 80EE270A 		vdiv.f32	s0, s0, s15
 667 005a 2046     		mov	r0, r4
 668 005c FFF7FEFF 		bl	mahonyUpdate
 669              	.LVL62:
 152:Core/drogui/src/sensorsTasks.c ****     getMahonyEuler(&myRPY, rpy);
 670              		.loc 1 152 5 is_stmt 1 view .LVU133
 671 0060 01A9     		add	r1, sp, #4
 672 0062 2046     		mov	r0, r4
 673 0064 FFF7FEFF 		bl	getMahonyEuler
 674              	.LVL63:
 153:Core/drogui/src/sensorsTasks.c ****     raw_roll = rpy[0], raw_pitch = rpy[1], raw_yaw = rpy[2];
 675              		.loc 1 153 5 view .LVU134
 676              		.loc 1 153 19 is_stmt 0 view .LVU135
 677 0068 9DED010A 		vldr.32	s0, [sp, #4]
 678              		.loc 1 153 14 view .LVU136
 679 006c 414E     		ldr	r6, .L43+40
 680 006e 86ED000A 		vstr.32	s0, [r6]
 681              		.loc 1 153 34 view .LVU137
 682 0072 414D     		ldr	r5, .L43+44
 683 0074 029B     		ldr	r3, [sp, #8]	@ float
 684 0076 2B60     		str	r3, [r5]	@ float
 685              		.loc 1 153 52 view .LVU138
 686 0078 404C     		ldr	r4, .L43+48
 687 007a 039B     		ldr	r3, [sp, #12]	@ float
 688 007c 2360     		str	r3, [r4]	@ float
 154:Core/drogui/src/sensorsTasks.c ****     
 155:Core/drogui/src/sensorsTasks.c ****     /*roll += fmax(fmin(Kdfilt, (rpy[0] - roll)),-Kdfilt);
 156:Core/drogui/src/sensorsTasks.c ****     pitch += fmax(fmin(Kdfilt, (rpy[1] - pitch)),-Kdfilt);
 157:Core/drogui/src/sensorsTasks.c ****     yaw += fmax(fmin(Kdfilt,(rpy[2] - yaw)),-Kdfilt);*/
 158:Core/drogui/src/sensorsTasks.c **** 
 159:Core/drogui/src/sensorsTasks.c ****     raw_roll = computeFilter(&filter_roll, raw_roll);
 689              		.loc 1 159 5 is_stmt 1 view .LVU139
 690              		.loc 1 159 16 is_stmt 0 view .LVU140
 691 007e 4048     		ldr	r0, .L43+52
 692 0080 FFF7FEFF 		bl	computeFilter
 693              	.LVL64:
 694              		.loc 1 159 14 view .LVU141
 695 0084 86ED000A 		vstr.32	s0, [r6]
 160:Core/drogui/src/sensorsTasks.c ****     raw_pitch = computeFilter(&filter_pitch, raw_pitch);
 696              		.loc 1 160 5 is_stmt 1 view .LVU142
 697              		.loc 1 160 17 is_stmt 0 view .LVU143
 698 0088 95ED000A 		vldr.32	s0, [r5]
 699 008c 3D48     		ldr	r0, .L43+56
 700 008e FFF7FEFF 		bl	computeFilter
 701              	.LVL65:
 702              		.loc 1 160 15 view .LVU144
 703 0092 85ED000A 		vstr.32	s0, [r5]
 161:Core/drogui/src/sensorsTasks.c ****     raw_yaw = computeFilter(&filter_yaw, raw_yaw);
ARM GAS  C:\Users\GUILLE~1\AppData\Local\Temp\cckPH0Lx.s 			page 17


 704              		.loc 1 161 5 is_stmt 1 view .LVU145
 705              		.loc 1 161 15 is_stmt 0 view .LVU146
 706 0096 94ED000A 		vldr.32	s0, [r4]
 707 009a 3B48     		ldr	r0, .L43+60
 708 009c FFF7FEFF 		bl	computeFilter
 709              	.LVL66:
 710              		.loc 1 161 13 view .LVU147
 711 00a0 84ED000A 		vstr.32	s0, [r4]
 162:Core/drogui/src/sensorsTasks.c **** 
 163:Core/drogui/src/sensorsTasks.c ****     setReg(RAW_ROLL, raw_roll);
 712              		.loc 1 163 5 is_stmt 1 view .LVU148
 713 00a4 96ED000A 		vldr.32	s0, [r6]
 714 00a8 BA20     		movs	r0, #186
 715 00aa FFF7FEFF 		bl	setReg
 716              	.LVL67:
 164:Core/drogui/src/sensorsTasks.c ****     setReg(RAW_PITCH, raw_pitch);
 717              		.loc 1 164 5 view .LVU149
 718 00ae 95ED000A 		vldr.32	s0, [r5]
 719 00b2 BC20     		movs	r0, #188
 720 00b4 FFF7FEFF 		bl	setReg
 721              	.LVL68:
 165:Core/drogui/src/sensorsTasks.c ****     setReg(RAW_YAW, raw_yaw);
 722              		.loc 1 165 5 view .LVU150
 723 00b8 94ED000A 		vldr.32	s0, [r4]
 724 00bc BE20     		movs	r0, #190
 725 00be FFF7FEFF 		bl	setReg
 726              	.LVL69:
 166:Core/drogui/src/sensorsTasks.c ****     
 167:Core/drogui/src/sensorsTasks.c ****     roll = raw_roll - getReg(ROLL_OFFSET);
 727              		.loc 1 167 5 view .LVU151
 728              		.loc 1 167 21 is_stmt 0 view .LVU152
 729 00c2 96ED008A 		vldr.32	s16, [r6]
 730              		.loc 1 167 23 view .LVU153
 731 00c6 1020     		movs	r0, #16
 732 00c8 FFF7FEFF 		bl	getReg
 733              	.LVL70:
 734              		.loc 1 167 21 view .LVU154
 735 00cc 38EE408A 		vsub.f32	s16, s16, s0
 736              		.loc 1 167 10 view .LVU155
 737 00d0 2E4E     		ldr	r6, .L43+64
 738 00d2 86ED008A 		vstr.32	s16, [r6]
 168:Core/drogui/src/sensorsTasks.c ****     pitch = raw_pitch - getReg(PITCH_OFFSET);
 739              		.loc 1 168 5 is_stmt 1 view .LVU156
 740              		.loc 1 168 23 is_stmt 0 view .LVU157
 741 00d6 95ED008A 		vldr.32	s16, [r5]
 742              		.loc 1 168 25 view .LVU158
 743 00da 1220     		movs	r0, #18
 744 00dc FFF7FEFF 		bl	getReg
 745              	.LVL71:
 746              		.loc 1 168 23 view .LVU159
 747 00e0 38EE408A 		vsub.f32	s16, s16, s0
 748              		.loc 1 168 11 view .LVU160
 749 00e4 2A4D     		ldr	r5, .L43+68
 750 00e6 85ED008A 		vstr.32	s16, [r5]
 169:Core/drogui/src/sensorsTasks.c ****     yaw = raw_yaw - getReg(YAW_OFFSET);
 751              		.loc 1 169 5 is_stmt 1 view .LVU161
 752              		.loc 1 169 19 is_stmt 0 view .LVU162
ARM GAS  C:\Users\GUILLE~1\AppData\Local\Temp\cckPH0Lx.s 			page 18


 753 00ea 94ED008A 		vldr.32	s16, [r4]
 754              		.loc 1 169 21 view .LVU163
 755 00ee 1420     		movs	r0, #20
 756 00f0 FFF7FEFF 		bl	getReg
 757              	.LVL72:
 758              		.loc 1 169 19 view .LVU164
 759 00f4 38EE408A 		vsub.f32	s16, s16, s0
 760              		.loc 1 169 9 view .LVU165
 761 00f8 264C     		ldr	r4, .L43+72
 762 00fa 84ED008A 		vstr.32	s16, [r4]
 170:Core/drogui/src/sensorsTasks.c **** 
 171:Core/drogui/src/sensorsTasks.c ****     setReg(ROLL_VAL, roll);
 763              		.loc 1 171 5 is_stmt 1 view .LVU166
 764 00fe 96ED000A 		vldr.32	s0, [r6]
 765 0102 A820     		movs	r0, #168
 766 0104 FFF7FEFF 		bl	setReg
 767              	.LVL73:
 172:Core/drogui/src/sensorsTasks.c ****     setReg(PITCH_VAL, pitch);
 768              		.loc 1 172 5 view .LVU167
 769 0108 95ED000A 		vldr.32	s0, [r5]
 770 010c AA20     		movs	r0, #170
 771 010e FFF7FEFF 		bl	setReg
 772              	.LVL74:
 173:Core/drogui/src/sensorsTasks.c ****     setReg(YAW_VAL, yaw);
 773              		.loc 1 173 5 view .LVU168
 774 0112 94ED000A 		vldr.32	s0, [r4]
 775 0116 AC20     		movs	r0, #172
 776 0118 FFF7FEFF 		bl	setReg
 777              	.LVL75:
 174:Core/drogui/src/sensorsTasks.c **** 
 175:Core/drogui/src/sensorsTasks.c ****     if( calib_status & 8  ){
 778              		.loc 1 175 5 view .LVU169
 779              		.loc 1 175 22 is_stmt 0 view .LVU170
 780 011c 1E4B     		ldr	r3, .L43+76
 781 011e 1B68     		ldr	r3, [r3]
 782              		.loc 1 175 7 view .LVU171
 783 0120 13F0080F 		tst	r3, #8
 784 0124 03D1     		bne	.L42
 785              	.L39:
 176:Core/drogui/src/sensorsTasks.c ****         cleanFilter(&filter_roll);
 177:Core/drogui/src/sensorsTasks.c ****         cleanFilter(&filter_pitch);
 178:Core/drogui/src/sensorsTasks.c ****         cleanFilter(&filter_yaw);
 179:Core/drogui/src/sensorsTasks.c ****         calib_status ^= 8;
 180:Core/drogui/src/sensorsTasks.c ****     }
 181:Core/drogui/src/sensorsTasks.c **** }
 786              		.loc 1 181 1 view .LVU172
 787 0126 04B0     		add	sp, sp, #16
 788              	.LCFI8:
 789              		.cfi_remember_state
 790              		.cfi_def_cfa_offset 24
 791              		@ sp needed
 792 0128 BDEC028B 		vldm	sp!, {d8}
 793              	.LCFI9:
 794              		.cfi_restore 80
 795              		.cfi_restore 81
 796              		.cfi_def_cfa_offset 16
 797 012c 70BD     		pop	{r4, r5, r6, pc}
ARM GAS  C:\Users\GUILLE~1\AppData\Local\Temp\cckPH0Lx.s 			page 19


 798              	.L42:
 799              	.LCFI10:
 800              		.cfi_restore_state
 176:Core/drogui/src/sensorsTasks.c ****         cleanFilter(&filter_roll);
 801              		.loc 1 176 9 is_stmt 1 view .LVU173
 802 012e 1448     		ldr	r0, .L43+52
 803 0130 FFF7FEFF 		bl	cleanFilter
 804              	.LVL76:
 177:Core/drogui/src/sensorsTasks.c ****         cleanFilter(&filter_yaw);
 805              		.loc 1 177 9 view .LVU174
 806 0134 1348     		ldr	r0, .L43+56
 807 0136 FFF7FEFF 		bl	cleanFilter
 808              	.LVL77:
 178:Core/drogui/src/sensorsTasks.c ****         calib_status ^= 8;
 809              		.loc 1 178 9 view .LVU175
 810 013a 1348     		ldr	r0, .L43+60
 811 013c FFF7FEFF 		bl	cleanFilter
 812              	.LVL78:
 179:Core/drogui/src/sensorsTasks.c ****     }
 813              		.loc 1 179 9 view .LVU176
 179:Core/drogui/src/sensorsTasks.c ****     }
 814              		.loc 1 179 22 is_stmt 0 view .LVU177
 815 0140 154A     		ldr	r2, .L43+76
 816 0142 1368     		ldr	r3, [r2]
 817 0144 83F00803 		eor	r3, r3, #8
 818 0148 1360     		str	r3, [r2]
 819              		.loc 1 181 1 view .LVU178
 820 014a ECE7     		b	.L39
 821              	.L44:
 822              		.align	2
 823              	.L43:
 824 014c 00000000 		.word	.LANCHOR4
 825 0150 DB0F4940 		.word	1078530011
 826 0154 00000000 		.word	.LANCHOR5
 827 0158 00000000 		.word	.LANCHOR6
 828 015c 00000000 		.word	0
 829 0160 00003443 		.word	1127481344
 830 0164 00000000 		.word	.LANCHOR17
 831 0168 00000000 		.word	.LANCHOR3
 832 016c 00000000 		.word	.LANCHOR2
 833 0170 00000000 		.word	.LANCHOR1
 834 0174 00000000 		.word	.LANCHOR18
 835 0178 00000000 		.word	.LANCHOR19
 836 017c 00000000 		.word	.LANCHOR20
 837 0180 00000000 		.word	.LANCHOR21
 838 0184 00000000 		.word	.LANCHOR22
 839 0188 00000000 		.word	.LANCHOR23
 840 018c 00000000 		.word	.LANCHOR24
 841 0190 00000000 		.word	.LANCHOR25
 842 0194 00000000 		.word	.LANCHOR26
 843 0198 00000000 		.word	calib_status
 844              		.cfi_endproc
 845              	.LFE180:
 847              		.section	.text.xyzTask,"ax",%progbits
 848              		.align	1
 849              		.global	xyzTask
 850              		.syntax unified
ARM GAS  C:\Users\GUILLE~1\AppData\Local\Temp\cckPH0Lx.s 			page 20


 851              		.thumb
 852              		.thumb_func
 853              		.fpu fpv5-sp-d16
 855              	xyzTask:
 856              	.LFB181:
 182:Core/drogui/src/sensorsTasks.c **** 
 183:Core/drogui/src/sensorsTasks.c **** void xyzTask(){
 857              		.loc 1 183 15 is_stmt 1 view -0
 858              		.cfi_startproc
 859              		@ args = 0, pretend = 0, frame = 0
 860              		@ frame_needed = 0, uses_anonymous_args = 0
 861 0000 70B5     		push	{r4, r5, r6, lr}
 862              	.LCFI11:
 863              		.cfi_def_cfa_offset 16
 864              		.cfi_offset 4, -16
 865              		.cfi_offset 5, -12
 866              		.cfi_offset 6, -8
 867              		.cfi_offset 14, -4
 868 0002 2DED028B 		vpush.64	{d8}
 869              	.LCFI12:
 870              		.cfi_def_cfa_offset 24
 871              		.cfi_offset 80, -24
 872              		.cfi_offset 81, -20
 184:Core/drogui/src/sensorsTasks.c ****     
 185:Core/drogui/src/sensorsTasks.c ****     
 186:Core/drogui/src/sensorsTasks.c ****     if(getReg(START_GPS) > 0){
 873              		.loc 1 186 5 view .LVU180
 874              		.loc 1 186 8 is_stmt 0 view .LVU181
 875 0006 D820     		movs	r0, #216
 876 0008 FFF7FEFF 		bl	getReg
 877              	.LVL79:
 878              		.loc 1 186 7 view .LVU182
 879 000c B5EEC00A 		vcmpe.f32	s0, #0
 880 0010 F1EE10FA 		vmrs	APSR_nzcv, FPSCR
 881 0014 33DD     		ble	.L52
 187:Core/drogui/src/sensorsTasks.c ****             kalmanUpdateIMU(ax, ay, az, raw_roll, raw_pitch, raw_yaw);
 882              		.loc 1 187 13 is_stmt 1 view .LVU183
 883 0016 294B     		ldr	r3, .L54
 884 0018 D3ED002A 		vldr.32	s5, [r3]
 885 001c 284B     		ldr	r3, .L54+4
 886 001e 93ED002A 		vldr.32	s4, [r3]
 887 0022 284B     		ldr	r3, .L54+8
 888 0024 D3ED001A 		vldr.32	s3, [r3]
 889 0028 274B     		ldr	r3, .L54+12
 890 002a 93ED001A 		vldr.32	s2, [r3]
 891 002e 274B     		ldr	r3, .L54+16
 892 0030 D3ED000A 		vldr.32	s1, [r3]
 893 0034 264B     		ldr	r3, .L54+20
 894 0036 93ED000A 		vldr.32	s0, [r3]
 895 003a FFF7FEFF 		bl	kalmanUpdateIMU
 896              	.LVL80:
 188:Core/drogui/src/sensorsTasks.c **** 
 189:Core/drogui/src/sensorsTasks.c ****             if(getReg(GPS_AVAILABLE) > 0)
 897              		.loc 1 189 13 view .LVU184
 898              		.loc 1 189 16 is_stmt 0 view .LVU185
 899 003e D620     		movs	r0, #214
 900 0040 FFF7FEFF 		bl	getReg
ARM GAS  C:\Users\GUILLE~1\AppData\Local\Temp\cckPH0Lx.s 			page 21


 901              	.LVL81:
 902              		.loc 1 189 15 view .LVU186
 903 0044 B5EEC00A 		vcmpe.f32	s0, #0
 904 0048 F1EE10FA 		vmrs	APSR_nzcv, FPSCR
 905 004c 19DD     		ble	.L48
 190:Core/drogui/src/sensorsTasks.c ****                 setReg(GPS_AVAILABLE, 0),
 906              		.loc 1 190 17 is_stmt 1 view .LVU187
 907 004e DFED218A 		vldr.32	s17, .L54+24
 908 0052 B0EE680A 		vmov.f32	s0, s17
 909 0056 D620     		movs	r0, #214
 910 0058 FFF7FEFF 		bl	setReg
 911              	.LVL82:
 191:Core/drogui/src/sensorsTasks.c ****                 kalmanUpdateGPS(getReg(GPS_X), getReg(GPS_Y), 0);
 912              		.loc 1 191 17 is_stmt 0 view .LVU188
 913 005c CE20     		movs	r0, #206
 914 005e FFF7FEFF 		bl	getReg
 915              	.LVL83:
 916 0062 B0EE408A 		vmov.f32	s16, s0
 917 0066 D020     		movs	r0, #208
 918 0068 FFF7FEFF 		bl	getReg
 919              	.LVL84:
 920 006c F0EE400A 		vmov.f32	s1, s0
 921 0070 B0EE681A 		vmov.f32	s2, s17
 922 0074 B0EE480A 		vmov.f32	s0, s16
 923 0078 FFF7FEFF 		bl	kalmanUpdateGPS
 924              	.LVL85:
 925 007c 01E0     		b	.L48
 926              	.L52:
 192:Core/drogui/src/sensorsTasks.c ****     }
 193:Core/drogui/src/sensorsTasks.c ****     else{
 194:Core/drogui/src/sensorsTasks.c ****         clearKalman();
 927              		.loc 1 194 9 is_stmt 1 view .LVU189
 928 007e FFF7FEFF 		bl	clearKalman
 929              	.LVL86:
 930              	.L48:
 195:Core/drogui/src/sensorsTasks.c ****     }
 196:Core/drogui/src/sensorsTasks.c **** 
 197:Core/drogui/src/sensorsTasks.c ****     getPosition(&x, &y, &z);
 931              		.loc 1 197 5 view .LVU190
 932 0082 154C     		ldr	r4, .L54+28
 933 0084 154D     		ldr	r5, .L54+32
 934 0086 164E     		ldr	r6, .L54+36
 935 0088 2246     		mov	r2, r4
 936 008a 2946     		mov	r1, r5
 937 008c 3046     		mov	r0, r6
 938 008e FFF7FEFF 		bl	getPosition
 939              	.LVL87:
 198:Core/drogui/src/sensorsTasks.c ****     
 199:Core/drogui/src/sensorsTasks.c ****     z = z_of;
 940              		.loc 1 199 5 view .LVU191
 941              		.loc 1 199 7 is_stmt 0 view .LVU192
 942 0092 144B     		ldr	r3, .L54+40
 943 0094 1B68     		ldr	r3, [r3]	@ float
 944 0096 2360     		str	r3, [r4]	@ float
 200:Core/drogui/src/sensorsTasks.c ****     /*if( cfilt_z <= 50 && fabs(z-z_ant) > 0.2) cfilt_z++, z = z_ant;
 201:Core/drogui/src/sensorsTasks.c ****     else z_ant = z,  cfilt_z = 0;*/
 202:Core/drogui/src/sensorsTasks.c ****     
ARM GAS  C:\Users\GUILLE~1\AppData\Local\Temp\cckPH0Lx.s 			page 22


 203:Core/drogui/src/sensorsTasks.c **** 
 204:Core/drogui/src/sensorsTasks.c ****     setReg(X_VAL, x);
 945              		.loc 1 204 5 is_stmt 1 view .LVU193
 946 0098 96ED000A 		vldr.32	s0, [r6]
 947 009c AE20     		movs	r0, #174
 948 009e FFF7FEFF 		bl	setReg
 949              	.LVL88:
 205:Core/drogui/src/sensorsTasks.c ****     setReg(Y_VAL, y);
 950              		.loc 1 205 5 view .LVU194
 951 00a2 95ED000A 		vldr.32	s0, [r5]
 952 00a6 B020     		movs	r0, #176
 953 00a8 FFF7FEFF 		bl	setReg
 954              	.LVL89:
 206:Core/drogui/src/sensorsTasks.c ****     setReg(Z_VAL, z);
 955              		.loc 1 206 5 view .LVU195
 956 00ac 94ED000A 		vldr.32	s0, [r4]
 957 00b0 B220     		movs	r0, #178
 958 00b2 FFF7FEFF 		bl	setReg
 959              	.LVL90:
 207:Core/drogui/src/sensorsTasks.c **** }
 960              		.loc 1 207 1 is_stmt 0 view .LVU196
 961 00b6 BDEC028B 		vldm	sp!, {d8}
 962              	.LCFI13:
 963              		.cfi_restore 80
 964              		.cfi_restore 81
 965              		.cfi_def_cfa_offset 16
 966 00ba 70BD     		pop	{r4, r5, r6, pc}
 967              	.L55:
 968              		.align	2
 969              	.L54:
 970 00bc 00000000 		.word	.LANCHOR20
 971 00c0 00000000 		.word	.LANCHOR19
 972 00c4 00000000 		.word	.LANCHOR18
 973 00c8 00000000 		.word	.LANCHOR3
 974 00cc 00000000 		.word	.LANCHOR2
 975 00d0 00000000 		.word	.LANCHOR1
 976 00d4 00000000 		.word	0
 977 00d8 00000000 		.word	.LANCHOR13
 978 00dc 00000000 		.word	.LANCHOR27
 979 00e0 00000000 		.word	.LANCHOR28
 980 00e4 00000000 		.word	.LANCHOR16
 981              		.cfi_endproc
 982              	.LFE181:
 984              		.section	.text.altitudeTask,"ax",%progbits
 985              		.align	1
 986              		.global	altitudeTask
 987              		.syntax unified
 988              		.thumb
 989              		.thumb_func
 990              		.fpu fpv5-sp-d16
 992              	altitudeTask:
 993              	.LFB177:
  96:Core/drogui/src/sensorsTasks.c ****     
 994              		.loc 1 96 20 is_stmt 1 view -0
 995              		.cfi_startproc
 996              		@ args = 0, pretend = 0, frame = 0
 997              		@ frame_needed = 0, uses_anonymous_args = 0
ARM GAS  C:\Users\GUILLE~1\AppData\Local\Temp\cckPH0Lx.s 			page 23


 998 0000 10B5     		push	{r4, lr}
 999              	.LCFI14:
 1000              		.cfi_def_cfa_offset 8
 1001              		.cfi_offset 4, -8
 1002              		.cfi_offset 14, -4
  98:Core/drogui/src/sensorsTasks.c ****     //z = computeMvAvgFilter( &mvAvg_bmp, myBMP.altitude );
 1003              		.loc 1 98 5 view .LVU198
 1004 0002 0A4C     		ldr	r4, .L58
 1005 0004 2046     		mov	r0, r4
 1006 0006 FFF7FEFF 		bl	bmp388ReadAltitude
 1007              	.LVL91:
 100:Core/drogui/src/sensorsTasks.c ****     z = computeFilter( &filter_z, z );
 1008              		.loc 1 100 5 view .LVU199
 100:Core/drogui/src/sensorsTasks.c ****     z = computeFilter( &filter_z, z );
 1009              		.loc 1 100 9 is_stmt 0 view .LVU200
 1010 000a 94ED030A 		vldr.32	s0, [r4, #12]
 1011 000e 0848     		ldr	r0, .L58+4
 1012 0010 FFF7FEFF 		bl	computeEmaFilter
 1013              	.LVL92:
 100:Core/drogui/src/sensorsTasks.c ****     z = computeFilter( &filter_z, z );
 1014              		.loc 1 100 7 view .LVU201
 1015 0014 074C     		ldr	r4, .L58+8
 1016 0016 84ED000A 		vstr.32	s0, [r4]
 101:Core/drogui/src/sensorsTasks.c ****     
 1017              		.loc 1 101 5 is_stmt 1 view .LVU202
 101:Core/drogui/src/sensorsTasks.c ****     
 1018              		.loc 1 101 9 is_stmt 0 view .LVU203
 1019 001a 0748     		ldr	r0, .L58+12
 1020 001c FFF7FEFF 		bl	computeFilter
 1021              	.LVL93:
 101:Core/drogui/src/sensorsTasks.c ****     
 1022              		.loc 1 101 7 view .LVU204
 1023 0020 84ED000A 		vstr.32	s0, [r4]
 103:Core/drogui/src/sensorsTasks.c ****     
 1024              		.loc 1 103 5 is_stmt 1 view .LVU205
 1025 0024 B220     		movs	r0, #178
 1026 0026 FFF7FEFF 		bl	setReg
 1027              	.LVL94:
 105:Core/drogui/src/sensorsTasks.c **** 
 1028              		.loc 1 105 1 is_stmt 0 view .LVU206
 1029 002a 10BD     		pop	{r4, pc}
 1030              	.L59:
 1031              		.align	2
 1032              	.L58:
 1033 002c 00000000 		.word	.LANCHOR29
 1034 0030 00000000 		.word	.LANCHOR30
 1035 0034 00000000 		.word	.LANCHOR13
 1036 0038 00000000 		.word	.LANCHOR31
 1037              		.cfi_endproc
 1038              	.LFE177:
 1040              		.section	.text.initSensorsTasks,"ax",%progbits
 1041              		.align	1
 1042              		.global	initSensorsTasks
 1043              		.syntax unified
 1044              		.thumb
 1045              		.thumb_func
 1046              		.fpu fpv5-sp-d16
ARM GAS  C:\Users\GUILLE~1\AppData\Local\Temp\cckPH0Lx.s 			page 24


 1048              	initSensorsTasks:
 1049              	.LFB182:
 208:Core/drogui/src/sensorsTasks.c **** 
 209:Core/drogui/src/sensorsTasks.c **** void initSensorsTasks(){
 1050              		.loc 1 209 24 is_stmt 1 view -0
 1051              		.cfi_startproc
 1052              		@ args = 0, pretend = 0, frame = 0
 1053              		@ frame_needed = 0, uses_anonymous_args = 0
 1054 0000 38B5     		push	{r3, r4, r5, lr}
 1055              	.LCFI15:
 1056              		.cfi_def_cfa_offset 16
 1057              		.cfi_offset 3, -16
 1058              		.cfi_offset 4, -12
 1059              		.cfi_offset 5, -8
 1060              		.cfi_offset 14, -4
 1061 0002 2DED028B 		vpush.64	{d8}
 1062              	.LCFI16:
 1063              		.cfi_def_cfa_offset 24
 1064              		.cfi_offset 80, -24
 1065              		.cfi_offset 81, -20
 210:Core/drogui/src/sensorsTasks.c ****     
 211:Core/drogui/src/sensorsTasks.c ****     initImu(&myIMU);
 1066              		.loc 1 211 5 view .LVU208
 1067 0006 4248     		ldr	r0, .L62
 1068 0008 FFF7FEFF 		bl	initImu
 1069              	.LVL95:
 212:Core/drogui/src/sensorsTasks.c ****     initMahony(&myRPY, 2, 0.1, 500);
 1070              		.loc 1 212 5 view .LVU209
 1071 000c 9FED418A 		vldr.32	s16, .L62+4
 1072 0010 9FED411A 		vldr.32	s2, .L62+8
 1073 0014 F0EE480A 		vmov.f32	s1, s16
 1074 0018 B0EE000A 		vmov.f32	s0, #2.0e+0
 1075 001c 3F48     		ldr	r0, .L62+12
 1076 001e FFF7FEFF 		bl	initMahony
 1077              	.LVL96:
 213:Core/drogui/src/sensorsTasks.c **** 
 214:Core/drogui/src/sensorsTasks.c **** 
 215:Core/drogui/src/sensorsTasks.c ****     initFilter(&filter_roll, 6, k_1_10, v_1_10);
 1078              		.loc 1 215 5 view .LVU210
 1079 0022 3F4D     		ldr	r5, .L62+16
 1080 0024 3F4C     		ldr	r4, .L62+20
 1081 0026 2B46     		mov	r3, r5
 1082 0028 2246     		mov	r2, r4
 1083 002a 0621     		movs	r1, #6
 1084 002c 3E48     		ldr	r0, .L62+24
 1085 002e FFF7FEFF 		bl	initFilter
 1086              	.LVL97:
 216:Core/drogui/src/sensorsTasks.c ****     initFilter(&filter_pitch, 6, k_1_10, v_1_10);
 1087              		.loc 1 216 5 view .LVU211
 1088 0032 2B46     		mov	r3, r5
 1089 0034 2246     		mov	r2, r4
 1090 0036 0621     		movs	r1, #6
 1091 0038 3C48     		ldr	r0, .L62+28
 1092 003a FFF7FEFF 		bl	initFilter
 1093              	.LVL98:
 217:Core/drogui/src/sensorsTasks.c ****     initFilter(&filter_yaw, 6, k_1_10, v_1_10);
 1094              		.loc 1 217 5 view .LVU212
ARM GAS  C:\Users\GUILLE~1\AppData\Local\Temp\cckPH0Lx.s 			page 25


 1095 003e 2B46     		mov	r3, r5
 1096 0040 2246     		mov	r2, r4
 1097 0042 0621     		movs	r1, #6
 1098 0044 3A48     		ldr	r0, .L62+32
 1099 0046 FFF7FEFF 		bl	initFilter
 1100              	.LVL99:
 218:Core/drogui/src/sensorsTasks.c **** 
 219:Core/drogui/src/sensorsTasks.c ****     setReg(ACC_SCALE,1);
 1101              		.loc 1 219 5 view .LVU213
 1102 004a B7EE000A 		vmov.f32	s0, #1.0e+0
 1103 004e 2220     		movs	r0, #34
 1104 0050 FFF7FEFF 		bl	setReg
 1105              	.LVL100:
 220:Core/drogui/src/sensorsTasks.c ****     setReg(MAG_X_SCALE,1);
 1106              		.loc 1 220 5 view .LVU214
 1107 0054 B7EE000A 		vmov.f32	s0, #1.0e+0
 1108 0058 2A20     		movs	r0, #42
 1109 005a FFF7FEFF 		bl	setReg
 1110              	.LVL101:
 221:Core/drogui/src/sensorsTasks.c ****     setReg(MAG_Y_SCALE,1);
 1111              		.loc 1 221 5 view .LVU215
 1112 005e B7EE000A 		vmov.f32	s0, #1.0e+0
 1113 0062 2C20     		movs	r0, #44
 1114 0064 FFF7FEFF 		bl	setReg
 1115              	.LVL102:
 222:Core/drogui/src/sensorsTasks.c ****     setReg(MAG_Z_SCALE,1);
 1116              		.loc 1 222 5 view .LVU216
 1117 0068 B7EE000A 		vmov.f32	s0, #1.0e+0
 1118 006c 2E20     		movs	r0, #46
 1119 006e FFF7FEFF 		bl	setReg
 1120              	.LVL103:
 223:Core/drogui/src/sensorsTasks.c **** 
 224:Core/drogui/src/sensorsTasks.c ****     setKalmanTsImu(0.01);
 1121              		.loc 1 224 5 view .LVU217
 1122 0072 9FED300A 		vldr.32	s0, .L62+36
 1123 0076 FFF7FEFF 		bl	setKalmanTsImu
 1124              	.LVL104:
 225:Core/drogui/src/sensorsTasks.c ****     setKalmanTsGps(0.125);
 1125              		.loc 1 225 5 view .LVU218
 1126 007a B4EE000A 		vmov.f32	s0, #1.25e-1
 1127 007e FFF7FEFF 		bl	setKalmanTsGps
 1128              	.LVL105:
 226:Core/drogui/src/sensorsTasks.c **** 
 227:Core/drogui/src/sensorsTasks.c ****     initMatGlobal();
 1129              		.loc 1 227 5 view .LVU219
 1130 0082 FFF7FEFF 		bl	initMatGlobal
 1131              	.LVL106:
 228:Core/drogui/src/sensorsTasks.c **** 
 229:Core/drogui/src/sensorsTasks.c ****     initM8Q(&myGPS, &serial2);
 1132              		.loc 1 229 5 view .LVU220
 1133 0086 2C49     		ldr	r1, .L62+40
 1134 0088 2C48     		ldr	r0, .L62+44
 1135 008a FFF7FEFF 		bl	initM8Q
 1136              	.LVL107:
 230:Core/drogui/src/sensorsTasks.c ****     initOptFlow(&myOF, &serial4);
 1137              		.loc 1 230 5 view .LVU221
 1138 008e 2C49     		ldr	r1, .L62+48
ARM GAS  C:\Users\GUILLE~1\AppData\Local\Temp\cckPH0Lx.s 			page 26


 1139 0090 2C48     		ldr	r0, .L62+52
 1140 0092 FFF7FEFF 		bl	initOptFlow
 1141              	.LVL108:
 231:Core/drogui/src/sensorsTasks.c ****     
 232:Core/drogui/src/sensorsTasks.c ****     
 233:Core/drogui/src/sensorsTasks.c ****     calib_status = 0;
 1142              		.loc 1 233 5 view .LVU222
 1143              		.loc 1 233 18 is_stmt 0 view .LVU223
 1144 0096 2C4B     		ldr	r3, .L62+56
 1145 0098 0022     		movs	r2, #0
 1146 009a 1A60     		str	r2, [r3]
 234:Core/drogui/src/sensorsTasks.c **** 
 235:Core/drogui/src/sensorsTasks.c ****     //initBmp388(&myBMP, 10);  
 236:Core/drogui/src/sensorsTasks.c ****     //initMvAvgFilter(&mvAvg_bmp, 25);
 237:Core/drogui/src/sensorsTasks.c **** 
 238:Core/drogui/src/sensorsTasks.c ****     initEmaFilter(&ema_bmp, 0.9, 0.1, 0.8);
 1147              		.loc 1 238 5 is_stmt 1 view .LVU224
 1148 009c 9FED2B1A 		vldr.32	s2, .L62+60
 1149 00a0 F0EE480A 		vmov.f32	s1, s16
 1150 00a4 9FED2A0A 		vldr.32	s0, .L62+64
 1151 00a8 2A48     		ldr	r0, .L62+68
 1152 00aa FFF7FEFF 		bl	initEmaFilter
 1153              	.LVL109:
 239:Core/drogui/src/sensorsTasks.c ****     initFilter(&filter_z, 4, k_1_20, v_1_20);
 1154              		.loc 1 239 5 view .LVU225
 1155 00ae 2A4B     		ldr	r3, .L62+72
 1156 00b0 2A4A     		ldr	r2, .L62+76
 1157 00b2 0421     		movs	r1, #4
 1158 00b4 2A48     		ldr	r0, .L62+80
 1159 00b6 FFF7FEFF 		bl	initFilter
 1160              	.LVL110:
 240:Core/drogui/src/sensorsTasks.c **** 
 241:Core/drogui/src/sensorsTasks.c ****     addTask(&gyroTask, 1000, 3);
 1161              		.loc 1 241 5 view .LVU226
 1162 00ba 0322     		movs	r2, #3
 1163 00bc 4FF47A71 		mov	r1, #1000
 1164 00c0 2848     		ldr	r0, .L62+84
 1165 00c2 FFF7FEFF 		bl	addTask
 1166              	.LVL111:
 242:Core/drogui/src/sensorsTasks.c ****     addTask(&accelTask, 1000, 3);
 1167              		.loc 1 242 5 view .LVU227
 1168 00c6 0322     		movs	r2, #3
 1169 00c8 4FF47A71 		mov	r1, #1000
 1170 00cc 2648     		ldr	r0, .L62+88
 1171 00ce FFF7FEFF 		bl	addTask
 1172              	.LVL112:
 243:Core/drogui/src/sensorsTasks.c ****     addTask(&magTask, 100000, 2);
 1173              		.loc 1 243 5 view .LVU228
 1174 00d2 0222     		movs	r2, #2
 1175 00d4 2549     		ldr	r1, .L62+92
 1176 00d6 2648     		ldr	r0, .L62+96
 1177 00d8 FFF7FEFF 		bl	addTask
 1178              	.LVL113:
 244:Core/drogui/src/sensorsTasks.c ****     addTask(&rpyTask, 2000, 2);
 1179              		.loc 1 244 5 view .LVU229
 1180 00dc 0222     		movs	r2, #2
 1181 00de 4FF4FA61 		mov	r1, #2000
ARM GAS  C:\Users\GUILLE~1\AppData\Local\Temp\cckPH0Lx.s 			page 27


 1182 00e2 2448     		ldr	r0, .L62+100
 1183 00e4 FFF7FEFF 		bl	addTask
 1184              	.LVL114:
 245:Core/drogui/src/sensorsTasks.c ****     //addTask(&altitudeTask,10000,2);s
 246:Core/drogui/src/sensorsTasks.c ****     
 247:Core/drogui/src/sensorsTasks.c ****     addTask(&xyzTask, 10000, 3);
 1185              		.loc 1 247 5 view .LVU230
 1186 00e8 0322     		movs	r2, #3
 1187 00ea 42F21071 		movw	r1, #10000
 1188 00ee 2248     		ldr	r0, .L62+104
 1189 00f0 FFF7FEFF 		bl	addTask
 1190              	.LVL115:
 248:Core/drogui/src/sensorsTasks.c ****     addTask(&gpsTask, 125000, 3);
 1191              		.loc 1 248 5 view .LVU231
 1192 00f4 0322     		movs	r2, #3
 1193 00f6 2149     		ldr	r1, .L62+108
 1194 00f8 2148     		ldr	r0, .L62+112
 1195 00fa FFF7FEFF 		bl	addTask
 1196              	.LVL116:
 249:Core/drogui/src/sensorsTasks.c ****     addTask(&optTask, 1000, 1);
 1197              		.loc 1 249 5 view .LVU232
 1198 00fe 0122     		movs	r2, #1
 1199 0100 4FF47A71 		mov	r1, #1000
 1200 0104 1F48     		ldr	r0, .L62+116
 1201 0106 FFF7FEFF 		bl	addTask
 1202              	.LVL117:
 250:Core/drogui/src/sensorsTasks.c ****     
 251:Core/drogui/src/sensorsTasks.c **** 
 252:Core/drogui/src/sensorsTasks.c **** }
 1203              		.loc 1 252 1 is_stmt 0 view .LVU233
 1204 010a BDEC028B 		vldm	sp!, {d8}
 1205              	.LCFI17:
 1206              		.cfi_restore 80
 1207              		.cfi_restore 81
 1208              		.cfi_def_cfa_offset 16
 1209 010e 38BD     		pop	{r3, r4, r5, pc}
 1210              	.L63:
 1211              		.align	2
 1212              	.L62:
 1213 0110 00000000 		.word	.LANCHOR0
 1214 0114 CDCCCC3D 		.word	1036831949
 1215 0118 0000FA43 		.word	1140457472
 1216 011c 00000000 		.word	.LANCHOR17
 1217 0120 00000000 		.word	v_1_10
 1218 0124 00000000 		.word	k_1_10
 1219 0128 00000000 		.word	.LANCHOR21
 1220 012c 00000000 		.word	.LANCHOR22
 1221 0130 00000000 		.word	.LANCHOR23
 1222 0134 0AD7233C 		.word	1008981770
 1223 0138 00000000 		.word	serial2
 1224 013c 00000000 		.word	.LANCHOR11
 1225 0140 00000000 		.word	serial4
 1226 0144 00000000 		.word	.LANCHOR12
 1227 0148 00000000 		.word	calib_status
 1228 014c CDCC4C3F 		.word	1061997773
 1229 0150 6666663F 		.word	1063675494
 1230 0154 00000000 		.word	.LANCHOR30
ARM GAS  C:\Users\GUILLE~1\AppData\Local\Temp\cckPH0Lx.s 			page 28


 1231 0158 00000000 		.word	v_1_20
 1232 015c 00000000 		.word	k_1_20
 1233 0160 00000000 		.word	.LANCHOR31
 1234 0164 00000000 		.word	gyroTask
 1235 0168 00000000 		.word	accelTask
 1236 016c A0860100 		.word	100000
 1237 0170 00000000 		.word	magTask
 1238 0174 00000000 		.word	rpyTask
 1239 0178 00000000 		.word	xyzTask
 1240 017c 48E80100 		.word	125000
 1241 0180 00000000 		.word	gpsTask
 1242 0184 00000000 		.word	optTask
 1243              		.cfi_endproc
 1244              	.LFE182:
 1246              		.global	cfilt_z
 1247              		.global	filter_z
 1248              		.global	mvAvg_bmp
 1249              		.global	ema_bmp
 1250              		.global	offset_alt
 1251              		.global	altitude
 1252              		.global	myBMP
 1253              		.global	Kdfilt
 1254              		.global	z_ant
 1255              		.global	mag_available
 1256              		.global	z_of
 1257              		.global	yp
 1258              		.global	xp
 1259              		.global	z
 1260              		.global	y
 1261              		.global	x
 1262              		.global	mz
 1263              		.global	my
 1264              		.global	mx
 1265              		.global	gz
 1266              		.global	gy
 1267              		.global	gx
 1268              		.global	az
 1269              		.global	ay
 1270              		.global	ax
 1271              		.global	raw_yaw
 1272              		.global	raw_pitch
 1273              		.global	raw_roll
 1274              		.global	yaw
 1275              		.global	pitch
 1276              		.global	roll
 1277              		.global	filter_yaw
 1278              		.global	filter_pitch
 1279              		.global	filter_roll
 1280              		.global	myOF
 1281              		.global	myGPS
 1282              		.global	myRPY
 1283              		.global	myIMU
 1284              		.section	.bss.altitude,"aw",%nobits
 1285              		.align	2
 1288              	altitude:
 1289 0000 00000000 		.space	4
 1290              		.section	.bss.ax,"aw",%nobits
ARM GAS  C:\Users\GUILLE~1\AppData\Local\Temp\cckPH0Lx.s 			page 29


 1291              		.align	2
 1292              		.set	.LANCHOR1,. + 0
 1295              	ax:
 1296 0000 00000000 		.space	4
 1297              		.section	.bss.ay,"aw",%nobits
 1298              		.align	2
 1299              		.set	.LANCHOR2,. + 0
 1302              	ay:
 1303 0000 00000000 		.space	4
 1304              		.section	.bss.az,"aw",%nobits
 1305              		.align	2
 1306              		.set	.LANCHOR3,. + 0
 1309              	az:
 1310 0000 00000000 		.space	4
 1311              		.section	.bss.cfilt_z,"aw",%nobits
 1312              		.align	2
 1315              	cfilt_z:
 1316 0000 00000000 		.space	4
 1317              		.section	.bss.ema_bmp,"aw",%nobits
 1318              		.align	2
 1319              		.set	.LANCHOR30,. + 0
 1322              	ema_bmp:
 1323 0000 00000000 		.space	16
 1323      00000000 
 1323      00000000 
 1323      00000000 
 1324              		.section	.bss.filter_pitch,"aw",%nobits
 1325              		.align	2
 1326              		.set	.LANCHOR22,. + 0
 1329              	filter_pitch:
 1330 0000 00000000 		.space	24
 1330      00000000 
 1330      00000000 
 1330      00000000 
 1330      00000000 
 1331              		.section	.bss.filter_roll,"aw",%nobits
 1332              		.align	2
 1333              		.set	.LANCHOR21,. + 0
 1336              	filter_roll:
 1337 0000 00000000 		.space	24
 1337      00000000 
 1337      00000000 
 1337      00000000 
 1337      00000000 
 1338              		.section	.bss.filter_yaw,"aw",%nobits
 1339              		.align	2
 1340              		.set	.LANCHOR23,. + 0
 1343              	filter_yaw:
 1344 0000 00000000 		.space	24
 1344      00000000 
 1344      00000000 
 1344      00000000 
 1344      00000000 
 1345              		.section	.bss.filter_z,"aw",%nobits
 1346              		.align	2
 1347              		.set	.LANCHOR31,. + 0
 1350              	filter_z:
ARM GAS  C:\Users\GUILLE~1\AppData\Local\Temp\cckPH0Lx.s 			page 30


 1351 0000 00000000 		.space	24
 1351      00000000 
 1351      00000000 
 1351      00000000 
 1351      00000000 
 1352              		.section	.bss.gx,"aw",%nobits
 1353              		.align	2
 1354              		.set	.LANCHOR4,. + 0
 1357              	gx:
 1358 0000 00000000 		.space	4
 1359              		.section	.bss.gy,"aw",%nobits
 1360              		.align	2
 1361              		.set	.LANCHOR5,. + 0
 1364              	gy:
 1365 0000 00000000 		.space	4
 1366              		.section	.bss.gz,"aw",%nobits
 1367              		.align	2
 1368              		.set	.LANCHOR6,. + 0
 1371              	gz:
 1372 0000 00000000 		.space	4
 1373              		.section	.bss.mag_available,"aw",%nobits
 1374              		.set	.LANCHOR10,. + 0
 1377              	mag_available:
 1378 0000 00       		.space	1
 1379              		.section	.bss.mvAvg_bmp,"aw",%nobits
 1380              		.align	2
 1383              	mvAvg_bmp:
 1384 0000 00000000 		.space	16
 1384      00000000 
 1384      00000000 
 1384      00000000 
 1385              		.section	.bss.mx,"aw",%nobits
 1386              		.align	2
 1387              		.set	.LANCHOR7,. + 0
 1390              	mx:
 1391 0000 00000000 		.space	4
 1392              		.section	.bss.my,"aw",%nobits
 1393              		.align	2
 1394              		.set	.LANCHOR8,. + 0
 1397              	my:
 1398 0000 00000000 		.space	4
 1399              		.section	.bss.myBMP,"aw",%nobits
 1400              		.align	3
 1401              		.set	.LANCHOR29,. + 0
 1404              	myBMP:
 1405 0000 00000000 		.space	64
 1405      00000000 
 1405      00000000 
 1405      00000000 
 1405      00000000 
 1406              		.section	.bss.myGPS,"aw",%nobits
 1407              		.align	2
 1408              		.set	.LANCHOR11,. + 0
 1411              	myGPS:
 1412 0000 00000000 		.space	444
 1412      00000000 
 1412      00000000 
ARM GAS  C:\Users\GUILLE~1\AppData\Local\Temp\cckPH0Lx.s 			page 31


 1412      00000000 
 1412      00000000 
 1413              		.section	.bss.myIMU,"aw",%nobits
 1414              		.align	2
 1415              		.set	.LANCHOR0,. + 0
 1418              	myIMU:
 1419 0000 00000000 		.space	1388
 1419      00000000 
 1419      00000000 
 1419      00000000 
 1419      00000000 
 1420              		.section	.bss.myOF,"aw",%nobits
 1421              		.align	2
 1422              		.set	.LANCHOR12,. + 0
 1425              	myOF:
 1426 0000 00000000 		.space	236
 1426      00000000 
 1426      00000000 
 1426      00000000 
 1426      00000000 
 1427              		.section	.bss.myRPY,"aw",%nobits
 1428              		.align	2
 1429              		.set	.LANCHOR17,. + 0
 1432              	myRPY:
 1433 0000 00000000 		.space	40
 1433      00000000 
 1433      00000000 
 1433      00000000 
 1433      00000000 
 1434              		.section	.bss.mz,"aw",%nobits
 1435              		.align	2
 1436              		.set	.LANCHOR9,. + 0
 1439              	mz:
 1440 0000 00000000 		.space	4
 1441              		.section	.bss.offset_alt,"aw",%nobits
 1442              		.align	2
 1445              	offset_alt:
 1446 0000 00000000 		.space	4
 1447              		.section	.bss.pitch,"aw",%nobits
 1448              		.align	2
 1449              		.set	.LANCHOR25,. + 0
 1452              	pitch:
 1453 0000 00000000 		.space	4
 1454              		.section	.bss.raw_pitch,"aw",%nobits
 1455              		.align	2
 1456              		.set	.LANCHOR19,. + 0
 1459              	raw_pitch:
 1460 0000 00000000 		.space	4
 1461              		.section	.bss.raw_roll,"aw",%nobits
 1462              		.align	2
 1463              		.set	.LANCHOR18,. + 0
 1466              	raw_roll:
 1467 0000 00000000 		.space	4
 1468              		.section	.bss.raw_yaw,"aw",%nobits
 1469              		.align	2
 1470              		.set	.LANCHOR20,. + 0
 1473              	raw_yaw:
ARM GAS  C:\Users\GUILLE~1\AppData\Local\Temp\cckPH0Lx.s 			page 32


 1474 0000 00000000 		.space	4
 1475              		.section	.bss.roll,"aw",%nobits
 1476              		.align	2
 1477              		.set	.LANCHOR24,. + 0
 1480              	roll:
 1481 0000 00000000 		.space	4
 1482              		.section	.bss.x,"aw",%nobits
 1483              		.align	2
 1484              		.set	.LANCHOR28,. + 0
 1487              	x:
 1488 0000 00000000 		.space	4
 1489              		.section	.bss.xp,"aw",%nobits
 1490              		.align	2
 1491              		.set	.LANCHOR14,. + 0
 1494              	xp:
 1495 0000 00000000 		.space	4
 1496              		.section	.bss.y,"aw",%nobits
 1497              		.align	2
 1498              		.set	.LANCHOR27,. + 0
 1501              	y:
 1502 0000 00000000 		.space	4
 1503              		.section	.bss.yaw,"aw",%nobits
 1504              		.align	2
 1505              		.set	.LANCHOR26,. + 0
 1508              	yaw:
 1509 0000 00000000 		.space	4
 1510              		.section	.bss.yp,"aw",%nobits
 1511              		.align	2
 1512              		.set	.LANCHOR15,. + 0
 1515              	yp:
 1516 0000 00000000 		.space	4
 1517              		.section	.bss.z,"aw",%nobits
 1518              		.align	2
 1519              		.set	.LANCHOR13,. + 0
 1522              	z:
 1523 0000 00000000 		.space	4
 1524              		.section	.bss.z_ant,"aw",%nobits
 1525              		.align	2
 1528              	z_ant:
 1529 0000 00000000 		.space	4
 1530              		.section	.bss.z_of,"aw",%nobits
 1531              		.align	2
 1532              		.set	.LANCHOR16,. + 0
 1535              	z_of:
 1536 0000 00000000 		.space	4
 1537              		.section	.data.Kdfilt,"aw"
 1538              		.align	2
 1541              	Kdfilt:
 1542 0000 0AD7233C 		.word	1008981770
 1543              		.text
 1544              	.Letext0:
 1545              		.file 2 "c:\\program files (x86)\\gnu arm embedded toolchain\\10 2020-q4-major\\arm-none-eabi\\inc
 1546              		.file 3 "c:\\program files (x86)\\gnu arm embedded toolchain\\10 2020-q4-major\\arm-none-eabi\\inc
 1547              		.file 4 "Drivers/CMSIS/DSP/Include/arm_math.h"
 1548              		.file 5 "Core/drogui/include/filter.h"
 1549              		.file 6 "Core/drogui/include/ICM20948.h"
 1550              		.file 7 "Core/drogui/include/utils.h"
ARM GAS  C:\Users\GUILLE~1\AppData\Local\Temp\cckPH0Lx.s 			page 33


 1551              		.file 8 "Core/drogui/include/BMP388.h"
 1552              		.file 9 "Core/drogui/include/sensorsTasks.h"
 1553              		.file 10 "Core/drogui/include/mahony.h"
 1554              		.file 11 "Core/drogui/include/serial.h"
 1555              		.file 12 "Core/drogui/include/M8Q.h"
 1556              		.file 13 "Core/drogui/include/opticalFlow.h"
 1557              		.file 14 "Core/drogui/include/kalman.h"
 1558              		.file 15 "Core/drogui/include/task.h"
ARM GAS  C:\Users\GUILLE~1\AppData\Local\Temp\cckPH0Lx.s 			page 34

